 binding

 Timestamp is 5ab51caf (Fri Mar 23 16:26:39 2018)

 Preferred load address is 10000000

 Start         Length     Name                   Class
 0001:00000000 00000130H .text$di                CODE
 0001:00000130 00041cc0H .text$mn                CODE
 0001:00041df0 00005f40H .text$x                 CODE
 0001:00047d30 000003abH .text$yd                CODE
 0002:00000000 000003d4H .idata$5                DATA
 0002:000003d4 00000004H .00cfg                  DATA
 0002:000003d8 00000004H .CRT$XCA                DATA
 0002:000003dc 00000004H .CRT$XCL                DATA
 0002:000003e0 0000003cH .CRT$XCU                DATA
 0002:0000041c 00000004H .CRT$XCZ                DATA
 0002:00000420 00000004H .CRT$XIA                DATA
 0002:00000424 00000004H .CRT$XIC                DATA
 0002:00000428 00000004H .CRT$XIYB               DATA
 0002:0000042c 00000004H .CRT$XIZ                DATA
 0002:00000430 00000004H .CRT$XLA                DATA
 0002:00000434 00000004H .CRT$XLZ                DATA
 0002:00000438 00000004H .CRT$XPA                DATA
 0002:0000043c 00000004H .CRT$XPZ                DATA
 0002:00000440 00000004H .CRT$XTA                DATA
 0002:00000444 0000000cH .CRT$XTZ                DATA
 0002:00000450 00002ea4H .rdata                  DATA
 0002:000032f4 00000018H .rdata$T                DATA
 0002:0000330c 000002a4H .rdata$r                DATA
 0002:000035b0 00000628H .rdata$sxdata           DATA
 0002:00003bd8 00000440H .rdata$zzzdbg           DATA
 0002:00004018 00000004H .rtc$IAA                DATA
 0002:0000401c 00000004H .rtc$IZZ                DATA
 0002:00004020 00000004H .rtc$TAA                DATA
 0002:00004024 00000004H .rtc$TZZ                DATA
 0002:00004028 00008b58H .xdata$x                DATA
 0002:0000cb80 00000054H .edata                  DATA
 0002:0000cbd4 000000f0H .idata$2                DATA
 0002:0000ccc4 00000014H .idata$3                DATA
 0002:0000ccd8 000003d4H .idata$4                DATA
 0002:0000d0ac 00002c0eH .idata$6                DATA
 0003:00000000 000012f8H .data                   DATA
 0003:000012f8 000017c0H .data$r                 DATA
 0003:00002ab8 00000458H .bss                    DATA
 0004:00000000 00000004H minATL$__a              DATA
 0004:00000004 00000004H minATL$__m              DATA
 0004:00000008 00000004H minATL$__z              DATA
 0005:00000000 000000c4H .gfids$y                DATA
 0006:00000000 00000004H .tls                    DATA
 0006:00000004 00000004H .tls$                   DATA
 0006:00000008 00000001H .tls$ZZZ                DATA
 0007:00000000 00000060H .rsrc$01                DATA
 0007:00000060 00000180H .rsrc$02                DATA

  Address         Publics by Value              Rva+Base       Lib:Object

 0000:00000000       ___guard_longjmp_count     00000000     <absolute>
 0000:00000000       ___guard_longjmp_table     00000000     <absolute>
 0000:00000000       ___guard_iat_table         00000000     <absolute>
 0000:00000000       ___guard_iat_count         00000000     <absolute>
 0000:00000000       ___dynamic_value_reloc_table 00000000     <absolute>
 0000:00000000       ___guard_fids_table        00000000     <absolute>
 0000:00000000       ___guard_fids_count        00000000     <absolute>
 0000:0000002c       __tls_array                0000002c     <absolute>
 0000:00000100       ___guard_flags             00000100     <absolute>
 0000:0000018a       ___safe_se_handler_count   0000018a     <absolute>
 0000:00000000       ___ImageBase               10000000     <linker-defined>
 0001:00000130       ?__abi_winrt_ptr_ctor@@YAPAXQ$ADVObject@Platform@@@Z 10001130 f i _nodert_generated.obj
 0001:00000150       ?__abi_winrt_ptr_dtor@@YAXQ$ADVObject@Platform@@@Z 10001150 f i _nodert_generated.obj
 0001:00000160       ?__abi_winrt_ptr_assign@@YAPAXPAPAXP$ADVObject@Platform@@@Z 10001160 f i _nodert_generated.obj
 0001:00000190       ?__abi_winrt_ptrto_string_dtor@@YAXQ$ADVString@Platform@@@Z 10001190 f i _nodert_generated.obj
 0001:000001a0       ?__abi_dtor@__abi_FTMWeakRefData@@QAEXXZ 100011a0 f i _nodert_generated.obj
 0001:00000220       ?Increment@__abi_FTMWeakRefData@@QCGKXZ 10001220 f i _nodert_generated.obj
 0001:00000240       ??_G__abi_CaptureBase@Details@Platform@@MAEPAXI@Z 10001240 f i _nodert_generated.obj
 0001:00000240       ??_E__abi_CaptureBase@Details@Platform@@MAEPAXI@Z 10001240 f i * CIL library *:* CIL module *
 0001:00000270       ??1__abi_CapturePtr@Details@Platform@@QAE@XZ 10001270 f i _nodert_generated.obj
 0001:000002c0       ?__abi_WinRTraiseException@@YGXJ@Z 100012c0 f i _nodert_generated.obj
 0001:000003a0       ?__abi_winrt_ptrto_string_ctor@@YAPAXP$ADVString@Platform@@@Z 100013a0 f i _nodert_generated.obj
 0001:000003d0       ?__abi_winrt_ptrto_string_assign@@YAPAXPAPAXP$ADVString@Platform@@@Z 100013d0 f i _nodert_generated.obj
 0001:00000420       ?Equals@Guid@Platform@@QAA_NABU_GUID@@@Z 10001420 f i _nodert_generated.obj
 0001:00000450       @_guard_check_icall_nop@4  10001450 f i MSVCRT:guard_support.obj
 0001:00000450       ?_Doraise@exception@stdext@@MBEXXZ 10001450 f i _nodert_generated.obj
 0001:00000450       ?PlacementFree@Heap@Details@Platform@@SAXPAX0@Z 10001450 f i _nodert_generated.obj
 0001:00000450       ??3@YAXPAX0@Z              10001450 f i _nodert_generated.obj
 0001:00000460       ?__abi_QueryInterface@__abi_FTMWeakRefData@@QAGJAAVGuid@Platform@@PAPAX@Z 10001460 f i _nodert_generated.obj
 0001:000004f0       ??0String@Platform@@Q$AAA@PB_W@Z 100014f0 f i _nodert_generated.obj
 0001:00000530       ?what@exception@stdext@@UBEPBDXZ 10001530 f i _nodert_generated.obj
 0001:00000540       ?_Raise@exception@stdext@@QBEXXZ 10001540 f i _nodert_generated.obj
 0001:00000570       ??_Einvalid_operation@Concurrency@@UAEPAXI@Z 10001570 f i * CIL library *:* CIL module *
 0001:00000570       ??_Gruntime_error@std@@UAEPAXI@Z 10001570 f i _nodert_generated.obj
 0001:00000570       ??_Gexception@stdext@@UAEPAXI@Z 10001570 f i _nodert_generated.obj
 0001:00000570       ??_Etask_canceled@Concurrency@@UAEPAXI@Z 10001570 f i * CIL library *:* CIL module *
 0001:00000570       ??_Eexception@stdext@@UAEPAXI@Z 10001570 f i * CIL library *:* CIL module *
 0001:00000570       ??_Ginvalid_operation@Concurrency@@UAEPAXI@Z 10001570 f i _nodert_generated.obj
 0001:00000570       ??_Eruntime_error@std@@UAEPAXI@Z 10001570 f i * CIL library *:* CIL module *
 0001:00000570       ??_Gtask_canceled@Concurrency@@UAEPAXI@Z 10001570 f i _nodert_generated.obj
 0001:000005a0       ??1exception_ptr@std@@QAE@XZ 100015a0 f i _nodert_generated.obj
 0001:000005b0       ?_Current_exception@exception_ptr@std@@SA?AV12@XZ 100015b0 f i _nodert_generated.obj
 0001:000005d0       ?_Copy_exception@exception_ptr@std@@SA?AV12@PAXPBX@Z 100015d0 f i _nodert_generated.obj
 0001:00000660       ?current_exception@std@@YA?AVexception_ptr@1@XZ 10001660 f i _nodert_generated.obj
 0001:00000670       ??1_Ref_count_base@std@@UAE@XZ 10001670 f i _nodert_generated.obj
 0001:00000680       ?_Get_deleter@_Ref_count_base@std@@UBEPAXABVtype_info@@@Z 10001680 f i _nodert_generated.obj
 0001:00000690       ??_G_Ref_count_base@std@@UAEPAXI@Z 10001690 f i _nodert_generated.obj
 0001:00000690       ??_E_Ref_count_base@std@@UAEPAXI@Z 10001690 f i * CIL library *:* CIL module *
 0001:000006c0       ?_Doraise@runtime_error@std@@MBEXXZ 100016c0 f i _nodert_generated.obj
 0001:000006e0       ??1task_canceled@Concurrency@@UAE@XZ 100016e0 f i _nodert_generated.obj
 0001:000006e0       ??1runtime_error@std@@UAE@XZ 100016e0 f i _nodert_generated.obj
 0001:000006e0       ??1invalid_operation@Concurrency@@UAE@XZ 100016e0 f i _nodert_generated.obj
 0001:00000920       ?Equals@Nan@@YA?AV?$Maybe@_N@v8@@V?$Local@VValue@v8@@@3@0@Z 10001920 f i _nodert_generated.obj
 0001:000009a0       ?NewInstance@Nan@@YA?AV?$MaybeLocal@VObject@v8@@@v8@@V?$Local@VFunction@v8@@@3@HQAV?$Local@VValue@v8@@@3@@Z 100019a0 f i _nodert_generated.obj
 0001:00000a40       ?NewInstance@Nan@@YA?AV?$MaybeLocal@VObject@v8@@@v8@@V?$Local@VObjectTemplate@v8@@@3@@Z 10001a40 f i _nodert_generated.obj
 0001:00000ad0       ?GetFunction@Nan@@YA?AV?$MaybeLocal@VFunction@v8@@@v8@@V?$Local@VFunctionTemplate@v8@@@3@@Z 10001ad0 f i _nodert_generated.obj
 0001:00000b60       ?Set@Nan@@YA?AV?$Maybe@_N@v8@@V?$Local@VObject@v8@@@3@V?$Local@VValue@v8@@@3@1@Z 10001b60 f i _nodert_generated.obj
 0001:00000be0       ?Get@Nan@@YA?AV?$MaybeLocal@VValue@v8@@@v8@@V?$Local@VObject@v8@@@3@V?$Local@VValue@v8@@@3@@Z 10001be0 f i _nodert_generated.obj
 0001:00000c70       ?Delete@Nan@@YA?AV?$Maybe@_N@v8@@V?$Local@VObject@v8@@@3@V?$Local@VString@v8@@@3@@Z 10001c70 f i _nodert_generated.obj
 0001:00000d00       ?SetPrototype@Nan@@YA?AV?$Maybe@_N@v8@@V?$Local@VObject@v8@@@3@V?$Local@VValue@v8@@@3@@Z 10001d00 f i _nodert_generated.obj
 0001:00000d80       ?convert@?$ToFactory@VString@v8@@@imp@Nan@@SA?AV?$MaybeLocal@VString@v8@@@v8@@V?$Local@VValue@v8@@@5@@Z 10001d80 f i _nodert_generated.obj
 0001:00000e10       ?convert@?$ToFactory@VObject@v8@@@imp@Nan@@SA?AV?$MaybeLocal@VObject@v8@@@v8@@V?$Local@VValue@v8@@@5@@Z 10001e10 f i _nodert_generated.obj
 0001:00000ea0       ?convert@?$ToFactory@VInteger@v8@@@imp@Nan@@SA?AV?$MaybeLocal@VInteger@v8@@@v8@@V?$Local@VValue@v8@@@5@@Z 10001ea0 f i _nodert_generated.obj
 0001:00000f30       ?convert@?$ToFactory@_N@imp@Nan@@SA?AV?$Maybe@_N@v8@@V?$Local@VValue@v8@@@5@@Z 10001f30 f i _nodert_generated.obj
 0001:00000fc0       ?convert@?$ToFactory@_J@imp@Nan@@SA?AV?$Maybe@_J@v8@@V?$Local@VValue@v8@@@5@@Z 10001fc0 f i _nodert_generated.obj
 0001:00001040       ?convert@?$ToFactory@I@imp@Nan@@SA?AV?$Maybe@I@v8@@V?$Local@VValue@v8@@@5@@Z 10002040 f i _nodert_generated.obj
 0001:000010c0       ?convert@?$ToFactory@H@imp@Nan@@SA?AV?$Maybe@H@v8@@V?$Local@VValue@v8@@@5@@Z 100020c0 f i _nodert_generated.obj
 0001:00001140       ?New@?$Factory@VFunctionTemplate@v8@@@imp@Nan@@SA?AV?$Local@VFunctionTemplate@v8@@@v8@@P6AXABV?$FunctionCallbackInfo@VValue@v8@@@3@@ZV?$Local@VValue@v8@@@5@V?$Local@VSignature@v8@@@5@@Z 10002140 f i _nodert_generated.obj
 0001:00001280       ??1EscapableHandleScope@Nan@@QAE@XZ 10002280 f i _nodert_generated.obj
 0001:00001280       ??1HandleScope@Nan@@QAE@XZ 10002280 f i _nodert_generated.obj
 0001:00001290       ?ThrowError@Nan@@YAXV?$Local@VValue@v8@@@v8@@@Z 10002290 f i _nodert_generated.obj
 0001:000012b0       ?SetPrototypeMethod@Nan@@YAXV?$Local@VFunctionTemplate@v8@@@v8@@PBDP6AXABV?$FunctionCallbackInfo@VValue@v8@@@1@@Z@Z 100022b0 f i _nodert_generated.obj
 0001:00001390       ?SetAccessor@Nan@@YAXV?$Local@VObjectTemplate@v8@@@v8@@V?$Local@VString@v8@@@3@P6AX1ABV?$PropertyCallbackInfo@VValue@v8@@@1@@ZP6AX1V?$Local@VValue@v8@@@3@ABV?$PropertyCallbackInfo@X@1@@Z4W4AccessControl@3@W4PropertyAttribute@3@V?$Local@VAccessorSignature@v8@@@3@@Z 10002390 f i _nodert_generated.obj
 0001:000014c0       ?SetAccessor@Nan@@YA_NV?$Local@VObject@v8@@@v8@@V?$Local@VString@v8@@@3@P6AX1ABV?$PropertyCallbackInfo@VValue@v8@@@1@@ZP6AX1V?$Local@VValue@v8@@@3@ABV?$PropertyCallbackInfo@X@1@@Z4W4AccessControl@3@W4PropertyAttribute@3@@Z 100024c0 f i _nodert_generated.obj
 0001:000015d0       ?SetIndexedPropertyHandler@Nan@@YAXV?$Local@VObjectTemplate@v8@@@v8@@P6AXIABV?$PropertyCallbackInfo@VValue@v8@@@1@@ZP6AXIV?$Local@VValue@v8@@@3@1@ZP6AXIABV?$PropertyCallbackInfo@VInteger@v8@@@1@@ZP6AXIABV?$PropertyCallbackInfo@VBoolean@v8@@@1@@ZP6AXABV?$PropertyCallbackInfo@VArray@v8@@@1@@Z3@Z 100025d0 f i _nodert_generated.obj
 0001:000016f0       ??1ObjectWrap@Nan@@UAE@XZ  100026f0 f i _nodert_generated.obj
 0001:000017a0       ?Wrap@ObjectWrap@Nan@@IAEXV?$Local@VObject@v8@@@v8@@@Z 100027a0 f i _nodert_generated.obj
 0001:00001850       ?Ref@ObjectWrap@Nan@@MAEXXZ 10002850 f i _nodert_generated.obj
 0001:00001880       ?Unref@ObjectWrap@Nan@@MAEXXZ 10002880 f i _nodert_generated.obj
 0001:00001910       ?WeakCallback@ObjectWrap@Nan@@CAXABV?$WeakCallbackInfo@VObjectWrap@Nan@@@v8@@@Z 10002910 f i _nodert_generated.obj
 0001:00001980       ??_GObjectWrap@Nan@@UAEPAXI@Z 10002980 f i _nodert_generated.obj
 0001:00001980       ??_EObjectWrap@Nan@@UAEPAXI@Z 10002980 f i * CIL library *:* CIL module *
 0001:000019a0       ?_Atomic_compare_exchange_strong_4@std@@YAHPCKPAKKW4memory_order@1@2@Z 100029a0 f i _nodert_generated.obj
 0001:00001a10       ?_Callback@_PPLTaskChore@_DefaultPPLTaskScheduler@details@Concurrency@@CAXPAX@Z 10002a10 f i _nodert_generated.obj
 0001:00001a80       ?schedule@_DefaultPPLTaskScheduler@details@Concurrency@@UAEXP6AXPAX@Z0@Z 10002a80 f i _nodert_generated.obj
 0001:00001b30       ?_GetStaticAmbientSchedulerRef@details@Concurrency@@YAAAV?$shared_ptr@Uscheduler_interface@Concurrency@@@std@@XZ 10002b30 f i _nodert_generated.obj
 0001:00001ba0       ?_Destroy@_RefCounter@details@Concurrency@@MAEXXZ 10002ba0 f i _nodert_generated.obj
 0001:00001bb0       ??_G_RefCounter@details@Concurrency@@UAEPAXI@Z 10002bb0 f i _nodert_generated.obj
 0001:00001bb0       ??_E_RefCounter@details@Concurrency@@UAEPAXI@Z 10002bb0 f i * CIL library *:* CIL module *
 0001:00001be0       ?_Invoke@_CancellationTokenRegistration@details@Concurrency@@AAEXXZ 10002be0 f i _nodert_generated.obj
 0001:00001cb0       ??_E_CancellationTokenRegistration@details@Concurrency@@MAEPAXI@Z 10002cb0 f i * CIL library *:* CIL module *
 0001:00001cb0       ??_G_CancellationTokenRegistration@details@Concurrency@@MAEPAXI@Z 10002cb0 f i _nodert_generated.obj
 0001:00001cf0       ?remove@TokenRegistrationContainer@_CancellationTokenState@details@Concurrency@@QAEXPAV_CancellationTokenRegistration@34@@Z 10002cf0 f i _nodert_generated.obj
 0001:00001d40       ?_RegisterCallback@_CancellationTokenState@details@Concurrency@@QAEXPAV_CancellationTokenRegistration@23@@Z 10002d40 f i _nodert_generated.obj
 0001:00001e30       ?_DeregisterCallback@_CancellationTokenState@details@Concurrency@@QAEXPAV_CancellationTokenRegistration@23@@Z 10002e30 f i _nodert_generated.obj
 0001:00001fb0       ?none@cancellation_token@Concurrency@@SA?AV12@XZ 10002fb0 f i _nodert_generated.obj
 0001:00001fd0       ??1cancellation_token@Concurrency@@QAE@XZ 10002fd0 f i _nodert_generated.obj
 0001:00002040       ??1_TaskProcHandle@details@Concurrency@@UAE@XZ 10003040 f i _nodert_generated.obj
 0001:00002050       ?_RunChoreBridge@_TaskProcHandle@details@Concurrency@@SAXPAX@Z 10003050 f i _nodert_generated.obj
 0001:000020a0       ??_G_TaskProcHandle@details@Concurrency@@UAEPAXI@Z 100030a0 f i _nodert_generated.obj
 0001:000020a0       ??_E_TaskProcHandle@details@Concurrency@@UAEPAXI@Z 100030a0 f i * CIL library *:* CIL module *
 0001:000020d0       ?WaitUntilStateChangedTo@_TaskCollectionBaseImpl@details@Concurrency@@IAEXW4_TaskCollectionState@123@@Z 100030d0 f i _nodert_generated.obj
 0001:00002180       ??0_TaskCollectionBaseImpl@details@Concurrency@@QAE@Uscheduler_ptr@2@@Z 10003180 f i _nodert_generated.obj
 0001:00002250       ?_ScheduleTask@_TaskCollectionBaseImpl@details@Concurrency@@QAEXPAU_TaskProcHandle@23@W4_TaskInliningMode@23@@Z 10003250 f i _nodert_generated.obj
 0001:000022f0       ?_Complete@_TaskCollectionBaseImpl@details@Concurrency@@QAEXXZ 100032f0 f i _nodert_generated.obj
 0001:00002350       ?_GetScheduler@_TaskCollectionBaseImpl@details@Concurrency@@QBE?AUscheduler_ptr@3@XZ 10003350 f i _nodert_generated.obj
 0001:000023c0       ?_RunTask@_TaskCollectionBaseImpl@details@Concurrency@@SAXP6AXPAX@Z0W4_TaskInliningMode@23@@Z 100033c0 f i _nodert_generated.obj
 0001:00002470       ??1?$task@W4DeviceAccessStatus@Enumeration@Devices@Windows@@@Concurrency@@QAE@XZ 10003470 f i _nodert_generated.obj
 0001:00002470       ??1?$task@X@Concurrency@@QAE@XZ 10003470 f i _nodert_generated.obj
 0001:00002470       ??1?$task@P$AAVRfcommDeviceServicesResult@Rfcomm@Bluetooth@Devices@Windows@@@Concurrency@@QAE@XZ 10003470 f i _nodert_generated.obj
 0001:00002470       ??1?$task@P$AAVGattDeviceServicesResult@GenericAttributeProfile@Bluetooth@Devices@Windows@@@Concurrency@@QAE@XZ 10003470 f i _nodert_generated.obj
 0001:00002470       ??1scheduler_ptr@Concurrency@@QAE@XZ 10003470 f i _nodert_generated.obj
 0001:00002470       ??1?$task@P$AAVBluetoothDevice@Bluetooth@Devices@Windows@@@Concurrency@@QAE@XZ 10003470 f i _nodert_generated.obj
 0001:00002470       ??1?$task@P$AAVBluetoothLEDevice@Bluetooth@Devices@Windows@@@Concurrency@@QAE@XZ 10003470 f i _nodert_generated.obj
 0001:00002470       ??1?$task@P$AAVRadio@Radios@Devices@Windows@@@Concurrency@@QAE@XZ 10003470 f i _nodert_generated.obj
 0001:00002470       ??1?$task@P$AAVBluetoothAdapter@Bluetooth@Devices@Windows@@@Concurrency@@QAE@XZ 10003470 f i _nodert_generated.obj
 0001:000024d0       ??0scheduler_ptr@Concurrency@@QAE@ABU01@@Z 100034d0 f i _nodert_generated.obj
 0001:00002570       ?_NoCallOnDefaultTask_ErrorImpl@_DefaultTaskHelper@details@Concurrency@@SAXXZ 10003570 f i _nodert_generated.obj
 0001:000025c0       ?_CaptureSingleFrameCallstack@_TaskCreationCallstack@details@Concurrency@@SA?AV123@PAX@Z 100035c0 f i _nodert_generated.obj
 0001:000025e0       ??1_TaskCreationCallstack@details@Concurrency@@QAE@XZ 100035e0 f i _nodert_generated.obj
 0001:00002610       ?_Bridge@_TaskProcThunk@details@Concurrency@@SAXPAX@Z 10003610 f i _nodert_generated.obj
 0001:00002690       ??1_Holder@_TaskProcThunk@details@Concurrency@@QAE@XZ 10003690 f i _nodert_generated.obj
 0001:00002790       ?_CaptureCurrent@_ContextCallback@details@Concurrency@@SA?AV123@XZ 10003790 f i _nodert_generated.obj
 0001:000027f0       ??1_ContextCallback@details@Concurrency@@QAE@XZ 100037f0 f i _nodert_generated.obj
 0001:00002830       ?_CallInContext@_ContextCallback@details@Concurrency@@QBEXV?$function@$$A6AXXZ@std@@@Z 10003830 f i _nodert_generated.obj
 0001:000028c0       ??1_ExceptionHolder@details@Concurrency@@QAE@XZ 100038c0 f i _nodert_generated.obj
 0001:00002940       ?_RethrowUserException@_ExceptionHolder@details@Concurrency@@QAEXXZ 10003940 f i _nodert_generated.obj
 0001:000029a0       ?use_default@task_continuation_context@Concurrency@@SA?AV12@XZ 100039a0 f i _nodert_generated.obj
 0001:000029c0       ??1task_continuation_context@Concurrency@@QAE@XZ 100039c0 f i _nodert_generated.obj
 0001:00002a00       ??0task_options@Concurrency@@QAE@XZ 10003a00 f i _nodert_generated.obj
 0001:00002aa0       ?get_cancellation_token@task_options@Concurrency@@QBE?AVcancellation_token@2@XZ 10003aa0 f i _nodert_generated.obj
 0001:00002ac0       ?get_continuation_context@task_options@Concurrency@@QBE?AVtask_continuation_context@2@XZ 10003ac0 f i _nodert_generated.obj
 0001:00002af0       ?get_scheduler@task_options@Concurrency@@QBE?AUscheduler_ptr@2@XZ 10003af0 f i _nodert_generated.obj
 0001:00002b60       ??1_Internal_task_options@details@Concurrency@@QAE@XZ 10003b60 f i _nodert_generated.obj
 0001:00002b90       ??0_ThenImplOptions@details@Concurrency@@QAE@PAV_CancellationTokenState@12@PBVtask_continuation_context@2@Uscheduler_ptr@2@V_TaskCreationCallstack@12@W4_TaskInliningMode@12@@Z 10003b90 f i _nodert_generated.obj
 0001:00002cb0       ?_CreateOptions@_ThenImplOptions@details@Concurrency@@SA?AU123@ABVtask_options@3@ABVtask_continuation_context@3@ABUscheduler_ptr@3@@Z 10003cb0 f i _nodert_generated.obj
 0001:00003000       ??1_ThenImplOptions@details@Concurrency@@QAE@XZ 10004000 f i _nodert_generated.obj
 0001:00003090       ??_G_ContinuationTaskHandleBase@details@Concurrency@@UAEPAXI@Z 10004090 f i _nodert_generated.obj
 0001:00003090       ??_E_ContinuationTaskHandleBase@details@Concurrency@@UAEPAXI@Z 10004090 f i * CIL library *:* CIL module *
 0001:00003100       ??1_TaskWorkItemRAIILogger@details@Concurrency@@QAE@XZ 10004100 f i _nodert_generated.obj
 0001:00003140       ??0_Task_impl_base@details@Concurrency@@QAE@PAV_CancellationTokenState@12@Uscheduler_ptr@2@@Z 10004140 f i _nodert_generated.obj
 0001:00003270       ??1_Task_impl_base@details@Concurrency@@UAE@XZ 10004270 f i _nodert_generated.obj
 0001:00003380       ?_Wait@_Task_impl_base@details@Concurrency@@QAE?AW4task_group_status@3@XZ 10004380 f i _nodert_generated.obj
 0001:00003430       ?_CancelWithException@_Task_impl_base@details@Concurrency@@QAE_NABVexception_ptr@std@@@Z 10004430 f i _nodert_generated.obj
 0001:000034f0       ?_RegisterCancellation@_Task_impl_base@details@Concurrency@@QAEXV?$weak_ptr@U_Task_impl_base@details@Concurrency@@@std@@@Z 100044f0 f i _nodert_generated.obj
 0001:000035b0       ?_GetTaskCreationCallstack@_Task_impl_base@details@Concurrency@@QAE?AV_TaskCreationCallstack@23@XZ 100045b0 f i _nodert_generated.obj
 0001:000035e0       ?_ScheduleContinuationTask@_Task_impl_base@details@Concurrency@@QAEXPAU_ContinuationTaskHandleBase@23@@Z 100045e0 f i _nodert_generated.obj
 0001:00003850       ?_ScheduleContinuation@_Task_impl_base@details@Concurrency@@QAEXPAU_ContinuationTaskHandleBase@23@@Z 10004850 f i _nodert_generated.obj
 0001:00003a40       ?_RunTaskContinuations@_Task_impl_base@details@Concurrency@@QAEXXZ 10004a40 f i _nodert_generated.obj
 0001:00003d60       ?_GetScheduler@_Task_impl_base@details@Concurrency@@QBE?AUscheduler_ptr@3@XZ 10004d60 f i _nodert_generated.obj
 0001:00003d80       ??_E_Task_impl_base@details@Concurrency@@UAEPAXI@Z 10004d80 f i * CIL library *:* CIL module *
 0001:00003d80       ??_G_Task_impl_base@details@Concurrency@@UAEPAXI@Z 10004d80 f i _nodert_generated.obj
 0001:00003e00       ?_CreateImpl@?$task@X@Concurrency@@QAEXPAV_CancellationTokenState@details@2@Uscheduler_ptr@2@@Z 10004e00 f i _nodert_generated.obj
 0001:00003ee0       ??1task_options@Concurrency@@QAE@XZ 10004ee0 f i _nodert_generated.obj
 0001:00003fd0       ?IsOpaqueWrapper@OpaqueWrapper@NodeRT@@SA_NV?$Local@VValue@v8@@@v8@@@Z 10004fd0 f i _nodert_generated.obj
 0001:00004080       ??1WrapperBase@NodeRT@@UAE@XZ 10005080 f i _nodert_generated.obj
 0001:00004090       ?NewAsyncToken@TokenData@Async@NodeUtils@@SAPAUuv_async_s@@V?$Local@VFunction@v8@@@v8@@V?$Local@VValue@v8@@@6@@Z 10005090 f i _nodert_generated.obj
 0001:00004130       ?RunOnMain@Async@NodeUtils@@SAXV?$function@$$A6AXXZ@std@@@Z 10005130 f i _nodert_generated.obj
 0001:00004230       ?RunCallbackOnMain@Async@NodeUtils@@SAXPAUuv_async_s@@V?$function@$$A6AXV?$function@$$A6AXHPAV?$Local@VValue@v8@@@v8@@@Z@std@@@Z@std@@@Z 10005230 f i _nodert_generated.obj
 0001:00004510       ?CreateCallbackData@Async@NodeUtils@@CA?AV?$Local@VObject@v8@@@v8@@V?$Local@VFunction@v8@@@4@V?$Local@VValue@v8@@@4@@Z 10005510 f i _nodert_generated.obj
 0001:00004730       ?AyncCloseCb@Async@NodeUtils@@CAXPAUuv_handle_s@@@Z 10005730 f i _nodert_generated.obj
 0001:00004750       ?AsyncCb@Async@NodeUtils@@CAXPAUuv_async_s@@@Z 10005750 f i _nodert_generated.obj
 0001:00004790       ??_GTokenData@Async@NodeUtils@@UAEPAXI@Z 10005790 f i _nodert_generated.obj
 0001:00004790       ??_ETokenData@Async@NodeUtils@@UAEPAXI@Z 10005790 f i * CIL library *:* CIL module *
 0001:000048a0       ?MakeSDAbsolute@@YAKPAXPAPAX@Z 100058a0 f   _nodert_generated.obj
 0001:000078a0       ?Init@BluetoothAdapter@Bluetooth@Devices@Windows@NodeRT@@SAXV?$Local@VObject@v8@@@v8@@@Z 100088a0 f i _nodert_generated.obj
 0001:00007d10       ?GetObjectInstance@?$VectorViewWrapper@P$AAUIBuffer@Streams@Storage@Windows@@@Collections@NodeRT@@UBEP$AAVObject@Platform@@XZ 10008d10 f i _nodert_generated.obj
 0001:00007d10       ?GetObjectInstance@BluetoothDeviceId@Bluetooth@Devices@Windows@NodeRT@@UBEP$AAVObject@Platform@@XZ 10008d10 f i _nodert_generated.obj
 0001:00007d10       ?GetObjectInstance@BluetoothAdapter@Bluetooth@Devices@Windows@NodeRT@@UBEP$AAVObject@Platform@@XZ 10008d10 f i _nodert_generated.obj
 0001:00007d10       ?GetObjectInstance@BluetoothLEAppearanceCategories@Bluetooth@Devices@Windows@NodeRT@@UBEP$AAVObject@Platform@@XZ 10008d10 f i _nodert_generated.obj
 0001:00007d10       ?GetObjectInstance@OpaqueWrapper@NodeRT@@UBEP$AAVObject@Platform@@XZ 10008d10 f i OpaqueWrapper.obj
 0001:00007d10       ?GetObjectInstance@BluetoothUuidHelper@Bluetooth@Devices@Windows@NodeRT@@UBEP$AAVObject@Platform@@XZ 10008d10 f i _nodert_generated.obj
 0001:00007d10       ?GetObjectInstance@BluetoothLEAppearance@Bluetooth@Devices@Windows@NodeRT@@UBEP$AAVObject@Platform@@XZ 10008d10 f i _nodert_generated.obj
 0001:00007d10       ?GetObjectInstance@BluetoothSignalStrengthFilter@Bluetooth@Devices@Windows@NodeRT@@UBEP$AAVObject@Platform@@XZ 10008d10 f i _nodert_generated.obj
 0001:00007d10       ?GetObjectInstance@?$VectorViewWrapper@P$AAVRfcommDeviceService@Rfcomm@Bluetooth@Devices@Windows@@@Collections@NodeRT@@UBEP$AAVObject@Platform@@XZ 10008d10 f i _nodert_generated.obj
 0001:00007d10       ?GetObjectInstance@BluetoothLEDevice@Bluetooth@Devices@Windows@NodeRT@@UBEP$AAVObject@Platform@@XZ 10008d10 f i _nodert_generated.obj
 0001:00007d10       ?GetObjectInstance@?$VectorViewWrapper@P$AAVGattDeviceService@GenericAttributeProfile@Bluetooth@Devices@Windows@@@Collections@NodeRT@@UBEP$AAVObject@Platform@@XZ 10008d10 f i _nodert_generated.obj
 0001:00007d10       ?GetObjectInstance@?$IteratorWrapper@P$AAVGattDeviceService@GenericAttributeProfile@Bluetooth@Devices@Windows@@@Collections@NodeRT@@UBEP$AAVObject@Platform@@XZ 10008d10 f i _nodert_generated.obj
 0001:00007d10       ?GetObjectInstance@?$IteratorWrapper@P$AAVRfcommDeviceService@Rfcomm@Bluetooth@Devices@Windows@@@Collections@NodeRT@@UBEP$AAVObject@Platform@@XZ 10008d10 f i _nodert_generated.obj
 0001:00007d10       ?GetObjectInstance@?$IteratorWrapper@P$AAUIBuffer@Streams@Storage@Windows@@@Collections@NodeRT@@UBEP$AAVObject@Platform@@XZ 10008d10 f i _nodert_generated.obj
 0001:00007d10       ?GetObjectInstance@BluetoothDevice@Bluetooth@Devices@Windows@NodeRT@@UBEP$AAVObject@Platform@@XZ 10008d10 f i _nodert_generated.obj
 0001:00007d10       ?GetObjectInstance@BluetoothLEAppearanceSubcategories@Bluetooth@Devices@Windows@NodeRT@@UBEP$AAVObject@Platform@@XZ 10008d10 f i _nodert_generated.obj
 0001:00007d10       ?GetObjectInstance@BluetoothClassOfDevice@Bluetooth@Devices@Windows@NodeRT@@UBEP$AAVObject@Platform@@XZ 10008d10 f i _nodert_generated.obj
 0001:00007d30       ??0BluetoothAdapter@Bluetooth@Devices@Windows@NodeRT@@AAE@P$AAV0123@@Z 10008d30 f i _nodert_generated.obj
 0001:00007dc0       ?New@BluetoothAdapter@Bluetooth@Devices@Windows@NodeRT@@CAXABV?$FunctionCallbackInfo@VValue@v8@@@Nan@@@Z 10008dc0 f i _nodert_generated.obj
 0001:00008180       ?CastFrom@BluetoothAdapter@Bluetooth@Devices@Windows@NodeRT@@CAXABV?$FunctionCallbackInfo@VValue@v8@@@Nan@@@Z 10009180 f i _nodert_generated.obj
 0001:00008340       ?GetRadioAsync@BluetoothAdapter@Bluetooth@Devices@Windows@NodeRT@@CAXABV?$FunctionCallbackInfo@VValue@v8@@@Nan@@@Z 10009340 f i _nodert_generated.obj
 0001:00008830       ?FromIdAsync@BluetoothAdapter@Bluetooth@Devices@Windows@NodeRT@@CAXABV?$FunctionCallbackInfo@VValue@v8@@@Nan@@@Z 10009830 f i _nodert_generated.obj
 0001:00008cd0       ?GetDefaultAsync@BluetoothAdapter@Bluetooth@Devices@Windows@NodeRT@@CAXABV?$FunctionCallbackInfo@VValue@v8@@@Nan@@@Z 10009cd0 f i _nodert_generated.obj
 0001:00009050       ?GetDeviceSelector@BluetoothAdapter@Bluetooth@Devices@Windows@NodeRT@@CAXABV?$FunctionCallbackInfo@VValue@v8@@@Nan@@@Z 1000a050 f i _nodert_generated.obj
 0001:000091b0       ?BluetoothAddressGetter@BluetoothAdapter@Bluetooth@Devices@Windows@NodeRT@@CAXV?$Local@VString@v8@@@v8@@ABV?$PropertyCallbackInfo@VValue@v8@@@Nan@@@Z 1000a1b0 f i _nodert_generated.obj
 0001:000092a0       ?DeviceIdGetter@BluetoothAdapter@Bluetooth@Devices@Windows@NodeRT@@CAXV?$Local@VString@v8@@@v8@@ABV?$PropertyCallbackInfo@VValue@v8@@@Nan@@@Z 1000a2a0 f i _nodert_generated.obj
 0001:000093d0       ?IsAdvertisementOffloadSupportedGetter@BluetoothAdapter@Bluetooth@Devices@Windows@NodeRT@@CAXV?$Local@VString@v8@@@v8@@ABV?$PropertyCallbackInfo@VValue@v8@@@Nan@@@Z 1000a3d0 f i _nodert_generated.obj
 0001:000094b0       ?IsCentralRoleSupportedGetter@BluetoothAdapter@Bluetooth@Devices@Windows@NodeRT@@CAXV?$Local@VString@v8@@@v8@@ABV?$PropertyCallbackInfo@VValue@v8@@@Nan@@@Z 1000a4b0 f i _nodert_generated.obj
 0001:00009590       ?IsClassicSupportedGetter@BluetoothAdapter@Bluetooth@Devices@Windows@NodeRT@@CAXV?$Local@VString@v8@@@v8@@ABV?$PropertyCallbackInfo@VValue@v8@@@Nan@@@Z 1000a590 f i _nodert_generated.obj
 0001:00009670       ?IsLowEnergySupportedGetter@BluetoothAdapter@Bluetooth@Devices@Windows@NodeRT@@CAXV?$Local@VString@v8@@@v8@@ABV?$PropertyCallbackInfo@VValue@v8@@@Nan@@@Z 1000a670 f i _nodert_generated.obj
 0001:00009750       ?IsPeripheralRoleSupportedGetter@BluetoothAdapter@Bluetooth@Devices@Windows@NodeRT@@CAXV?$Local@VString@v8@@@v8@@ABV?$PropertyCallbackInfo@VValue@v8@@@Nan@@@Z 1000a750 f i _nodert_generated.obj
 0001:00009830       ??_EOpaqueWrapper@NodeRT@@UAEPAXI@Z 1000a830 f i * CIL library *:* CIL module *
 0001:00009830       ??_GBluetoothDeviceId@Bluetooth@Devices@Windows@NodeRT@@UAEPAXI@Z 1000a830 f i _nodert_generated.obj
 0001:00009830       ??_GBluetoothSignalStrengthFilter@Bluetooth@Devices@Windows@NodeRT@@UAEPAXI@Z 1000a830 f i _nodert_generated.obj
 0001:00009830       ??_EBluetoothLEAppearanceCategories@Bluetooth@Devices@Windows@NodeRT@@UAEPAXI@Z 1000a830 f i * CIL library *:* CIL module *
 0001:00009830       ??_EBluetoothDevice@Bluetooth@Devices@Windows@NodeRT@@UAEPAXI@Z 1000a830 f i * CIL library *:* CIL module *
 0001:00009830       ??_EBluetoothSignalStrengthFilter@Bluetooth@Devices@Windows@NodeRT@@UAEPAXI@Z 1000a830 f i * CIL library *:* CIL module *
 0001:00009830       ??_EBluetoothLEAppearanceSubcategories@Bluetooth@Devices@Windows@NodeRT@@UAEPAXI@Z 1000a830 f i * CIL library *:* CIL module *
 0001:00009830       ??_EBluetoothDeviceId@Bluetooth@Devices@Windows@NodeRT@@UAEPAXI@Z 1000a830 f i * CIL library *:* CIL module *
 0001:00009830       ??_GBluetoothClassOfDevice@Bluetooth@Devices@Windows@NodeRT@@UAEPAXI@Z 1000a830 f i _nodert_generated.obj
 0001:00009830       ??_GBluetoothUuidHelper@Bluetooth@Devices@Windows@NodeRT@@UAEPAXI@Z 1000a830 f i _nodert_generated.obj
 0001:00009830       ??_GBluetoothLEAppearance@Bluetooth@Devices@Windows@NodeRT@@UAEPAXI@Z 1000a830 f i _nodert_generated.obj
 0001:00009830       ??_EBluetoothUuidHelper@Bluetooth@Devices@Windows@NodeRT@@UAEPAXI@Z 1000a830 f i * CIL library *:* CIL module *
 0001:00009830       ??_GBluetoothDevice@Bluetooth@Devices@Windows@NodeRT@@UAEPAXI@Z 1000a830 f i _nodert_generated.obj
 0001:00009830       ??_EBluetoothLEAppearance@Bluetooth@Devices@Windows@NodeRT@@UAEPAXI@Z 1000a830 f i * CIL library *:* CIL module *
 0001:00009830       ??_GBluetoothLEDevice@Bluetooth@Devices@Windows@NodeRT@@UAEPAXI@Z 1000a830 f i _nodert_generated.obj
 0001:00009830       ??_GBluetoothAdapter@Bluetooth@Devices@Windows@NodeRT@@UAEPAXI@Z 1000a830 f i _nodert_generated.obj
 0001:00009830       ??_GOpaqueWrapper@NodeRT@@UAEPAXI@Z 1000a830 f i OpaqueWrapper.obj
 0001:00009830       ??_GBluetoothLEAppearanceCategories@Bluetooth@Devices@Windows@NodeRT@@UAEPAXI@Z 1000a830 f i _nodert_generated.obj
 0001:00009830       ??_EBluetoothClassOfDevice@Bluetooth@Devices@Windows@NodeRT@@UAEPAXI@Z 1000a830 f i * CIL library *:* CIL module *
 0001:00009830       ??_EBluetoothLEDevice@Bluetooth@Devices@Windows@NodeRT@@UAEPAXI@Z 1000a830 f i * CIL library *:* CIL module *
 0001:00009830       ??_GBluetoothLEAppearanceSubcategories@Bluetooth@Devices@Windows@NodeRT@@UAEPAXI@Z 1000a830 f i _nodert_generated.obj
 0001:00009830       ??_EBluetoothAdapter@Bluetooth@Devices@Windows@NodeRT@@UAEPAXI@Z 1000a830 f i * CIL library *:* CIL module *
 0001:000098a0       ??1TryCatch@Nan@@QAE@XZ    1000a8a0 f i _nodert_generated.obj
 0001:000098b0       ?WrapBluetoothAdapter@Bluetooth@Devices@Windows@NodeRT@@YA?AV?$Local@VValue@v8@@@v8@@P$AAVBluetoothAdapter@123@@Z 1000a8b0 f   _nodert_generated.obj
 0001:000099a0       ?Init@BluetoothDeviceId@Bluetooth@Devices@Windows@NodeRT@@SAXV?$Local@VObject@v8@@@v8@@@Z 1000a9a0 f i _nodert_generated.obj
 0001:00009bf0       ??0BluetoothDeviceId@Bluetooth@Devices@Windows@NodeRT@@AAE@P$AAV0123@@Z 1000abf0 f i _nodert_generated.obj
 0001:00009c80       ?New@BluetoothDeviceId@Bluetooth@Devices@Windows@NodeRT@@CAXABV?$FunctionCallbackInfo@VValue@v8@@@Nan@@@Z 1000ac80 f i _nodert_generated.obj
 0001:0000a040       ?CastFrom@BluetoothDeviceId@Bluetooth@Devices@Windows@NodeRT@@CAXABV?$FunctionCallbackInfo@VValue@v8@@@Nan@@@Z 1000b040 f i _nodert_generated.obj
 0001:0000a200       ?IdGetter@BluetoothDeviceId@Bluetooth@Devices@Windows@NodeRT@@CAXV?$Local@VString@v8@@@v8@@ABV?$PropertyCallbackInfo@VValue@v8@@@Nan@@@Z 1000b200 f i _nodert_generated.obj
 0001:0000a330       ?IsClassicDeviceGetter@BluetoothDeviceId@Bluetooth@Devices@Windows@NodeRT@@CAXV?$Local@VString@v8@@@v8@@ABV?$PropertyCallbackInfo@VValue@v8@@@Nan@@@Z 1000b330 f i _nodert_generated.obj
 0001:0000a410       ?IsLowEnergyDeviceGetter@BluetoothDeviceId@Bluetooth@Devices@Windows@NodeRT@@CAXV?$Local@VString@v8@@@v8@@ABV?$PropertyCallbackInfo@VValue@v8@@@Nan@@@Z 1000b410 f i _nodert_generated.obj
 0001:0000a4f0       ?WrapBluetoothDeviceId@Bluetooth@Devices@Windows@NodeRT@@YA?AV?$Local@VValue@v8@@@v8@@P$AAVBluetoothDeviceId@123@@Z 1000b4f0 f   _nodert_generated.obj
 0001:0000a5e0       ?Init@BluetoothUuidHelper@Bluetooth@Devices@Windows@NodeRT@@SAXV?$Local@VObject@v8@@@v8@@@Z 1000b5e0 f i _nodert_generated.obj
 0001:0000a780       ??0BluetoothUuidHelper@Bluetooth@Devices@Windows@NodeRT@@AAE@P$AAV0123@@Z 1000b780 f i _nodert_generated.obj
 0001:0000a810       ?New@BluetoothUuidHelper@Bluetooth@Devices@Windows@NodeRT@@CAXABV?$FunctionCallbackInfo@VValue@v8@@@Nan@@@Z 1000b810 f i _nodert_generated.obj
 0001:0000abd0       ?CastFrom@BluetoothUuidHelper@Bluetooth@Devices@Windows@NodeRT@@CAXABV?$FunctionCallbackInfo@VValue@v8@@@Nan@@@Z 1000bbd0 f i _nodert_generated.obj
 0001:0000ad90       ?FromShortId@BluetoothUuidHelper@Bluetooth@Devices@Windows@NodeRT@@CAXABV?$FunctionCallbackInfo@VValue@v8@@@Nan@@@Z 1000bd90 f i _nodert_generated.obj
 0001:0000aee0       ?TryGetShortId@BluetoothUuidHelper@Bluetooth@Devices@Windows@NodeRT@@CAXABV?$FunctionCallbackInfo@VValue@v8@@@Nan@@@Z 1000bee0 f i _nodert_generated.obj
 0001:0000b0b0       ?WrapBluetoothUuidHelper@Bluetooth@Devices@Windows@NodeRT@@YA?AV?$Local@VValue@v8@@@v8@@P$AAVBluetoothUuidHelper@123@@Z 1000c0b0 f   _nodert_generated.obj
 0001:0000b1a0       ?Init@BluetoothDevice@Bluetooth@Devices@Windows@NodeRT@@SAXV?$Local@VObject@v8@@@v8@@@Z 1000c1a0 f i _nodert_generated.obj
 0001:0000b820       ??0BluetoothDevice@Bluetooth@Devices@Windows@NodeRT@@AAE@P$AAV0123@@Z 1000c820 f i _nodert_generated.obj
 0001:0000b8b0       ?New@BluetoothDevice@Bluetooth@Devices@Windows@NodeRT@@CAXABV?$FunctionCallbackInfo@VValue@v8@@@Nan@@@Z 1000c8b0 f i _nodert_generated.obj
 0001:0000bc70       ?CastFrom@BluetoothDevice@Bluetooth@Devices@Windows@NodeRT@@CAXABV?$FunctionCallbackInfo@VValue@v8@@@Nan@@@Z 1000cc70 f i _nodert_generated.obj
 0001:0000be30       ?RequestAccessAsync@BluetoothDevice@Bluetooth@Devices@Windows@NodeRT@@CAXABV?$FunctionCallbackInfo@VValue@v8@@@Nan@@@Z 1000ce30 f i _nodert_generated.obj
 0001:0000c2c0       ?GetRfcommServicesAsync@BluetoothDevice@Bluetooth@Devices@Windows@NodeRT@@CAXABV?$FunctionCallbackInfo@VValue@v8@@@Nan@@@Z 1000d2c0 f i _nodert_generated.obj
 0001:0000c850       ?GetRfcommServicesForIdAsync@BluetoothDevice@Bluetooth@Devices@Windows@NodeRT@@CAXABV?$FunctionCallbackInfo@VValue@v8@@@Nan@@@Z 1000d850 f i _nodert_generated.obj
 0001:0000ce50       ?Close@BluetoothDevice@Bluetooth@Devices@Windows@NodeRT@@CAXABV?$FunctionCallbackInfo@VValue@v8@@@Nan@@@Z 1000de50 f i _nodert_generated.obj
 0001:0000cfb0       ?FromIdAsync@BluetoothDevice@Bluetooth@Devices@Windows@NodeRT@@CAXABV?$FunctionCallbackInfo@VValue@v8@@@Nan@@@Z 1000dfb0 f i _nodert_generated.obj
 0001:0000d450       ?FromHostNameAsync@BluetoothDevice@Bluetooth@Devices@Windows@NodeRT@@CAXABV?$FunctionCallbackInfo@VValue@v8@@@Nan@@@Z 1000e450 f i _nodert_generated.obj
 0001:0000d810       ?FromBluetoothAddressAsync@BluetoothDevice@Bluetooth@Devices@Windows@NodeRT@@CAXABV?$FunctionCallbackInfo@VValue@v8@@@Nan@@@Z 1000e810 f i _nodert_generated.obj
 0001:0000dba0       ?GetDeviceSelectorFromPairingState@BluetoothDevice@Bluetooth@Devices@Windows@NodeRT@@CAXABV?$FunctionCallbackInfo@VValue@v8@@@Nan@@@Z 1000eba0 f i _nodert_generated.obj
 0001:0000dd50       ?GetDeviceSelectorFromConnectionStatus@BluetoothDevice@Bluetooth@Devices@Windows@NodeRT@@CAXABV?$FunctionCallbackInfo@VValue@v8@@@Nan@@@Z 1000ed50 f i _nodert_generated.obj
 0001:0000df00       ?GetDeviceSelectorFromDeviceName@BluetoothDevice@Bluetooth@Devices@Windows@NodeRT@@CAXABV?$FunctionCallbackInfo@VValue@v8@@@Nan@@@Z 1000ef00 f i _nodert_generated.obj
 0001:0000e110       ?GetDeviceSelectorFromBluetoothAddress@BluetoothDevice@Bluetooth@Devices@Windows@NodeRT@@CAXABV?$FunctionCallbackInfo@VValue@v8@@@Nan@@@Z 1000f110 f i _nodert_generated.obj
 0001:0000e2d0       ?GetDeviceSelectorFromClassOfDevice@BluetoothDevice@Bluetooth@Devices@Windows@NodeRT@@CAXABV?$FunctionCallbackInfo@VValue@v8@@@Nan@@@Z 1000f2d0 f i _nodert_generated.obj
 0001:0000e4d0       ?GetDeviceSelector@BluetoothDevice@Bluetooth@Devices@Windows@NodeRT@@CAXABV?$FunctionCallbackInfo@VValue@v8@@@Nan@@@Z 1000f4d0 f i _nodert_generated.obj
 0001:0000e630       ?BluetoothAddressGetter@BluetoothDevice@Bluetooth@Devices@Windows@NodeRT@@CAXV?$Local@VString@v8@@@v8@@ABV?$PropertyCallbackInfo@VValue@v8@@@Nan@@@Z 1000f630 f i _nodert_generated.obj
 0001:0000e720       ?ClassOfDeviceGetter@BluetoothDevice@Bluetooth@Devices@Windows@NodeRT@@CAXV?$Local@VString@v8@@@v8@@ABV?$PropertyCallbackInfo@VValue@v8@@@Nan@@@Z 1000f720 f i _nodert_generated.obj
 0001:0000e820       ?ConnectionStatusGetter@BluetoothDevice@Bluetooth@Devices@Windows@NodeRT@@CAXV?$Local@VString@v8@@@v8@@ABV?$PropertyCallbackInfo@VValue@v8@@@Nan@@@Z 1000f820 f i _nodert_generated.obj
 0001:0000e920       ?DeviceIdGetter@BluetoothDevice@Bluetooth@Devices@Windows@NodeRT@@CAXV?$Local@VString@v8@@@v8@@ABV?$PropertyCallbackInfo@VValue@v8@@@Nan@@@Z 1000f920 f i _nodert_generated.obj
 0001:0000ea50       ?HostNameGetter@BluetoothDevice@Bluetooth@Devices@Windows@NodeRT@@CAXV?$Local@VString@v8@@@v8@@ABV?$PropertyCallbackInfo@VValue@v8@@@Nan@@@Z 1000fa50 f i _nodert_generated.obj
 0001:0000eb60       ?NameGetter@BluetoothDevice@Bluetooth@Devices@Windows@NodeRT@@CAXV?$Local@VString@v8@@@v8@@ABV?$PropertyCallbackInfo@VValue@v8@@@Nan@@@Z 1000fb60 f i _nodert_generated.obj
 0001:0000ec90       ?RfcommServicesGetter@BluetoothDevice@Bluetooth@Devices@Windows@NodeRT@@CAXV?$Local@VString@v8@@@v8@@ABV?$PropertyCallbackInfo@VValue@v8@@@Nan@@@Z 1000fc90 f i _nodert_generated.obj
 0001:0000ef30       ?SdpRecordsGetter@BluetoothDevice@Bluetooth@Devices@Windows@NodeRT@@CAXV?$Local@VString@v8@@@v8@@ABV?$PropertyCallbackInfo@VValue@v8@@@Nan@@@Z 1000ff30 f i _nodert_generated.obj
 0001:0000f1d0       ?DeviceInformationGetter@BluetoothDevice@Bluetooth@Devices@Windows@NodeRT@@CAXV?$Local@VString@v8@@@v8@@ABV?$PropertyCallbackInfo@VValue@v8@@@Nan@@@Z 100101d0 f i _nodert_generated.obj
 0001:0000f320       ?DeviceAccessInformationGetter@BluetoothDevice@Bluetooth@Devices@Windows@NodeRT@@CAXV?$Local@VString@v8@@@v8@@ABV?$PropertyCallbackInfo@VValue@v8@@@Nan@@@Z 10010320 f i _nodert_generated.obj
 0001:0000f470       ?AddListener@BluetoothDevice@Bluetooth@Devices@Windows@NodeRT@@CAXABV?$FunctionCallbackInfo@VValue@v8@@@Nan@@@Z 10010470 f i _nodert_generated.obj
 0001:0000fea0       ?RemoveListener@BluetoothDevice@Bluetooth@Devices@Windows@NodeRT@@CAXABV?$FunctionCallbackInfo@VValue@v8@@@Nan@@@Z 10010ea0 f i _nodert_generated.obj
 0001:00010370       ?WrapBluetoothDevice@Bluetooth@Devices@Windows@NodeRT@@YA?AV?$Local@VValue@v8@@@v8@@P$AAVBluetoothDevice@123@@Z 10011370 f   _nodert_generated.obj
 0001:00010460       ?Init@BluetoothClassOfDevice@Bluetooth@Devices@Windows@NodeRT@@SAXV?$Local@VObject@v8@@@v8@@@Z 10011460 f i _nodert_generated.obj
 0001:00010720       ??0BluetoothClassOfDevice@Bluetooth@Devices@Windows@NodeRT@@AAE@P$AAV0123@@Z 10011720 f i _nodert_generated.obj
 0001:000107b0       ?New@BluetoothClassOfDevice@Bluetooth@Devices@Windows@NodeRT@@CAXABV?$FunctionCallbackInfo@VValue@v8@@@Nan@@@Z 100117b0 f i _nodert_generated.obj
 0001:00010b70       ?CastFrom@BluetoothClassOfDevice@Bluetooth@Devices@Windows@NodeRT@@CAXABV?$FunctionCallbackInfo@VValue@v8@@@Nan@@@Z 10011b70 f i _nodert_generated.obj
 0001:00010d30       ?FromRawValue@BluetoothClassOfDevice@Bluetooth@Devices@Windows@NodeRT@@CAXABV?$FunctionCallbackInfo@VValue@v8@@@Nan@@@Z 10011d30 f i _nodert_generated.obj
 0001:00010eb0       ?FromParts@BluetoothClassOfDevice@Bluetooth@Devices@Windows@NodeRT@@CAXABV?$FunctionCallbackInfo@VValue@v8@@@Nan@@@Z 10011eb0 f i _nodert_generated.obj
 0001:000110e0       ?MajorClassGetter@BluetoothClassOfDevice@Bluetooth@Devices@Windows@NodeRT@@CAXV?$Local@VString@v8@@@v8@@ABV?$PropertyCallbackInfo@VValue@v8@@@Nan@@@Z 100120e0 f i _nodert_generated.obj
 0001:000111e0       ?MinorClassGetter@BluetoothClassOfDevice@Bluetooth@Devices@Windows@NodeRT@@CAXV?$Local@VString@v8@@@v8@@ABV?$PropertyCallbackInfo@VValue@v8@@@Nan@@@Z 100121e0 f i _nodert_generated.obj
 0001:000112e0       ?RawValueGetter@BluetoothClassOfDevice@Bluetooth@Devices@Windows@NodeRT@@CAXV?$Local@VString@v8@@@v8@@ABV?$PropertyCallbackInfo@VValue@v8@@@Nan@@@Z 100122e0 f i _nodert_generated.obj
 0001:000113e0       ?ServiceCapabilitiesGetter@BluetoothClassOfDevice@Bluetooth@Devices@Windows@NodeRT@@CAXV?$Local@VString@v8@@@v8@@ABV?$PropertyCallbackInfo@VValue@v8@@@Nan@@@Z 100123e0 f i _nodert_generated.obj
 0001:000114e0       ?WrapBluetoothClassOfDevice@Bluetooth@Devices@Windows@NodeRT@@YA?AV?$Local@VValue@v8@@@v8@@P$AAVBluetoothClassOfDevice@123@@Z 100124e0 f   _nodert_generated.obj
 0001:000115d0       ?Init@BluetoothLEAppearanceCategories@Bluetooth@Devices@Windows@NodeRT@@SAXV?$Local@VObject@v8@@@v8@@@Z 100125d0 f i _nodert_generated.obj
 0001:00011c30       ??0BluetoothLEAppearanceCategories@Bluetooth@Devices@Windows@NodeRT@@AAE@P$AAV0123@@Z 10012c30 f i _nodert_generated.obj
 0001:00011cc0       ?New@BluetoothLEAppearanceCategories@Bluetooth@Devices@Windows@NodeRT@@CAXABV?$FunctionCallbackInfo@VValue@v8@@@Nan@@@Z 10012cc0 f i _nodert_generated.obj
 0001:00012080       ?CastFrom@BluetoothLEAppearanceCategories@Bluetooth@Devices@Windows@NodeRT@@CAXABV?$FunctionCallbackInfo@VValue@v8@@@Nan@@@Z 10013080 f i _nodert_generated.obj
 0001:00012240       ?BarcodeScannerGetter@BluetoothLEAppearanceCategories@Bluetooth@Devices@Windows@NodeRT@@CAXV?$Local@VString@v8@@@v8@@ABV?$PropertyCallbackInfo@VValue@v8@@@Nan@@@Z 10013240 f i _nodert_generated.obj
 0001:00012300       ?BloodPressureGetter@BluetoothLEAppearanceCategories@Bluetooth@Devices@Windows@NodeRT@@CAXV?$Local@VString@v8@@@v8@@ABV?$PropertyCallbackInfo@VValue@v8@@@Nan@@@Z 10013300 f i _nodert_generated.obj
 0001:000123c0       ?ClockGetter@BluetoothLEAppearanceCategories@Bluetooth@Devices@Windows@NodeRT@@CAXV?$Local@VString@v8@@@v8@@ABV?$PropertyCallbackInfo@VValue@v8@@@Nan@@@Z 100133c0 f i _nodert_generated.obj
 0001:00012480       ?ComputerGetter@BluetoothLEAppearanceCategories@Bluetooth@Devices@Windows@NodeRT@@CAXV?$Local@VString@v8@@@v8@@ABV?$PropertyCallbackInfo@VValue@v8@@@Nan@@@Z 10013480 f i _nodert_generated.obj
 0001:00012540       ?CyclingGetter@BluetoothLEAppearanceCategories@Bluetooth@Devices@Windows@NodeRT@@CAXV?$Local@VString@v8@@@v8@@ABV?$PropertyCallbackInfo@VValue@v8@@@Nan@@@Z 10013540 f i _nodert_generated.obj
 0001:00012600       ?DisplayGetter@BluetoothLEAppearanceCategories@Bluetooth@Devices@Windows@NodeRT@@CAXV?$Local@VString@v8@@@v8@@ABV?$PropertyCallbackInfo@VValue@v8@@@Nan@@@Z 10013600 f i _nodert_generated.obj
 0001:000126c0       ?EyeGlassesGetter@BluetoothLEAppearanceCategories@Bluetooth@Devices@Windows@NodeRT@@CAXV?$Local@VString@v8@@@v8@@ABV?$PropertyCallbackInfo@VValue@v8@@@Nan@@@Z 100136c0 f i _nodert_generated.obj
 0001:00012780       ?GlucoseMeterGetter@BluetoothLEAppearanceCategories@Bluetooth@Devices@Windows@NodeRT@@CAXV?$Local@VString@v8@@@v8@@ABV?$PropertyCallbackInfo@VValue@v8@@@Nan@@@Z 10013780 f i _nodert_generated.obj
 0001:00012840       ?HeartRateGetter@BluetoothLEAppearanceCategories@Bluetooth@Devices@Windows@NodeRT@@CAXV?$Local@VString@v8@@@v8@@ABV?$PropertyCallbackInfo@VValue@v8@@@Nan@@@Z 10013840 f i _nodert_generated.obj
 0001:00012900       ?HumanInterfaceDeviceGetter@BluetoothLEAppearanceCategories@Bluetooth@Devices@Windows@NodeRT@@CAXV?$Local@VString@v8@@@v8@@ABV?$PropertyCallbackInfo@VValue@v8@@@Nan@@@Z 10013900 f i _nodert_generated.obj
 0001:000129c0       ?KeyringGetter@BluetoothLEAppearanceCategories@Bluetooth@Devices@Windows@NodeRT@@CAXV?$Local@VString@v8@@@v8@@ABV?$PropertyCallbackInfo@VValue@v8@@@Nan@@@Z 100139c0 f i _nodert_generated.obj
 0001:00012a80       ?MediaPlayerGetter@BluetoothLEAppearanceCategories@Bluetooth@Devices@Windows@NodeRT@@CAXV?$Local@VString@v8@@@v8@@ABV?$PropertyCallbackInfo@VValue@v8@@@Nan@@@Z 10013a80 f i _nodert_generated.obj
 0001:00012b40       ?OutdoorSportActivityGetter@BluetoothLEAppearanceCategories@Bluetooth@Devices@Windows@NodeRT@@CAXV?$Local@VString@v8@@@v8@@ABV?$PropertyCallbackInfo@VValue@v8@@@Nan@@@Z 10013b40 f i _nodert_generated.obj
 0001:00012c00       ?PhoneGetter@BluetoothLEAppearanceCategories@Bluetooth@Devices@Windows@NodeRT@@CAXV?$Local@VString@v8@@@v8@@ABV?$PropertyCallbackInfo@VValue@v8@@@Nan@@@Z 10013c00 f i _nodert_generated.obj
 0001:00012cc0       ?PulseOximeterGetter@BluetoothLEAppearanceCategories@Bluetooth@Devices@Windows@NodeRT@@CAXV?$Local@VString@v8@@@v8@@ABV?$PropertyCallbackInfo@VValue@v8@@@Nan@@@Z 10013cc0 f i _nodert_generated.obj
 0001:00012d80       ?RemoteControlGetter@BluetoothLEAppearanceCategories@Bluetooth@Devices@Windows@NodeRT@@CAXV?$Local@VString@v8@@@v8@@ABV?$PropertyCallbackInfo@VValue@v8@@@Nan@@@Z 10013d80 f i _nodert_generated.obj
 0001:00012e40       ?RunningWalkingGetter@BluetoothLEAppearanceCategories@Bluetooth@Devices@Windows@NodeRT@@CAXV?$Local@VString@v8@@@v8@@ABV?$PropertyCallbackInfo@VValue@v8@@@Nan@@@Z 10013e40 f i _nodert_generated.obj
 0001:00012f00       ?TagGetter@BluetoothLEAppearanceCategories@Bluetooth@Devices@Windows@NodeRT@@CAXV?$Local@VString@v8@@@v8@@ABV?$PropertyCallbackInfo@VValue@v8@@@Nan@@@Z 10013f00 f i _nodert_generated.obj
 0001:00012fc0       ?ThermometerGetter@BluetoothLEAppearanceCategories@Bluetooth@Devices@Windows@NodeRT@@CAXV?$Local@VString@v8@@@v8@@ABV?$PropertyCallbackInfo@VValue@v8@@@Nan@@@Z 10013fc0 f i _nodert_generated.obj
 0001:00013080       ?UncategorizedGetter@BluetoothLEAppearanceCategories@Bluetooth@Devices@Windows@NodeRT@@CAXV?$Local@VString@v8@@@v8@@ABV?$PropertyCallbackInfo@VValue@v8@@@Nan@@@Z 10014080 f i _nodert_generated.obj
 0001:00013140       ?WatchGetter@BluetoothLEAppearanceCategories@Bluetooth@Devices@Windows@NodeRT@@CAXV?$Local@VString@v8@@@v8@@ABV?$PropertyCallbackInfo@VValue@v8@@@Nan@@@Z 10014140 f i _nodert_generated.obj
 0001:00013200       ?WeightScaleGetter@BluetoothLEAppearanceCategories@Bluetooth@Devices@Windows@NodeRT@@CAXV?$Local@VString@v8@@@v8@@ABV?$PropertyCallbackInfo@VValue@v8@@@Nan@@@Z 10014200 f i _nodert_generated.obj
 0001:000132c0       ?WrapBluetoothLEAppearanceCategories@Bluetooth@Devices@Windows@NodeRT@@YA?AV?$Local@VValue@v8@@@v8@@P$AAVBluetoothLEAppearanceCategories@123@@Z 100142c0 f   _nodert_generated.obj
 0001:000133b0       ?Init@BluetoothLEAppearanceSubcategories@Bluetooth@Devices@Windows@NodeRT@@SAXV?$Local@VObject@v8@@@v8@@@Z 100143b0 f i _nodert_generated.obj
 0001:00013b60       ??0BluetoothLEAppearanceSubcategories@Bluetooth@Devices@Windows@NodeRT@@AAE@P$AAV0123@@Z 10014b60 f i _nodert_generated.obj
 0001:00013bf0       ?New@BluetoothLEAppearanceSubcategories@Bluetooth@Devices@Windows@NodeRT@@CAXABV?$FunctionCallbackInfo@VValue@v8@@@Nan@@@Z 10014bf0 f i _nodert_generated.obj
 0001:00013fb0       ?CastFrom@BluetoothLEAppearanceSubcategories@Bluetooth@Devices@Windows@NodeRT@@CAXABV?$FunctionCallbackInfo@VValue@v8@@@Nan@@@Z 10014fb0 f i _nodert_generated.obj
 0001:00014170       ?BarcodeScannerGetter@BluetoothLEAppearanceSubcategories@Bluetooth@Devices@Windows@NodeRT@@CAXV?$Local@VString@v8@@@v8@@ABV?$PropertyCallbackInfo@VValue@v8@@@Nan@@@Z 10015170 f i _nodert_generated.obj
 0001:00014230       ?BloodPressureArmGetter@BluetoothLEAppearanceSubcategories@Bluetooth@Devices@Windows@NodeRT@@CAXV?$Local@VString@v8@@@v8@@ABV?$PropertyCallbackInfo@VValue@v8@@@Nan@@@Z 10015230 f i _nodert_generated.obj
 0001:000142f0       ?BloodPressureWristGetter@BluetoothLEAppearanceSubcategories@Bluetooth@Devices@Windows@NodeRT@@CAXV?$Local@VString@v8@@@v8@@ABV?$PropertyCallbackInfo@VValue@v8@@@Nan@@@Z 100152f0 f i _nodert_generated.obj
 0001:000143b0       ?CardReaderGetter@BluetoothLEAppearanceSubcategories@Bluetooth@Devices@Windows@NodeRT@@CAXV?$Local@VString@v8@@@v8@@ABV?$PropertyCallbackInfo@VValue@v8@@@Nan@@@Z 100153b0 f i _nodert_generated.obj
 0001:00014470       ?CyclingCadenceSensorGetter@BluetoothLEAppearanceSubcategories@Bluetooth@Devices@Windows@NodeRT@@CAXV?$Local@VString@v8@@@v8@@ABV?$PropertyCallbackInfo@VValue@v8@@@Nan@@@Z 10015470 f i _nodert_generated.obj
 0001:00014530       ?CyclingComputerGetter@BluetoothLEAppearanceSubcategories@Bluetooth@Devices@Windows@NodeRT@@CAXV?$Local@VString@v8@@@v8@@ABV?$PropertyCallbackInfo@VValue@v8@@@Nan@@@Z 10015530 f i _nodert_generated.obj
 0001:000145f0       ?CyclingPowerSensorGetter@BluetoothLEAppearanceSubcategories@Bluetooth@Devices@Windows@NodeRT@@CAXV?$Local@VString@v8@@@v8@@ABV?$PropertyCallbackInfo@VValue@v8@@@Nan@@@Z 100155f0 f i _nodert_generated.obj
 0001:000146b0       ?CyclingSpeedCadenceSensorGetter@BluetoothLEAppearanceSubcategories@Bluetooth@Devices@Windows@NodeRT@@CAXV?$Local@VString@v8@@@v8@@ABV?$PropertyCallbackInfo@VValue@v8@@@Nan@@@Z 100156b0 f i _nodert_generated.obj
 0001:00014770       ?CyclingSpeedSensorGetter@BluetoothLEAppearanceSubcategories@Bluetooth@Devices@Windows@NodeRT@@CAXV?$Local@VString@v8@@@v8@@ABV?$PropertyCallbackInfo@VValue@v8@@@Nan@@@Z 10015770 f i _nodert_generated.obj
 0001:00014830       ?DigitalPenGetter@BluetoothLEAppearanceSubcategories@Bluetooth@Devices@Windows@NodeRT@@CAXV?$Local@VString@v8@@@v8@@ABV?$PropertyCallbackInfo@VValue@v8@@@Nan@@@Z 10015830 f i _nodert_generated.obj
 0001:000148f0       ?DigitizerTabletGetter@BluetoothLEAppearanceSubcategories@Bluetooth@Devices@Windows@NodeRT@@CAXV?$Local@VString@v8@@@v8@@ABV?$PropertyCallbackInfo@VValue@v8@@@Nan@@@Z 100158f0 f i _nodert_generated.obj
 0001:000149b0       ?GamepadGetter@BluetoothLEAppearanceSubcategories@Bluetooth@Devices@Windows@NodeRT@@CAXV?$Local@VString@v8@@@v8@@ABV?$PropertyCallbackInfo@VValue@v8@@@Nan@@@Z 100159b0 f i _nodert_generated.obj
 0001:00014a70       ?GenericGetter@BluetoothLEAppearanceSubcategories@Bluetooth@Devices@Windows@NodeRT@@CAXV?$Local@VString@v8@@@v8@@ABV?$PropertyCallbackInfo@VValue@v8@@@Nan@@@Z 10015a70 f i _nodert_generated.obj
 0001:00014b30       ?HeartRateBeltGetter@BluetoothLEAppearanceSubcategories@Bluetooth@Devices@Windows@NodeRT@@CAXV?$Local@VString@v8@@@v8@@ABV?$PropertyCallbackInfo@VValue@v8@@@Nan@@@Z 10015b30 f i _nodert_generated.obj
 0001:00014bf0       ?JoystickGetter@BluetoothLEAppearanceSubcategories@Bluetooth@Devices@Windows@NodeRT@@CAXV?$Local@VString@v8@@@v8@@ABV?$PropertyCallbackInfo@VValue@v8@@@Nan@@@Z 10015bf0 f i _nodert_generated.obj
 0001:00014cb0       ?KeyboardGetter@BluetoothLEAppearanceSubcategories@Bluetooth@Devices@Windows@NodeRT@@CAXV?$Local@VString@v8@@@v8@@ABV?$PropertyCallbackInfo@VValue@v8@@@Nan@@@Z 10015cb0 f i _nodert_generated.obj
 0001:00014d70       ?LocationDisplayGetter@BluetoothLEAppearanceSubcategories@Bluetooth@Devices@Windows@NodeRT@@CAXV?$Local@VString@v8@@@v8@@ABV?$PropertyCallbackInfo@VValue@v8@@@Nan@@@Z 10015d70 f i _nodert_generated.obj
 0001:00014e30       ?LocationNavigationDisplayGetter@BluetoothLEAppearanceSubcategories@Bluetooth@Devices@Windows@NodeRT@@CAXV?$Local@VString@v8@@@v8@@ABV?$PropertyCallbackInfo@VValue@v8@@@Nan@@@Z 10015e30 f i _nodert_generated.obj
 0001:00014ef0       ?LocationNavigationPodGetter@BluetoothLEAppearanceSubcategories@Bluetooth@Devices@Windows@NodeRT@@CAXV?$Local@VString@v8@@@v8@@ABV?$PropertyCallbackInfo@VValue@v8@@@Nan@@@Z 10015ef0 f i _nodert_generated.obj
 0001:00014fb0       ?LocationPodGetter@BluetoothLEAppearanceSubcategories@Bluetooth@Devices@Windows@NodeRT@@CAXV?$Local@VString@v8@@@v8@@ABV?$PropertyCallbackInfo@VValue@v8@@@Nan@@@Z 10015fb0 f i _nodert_generated.obj
 0001:00015070       ?MouseGetter@BluetoothLEAppearanceSubcategories@Bluetooth@Devices@Windows@NodeRT@@CAXV?$Local@VString@v8@@@v8@@ABV?$PropertyCallbackInfo@VValue@v8@@@Nan@@@Z 10016070 f i _nodert_generated.obj
 0001:00015130       ?OximeterFingertipGetter@BluetoothLEAppearanceSubcategories@Bluetooth@Devices@Windows@NodeRT@@CAXV?$Local@VString@v8@@@v8@@ABV?$PropertyCallbackInfo@VValue@v8@@@Nan@@@Z 10016130 f i _nodert_generated.obj
 0001:000151f0       ?OximeterWristWornGetter@BluetoothLEAppearanceSubcategories@Bluetooth@Devices@Windows@NodeRT@@CAXV?$Local@VString@v8@@@v8@@ABV?$PropertyCallbackInfo@VValue@v8@@@Nan@@@Z 100161f0 f i _nodert_generated.obj
 0001:000152b0       ?RunningWalkingInShoeGetter@BluetoothLEAppearanceSubcategories@Bluetooth@Devices@Windows@NodeRT@@CAXV?$Local@VString@v8@@@v8@@ABV?$PropertyCallbackInfo@VValue@v8@@@Nan@@@Z 100162b0 f i _nodert_generated.obj
 0001:00015370       ?RunningWalkingOnHipGetter@BluetoothLEAppearanceSubcategories@Bluetooth@Devices@Windows@NodeRT@@CAXV?$Local@VString@v8@@@v8@@ABV?$PropertyCallbackInfo@VValue@v8@@@Nan@@@Z 10016370 f i _nodert_generated.obj
 0001:00015430       ?RunningWalkingOnShoeGetter@BluetoothLEAppearanceSubcategories@Bluetooth@Devices@Windows@NodeRT@@CAXV?$Local@VString@v8@@@v8@@ABV?$PropertyCallbackInfo@VValue@v8@@@Nan@@@Z 10016430 f i _nodert_generated.obj
 0001:000154f0       ?SportsWatchGetter@BluetoothLEAppearanceSubcategories@Bluetooth@Devices@Windows@NodeRT@@CAXV?$Local@VString@v8@@@v8@@ABV?$PropertyCallbackInfo@VValue@v8@@@Nan@@@Z 100164f0 f i _nodert_generated.obj
 0001:000155b0       ?ThermometerEarGetter@BluetoothLEAppearanceSubcategories@Bluetooth@Devices@Windows@NodeRT@@CAXV?$Local@VString@v8@@@v8@@ABV?$PropertyCallbackInfo@VValue@v8@@@Nan@@@Z 100165b0 f i _nodert_generated.obj
 0001:00015670       ?WrapBluetoothLEAppearanceSubcategories@Bluetooth@Devices@Windows@NodeRT@@YA?AV?$Local@VValue@v8@@@v8@@P$AAVBluetoothLEAppearanceSubcategories@123@@Z 10016670 f   _nodert_generated.obj
 0001:00015760       ?Init@BluetoothLEAppearance@Bluetooth@Devices@Windows@NodeRT@@SAXV?$Local@VObject@v8@@@v8@@@Z 10016760 f i _nodert_generated.obj
 0001:000159d0       ??0BluetoothLEAppearance@Bluetooth@Devices@Windows@NodeRT@@AAE@P$AAV0123@@Z 100169d0 f i _nodert_generated.obj
 0001:00015a60       ?New@BluetoothLEAppearance@Bluetooth@Devices@Windows@NodeRT@@CAXABV?$FunctionCallbackInfo@VValue@v8@@@Nan@@@Z 10016a60 f i _nodert_generated.obj
 0001:00015e20       ?CastFrom@BluetoothLEAppearance@Bluetooth@Devices@Windows@NodeRT@@CAXABV?$FunctionCallbackInfo@VValue@v8@@@Nan@@@Z 10016e20 f i _nodert_generated.obj
 0001:00015fe0       ?FromRawValue@BluetoothLEAppearance@Bluetooth@Devices@Windows@NodeRT@@CAXABV?$FunctionCallbackInfo@VValue@v8@@@Nan@@@Z 10016fe0 f i _nodert_generated.obj
 0001:00016160       ?FromParts@BluetoothLEAppearance@Bluetooth@Devices@Windows@NodeRT@@CAXABV?$FunctionCallbackInfo@VValue@v8@@@Nan@@@Z 10017160 f i _nodert_generated.obj
 0001:00016340       ?CategoryGetter@BluetoothLEAppearance@Bluetooth@Devices@Windows@NodeRT@@CAXV?$Local@VString@v8@@@v8@@ABV?$PropertyCallbackInfo@VValue@v8@@@Nan@@@Z 10017340 f i _nodert_generated.obj
 0001:00016440       ?RawValueGetter@BluetoothLEAppearance@Bluetooth@Devices@Windows@NodeRT@@CAXV?$Local@VString@v8@@@v8@@ABV?$PropertyCallbackInfo@VValue@v8@@@Nan@@@Z 10017440 f i _nodert_generated.obj
 0001:00016540       ?SubCategoryGetter@BluetoothLEAppearance@Bluetooth@Devices@Windows@NodeRT@@CAXV?$Local@VString@v8@@@v8@@ABV?$PropertyCallbackInfo@VValue@v8@@@Nan@@@Z 10017540 f i _nodert_generated.obj
 0001:00016640       ?WrapBluetoothLEAppearance@Bluetooth@Devices@Windows@NodeRT@@YA?AV?$Local@VValue@v8@@@v8@@P$AAVBluetoothLEAppearance@123@@Z 10017640 f   _nodert_generated.obj
 0001:00016730       ?Init@BluetoothLEDevice@Bluetooth@Devices@Windows@NodeRT@@SAXV?$Local@VObject@v8@@@v8@@@Z 10017730 f i _nodert_generated.obj
 0001:00016d10       ??0BluetoothLEDevice@Bluetooth@Devices@Windows@NodeRT@@AAE@P$AAV0123@@Z 10017d10 f i _nodert_generated.obj
 0001:00016da0       ?New@BluetoothLEDevice@Bluetooth@Devices@Windows@NodeRT@@CAXABV?$FunctionCallbackInfo@VValue@v8@@@Nan@@@Z 10017da0 f i _nodert_generated.obj
 0001:00017160       ?CastFrom@BluetoothLEDevice@Bluetooth@Devices@Windows@NodeRT@@CAXABV?$FunctionCallbackInfo@VValue@v8@@@Nan@@@Z 10018160 f i _nodert_generated.obj
 0001:00017320       ?RequestAccessAsync@BluetoothLEDevice@Bluetooth@Devices@Windows@NodeRT@@CAXABV?$FunctionCallbackInfo@VValue@v8@@@Nan@@@Z 10018320 f i _nodert_generated.obj
 0001:00017690       ?GetGattServicesAsync@BluetoothLEDevice@Bluetooth@Devices@Windows@NodeRT@@CAXABV?$FunctionCallbackInfo@VValue@v8@@@Nan@@@Z 10018690 f i _nodert_generated.obj
 0001:00017c20       ?GetGattServicesForUuidAsync@BluetoothLEDevice@Bluetooth@Devices@Windows@NodeRT@@CAXABV?$FunctionCallbackInfo@VValue@v8@@@Nan@@@Z 10018c20 f i _nodert_generated.obj
 0001:00018140       ?GetGattService@BluetoothLEDevice@Bluetooth@Devices@Windows@NodeRT@@CAXABV?$FunctionCallbackInfo@VValue@v8@@@Nan@@@Z 10019140 f i _nodert_generated.obj
 0001:00018310       ?Close@BluetoothLEDevice@Bluetooth@Devices@Windows@NodeRT@@CAXABV?$FunctionCallbackInfo@VValue@v8@@@Nan@@@Z 10019310 f i _nodert_generated.obj
 0001:00018470       ?FromBluetoothAddressAsync@BluetoothLEDevice@Bluetooth@Devices@Windows@NodeRT@@CAXABV?$FunctionCallbackInfo@VValue@v8@@@Nan@@@Z 10019470 f i _nodert_generated.obj
 0001:00018a40       ?FromIdAsync@BluetoothLEDevice@Bluetooth@Devices@Windows@NodeRT@@CAXABV?$FunctionCallbackInfo@VValue@v8@@@Nan@@@Z 10019a40 f i _nodert_generated.obj
 0001:00018de0       ?GetDeviceSelectorFromPairingState@BluetoothLEDevice@Bluetooth@Devices@Windows@NodeRT@@CAXABV?$FunctionCallbackInfo@VValue@v8@@@Nan@@@Z 10019de0 f i _nodert_generated.obj
 0001:00018f90       ?GetDeviceSelectorFromConnectionStatus@BluetoothLEDevice@Bluetooth@Devices@Windows@NodeRT@@CAXABV?$FunctionCallbackInfo@VValue@v8@@@Nan@@@Z 10019f90 f i _nodert_generated.obj
 0001:00019140       ?GetDeviceSelectorFromDeviceName@BluetoothLEDevice@Bluetooth@Devices@Windows@NodeRT@@CAXABV?$FunctionCallbackInfo@VValue@v8@@@Nan@@@Z 1001a140 f i _nodert_generated.obj
 0001:00019350       ?GetDeviceSelectorFromBluetoothAddress@BluetoothLEDevice@Bluetooth@Devices@Windows@NodeRT@@CAXABV?$FunctionCallbackInfo@VValue@v8@@@Nan@@@Z 1001a350 f i _nodert_generated.obj
 0001:00019670       ?GetDeviceSelectorFromAppearance@BluetoothLEDevice@Bluetooth@Devices@Windows@NodeRT@@CAXABV?$FunctionCallbackInfo@VValue@v8@@@Nan@@@Z 1001a670 f i _nodert_generated.obj
 0001:00019870       ?GetDeviceSelector@BluetoothLEDevice@Bluetooth@Devices@Windows@NodeRT@@CAXABV?$FunctionCallbackInfo@VValue@v8@@@Nan@@@Z 1001a870 f i _nodert_generated.obj
 0001:000199d0       ?BluetoothAddressGetter@BluetoothLEDevice@Bluetooth@Devices@Windows@NodeRT@@CAXV?$Local@VString@v8@@@v8@@ABV?$PropertyCallbackInfo@VValue@v8@@@Nan@@@Z 1001a9d0 f i _nodert_generated.obj
 0001:00019ac0       ?ConnectionStatusGetter@BluetoothLEDevice@Bluetooth@Devices@Windows@NodeRT@@CAXV?$Local@VString@v8@@@v8@@ABV?$PropertyCallbackInfo@VValue@v8@@@Nan@@@Z 1001aac0 f i _nodert_generated.obj
 0001:00019bc0       ?DeviceIdGetter@BluetoothLEDevice@Bluetooth@Devices@Windows@NodeRT@@CAXV?$Local@VString@v8@@@v8@@ABV?$PropertyCallbackInfo@VValue@v8@@@Nan@@@Z 1001abc0 f i _nodert_generated.obj
 0001:00019cf0       ?GattServicesGetter@BluetoothLEDevice@Bluetooth@Devices@Windows@NodeRT@@CAXV?$Local@VString@v8@@@v8@@ABV?$PropertyCallbackInfo@VValue@v8@@@Nan@@@Z 1001acf0 f i _nodert_generated.obj
 0001:00019f90       ?NameGetter@BluetoothLEDevice@Bluetooth@Devices@Windows@NodeRT@@CAXV?$Local@VString@v8@@@v8@@ABV?$PropertyCallbackInfo@VValue@v8@@@Nan@@@Z 1001af90 f i _nodert_generated.obj
 0001:0001a0c0       ?AppearanceGetter@BluetoothLEDevice@Bluetooth@Devices@Windows@NodeRT@@CAXV?$Local@VString@v8@@@v8@@ABV?$PropertyCallbackInfo@VValue@v8@@@Nan@@@Z 1001b0c0 f i _nodert_generated.obj
 0001:0001a200       ?BluetoothAddressTypeGetter@BluetoothLEDevice@Bluetooth@Devices@Windows@NodeRT@@CAXV?$Local@VString@v8@@@v8@@ABV?$PropertyCallbackInfo@VValue@v8@@@Nan@@@Z 1001b200 f i _nodert_generated.obj
 0001:0001a340       ?DeviceInformationGetter@BluetoothLEDevice@Bluetooth@Devices@Windows@NodeRT@@CAXV?$Local@VString@v8@@@v8@@ABV?$PropertyCallbackInfo@VValue@v8@@@Nan@@@Z 1001b340 f i _nodert_generated.obj
 0001:0001a490       ?DeviceAccessInformationGetter@BluetoothLEDevice@Bluetooth@Devices@Windows@NodeRT@@CAXV?$Local@VString@v8@@@v8@@ABV?$PropertyCallbackInfo@VValue@v8@@@Nan@@@Z 1001b490 f i _nodert_generated.obj
 0001:0001a5e0       ?AddListener@BluetoothLEDevice@Bluetooth@Devices@Windows@NodeRT@@CAXABV?$FunctionCallbackInfo@VValue@v8@@@Nan@@@Z 1001b5e0 f i _nodert_generated.obj
 0001:0001aee0       ?RemoveListener@BluetoothLEDevice@Bluetooth@Devices@Windows@NodeRT@@CAXABV?$FunctionCallbackInfo@VValue@v8@@@Nan@@@Z 1001bee0 f i _nodert_generated.obj
 0001:0001b3b0       ?WrapBluetoothLEDevice@Bluetooth@Devices@Windows@NodeRT@@YA?AV?$Local@VValue@v8@@@v8@@P$AAVBluetoothLEDevice@123@@Z 1001c3b0 f   _nodert_generated.obj
 0001:0001b4a0       ?Init@BluetoothSignalStrengthFilter@Bluetooth@Devices@Windows@NodeRT@@SAXV?$Local@VObject@v8@@@v8@@@Z 1001c4a0 f i _nodert_generated.obj
 0001:0001b750       ??0BluetoothSignalStrengthFilter@Bluetooth@Devices@Windows@NodeRT@@AAE@P$AAV0123@@Z 1001c750 f i _nodert_generated.obj
 0001:0001b7e0       ?New@BluetoothSignalStrengthFilter@Bluetooth@Devices@Windows@NodeRT@@CAXABV?$FunctionCallbackInfo@VValue@v8@@@Nan@@@Z 1001c7e0 f i _nodert_generated.obj
 0001:0001bc00       ?CastFrom@BluetoothSignalStrengthFilter@Bluetooth@Devices@Windows@NodeRT@@CAXABV?$FunctionCallbackInfo@VValue@v8@@@Nan@@@Z 1001cc00 f i _nodert_generated.obj
 0001:0001bdc0       ?SamplingIntervalGetter@BluetoothSignalStrengthFilter@Bluetooth@Devices@Windows@NodeRT@@CAXV?$Local@VString@v8@@@v8@@ABV?$PropertyCallbackInfo@VValue@v8@@@Nan@@@Z 1001cdc0 f i _nodert_generated.obj
 0001:0001bf10       ?SamplingIntervalSetter@BluetoothSignalStrengthFilter@Bluetooth@Devices@Windows@NodeRT@@CAXV?$Local@VString@v8@@@v8@@V?$Local@VValue@v8@@@7@ABV?$PropertyCallbackInfo@X@Nan@@@Z 1001cf10 f i _nodert_generated.obj
 0001:0001c0d0       ?OutOfRangeTimeoutGetter@BluetoothSignalStrengthFilter@Bluetooth@Devices@Windows@NodeRT@@CAXV?$Local@VString@v8@@@v8@@ABV?$PropertyCallbackInfo@VValue@v8@@@Nan@@@Z 1001d0d0 f i _nodert_generated.obj
 0001:0001c220       ?OutOfRangeTimeoutSetter@BluetoothSignalStrengthFilter@Bluetooth@Devices@Windows@NodeRT@@CAXV?$Local@VString@v8@@@v8@@V?$Local@VValue@v8@@@7@ABV?$PropertyCallbackInfo@X@Nan@@@Z 1001d220 f i _nodert_generated.obj
 0001:0001c3e0       ?OutOfRangeThresholdInDBmGetter@BluetoothSignalStrengthFilter@Bluetooth@Devices@Windows@NodeRT@@CAXV?$Local@VString@v8@@@v8@@ABV?$PropertyCallbackInfo@VValue@v8@@@Nan@@@Z 1001d3e0 f i _nodert_generated.obj
 0001:0001c530       ?OutOfRangeThresholdInDBmSetter@BluetoothSignalStrengthFilter@Bluetooth@Devices@Windows@NodeRT@@CAXV?$Local@VString@v8@@@v8@@V?$Local@VValue@v8@@@7@ABV?$PropertyCallbackInfo@X@Nan@@@Z 1001d530 f i _nodert_generated.obj
 0001:0001c6d0       ?InRangeThresholdInDBmGetter@BluetoothSignalStrengthFilter@Bluetooth@Devices@Windows@NodeRT@@CAXV?$Local@VString@v8@@@v8@@ABV?$PropertyCallbackInfo@VValue@v8@@@Nan@@@Z 1001d6d0 f i _nodert_generated.obj
 0001:0001c820       ?InRangeThresholdInDBmSetter@BluetoothSignalStrengthFilter@Bluetooth@Devices@Windows@NodeRT@@CAXV?$Local@VString@v8@@@v8@@V?$Local@VValue@v8@@@7@ABV?$PropertyCallbackInfo@X@Nan@@@Z 1001d820 f i _nodert_generated.obj
 0001:0001c9c0       ?WrapBluetoothSignalStrengthFilter@Bluetooth@Devices@Windows@NodeRT@@YA?AV?$Local@VValue@v8@@@v8@@P$AAVBluetoothSignalStrengthFilter@123@@Z 1001d9c0 f   _nodert_generated.obj
 0001:0001cab0       ?init@@YAXV?$Local@VObject@v8@@@v8@@@Z 1001dab0 f   _nodert_generated.obj
 0001:0001cbd0       ?GetDeviceSelector@BluetoothAdapter@Bluetooth@Devices@Windows@@SAP$AAVString@Platform@@XZ 1001dbd0 f i _nodert_generated.obj
 0001:0001cca0       ?FromIdAsync@BluetoothAdapter@Bluetooth@Devices@Windows@@SAP$AAU?$IAsyncOperation@P$AAVBluetoothAdapter@Bluetooth@Devices@Windows@@@Foundation@4@P$AAVString@Platform@@@Z 1001dca0 f i _nodert_generated.obj
 0001:0001cd60       ?GetDefaultAsync@BluetoothAdapter@Bluetooth@Devices@Windows@@SAP$AAU?$IAsyncOperation@P$AAVBluetoothAdapter@Bluetooth@Devices@Windows@@@Foundation@4@XZ 1001dd60 f i _nodert_generated.obj
 0001:0001ce20       ?FromShortId@BluetoothUuidHelper@Bluetooth@Devices@Windows@@SA?AVGuid@Platform@@I@Z 1001de20 f i _nodert_generated.obj
 0001:0001cef0       ?TryGetShortId@BluetoothUuidHelper@Bluetooth@Devices@Windows@@SAP$AAU?$IBox@I@Platform@@VGuid@6@@Z 1001def0 f i _nodert_generated.obj
 0001:0001cfb0       ?__abi_Windows_Foundation_?$TypedEventHandler@P$AAVBluetoothDevice@Bluetooth@Devices@Windows@@P$AAVObject@Platform@@___abi_IDelegate____abi_Invoke@?Q__abi_IDelegate@?$TypedEventHandler@P$AAVBluetoothDevice@Bluetooth@Devices@Windows@@P$AAVObject@Platform@@@Foundation@Windows@@234@U$AAGJP$AAVBluetoothDevice@Bluetooth@Devices@4@P$AAVObject@Platform@@@Z 1001dfb0 f i _nodert_generated.obj
 0001:0001d040       ?__abi_QueryInterface@?$TypedEventHandler@P$AAVBluetoothDevice@Bluetooth@Devices@Windows@@P$AAVObject@Platform@@@Foundation@Windows@@U$AAGJAAVGuid@Platform@@PAPAX@Z 1001e040 f i _nodert_generated.obj
 0001:0001d160       ?__abi_AddRef@?$AsyncOperationCompletedHandler@P$AAVRfcommDeviceServicesResult@Rfcomm@Bluetooth@Devices@Windows@@@Foundation@Windows@@U$AAGKXZ 1001e160 f i _nodert_generated.obj
 0001:0001d160       ?__abi_AddRef@?$AsyncOperationCompletedHandler@W4DeviceAccessStatus@Enumeration@Devices@Windows@@@Foundation@Windows@@U$AAGKXZ 1001e160 f i _nodert_generated.obj
 0001:0001d160       ?__abi_AddRef@?$AsyncOperationCompletedHandler@P$AAVGattDeviceServicesResult@GenericAttributeProfile@Bluetooth@Devices@Windows@@@Foundation@Windows@@U$AAGKXZ 1001e160 f i _nodert_generated.obj
 0001:0001d160       ?__abi_AddRef@?$AsyncOperationCompletedHandler@P$AAVRadio@Radios@Devices@Windows@@@Foundation@Windows@@U$AAGKXZ 1001e160 f i _nodert_generated.obj
 0001:0001d160       ?__abi_AddRef@?$AsyncOperationCompletedHandler@P$AAVBluetoothAdapter@Bluetooth@Devices@Windows@@@Foundation@Windows@@U$AAGKXZ 1001e160 f i _nodert_generated.obj
 0001:0001d160       ?__abi_AddRef@?$AsyncOperationCompletedHandler@P$AAVBluetoothLEDevice@Bluetooth@Devices@Windows@@@Foundation@Windows@@U$AAGKXZ 1001e160 f i _nodert_generated.obj
 0001:0001d160       ?__abi_AddRef@?$AsyncOperationCompletedHandler@P$AAVBluetoothDevice@Bluetooth@Devices@Windows@@@Foundation@Windows@@U$AAGKXZ 1001e160 f i _nodert_generated.obj
 0001:0001d160       ?__abi_AddRef@?$TypedEventHandler@P$AAVBluetoothLEDevice@Bluetooth@Devices@Windows@@P$AAVObject@Platform@@@Foundation@Windows@@U$AAGKXZ 1001e160 f i _nodert_generated.obj
 0001:0001d160       ?__abi_AddRef@?$TypedEventHandler@P$AAVBluetoothDevice@Bluetooth@Devices@Windows@@P$AAVObject@Platform@@@Foundation@Windows@@U$AAGKXZ 1001e160 f i _nodert_generated.obj
 0001:0001d190       ?__abi_Release@?$AsyncOperationCompletedHandler@P$AAVBluetoothDevice@Bluetooth@Devices@Windows@@@Foundation@Windows@@U$AAGKXZ 1001e190 f i _nodert_generated.obj
 0001:0001d190       ?__abi_Release@?$TypedEventHandler@P$AAVBluetoothLEDevice@Bluetooth@Devices@Windows@@P$AAVObject@Platform@@@Foundation@Windows@@U$AAGKXZ 1001e190 f i _nodert_generated.obj
 0001:0001d190       ?__abi_Release@?$AsyncOperationCompletedHandler@P$AAVRadio@Radios@Devices@Windows@@@Foundation@Windows@@U$AAGKXZ 1001e190 f i _nodert_generated.obj
 0001:0001d190       ?__abi_Release@?$AsyncOperationCompletedHandler@P$AAVGattDeviceServicesResult@GenericAttributeProfile@Bluetooth@Devices@Windows@@@Foundation@Windows@@U$AAGKXZ 1001e190 f i _nodert_generated.obj
 0001:0001d190       ?__abi_Release@?$AsyncOperationCompletedHandler@P$AAVBluetoothLEDevice@Bluetooth@Devices@Windows@@@Foundation@Windows@@U$AAGKXZ 1001e190 f i _nodert_generated.obj
 0001:0001d190       ?__abi_Release@?$AsyncOperationCompletedHandler@W4DeviceAccessStatus@Enumeration@Devices@Windows@@@Foundation@Windows@@U$AAGKXZ 1001e190 f i _nodert_generated.obj
 0001:0001d190       ?__abi_Release@?$TypedEventHandler@P$AAVBluetoothDevice@Bluetooth@Devices@Windows@@P$AAVObject@Platform@@@Foundation@Windows@@U$AAGKXZ 1001e190 f i _nodert_generated.obj
 0001:0001d190       ?__abi_Release@?$AsyncOperationCompletedHandler@P$AAVRfcommDeviceServicesResult@Rfcomm@Bluetooth@Devices@Windows@@@Foundation@Windows@@U$AAGKXZ 1001e190 f i _nodert_generated.obj
 0001:0001d190       ?__abi_Release@?$AsyncOperationCompletedHandler@P$AAVBluetoothAdapter@Bluetooth@Devices@Windows@@@Foundation@Windows@@U$AAGKXZ 1001e190 f i _nodert_generated.obj
 0001:0001d2b0       ?__abi_GetIids@?$TypedEventHandler@P$AAVBluetoothDevice@Bluetooth@Devices@Windows@@P$AAVObject@Platform@@@Foundation@Windows@@U$AAGJPAKPAPAVGuid@Platform@@@Z 1001e2b0 f i _nodert_generated.obj
 0001:0001d2b0       ?__abi_GetIids@?$TypedEventHandler@P$AAVBluetoothLEDevice@Bluetooth@Devices@Windows@@P$AAVObject@Platform@@@Foundation@Windows@@U$AAGJPAKPAPAVGuid@Platform@@@Z 1001e2b0 f i _nodert_generated.obj
 0001:0001d310       ?__abi_GetRuntimeClassName@?$TypedEventHandler@P$AAVBluetoothDevice@Bluetooth@Devices@Windows@@P$AAVObject@Platform@@@Foundation@Windows@@U$AAGJPAPAUHSTRING__@@@Z 1001e310 f i _nodert_generated.obj
 0001:0001d330       ?__abi_GetTrustLevel@?$AsyncOperationCompletedHandler@P$AAVGattDeviceServicesResult@GenericAttributeProfile@Bluetooth@Devices@Windows@@@Foundation@Windows@@U$AAGJPAW4__abi_TrustLevel@@@Z 1001e330 f i _nodert_generated.obj
 0001:0001d330       ?__abi_GetTrustLevel@?$AsyncOperationCompletedHandler@P$AAVBluetoothAdapter@Bluetooth@Devices@Windows@@@Foundation@Windows@@U$AAGJPAW4__abi_TrustLevel@@@Z 1001e330 f i _nodert_generated.obj
 0001:0001d330       ?__abi_GetTrustLevel@?$TypedEventHandler@P$AAVBluetoothLEDevice@Bluetooth@Devices@Windows@@P$AAVObject@Platform@@@Foundation@Windows@@U$AAGJPAW4__abi_TrustLevel@@@Z 1001e330 f i _nodert_generated.obj
 0001:0001d330       ?__abi_GetTrustLevel@?$AsyncOperationCompletedHandler@P$AAVBluetoothDevice@Bluetooth@Devices@Windows@@@Foundation@Windows@@U$AAGJPAW4__abi_TrustLevel@@@Z 1001e330 f i _nodert_generated.obj
 0001:0001d330       ?__abi_GetTrustLevel@?$AsyncOperationCompletedHandler@P$AAVBluetoothLEDevice@Bluetooth@Devices@Windows@@@Foundation@Windows@@U$AAGJPAW4__abi_TrustLevel@@@Z 1001e330 f i _nodert_generated.obj
 0001:0001d330       ?__abi_GetTrustLevel@?QObject@Platform@@?$CustomBox@F@Details@2@U$AAGJPAW4__abi_TrustLevel@@@Z 1001e330 f i _nodert_generated.obj
 0001:0001d330       ?__abi_GetTrustLevel@?$AsyncOperationCompletedHandler@P$AAVRfcommDeviceServicesResult@Rfcomm@Bluetooth@Devices@Windows@@@Foundation@Windows@@U$AAGJPAW4__abi_TrustLevel@@@Z 1001e330 f i _nodert_generated.obj
 0001:0001d330       ?__abi_GetTrustLevel@?$AsyncOperationCompletedHandler@W4DeviceAccessStatus@Enumeration@Devices@Windows@@@Foundation@Windows@@U$AAGJPAW4__abi_TrustLevel@@@Z 1001e330 f i _nodert_generated.obj
 0001:0001d330       ?__abi_GetTrustLevel@?$TypedEventHandler@P$AAVBluetoothDevice@Bluetooth@Devices@Windows@@P$AAVObject@Platform@@@Foundation@Windows@@U$AAGJPAW4__abi_TrustLevel@@@Z 1001e330 f i _nodert_generated.obj
 0001:0001d330       ?__abi_GetTrustLevel@?$AsyncOperationCompletedHandler@P$AAVRadio@Radios@Devices@Windows@@@Foundation@Windows@@U$AAGJPAW4__abi_TrustLevel@@@Z 1001e330 f i _nodert_generated.obj
 0001:0001d330       ?__abi_GetTrustLevel@?QObject@Platform@@?$CustomBox@VTimeSpan@Foundation@Windows@@@Details@2@U$AAGJPAW4__abi_TrustLevel@@@Z 1001e330 f i _nodert_generated.obj
 0001:0001d340       ?Invoke@?$TypedEventHandler@P$AAVBluetoothDevice@Bluetooth@Devices@Windows@@P$AAVObject@Platform@@@Foundation@Windows@@U$AAAXP$AAVBluetoothDevice@Bluetooth@Devices@3@P$AAVObject@Platform@@@Z 1001e340 f i _nodert_generated.obj
 0001:0001d380       ?FromIdAsync@BluetoothDevice@Bluetooth@Devices@Windows@@SAP$AAU?$IAsyncOperation@P$AAVBluetoothDevice@Bluetooth@Devices@Windows@@@Foundation@4@P$AAVString@Platform@@@Z 1001e380 f i _nodert_generated.obj
 0001:0001d440       ?FromHostNameAsync@BluetoothDevice@Bluetooth@Devices@Windows@@SAP$AAU?$IAsyncOperation@P$AAVBluetoothDevice@Bluetooth@Devices@Windows@@@Foundation@4@P$AAVHostName@Networking@4@@Z 1001e440 f i _nodert_generated.obj
 0001:0001d500       ?FromBluetoothAddressAsync@BluetoothDevice@Bluetooth@Devices@Windows@@SAP$AAU?$IAsyncOperation@P$AAVBluetoothDevice@Bluetooth@Devices@Windows@@@Foundation@4@_K@Z 1001e500 f i _nodert_generated.obj
 0001:0001d5c0       ?GetDeviceSelector@BluetoothDevice@Bluetooth@Devices@Windows@@SAP$AAVString@Platform@@XZ 1001e5c0 f i _nodert_generated.obj
 0001:0001d690       ?GetDeviceSelectorFromPairingState@BluetoothDevice@Bluetooth@Devices@Windows@@SAP$AAVString@Platform@@_N@Z 1001e690 f i _nodert_generated.obj
 0001:0001d760       ?GetDeviceSelectorFromConnectionStatus@BluetoothDevice@Bluetooth@Devices@Windows@@SAP$AAVString@Platform@@W4BluetoothConnectionStatus@234@@Z 1001e760 f i _nodert_generated.obj
 0001:0001d830       ?GetDeviceSelectorFromDeviceName@BluetoothDevice@Bluetooth@Devices@Windows@@SAP$AAVString@Platform@@P$AAV56@@Z 1001e830 f i _nodert_generated.obj
 0001:0001d900       ?GetDeviceSelectorFromBluetoothAddress@BluetoothDevice@Bluetooth@Devices@Windows@@SAP$AAVString@Platform@@_K@Z 1001e900 f i _nodert_generated.obj
 0001:0001d9d0       ?GetDeviceSelectorFromClassOfDevice@BluetoothDevice@Bluetooth@Devices@Windows@@SAP$AAVString@Platform@@P$AAVBluetoothClassOfDevice@234@@Z 1001e9d0 f i _nodert_generated.obj
 0001:0001daa0       ?FromRawValue@BluetoothClassOfDevice@Bluetooth@Devices@Windows@@SAP$AAV1234@I@Z 1001eaa0 f i _nodert_generated.obj
 0001:0001db60       ?FromParts@BluetoothClassOfDevice@Bluetooth@Devices@Windows@@SAP$AAV1234@W4BluetoothMajorClass@234@W4BluetoothMinorClass@234@W4BluetoothServiceCapabilities@234@@Z 1001eb60 f i _nodert_generated.obj
 0001:0001dc20       ?CreateInt64@PropertyValue@Foundation@Windows@@SAP$AAVObject@Platform@@_J@Z 1001ec20 f i _nodert_generated.obj
 0001:0001dce0       ?get@BarcodeScanner@BluetoothLEAppearanceCategories@Bluetooth@Devices@Windows@@SAGXZ 1001ece0 f i _nodert_generated.obj
 0001:0001dd90       ?get@BloodPressure@BluetoothLEAppearanceCategories@Bluetooth@Devices@Windows@@SAGXZ 1001ed90 f i _nodert_generated.obj
 0001:0001de40       ?get@Clock@BluetoothLEAppearanceCategories@Bluetooth@Devices@Windows@@SAGXZ 1001ee40 f i _nodert_generated.obj
 0001:0001def0       ?get@Computer@BluetoothLEAppearanceCategories@Bluetooth@Devices@Windows@@SAGXZ 1001eef0 f i _nodert_generated.obj
 0001:0001dfa0       ?get@Cycling@BluetoothLEAppearanceCategories@Bluetooth@Devices@Windows@@SAGXZ 1001efa0 f i _nodert_generated.obj
 0001:0001e050       ?get@Display@BluetoothLEAppearanceCategories@Bluetooth@Devices@Windows@@SAGXZ 1001f050 f i _nodert_generated.obj
 0001:0001e100       ?get@EyeGlasses@BluetoothLEAppearanceCategories@Bluetooth@Devices@Windows@@SAGXZ 1001f100 f i _nodert_generated.obj
 0001:0001e1b0       ?get@GlucoseMeter@BluetoothLEAppearanceCategories@Bluetooth@Devices@Windows@@SAGXZ 1001f1b0 f i _nodert_generated.obj
 0001:0001e260       ?get@HeartRate@BluetoothLEAppearanceCategories@Bluetooth@Devices@Windows@@SAGXZ 1001f260 f i _nodert_generated.obj
 0001:0001e310       ?get@HumanInterfaceDevice@BluetoothLEAppearanceCategories@Bluetooth@Devices@Windows@@SAGXZ 1001f310 f i _nodert_generated.obj
 0001:0001e3c0       ?get@Keyring@BluetoothLEAppearanceCategories@Bluetooth@Devices@Windows@@SAGXZ 1001f3c0 f i _nodert_generated.obj
 0001:0001e470       ?get@MediaPlayer@BluetoothLEAppearanceCategories@Bluetooth@Devices@Windows@@SAGXZ 1001f470 f i _nodert_generated.obj
 0001:0001e520       ?get@OutdoorSportActivity@BluetoothLEAppearanceCategories@Bluetooth@Devices@Windows@@SAGXZ 1001f520 f i _nodert_generated.obj
 0001:0001e5d0       ?get@Phone@BluetoothLEAppearanceCategories@Bluetooth@Devices@Windows@@SAGXZ 1001f5d0 f i _nodert_generated.obj
 0001:0001e680       ?get@PulseOximeter@BluetoothLEAppearanceCategories@Bluetooth@Devices@Windows@@SAGXZ 1001f680 f i _nodert_generated.obj
 0001:0001e730       ?get@RemoteControl@BluetoothLEAppearanceCategories@Bluetooth@Devices@Windows@@SAGXZ 1001f730 f i _nodert_generated.obj
 0001:0001e7e0       ?get@RunningWalking@BluetoothLEAppearanceCategories@Bluetooth@Devices@Windows@@SAGXZ 1001f7e0 f i _nodert_generated.obj
 0001:0001e890       ?get@Tag@BluetoothLEAppearanceCategories@Bluetooth@Devices@Windows@@SAGXZ 1001f890 f i _nodert_generated.obj
 0001:0001e940       ?get@Thermometer@BluetoothLEAppearanceCategories@Bluetooth@Devices@Windows@@SAGXZ 1001f940 f i _nodert_generated.obj
 0001:0001e9f0       ?get@Uncategorized@BluetoothLEAppearanceCategories@Bluetooth@Devices@Windows@@SAGXZ 1001f9f0 f i _nodert_generated.obj
 0001:0001eaa0       ?get@Watch@BluetoothLEAppearanceCategories@Bluetooth@Devices@Windows@@SAGXZ 1001faa0 f i _nodert_generated.obj
 0001:0001eb50       ?get@WeightScale@BluetoothLEAppearanceCategories@Bluetooth@Devices@Windows@@SAGXZ 1001fb50 f i _nodert_generated.obj
 0001:0001ec00       ?get@BarcodeScanner@BluetoothLEAppearanceSubcategories@Bluetooth@Devices@Windows@@SAGXZ 1001fc00 f i _nodert_generated.obj
 0001:0001ecb0       ?get@BloodPressureArm@BluetoothLEAppearanceSubcategories@Bluetooth@Devices@Windows@@SAGXZ 1001fcb0 f i _nodert_generated.obj
 0001:0001ed60       ?get@BloodPressureWrist@BluetoothLEAppearanceSubcategories@Bluetooth@Devices@Windows@@SAGXZ 1001fd60 f i _nodert_generated.obj
 0001:0001ee10       ?get@CardReader@BluetoothLEAppearanceSubcategories@Bluetooth@Devices@Windows@@SAGXZ 1001fe10 f i _nodert_generated.obj
 0001:0001eec0       ?get@CyclingCadenceSensor@BluetoothLEAppearanceSubcategories@Bluetooth@Devices@Windows@@SAGXZ 1001fec0 f i _nodert_generated.obj
 0001:0001ef70       ?get@CyclingComputer@BluetoothLEAppearanceSubcategories@Bluetooth@Devices@Windows@@SAGXZ 1001ff70 f i _nodert_generated.obj
 0001:0001f020       ?get@CyclingPowerSensor@BluetoothLEAppearanceSubcategories@Bluetooth@Devices@Windows@@SAGXZ 10020020 f i _nodert_generated.obj
 0001:0001f0d0       ?get@CyclingSpeedCadenceSensor@BluetoothLEAppearanceSubcategories@Bluetooth@Devices@Windows@@SAGXZ 100200d0 f i _nodert_generated.obj
 0001:0001f180       ?get@CyclingSpeedSensor@BluetoothLEAppearanceSubcategories@Bluetooth@Devices@Windows@@SAGXZ 10020180 f i _nodert_generated.obj
 0001:0001f230       ?get@DigitalPen@BluetoothLEAppearanceSubcategories@Bluetooth@Devices@Windows@@SAGXZ 10020230 f i _nodert_generated.obj
 0001:0001f2e0       ?get@DigitizerTablet@BluetoothLEAppearanceSubcategories@Bluetooth@Devices@Windows@@SAGXZ 100202e0 f i _nodert_generated.obj
 0001:0001f390       ?get@Gamepad@BluetoothLEAppearanceSubcategories@Bluetooth@Devices@Windows@@SAGXZ 10020390 f i _nodert_generated.obj
 0001:0001f440       ?get@Generic@BluetoothLEAppearanceSubcategories@Bluetooth@Devices@Windows@@SAGXZ 10020440 f i _nodert_generated.obj
 0001:0001f4f0       ?get@HeartRateBelt@BluetoothLEAppearanceSubcategories@Bluetooth@Devices@Windows@@SAGXZ 100204f0 f i _nodert_generated.obj
 0001:0001f5a0       ?get@Joystick@BluetoothLEAppearanceSubcategories@Bluetooth@Devices@Windows@@SAGXZ 100205a0 f i _nodert_generated.obj
 0001:0001f650       ?get@Keyboard@BluetoothLEAppearanceSubcategories@Bluetooth@Devices@Windows@@SAGXZ 10020650 f i _nodert_generated.obj
 0001:0001f700       ?get@LocationDisplay@BluetoothLEAppearanceSubcategories@Bluetooth@Devices@Windows@@SAGXZ 10020700 f i _nodert_generated.obj
 0001:0001f7b0       ?get@LocationNavigationDisplay@BluetoothLEAppearanceSubcategories@Bluetooth@Devices@Windows@@SAGXZ 100207b0 f i _nodert_generated.obj
 0001:0001f860       ?get@LocationNavigationPod@BluetoothLEAppearanceSubcategories@Bluetooth@Devices@Windows@@SAGXZ 10020860 f i _nodert_generated.obj
 0001:0001f910       ?get@LocationPod@BluetoothLEAppearanceSubcategories@Bluetooth@Devices@Windows@@SAGXZ 10020910 f i _nodert_generated.obj
 0001:0001f9c0       ?get@Mouse@BluetoothLEAppearanceSubcategories@Bluetooth@Devices@Windows@@SAGXZ 100209c0 f i _nodert_generated.obj
 0001:0001fa70       ?get@OximeterFingertip@BluetoothLEAppearanceSubcategories@Bluetooth@Devices@Windows@@SAGXZ 10020a70 f i _nodert_generated.obj
 0001:0001fb20       ?get@OximeterWristWorn@BluetoothLEAppearanceSubcategories@Bluetooth@Devices@Windows@@SAGXZ 10020b20 f i _nodert_generated.obj
 0001:0001fbd0       ?get@RunningWalkingInShoe@BluetoothLEAppearanceSubcategories@Bluetooth@Devices@Windows@@SAGXZ 10020bd0 f i _nodert_generated.obj
 0001:0001fc80       ?get@RunningWalkingOnHip@BluetoothLEAppearanceSubcategories@Bluetooth@Devices@Windows@@SAGXZ 10020c80 f i _nodert_generated.obj
 0001:0001fd30       ?get@RunningWalkingOnShoe@BluetoothLEAppearanceSubcategories@Bluetooth@Devices@Windows@@SAGXZ 10020d30 f i _nodert_generated.obj
 0001:0001fde0       ?get@SportsWatch@BluetoothLEAppearanceSubcategories@Bluetooth@Devices@Windows@@SAGXZ 10020de0 f i _nodert_generated.obj
 0001:0001fe90       ?get@ThermometerEar@BluetoothLEAppearanceSubcategories@Bluetooth@Devices@Windows@@SAGXZ 10020e90 f i _nodert_generated.obj
 0001:0001ff40       ?FromRawValue@BluetoothLEAppearance@Bluetooth@Devices@Windows@@SAP$AAV1234@G@Z 10020f40 f i _nodert_generated.obj
 0001:00020000       ?FromParts@BluetoothLEAppearance@Bluetooth@Devices@Windows@@SAP$AAV1234@GG@Z 10021000 f i _nodert_generated.obj
 0001:000200c0       ?__abi_Windows_Foundation_?$TypedEventHandler@P$AAVBluetoothLEDevice@Bluetooth@Devices@Windows@@P$AAVObject@Platform@@___abi_IDelegate____abi_Invoke@?Q__abi_IDelegate@?$TypedEventHandler@P$AAVBluetoothLEDevice@Bluetooth@Devices@Windows@@P$AAVObject@Platform@@@Foundation@Windows@@234@U$AAGJP$AAVBluetoothLEDevice@Bluetooth@Devices@4@P$AAVObject@Platform@@@Z 100210c0 f i _nodert_generated.obj
 0001:00020150       ?__abi_QueryInterface@?$TypedEventHandler@P$AAVBluetoothLEDevice@Bluetooth@Devices@Windows@@P$AAVObject@Platform@@@Foundation@Windows@@U$AAGJAAVGuid@Platform@@PAPAX@Z 10021150 f i _nodert_generated.obj
 0001:00020270       ?__abi_GetRuntimeClassName@?$TypedEventHandler@P$AAVBluetoothLEDevice@Bluetooth@Devices@Windows@@P$AAVObject@Platform@@@Foundation@Windows@@U$AAGJPAPAUHSTRING__@@@Z 10021270 f i _nodert_generated.obj
 0001:00020290       ?Invoke@?$TypedEventHandler@P$AAVBluetoothLEDevice@Bluetooth@Devices@Windows@@P$AAVObject@Platform@@@Foundation@Windows@@U$AAAXP$AAVBluetoothLEDevice@Bluetooth@Devices@3@P$AAVObject@Platform@@@Z 10021290 f i _nodert_generated.obj
 0001:000202d0       ?GetDeviceSelectorFromPairingState@BluetoothLEDevice@Bluetooth@Devices@Windows@@SAP$AAVString@Platform@@_N@Z 100212d0 f i _nodert_generated.obj
 0001:000203a0       ?GetDeviceSelectorFromConnectionStatus@BluetoothLEDevice@Bluetooth@Devices@Windows@@SAP$AAVString@Platform@@W4BluetoothConnectionStatus@234@@Z 100213a0 f i _nodert_generated.obj
 0001:00020470       ?GetDeviceSelectorFromDeviceName@BluetoothLEDevice@Bluetooth@Devices@Windows@@SAP$AAVString@Platform@@P$AAV56@@Z 10021470 f i _nodert_generated.obj
 0001:00020540       ?GetDeviceSelectorFromBluetoothAddress@BluetoothLEDevice@Bluetooth@Devices@Windows@@SAP$AAVString@Platform@@_KW4BluetoothAddressType@234@@Z 10021540 f i _nodert_generated.obj
 0001:00020610       ?GetDeviceSelectorFromBluetoothAddress@BluetoothLEDevice@Bluetooth@Devices@Windows@@SAP$AAVString@Platform@@_K@Z 10021610 f i _nodert_generated.obj
 0001:000206e0       ?GetDeviceSelectorFromAppearance@BluetoothLEDevice@Bluetooth@Devices@Windows@@SAP$AAVString@Platform@@P$AAVBluetoothLEAppearance@234@@Z 100216e0 f i _nodert_generated.obj
 0001:000207b0       ?FromBluetoothAddressAsync@BluetoothLEDevice@Bluetooth@Devices@Windows@@SAP$AAU?$IAsyncOperation@P$AAVBluetoothLEDevice@Bluetooth@Devices@Windows@@@Foundation@4@_KW4BluetoothAddressType@234@@Z 100217b0 f i _nodert_generated.obj
 0001:00020870       ?FromIdAsync@BluetoothLEDevice@Bluetooth@Devices@Windows@@SAP$AAU?$IAsyncOperation@P$AAVBluetoothLEDevice@Bluetooth@Devices@Windows@@@Foundation@4@P$AAVString@Platform@@@Z 10021870 f i _nodert_generated.obj
 0001:00020930       ?FromBluetoothAddressAsync@BluetoothLEDevice@Bluetooth@Devices@Windows@@SAP$AAU?$IAsyncOperation@P$AAVBluetoothLEDevice@Bluetooth@Devices@Windows@@@Foundation@4@_K@Z 10021930 f i _nodert_generated.obj
 0001:000209f0       ?GetDeviceSelector@BluetoothLEDevice@Bluetooth@Devices@Windows@@SAP$AAVString@Platform@@XZ 100219f0 f i _nodert_generated.obj
 0001:00020ac0       ??0BluetoothSignalStrengthFilter@Bluetooth@Devices@Windows@@Q$AAA@XZ 10021ac0 f i _nodert_generated.obj
 0001:00020bd0       ??0?$Box@F@Platform@@Q$AAA@F@Z 10021bd0 f i _nodert_generated.obj
 0001:00020d90       ?__abi_Platform_Details_IPrintable____abi_ToString@?QIPrintable@Details@Platform@@?$CustomBox@VTimeSpan@Foundation@Windows@@@23@U$AAGJPAP$AAVString@3@@Z 10021d90 f i _nodert_generated.obj
 0001:00020d90       ?__abi_Platform_Details_IPrintable____abi_ToString@?QIPrintable@Details@Platform@@?$CustomBox@F@23@U$AAGJPAP$AAVString@3@@Z 10021d90 f i _nodert_generated.obj
 0001:00020e70       ?__abi_Platform_Details_IWeakReferenceSource____abi_GetWeakReference@?QIWeakReferenceSource@Details@Platform@@?$CustomBox@F@23@U$AAGJPAP$AAUIWeakReference@23@@Z 10021e70 f i _nodert_generated.obj
 0001:00020f20       ?__abi_Platform_?$IBox@F____abi_get_Value@?Q?$IBox@F@Platform@@?$CustomBox@F@Details@2@U$AAGJPAF@Z 10021f20 f i _nodert_generated.obj
 0001:00020fc0       ?__abi_QueryInterface@?QObject@Platform@@?$CustomBox@F@Details@2@U$AAGJAAVGuid@2@PAPAX@Z 10021fc0 f i _nodert_generated.obj
 0001:00021170       ?__abi_AddRef@?QObject@Platform@@?$CustomBox@F@Details@2@U$AAGKXZ 10022170 f i _nodert_generated.obj
 0001:000211a0       ?__abi_Release@?QObject@Platform@@?$CustomBox@F@Details@2@U$AAGKXZ 100221a0 f i _nodert_generated.obj
 0001:00021250       ?__abi_GetIids@?QObject@Platform@@?$CustomBox@F@Details@2@U$AAGJPAKPAPAVGuid@2@@Z 10022250 f i _nodert_generated.obj
 0001:000212f0       ?__abi_GetRuntimeClassName@?QObject@Platform@@?$CustomBox@F@Details@2@U$AAGJPAPAUHSTRING__@@@Z 100222f0 f i _nodert_generated.obj
 0001:00021310       ?GetWeakReference@?QIWeakReferenceSource@Details@Platform@@?$CustomBox@F@23@U$AAAP$AAUIWeakReference@23@XZ 10022310 f i _nodert_generated.obj
 0001:00021360       ??1?$function@$$A6AP$AAVGattDeviceService@GenericAttributeProfile@Bluetooth@Devices@Windows@@V?$Local@VValue@v8@@@v8@@@Z@std@@QAE@XZ 10022360 f i _nodert_generated.obj
 0001:00021360       ??1?$_Func_class@P$AAVGattDeviceService@GenericAttributeProfile@Bluetooth@Devices@Windows@@V?$Local@VValue@v8@@@v8@@@std@@QAE@XZ 10022360 f i _nodert_generated.obj
 0001:000213b0       ??1?$_Func_class@V?$Local@VValue@v8@@@v8@@P$AAVGattDeviceService@GenericAttributeProfile@Bluetooth@Devices@Windows@@@std@@QAE@XZ 100223b0 f i _nodert_generated.obj
 0001:000213b0       ??1?$function@$$A6A?AV?$Local@VValue@v8@@@v8@@P$AAVGattDeviceService@GenericAttributeProfile@Bluetooth@Devices@Windows@@@Z@std@@QAE@XZ 100223b0 f i _nodert_generated.obj
 0001:00021400       ?CreateVectorViewWrapper@?$VectorViewWrapper@P$AAVGattDeviceService@GenericAttributeProfile@Bluetooth@Devices@Windows@@@Collections@NodeRT@@SA?AV?$Local@VValue@v8@@@v8@@P$AAU?$IVectorView@P$AAVGattDeviceService@GenericAttributeProfile@Bluetooth@Devices@Windows@@@2Foundation@Windows@@ABV?$function@$$A6A?AV?$Local@VValue@v8@@@v8@@P$AAVGattDeviceService@GenericAttributeProfile@Bluetooth@Devices@Windows@@@Z@std@@ABV?$function@$$A6A_NV?$Local@VValue@v8@@@v8@@@Z@std@@ABV?$function@$$A6AP$AAVGattDeviceService@GenericAttributeProfile@Bluetooth@Devices@Windows@@V?$Local@VValue@v8@@@v8@@@Z@std@@@Z 10022400 f i _nodert_generated.obj
 0001:00021570       ??1?$shared_ptr@U?$_Task_impl@P$AAVBluetoothLEDevice@Bluetooth@Devices@Windows@@@details@Concurrency@@@std@@QAE@XZ 10022570 f i _nodert_generated.obj
 0001:00021570       ??1?$shared_ptr@U?$_Task_impl@P$AAVRadio@Radios@Devices@Windows@@@details@Concurrency@@@std@@QAE@XZ 10022570 f i _nodert_generated.obj
 0001:00021570       ??1?$shared_ptr@U_Task_impl_base@details@Concurrency@@@std@@QAE@XZ 10022570 f i _nodert_generated.obj
 0001:00021570       ??1?$shared_ptr@U?$_Task_impl@W4DeviceAccessStatus@Enumeration@Devices@Windows@@@details@Concurrency@@@std@@QAE@XZ 10022570 f i _nodert_generated.obj
 0001:00021570       ??1?$shared_ptr@U?$_Task_impl@P$AAVGattDeviceServicesResult@GenericAttributeProfile@Bluetooth@Devices@Windows@@@details@Concurrency@@@std@@QAE@XZ 10022570 f i _nodert_generated.obj
 0001:00021570       ??1?$shared_ptr@U?$_Task_impl@E@details@Concurrency@@@std@@QAE@XZ 10022570 f i _nodert_generated.obj
 0001:00021570       ??1?$shared_ptr@U_ExceptionHolder@details@Concurrency@@@std@@QAE@XZ 10022570 f i _nodert_generated.obj
 0001:00021570       ??1?$shared_ptr@Uscheduler_interface@Concurrency@@@std@@QAE@XZ 10022570 f i _nodert_generated.obj
 0001:00021570       ??1?$shared_ptr@V?$Persistent@VObject@v8@@V?$NonCopyablePersistentTraits@VObject@v8@@@2@@Nan@@@std@@QAE@XZ 10022570 f i _nodert_generated.obj
 0001:00021570       ??1?$shared_ptr@U?$_Task_impl@P$AAVRfcommDeviceServicesResult@Rfcomm@Bluetooth@Devices@Windows@@@details@Concurrency@@@std@@QAE@XZ 10022570 f i _nodert_generated.obj
 0001:00021570       ??1?$shared_ptr@U?$_Task_impl@P$AAVBluetoothAdapter@Bluetooth@Devices@Windows@@@details@Concurrency@@@std@@QAE@XZ 10022570 f i _nodert_generated.obj
 0001:00021570       ??1?$shared_ptr@U?$_Task_impl@P$AAVBluetoothDevice@Bluetooth@Devices@Windows@@@details@Concurrency@@@std@@QAE@XZ 10022570 f i _nodert_generated.obj
 0001:000215a0       ?get@?$task@P$AAVRfcommDeviceServicesResult@Rfcomm@Bluetooth@Devices@Windows@@@Concurrency@@QBEP$AAVRfcommDeviceServicesResult@Rfcomm@Bluetooth@Devices@Windows@@XZ 100225a0 f i _nodert_generated.obj
 0001:000215a0       ?get@?$task@P$AAVBluetoothAdapter@Bluetooth@Devices@Windows@@@Concurrency@@QBEP$AAVBluetoothAdapter@Bluetooth@Devices@Windows@@XZ 100225a0 f i _nodert_generated.obj
 0001:000215a0       ?get@?$task@P$AAVGattDeviceServicesResult@GenericAttributeProfile@Bluetooth@Devices@Windows@@@Concurrency@@QBEP$AAVGattDeviceServicesResult@GenericAttributeProfile@Bluetooth@Devices@Windows@@XZ 100225a0 f i _nodert_generated.obj
 0001:000215a0       ?get@?$task@P$AAVRadio@Radios@Devices@Windows@@@Concurrency@@QBEP$AAVRadio@Radios@Devices@Windows@@XZ 100225a0 f i _nodert_generated.obj
 0001:000215a0       ?get@?$task@P$AAVBluetoothLEDevice@Bluetooth@Devices@Windows@@@Concurrency@@QBEP$AAVBluetoothLEDevice@Bluetooth@Devices@Windows@@XZ 100225a0 f i _nodert_generated.obj
 0001:000215a0       ?get@?$task@P$AAVBluetoothDevice@Bluetooth@Devices@Windows@@@Concurrency@@QBEP$AAVBluetoothDevice@Bluetooth@Devices@Windows@@XZ 100225a0 f i _nodert_generated.obj
 0001:00021640       ??1?$function@$$A6AP$AAUIBuffer@Streams@Storage@Windows@@V?$Local@VValue@v8@@@v8@@@Z@std@@QAE@XZ 10022640 f i _nodert_generated.obj
 0001:00021640       ??1?$_Func_class@P$AAUIBuffer@Streams@Storage@Windows@@V?$Local@VValue@v8@@@v8@@@std@@QAE@XZ 10022640 f i _nodert_generated.obj
 0001:00021690       ??1?$function@$$A6A?AV?$Local@VValue@v8@@@v8@@P$AAUIBuffer@Streams@Storage@Windows@@@Z@std@@QAE@XZ 10022690 f i _nodert_generated.obj
 0001:00021690       ??1?$_Func_class@V?$Local@VValue@v8@@@v8@@P$AAUIBuffer@Streams@Storage@Windows@@@std@@QAE@XZ 10022690 f i _nodert_generated.obj
 0001:000216e0       ?CreateVectorViewWrapper@?$VectorViewWrapper@P$AAUIBuffer@Streams@Storage@Windows@@@Collections@NodeRT@@SA?AV?$Local@VValue@v8@@@v8@@P$AAU?$IVectorView@P$AAUIBuffer@Streams@Storage@Windows@@@2Foundation@Windows@@ABV?$function@$$A6A?AV?$Local@VValue@v8@@@v8@@P$AAUIBuffer@Streams@Storage@Windows@@@Z@std@@ABV?$function@$$A6A_NV?$Local@VValue@v8@@@v8@@@Z@std@@ABV?$function@$$A6AP$AAUIBuffer@Streams@Storage@Windows@@V?$Local@VValue@v8@@@v8@@@Z@std@@@Z 100226e0 f i _nodert_generated.obj
 0001:00021850       ??1?$function@$$A6AP$AAVRfcommDeviceService@Rfcomm@Bluetooth@Devices@Windows@@V?$Local@VValue@v8@@@v8@@@Z@std@@QAE@XZ 10022850 f i _nodert_generated.obj
 0001:00021850       ??1?$_Func_class@P$AAVRfcommDeviceService@Rfcomm@Bluetooth@Devices@Windows@@V?$Local@VValue@v8@@@v8@@@std@@QAE@XZ 10022850 f i _nodert_generated.obj
 0001:000218a0       ??1?$_Func_class@V?$Local@VValue@v8@@@v8@@P$AAVRfcommDeviceService@Rfcomm@Bluetooth@Devices@Windows@@@std@@QAE@XZ 100228a0 f i _nodert_generated.obj
 0001:000218a0       ??1?$function@$$A6A?AV?$Local@VValue@v8@@@v8@@P$AAVRfcommDeviceService@Rfcomm@Bluetooth@Devices@Windows@@@Z@std@@QAE@XZ 100228a0 f i _nodert_generated.obj
 0001:000218f0       ?CreateVectorViewWrapper@?$VectorViewWrapper@P$AAVRfcommDeviceService@Rfcomm@Bluetooth@Devices@Windows@@@Collections@NodeRT@@SA?AV?$Local@VValue@v8@@@v8@@P$AAU?$IVectorView@P$AAVRfcommDeviceService@Rfcomm@Bluetooth@Devices@Windows@@@2Foundation@Windows@@ABV?$function@$$A6A?AV?$Local@VValue@v8@@@v8@@P$AAVRfcommDeviceService@Rfcomm@Bluetooth@Devices@Windows@@@Z@std@@ABV?$function@$$A6A_NV?$Local@VValue@v8@@@v8@@@Z@std@@ABV?$function@$$A6AP$AAVRfcommDeviceService@Rfcomm@Bluetooth@Devices@Windows@@V?$Local@VValue@v8@@@v8@@@Z@std@@@Z 100228f0 f i _nodert_generated.obj
 0001:00021a60       ??1?$unique_ptr@$$BY0A@V?$Local@VValue@v8@@@v8@@U?$default_delete@$$BY0A@V?$Local@VValue@v8@@@v8@@@std@@@std@@QAE@XZ 10022a60 f i _nodert_generated.obj
 0001:00021a70       ??1?$_Func_class@XV?$task@P$AAVBluetoothDevice@Bluetooth@Devices@Windows@@@Concurrency@@@std@@QAE@XZ 10022a70 f i _nodert_generated.obj
 0001:00021a70       ??1?$_Func_class@_NV?$Local@VValue@v8@@@v8@@@std@@QAE@XZ 10022a70 f i _nodert_generated.obj
 0001:00021a70       ??1?$_Func_class@X$$V@std@@QAE@XZ 10022a70 f i _nodert_generated.obj
 0001:00021a70       ??1?$function@$$A6AXV?$task@P$AAVBluetoothLEDevice@Bluetooth@Devices@Windows@@@Concurrency@@@Z@std@@QAE@XZ 10022a70 f i _nodert_generated.obj
 0001:00021a70       ??1?$function@$$A6AXV?$task@P$AAVRfcommDeviceServicesResult@Rfcomm@Bluetooth@Devices@Windows@@@Concurrency@@@Z@std@@QAE@XZ 10022a70 f i _nodert_generated.obj
 0001:00021a70       ??1?$function@$$A6AXV?$task@P$AAVGattDeviceServicesResult@GenericAttributeProfile@Bluetooth@Devices@Windows@@@Concurrency@@@Z@std@@QAE@XZ 10022a70 f i _nodert_generated.obj
 0001:00021a70       ??1?$function@$$A6AXV?$function@$$A6AXHPAV?$Local@VValue@v8@@@v8@@@Z@std@@@Z@std@@QAE@XZ 10022a70 f i _nodert_generated.obj
 0001:00021a70       ??1?$_Func_class@XV?$task@P$AAVGattDeviceServicesResult@GenericAttributeProfile@Bluetooth@Devices@Windows@@@Concurrency@@@std@@QAE@XZ 10022a70 f i _nodert_generated.obj
 0001:00021a70       ??1?$function@$$A6AXV?$task@P$AAVBluetoothDevice@Bluetooth@Devices@Windows@@@Concurrency@@@Z@std@@QAE@XZ 10022a70 f i _nodert_generated.obj
 0001:00021a70       ??1?$_Func_class@XV?$task@W4DeviceAccessStatus@Enumeration@Devices@Windows@@@Concurrency@@@std@@QAE@XZ 10022a70 f i _nodert_generated.obj
 0001:00021a70       ??1?$_Func_class@XV?$task@P$AAVBluetoothLEDevice@Bluetooth@Devices@Windows@@@Concurrency@@@std@@QAE@XZ 10022a70 f i _nodert_generated.obj
 0001:00021a70       ??1?$_Func_class@XV?$task@P$AAVRfcommDeviceServicesResult@Rfcomm@Bluetooth@Devices@Windows@@@Concurrency@@@std@@QAE@XZ 10022a70 f i _nodert_generated.obj
 0001:00021a70       ??1?$_Func_class@XV?$function@$$A6AXHPAV?$Local@VValue@v8@@@v8@@@Z@std@@@std@@QAE@XZ 10022a70 f i _nodert_generated.obj
 0001:00021a70       ??1?$_Func_class@XV?$task@P$AAVBluetoothAdapter@Bluetooth@Devices@Windows@@@Concurrency@@@std@@QAE@XZ 10022a70 f i _nodert_generated.obj
 0001:00021a70       ??1?$function@$$A6AXV?$task@P$AAVBluetoothAdapter@Bluetooth@Devices@Windows@@@Concurrency@@@Z@std@@QAE@XZ 10022a70 f i _nodert_generated.obj
 0001:00021a70       ??1?$function@$$A6AXV?$task@W4DeviceAccessStatus@Enumeration@Devices@Windows@@@Concurrency@@@Z@std@@QAE@XZ 10022a70 f i _nodert_generated.obj
 0001:00021a70       ??1?$function@$$A6AXXZ@std@@QAE@XZ 10022a70 f i _nodert_generated.obj
 0001:00021a70       ??1?$function@$$A6A_NV?$Local@VValue@v8@@@v8@@@Z@std@@QAE@XZ 10022a70 f i _nodert_generated.obj
 0001:00021aa0       ??1?$function@$$A6AXHPAV?$Local@VValue@v8@@@v8@@@Z@std@@QAE@XZ 10022aa0 f i _nodert_generated.obj
 0001:00021ad0       ?_CreateImpl@?$task@E@Concurrency@@QAEXPAV_CancellationTokenState@details@2@Uscheduler_ptr@2@@Z 10022ad0 f i _nodert_generated.obj
 0001:00021c70       ?_CancelAndRunContinuations@?$_Task_impl@E@details@Concurrency@@UAE_N_N00ABV?$shared_ptr@U_ExceptionHolder@details@Concurrency@@@std@@@Z 10022c70 f i _nodert_generated.obj
 0001:00021e50       ??1?$_Task_impl@E@details@Concurrency@@UAE@XZ 10022e50 f i _nodert_generated.obj
 0001:00021f00       ?_Exec@?$_CancellationTokenCallback@V<lambda_3b8ab8d2629adf61a42ee3fe177a046b>@@@details@Concurrency@@MAEXXZ 10022f00 f i _nodert_generated.obj
 0001:00021f90       ??0?$_CancellationTokenCallback@V<lambda_3b8ab8d2629adf61a42ee3fe177a046b>@@@details@Concurrency@@QAE@ABV<lambda_3b8ab8d2629adf61a42ee3fe177a046b>@@@Z 10022f90 f i _nodert_generated.obj
 0001:00022020       ?lock@?$weak_ptr@U_Task_impl_base@details@Concurrency@@@std@@QBE?AV?$shared_ptr@U_Task_impl_base@details@Concurrency@@@2@XZ 10023020 f i _nodert_generated.obj
 0001:00022050       ??1?$weak_ptr@U_Task_impl_base@details@Concurrency@@@std@@QAE@XZ 10023050 f i _nodert_generated.obj
 0001:00022070       ??4?$vector@PAXV?$allocator@PAX@std@@@std@@QAEAAV01@ABV01@@Z 10023070 f i _nodert_generated.obj
 0001:00022170       ??0?$vector@PAXV?$allocator@PAX@std@@@std@@QAE@ABV01@@Z 10023170 f i _nodert_generated.obj
 0001:00022200       ??1?$unique_ptr@U_TaskProcHandle@details@Concurrency@@U?$default_delete@U_TaskProcHandle@details@Concurrency@@@std@@@std@@QAE@XZ 10023200 f i _nodert_generated.obj
 0001:00022210       ??1?$unique_ptr@V_PPLTaskChore@_DefaultPPLTaskScheduler@details@Concurrency@@U?$default_delete@V_PPLTaskChore@_DefaultPPLTaskScheduler@details@Concurrency@@@std@@@std@@QAE@XZ 10023210 f i _nodert_generated.obj
 0001:00022270       ??1?$lock_guard@Vmutex@std@@@std@@QAE@XZ 10023270 f i _nodert_generated.obj
 0001:00022290       ??1?$unique_lock@Vmutex@std@@@std@@QAE@XZ 10023290 f i _nodert_generated.obj
 0001:000222b0       ??A?$FunctionCallbackInfo@VValue@v8@@@Nan@@QBE?AV?$Local@VValue@v8@@@v8@@H@Z 100232b0 f i _nodert_generated.obj
 0001:000222f0       ??0?$Box@VTimeSpan@Foundation@Windows@@@Platform@@Q$AAA@VTimeSpan@Foundation@Windows@@@Z 100232f0 f i _nodert_generated.obj
 0001:000224b0       ?__abi_Platform_Details_IWeakReferenceSource____abi_GetWeakReference@?QIWeakReferenceSource@Details@Platform@@?$CustomBox@VTimeSpan@Foundation@Windows@@@23@U$AAGJPAP$AAUIWeakReference@23@@Z 100234b0 f i _nodert_generated.obj
 0001:00022560       ?__abi_Platform_?$IBox@VTimeSpan@Foundation@Windows@@____abi_get_Value@?Q?$IBox@VTimeSpan@Foundation@Windows@@@Platform@@?$CustomBox@VTimeSpan@Foundation@Windows@@@Details@2@U$AAGJPAVTimeSpan@Foundation@Windows@@@Z 10023560 f i _nodert_generated.obj
 0001:00022620       ?__abi_QueryInterface@?QObject@Platform@@?$CustomBox@VTimeSpan@Foundation@Windows@@@Details@2@U$AAGJAAVGuid@2@PAPAX@Z 10023620 f i _nodert_generated.obj
 0001:000227d0       ?__abi_AddRef@?QObject@Platform@@?$CustomBox@VTimeSpan@Foundation@Windows@@@Details@2@U$AAGKXZ 100237d0 f i _nodert_generated.obj
 0001:00022800       ?__abi_Release@?QObject@Platform@@?$CustomBox@VTimeSpan@Foundation@Windows@@@Details@2@U$AAGKXZ 10023800 f i _nodert_generated.obj
 0001:000228b0       ?__abi_GetIids@?QObject@Platform@@?$CustomBox@VTimeSpan@Foundation@Windows@@@Details@2@U$AAGJPAKPAPAVGuid@2@@Z 100238b0 f i _nodert_generated.obj
 0001:00022950       ?__abi_GetRuntimeClassName@?QObject@Platform@@?$CustomBox@VTimeSpan@Foundation@Windows@@@Details@2@U$AAGJPAPAUHSTRING__@@@Z 10023950 f i _nodert_generated.obj
 0001:00022970       ?GetWeakReference@?QIWeakReferenceSource@Details@Platform@@?$CustomBox@VTimeSpan@Foundation@Windows@@@23@U$AAAP$AAUIWeakReference@23@XZ 10023970 f i _nodert_generated.obj
 0001:000229c0       ??_G?$_Task_impl@E@details@Concurrency@@UAEPAXI@Z 100239c0 f i _nodert_generated.obj
 0001:000229c0       ??_E?$_Task_impl@E@details@Concurrency@@UAEPAXI@Z 100239c0 f i * CIL library *:* CIL module *
 0001:000229f0       ??_G?$_CancellationTokenCallback@V<lambda_3b8ab8d2629adf61a42ee3fe177a046b>@@@details@Concurrency@@UAEPAXI@Z 100239f0 f i _nodert_generated.obj
 0001:000229f0       ??_E?$_CancellationTokenCallback@V<lambda_3b8ab8d2629adf61a42ee3fe177a046b>@@@details@Concurrency@@UAEPAXI@Z 100239f0 f i * CIL library *:* CIL module *
 0001:00022a80       ?get@?Q?$IBox@VTimeSpan@Foundation@Windows@@@Platform@@Value@?$CustomBox@VTimeSpan@Foundation@Windows@@@Details@2@U$AAA?AVTimeSpan@Foundation@Windows@@XZ 10023a80 f i _nodert_generated.obj
 0001:00022aa0       ?ToString@?$CustomBox@VTimeSpan@Foundation@Windows@@@Details@Platform@@U$AAAP$AAVString@3@XZ 10023aa0 f i _nodert_generated.obj
 0001:00022aa0       ?ToString@?$CustomBox@F@Details@Platform@@U$AAAP$AAVString@3@XZ 10023aa0 f i _nodert_generated.obj
 0001:00022b10       ??0?$CustomBox@VTimeSpan@Foundation@Windows@@@Details@Platform@@Q$AAA@VTimeSpan@Foundation@Windows@@@Z 10023b10 f i _nodert_generated.obj
 0001:00022bc0       ?get@?Q?$IBox@F@Platform@@Value@?$CustomBox@F@Details@2@U$AAAFXZ 10023bc0 f i _nodert_generated.obj
 0001:00022bd0       ??0?$CustomBox@F@Details@Platform@@Q$AAA@F@Z 10023bd0 f i _nodert_generated.obj
 0001:00022c80       ??0?$VectorViewWrapper@P$AAVGattDeviceService@GenericAttributeProfile@Bluetooth@Devices@Windows@@@Collections@NodeRT@@AAE@P$AAU?$IVectorView@P$AAVGattDeviceService@GenericAttributeProfile@Bluetooth@Devices@Windows@@@1Foundation@Windows@@ABV?$function@$$A6A?AV?$Local@VValue@v8@@@v8@@P$AAVGattDeviceService@GenericAttributeProfile@Bluetooth@Devices@Windows@@@Z@std@@ABV?$function@$$A6A_NV?$Local@VValue@v8@@@v8@@@Z@7@ABV?$function@$$A6AP$AAVGattDeviceService@GenericAttributeProfile@Bluetooth@Devices@Windows@@V?$Local@VValue@v8@@@v8@@@Z@7@@Z 10023c80 f i _nodert_generated.obj
 0001:00022d80       ?Init@?$VectorViewWrapper@P$AAVGattDeviceService@GenericAttributeProfile@Bluetooth@Devices@Windows@@@Collections@NodeRT@@SAXXZ 10023d80 f i _nodert_generated.obj
 0001:00022f80       ?_CancelAndRunContinuations@?$_Task_impl@P$AAVBluetoothLEDevice@Bluetooth@Devices@Windows@@@details@Concurrency@@UAE_N_N00ABV?$shared_ptr@U_ExceptionHolder@details@Concurrency@@@std@@@Z 10023f80 f i _nodert_generated.obj
 0001:00023160       ??1?$_Task_impl@P$AAVBluetoothLEDevice@Bluetooth@Devices@Windows@@@details@Concurrency@@UAE@XZ 10024160 f i _nodert_generated.obj
 0001:00023230       ?_CancelAndRunContinuations@?$_Task_impl@P$AAVGattDeviceServicesResult@GenericAttributeProfile@Bluetooth@Devices@Windows@@@details@Concurrency@@UAE_N_N00ABV?$shared_ptr@U_ExceptionHolder@details@Concurrency@@@std@@@Z 10024230 f i _nodert_generated.obj
 0001:00023410       ??1?$_Task_impl@P$AAVGattDeviceServicesResult@GenericAttributeProfile@Bluetooth@Devices@Windows@@@details@Concurrency@@UAE@XZ 10024410 f i _nodert_generated.obj
 0001:000234e0       ??0?$VectorViewWrapper@P$AAUIBuffer@Streams@Storage@Windows@@@Collections@NodeRT@@AAE@P$AAU?$IVectorView@P$AAUIBuffer@Streams@Storage@Windows@@@1Foundation@Windows@@ABV?$function@$$A6A?AV?$Local@VValue@v8@@@v8@@P$AAUIBuffer@Streams@Storage@Windows@@@Z@std@@ABV?$function@$$A6A_NV?$Local@VValue@v8@@@v8@@@Z@7@ABV?$function@$$A6AP$AAUIBuffer@Streams@Storage@Windows@@V?$Local@VValue@v8@@@v8@@@Z@7@@Z 100244e0 f i _nodert_generated.obj
 0001:000235e0       ?Init@?$VectorViewWrapper@P$AAUIBuffer@Streams@Storage@Windows@@@Collections@NodeRT@@SAXXZ 100245e0 f i _nodert_generated.obj
 0001:000237e0       ??0?$VectorViewWrapper@P$AAVRfcommDeviceService@Rfcomm@Bluetooth@Devices@Windows@@@Collections@NodeRT@@AAE@P$AAU?$IVectorView@P$AAVRfcommDeviceService@Rfcomm@Bluetooth@Devices@Windows@@@1Foundation@Windows@@ABV?$function@$$A6A?AV?$Local@VValue@v8@@@v8@@P$AAVRfcommDeviceService@Rfcomm@Bluetooth@Devices@Windows@@@Z@std@@ABV?$function@$$A6A_NV?$Local@VValue@v8@@@v8@@@Z@7@ABV?$function@$$A6AP$AAVRfcommDeviceService@Rfcomm@Bluetooth@Devices@Windows@@V?$Local@VValue@v8@@@v8@@@Z@7@@Z 100247e0 f i _nodert_generated.obj
 0001:000238e0       ?Init@?$VectorViewWrapper@P$AAVRfcommDeviceService@Rfcomm@Bluetooth@Devices@Windows@@@Collections@NodeRT@@SAXXZ 100248e0 f i _nodert_generated.obj
 0001:00023ae0       ?_CancelAndRunContinuations@?$_Task_impl@P$AAVBluetoothDevice@Bluetooth@Devices@Windows@@@details@Concurrency@@UAE_N_N00ABV?$shared_ptr@U_ExceptionHolder@details@Concurrency@@@std@@@Z 10024ae0 f i _nodert_generated.obj
 0001:00023cc0       ??1?$_Task_impl@P$AAVBluetoothDevice@Bluetooth@Devices@Windows@@@details@Concurrency@@UAE@XZ 10024cc0 f i _nodert_generated.obj
 0001:00023d90       ?_CancelAndRunContinuations@?$_Task_impl@P$AAVRfcommDeviceServicesResult@Rfcomm@Bluetooth@Devices@Windows@@@details@Concurrency@@UAE_N_N00ABV?$shared_ptr@U_ExceptionHolder@details@Concurrency@@@std@@@Z 10024d90 f i _nodert_generated.obj
 0001:00023f70       ??1?$_Task_impl@P$AAVRfcommDeviceServicesResult@Rfcomm@Bluetooth@Devices@Windows@@@details@Concurrency@@UAE@XZ 10024f70 f i _nodert_generated.obj
 0001:00024040       ?_CancelAndRunContinuations@?$_Task_impl@W4DeviceAccessStatus@Enumeration@Devices@Windows@@@details@Concurrency@@UAE_N_N00ABV?$shared_ptr@U_ExceptionHolder@details@Concurrency@@@std@@@Z 10025040 f i _nodert_generated.obj
 0001:00024220       ??1?$_Task_impl@W4DeviceAccessStatus@Enumeration@Devices@Windows@@@details@Concurrency@@UAE@XZ 10025220 f i _nodert_generated.obj
 0001:000242d0       ?_CancelAndRunContinuations@?$_Task_impl@P$AAVBluetoothAdapter@Bluetooth@Devices@Windows@@@details@Concurrency@@UAE_N_N00ABV?$shared_ptr@U_ExceptionHolder@details@Concurrency@@@std@@@Z 100252d0 f i _nodert_generated.obj
 0001:000244b0       ??1?$_Task_impl@P$AAVBluetoothAdapter@Bluetooth@Devices@Windows@@@details@Concurrency@@UAE@XZ 100254b0 f i _nodert_generated.obj
 0001:00024580       ?_CancelAndRunContinuations@?$_Task_impl@P$AAVRadio@Radios@Devices@Windows@@@details@Concurrency@@UAE_N_N00ABV?$shared_ptr@U_ExceptionHolder@details@Concurrency@@@std@@@Z 10025580 f i _nodert_generated.obj
 0001:00024760       ??1?$_Task_impl@P$AAVRadio@Radios@Devices@Windows@@@details@Concurrency@@UAE@XZ 10025760 f i _nodert_generated.obj
 0001:00024830       ?_FinalizeAndRunContinuations@?$_Task_impl@E@details@Concurrency@@QAEXE@Z 10025830 f i _nodert_generated.obj
 0001:000248b0       ?_Make@?$_Task_ptr@E@details@Concurrency@@SA?AV?$shared_ptr@U?$_Task_impl@E@details@Concurrency@@@std@@PAV_CancellationTokenState@23@Uscheduler_ptr@3@@Z 100258b0 f i _nodert_generated.obj
 0001:00024940       ?deallocate@?$_Wrap_alloc@V?$allocator@PAX@std@@@std@@QAEXPAPAXI@Z 10025940 f i _nodert_generated.obj
 0001:000249a0       ?_Buy@?$vector@PAXV?$allocator@PAX@std@@@std@@IAE_NI@Z 100259a0 f i _nodert_generated.obj
 0001:00024a00       ??_G?$VectorViewWrapper@P$AAVGattDeviceService@GenericAttributeProfile@Bluetooth@Devices@Windows@@@Collections@NodeRT@@UAEPAXI@Z 10025a00 f i _nodert_generated.obj
 0001:00024a00       ??_E?$VectorViewWrapper@P$AAVGattDeviceService@GenericAttributeProfile@Bluetooth@Devices@Windows@@@Collections@NodeRT@@UAEPAXI@Z 10025a00 f i * CIL library *:* CIL module *
 0001:00024a30       ??1?$VectorViewWrapper@P$AAVGattDeviceService@GenericAttributeProfile@Bluetooth@Devices@Windows@@@Collections@NodeRT@@UAE@XZ 10025a30 f i _nodert_generated.obj
 0001:00024b20       ??_E?$_Task_impl@P$AAVBluetoothLEDevice@Bluetooth@Devices@Windows@@@details@Concurrency@@UAEPAXI@Z 10025b20 f i * CIL library *:* CIL module *
 0001:00024b20       ??_G?$_Task_impl@P$AAVBluetoothLEDevice@Bluetooth@Devices@Windows@@@details@Concurrency@@UAEPAXI@Z 10025b20 f i _nodert_generated.obj
 0001:00024b50       ??_G?$_Task_impl@P$AAVGattDeviceServicesResult@GenericAttributeProfile@Bluetooth@Devices@Windows@@@details@Concurrency@@UAEPAXI@Z 10025b50 f i _nodert_generated.obj
 0001:00024b50       ??_E?$_Task_impl@P$AAVGattDeviceServicesResult@GenericAttributeProfile@Bluetooth@Devices@Windows@@@details@Concurrency@@UAEPAXI@Z 10025b50 f i * CIL library *:* CIL module *
 0001:00024b80       ??_E?$VectorViewWrapper@P$AAUIBuffer@Streams@Storage@Windows@@@Collections@NodeRT@@UAEPAXI@Z 10025b80 f i * CIL library *:* CIL module *
 0001:00024b80       ??_G?$VectorViewWrapper@P$AAUIBuffer@Streams@Storage@Windows@@@Collections@NodeRT@@UAEPAXI@Z 10025b80 f i _nodert_generated.obj
 0001:00024bb0       ??1?$VectorViewWrapper@P$AAUIBuffer@Streams@Storage@Windows@@@Collections@NodeRT@@UAE@XZ 10025bb0 f i _nodert_generated.obj
 0001:00024ca0       ??_E?$VectorViewWrapper@P$AAVRfcommDeviceService@Rfcomm@Bluetooth@Devices@Windows@@@Collections@NodeRT@@UAEPAXI@Z 10025ca0 f i * CIL library *:* CIL module *
 0001:00024ca0       ??_G?$VectorViewWrapper@P$AAVRfcommDeviceService@Rfcomm@Bluetooth@Devices@Windows@@@Collections@NodeRT@@UAEPAXI@Z 10025ca0 f i _nodert_generated.obj
 0001:00024cd0       ??1?$VectorViewWrapper@P$AAVRfcommDeviceService@Rfcomm@Bluetooth@Devices@Windows@@@Collections@NodeRT@@UAE@XZ 10025cd0 f i _nodert_generated.obj
 0001:00024dc0       ??_E?$_Task_impl@P$AAVBluetoothDevice@Bluetooth@Devices@Windows@@@details@Concurrency@@UAEPAXI@Z 10025dc0 f i * CIL library *:* CIL module *
 0001:00024dc0       ??_G?$_Task_impl@P$AAVBluetoothDevice@Bluetooth@Devices@Windows@@@details@Concurrency@@UAEPAXI@Z 10025dc0 f i _nodert_generated.obj
 0001:00024df0       ??_E?$_Task_impl@P$AAVRfcommDeviceServicesResult@Rfcomm@Bluetooth@Devices@Windows@@@details@Concurrency@@UAEPAXI@Z 10025df0 f i * CIL library *:* CIL module *
 0001:00024df0       ??_G?$_Task_impl@P$AAVRfcommDeviceServicesResult@Rfcomm@Bluetooth@Devices@Windows@@@details@Concurrency@@UAEPAXI@Z 10025df0 f i _nodert_generated.obj
 0001:00024e20       ??_E?$_Task_impl@W4DeviceAccessStatus@Enumeration@Devices@Windows@@@details@Concurrency@@UAEPAXI@Z 10025e20 f i * CIL library *:* CIL module *
 0001:00024e20       ??_G?$_Task_impl@W4DeviceAccessStatus@Enumeration@Devices@Windows@@@details@Concurrency@@UAEPAXI@Z 10025e20 f i _nodert_generated.obj
 0001:00024e50       ??_E?$_Task_impl@P$AAVBluetoothAdapter@Bluetooth@Devices@Windows@@@details@Concurrency@@UAEPAXI@Z 10025e50 f i * CIL library *:* CIL module *
 0001:00024e50       ??_G?$_Task_impl@P$AAVBluetoothAdapter@Bluetooth@Devices@Windows@@@details@Concurrency@@UAEPAXI@Z 10025e50 f i _nodert_generated.obj
 0001:00024e80       ??_E?$_Task_impl@P$AAVRadio@Radios@Devices@Windows@@@details@Concurrency@@UAEPAXI@Z 10025e80 f i * CIL library *:* CIL module *
 0001:00024e80       ??_G?$_Task_impl@P$AAVRadio@Radios@Devices@Windows@@@details@Concurrency@@UAEPAXI@Z 10025e80 f i _nodert_generated.obj
 0001:00024eb0       ?SizeGetter@?$VectorViewWrapper@P$AAVGattDeviceService@GenericAttributeProfile@Bluetooth@Devices@Windows@@@Collections@NodeRT@@CAXV?$Local@VString@v8@@@v8@@ABV?$PropertyCallbackInfo@VValue@v8@@@Nan@@@Z 10025eb0 f i _nodert_generated.obj
 0001:00024fb0       ?IndexOf@?$VectorViewWrapper@P$AAVGattDeviceService@GenericAttributeProfile@Bluetooth@Devices@Windows@@@Collections@NodeRT@@CAXABV?$FunctionCallbackInfo@VValue@v8@@@Nan@@@Z 10025fb0 f i _nodert_generated.obj
 0001:00025230       ?First@?$VectorViewWrapper@P$AAVGattDeviceService@GenericAttributeProfile@Bluetooth@Devices@Windows@@@Collections@NodeRT@@CAXABV?$FunctionCallbackInfo@VValue@v8@@@Nan@@@Z 10026230 f i _nodert_generated.obj
 0001:000253c0       ?GetMany@?$IteratorWrapper@P$AAVGattDeviceService@GenericAttributeProfile@Bluetooth@Devices@Windows@@@Collections@NodeRT@@CAXABV?$FunctionCallbackInfo@VValue@v8@@@Nan@@@Z 100263c0 f i _nodert_generated.obj
 0001:000253c0       ?GetMany@?$IteratorWrapper@P$AAVRfcommDeviceService@Rfcomm@Bluetooth@Devices@Windows@@@Collections@NodeRT@@CAXABV?$FunctionCallbackInfo@VValue@v8@@@Nan@@@Z 100263c0 f i _nodert_generated.obj
 0001:000253c0       ?GetMany@?$VectorViewWrapper@P$AAUIBuffer@Streams@Storage@Windows@@@Collections@NodeRT@@CAXABV?$FunctionCallbackInfo@VValue@v8@@@Nan@@@Z 100263c0 f i _nodert_generated.obj
 0001:000253c0       ?GetMany@?$IteratorWrapper@P$AAUIBuffer@Streams@Storage@Windows@@@Collections@NodeRT@@CAXABV?$FunctionCallbackInfo@VValue@v8@@@Nan@@@Z 100263c0 f i _nodert_generated.obj
 0001:000253c0       ?GetMany@?$VectorViewWrapper@P$AAVGattDeviceService@GenericAttributeProfile@Bluetooth@Devices@Windows@@@Collections@NodeRT@@CAXABV?$FunctionCallbackInfo@VValue@v8@@@Nan@@@Z 100263c0 f i _nodert_generated.obj
 0001:000253c0       ?GetMany@?$VectorViewWrapper@P$AAVRfcommDeviceService@Rfcomm@Bluetooth@Devices@Windows@@@Collections@NodeRT@@CAXABV?$FunctionCallbackInfo@VValue@v8@@@Nan@@@Z 100263c0 f i _nodert_generated.obj
 0001:00025460       ?GetAt@?$VectorViewWrapper@P$AAVGattDeviceService@GenericAttributeProfile@Bluetooth@Devices@Windows@@@Collections@NodeRT@@CAXABV?$FunctionCallbackInfo@VValue@v8@@@Nan@@@Z 10026460 f i _nodert_generated.obj
 0001:00025640       ?Get@?$VectorViewWrapper@P$AAVGattDeviceService@GenericAttributeProfile@Bluetooth@Devices@Windows@@@Collections@NodeRT@@CAXIABV?$PropertyCallbackInfo@VValue@v8@@@Nan@@@Z 10026640 f i _nodert_generated.obj
 0001:00025760       ?New@?$IteratorWrapper@P$AAUIBuffer@Streams@Storage@Windows@@@Collections@NodeRT@@CAXABV?$FunctionCallbackInfo@VValue@v8@@@Nan@@@Z 10026760 f i _nodert_generated.obj
 0001:00025760       ?New@?$VectorViewWrapper@P$AAVRfcommDeviceService@Rfcomm@Bluetooth@Devices@Windows@@@Collections@NodeRT@@CAXABV?$FunctionCallbackInfo@VValue@v8@@@Nan@@@Z 10026760 f i _nodert_generated.obj
 0001:00025760       ?New@?$VectorViewWrapper@P$AAUIBuffer@Streams@Storage@Windows@@@Collections@NodeRT@@CAXABV?$FunctionCallbackInfo@VValue@v8@@@Nan@@@Z 10026760 f i _nodert_generated.obj
 0001:00025760       ?New@?$IteratorWrapper@P$AAVRfcommDeviceService@Rfcomm@Bluetooth@Devices@Windows@@@Collections@NodeRT@@CAXABV?$FunctionCallbackInfo@VValue@v8@@@Nan@@@Z 10026760 f i _nodert_generated.obj
 0001:00025760       ?New@?$IteratorWrapper@P$AAVGattDeviceService@GenericAttributeProfile@Bluetooth@Devices@Windows@@@Collections@NodeRT@@CAXABV?$FunctionCallbackInfo@VValue@v8@@@Nan@@@Z 10026760 f i _nodert_generated.obj
 0001:00025760       ?New@?$VectorViewWrapper@P$AAVGattDeviceService@GenericAttributeProfile@Bluetooth@Devices@Windows@@@Collections@NodeRT@@CAXABV?$FunctionCallbackInfo@VValue@v8@@@Nan@@@Z 10026760 f i _nodert_generated.obj
 0001:000257e0       ?SizeGetter@?$VectorViewWrapper@P$AAUIBuffer@Streams@Storage@Windows@@@Collections@NodeRT@@CAXV?$Local@VString@v8@@@v8@@ABV?$PropertyCallbackInfo@VValue@v8@@@Nan@@@Z 100267e0 f i _nodert_generated.obj
 0001:000258e0       ?IndexOf@?$VectorViewWrapper@P$AAUIBuffer@Streams@Storage@Windows@@@Collections@NodeRT@@CAXABV?$FunctionCallbackInfo@VValue@v8@@@Nan@@@Z 100268e0 f i _nodert_generated.obj
 0001:00025b60       ?First@?$VectorViewWrapper@P$AAUIBuffer@Streams@Storage@Windows@@@Collections@NodeRT@@CAXABV?$FunctionCallbackInfo@VValue@v8@@@Nan@@@Z 10026b60 f i _nodert_generated.obj
 0001:00025cf0       ?GetAt@?$VectorViewWrapper@P$AAUIBuffer@Streams@Storage@Windows@@@Collections@NodeRT@@CAXABV?$FunctionCallbackInfo@VValue@v8@@@Nan@@@Z 10026cf0 f i _nodert_generated.obj
 0001:00025ed0       ?Get@?$VectorViewWrapper@P$AAUIBuffer@Streams@Storage@Windows@@@Collections@NodeRT@@CAXIABV?$PropertyCallbackInfo@VValue@v8@@@Nan@@@Z 10026ed0 f i _nodert_generated.obj
 0001:00025ff0       ?SizeGetter@?$VectorViewWrapper@P$AAVRfcommDeviceService@Rfcomm@Bluetooth@Devices@Windows@@@Collections@NodeRT@@CAXV?$Local@VString@v8@@@v8@@ABV?$PropertyCallbackInfo@VValue@v8@@@Nan@@@Z 10026ff0 f i _nodert_generated.obj
 0001:000260f0       ?IndexOf@?$VectorViewWrapper@P$AAVRfcommDeviceService@Rfcomm@Bluetooth@Devices@Windows@@@Collections@NodeRT@@CAXABV?$FunctionCallbackInfo@VValue@v8@@@Nan@@@Z 100270f0 f i _nodert_generated.obj
 0001:00026370       ?First@?$VectorViewWrapper@P$AAVRfcommDeviceService@Rfcomm@Bluetooth@Devices@Windows@@@Collections@NodeRT@@CAXABV?$FunctionCallbackInfo@VValue@v8@@@Nan@@@Z 10027370 f i _nodert_generated.obj
 0001:00026500       ?GetAt@?$VectorViewWrapper@P$AAVRfcommDeviceService@Rfcomm@Bluetooth@Devices@Windows@@@Collections@NodeRT@@CAXABV?$FunctionCallbackInfo@VValue@v8@@@Nan@@@Z 10027500 f i _nodert_generated.obj
 0001:000266e0       ?Get@?$VectorViewWrapper@P$AAVRfcommDeviceService@Rfcomm@Bluetooth@Devices@Windows@@@Collections@NodeRT@@CAXIABV?$PropertyCallbackInfo@VValue@v8@@@Nan@@@Z 100276e0 f i _nodert_generated.obj
 0001:00026800       ?allocate@?$_Wrap_alloc@V?$allocator@PAX@std@@@std@@QAEPAPAXI@Z 10027800 f i _nodert_generated.obj
 0001:00026860       ?CreateIteratorWrapper@?$IteratorWrapper@P$AAVRfcommDeviceService@Rfcomm@Bluetooth@Devices@Windows@@@Collections@NodeRT@@SA?AV?$Local@VValue@v8@@@v8@@P$AAU?$IIterator@P$AAVRfcommDeviceService@Rfcomm@Bluetooth@Devices@Windows@@@2Foundation@Windows@@ABV?$function@$$A6A?AV?$Local@VValue@v8@@@v8@@P$AAVRfcommDeviceService@Rfcomm@Bluetooth@Devices@Windows@@@Z@std@@@Z 10027860 f i _nodert_generated.obj
 0001:00026990       ?CreateIteratorWrapper@?$IteratorWrapper@P$AAUIBuffer@Streams@Storage@Windows@@@Collections@NodeRT@@SA?AV?$Local@VValue@v8@@@v8@@P$AAU?$IIterator@P$AAUIBuffer@Streams@Storage@Windows@@@2Foundation@Windows@@ABV?$function@$$A6A?AV?$Local@VValue@v8@@@v8@@P$AAUIBuffer@Streams@Storage@Windows@@@Z@std@@@Z 10027990 f i _nodert_generated.obj
 0001:00026ac0       ?CreateIteratorWrapper@?$IteratorWrapper@P$AAVGattDeviceService@GenericAttributeProfile@Bluetooth@Devices@Windows@@@Collections@NodeRT@@SA?AV?$Local@VValue@v8@@@v8@@P$AAU?$IIterator@P$AAVGattDeviceService@GenericAttributeProfile@Bluetooth@Devices@Windows@@@2Foundation@Windows@@ABV?$function@$$A6A?AV?$Local@VValue@v8@@@v8@@P$AAVGattDeviceService@GenericAttributeProfile@Bluetooth@Devices@Windows@@@Z@std@@@Z 10027ac0 f i _nodert_generated.obj
 0001:00026bf0       ??R?$_Func_class@P$AAVGattDeviceService@GenericAttributeProfile@Bluetooth@Devices@Windows@@V?$Local@VValue@v8@@@v8@@@std@@QBEP$AAVGattDeviceService@GenericAttributeProfile@Bluetooth@Devices@Windows@@V?$Local@VValue@v8@@@v8@@@Z 10027bf0 f i _nodert_generated.obj
 0001:00026d20       ??R?$_Func_class@V?$Local@VValue@v8@@@v8@@P$AAVGattDeviceService@GenericAttributeProfile@Bluetooth@Devices@Windows@@@std@@QBE?AV?$Local@VValue@v8@@@v8@@P$AAVGattDeviceService@GenericAttributeProfile@Bluetooth@Devices@Windows@@@Z 10027d20 f i _nodert_generated.obj
 0001:00026dd0       ??R?$_Func_class@P$AAUIBuffer@Streams@Storage@Windows@@V?$Local@VValue@v8@@@v8@@@std@@QBEP$AAUIBuffer@Streams@Storage@Windows@@V?$Local@VValue@v8@@@v8@@@Z 10027dd0 f i _nodert_generated.obj
 0001:00026f00       ??R?$_Func_class@V?$Local@VValue@v8@@@v8@@P$AAUIBuffer@Streams@Storage@Windows@@@std@@QBE?AV?$Local@VValue@v8@@@v8@@P$AAUIBuffer@Streams@Storage@Windows@@@Z 10027f00 f i _nodert_generated.obj
 0001:00026fb0       ??R?$_Func_class@P$AAVRfcommDeviceService@Rfcomm@Bluetooth@Devices@Windows@@V?$Local@VValue@v8@@@v8@@@std@@QBEP$AAVRfcommDeviceService@Rfcomm@Bluetooth@Devices@Windows@@V?$Local@VValue@v8@@@v8@@@Z 10027fb0 f i _nodert_generated.obj
 0001:000270e0       ??R?$_Func_class@V?$Local@VValue@v8@@@v8@@P$AAVRfcommDeviceService@Rfcomm@Bluetooth@Devices@Windows@@@std@@QBE?AV?$Local@VValue@v8@@@v8@@P$AAVRfcommDeviceService@Rfcomm@Bluetooth@Devices@Windows@@@Z 100280e0 f i _nodert_generated.obj
 0001:00027190       ??0?$IteratorWrapper@P$AAVRfcommDeviceService@Rfcomm@Bluetooth@Devices@Windows@@@Collections@NodeRT@@AAE@P$AAU?$IIterator@P$AAVRfcommDeviceService@Rfcomm@Bluetooth@Devices@Windows@@@1Foundation@Windows@@ABV?$function@$$A6A?AV?$Local@VValue@v8@@@v8@@P$AAVRfcommDeviceService@Rfcomm@Bluetooth@Devices@Windows@@@Z@std@@@Z 10028190 f i _nodert_generated.obj
 0001:00027240       ?Init@?$IteratorWrapper@P$AAVRfcommDeviceService@Rfcomm@Bluetooth@Devices@Windows@@@Collections@NodeRT@@SAXXZ 10028240 f i _nodert_generated.obj
 0001:000273f0       ??0?$IteratorWrapper@P$AAUIBuffer@Streams@Storage@Windows@@@Collections@NodeRT@@AAE@P$AAU?$IIterator@P$AAUIBuffer@Streams@Storage@Windows@@@1Foundation@Windows@@ABV?$function@$$A6A?AV?$Local@VValue@v8@@@v8@@P$AAUIBuffer@Streams@Storage@Windows@@@Z@std@@@Z 100283f0 f i _nodert_generated.obj
 0001:000274a0       ?Init@?$IteratorWrapper@P$AAUIBuffer@Streams@Storage@Windows@@@Collections@NodeRT@@SAXXZ 100284a0 f i _nodert_generated.obj
 0001:00027650       ??0?$IteratorWrapper@P$AAVGattDeviceService@GenericAttributeProfile@Bluetooth@Devices@Windows@@@Collections@NodeRT@@AAE@P$AAU?$IIterator@P$AAVGattDeviceService@GenericAttributeProfile@Bluetooth@Devices@Windows@@@1Foundation@Windows@@ABV?$function@$$A6A?AV?$Local@VValue@v8@@@v8@@P$AAVGattDeviceService@GenericAttributeProfile@Bluetooth@Devices@Windows@@@Z@std@@@Z 10028650 f i _nodert_generated.obj
 0001:00027700       ?Init@?$IteratorWrapper@P$AAVGattDeviceService@GenericAttributeProfile@Bluetooth@Devices@Windows@@@Collections@NodeRT@@SAXXZ 10028700 f i _nodert_generated.obj
 0001:000278b0       ??_E?$IteratorWrapper@P$AAVRfcommDeviceService@Rfcomm@Bluetooth@Devices@Windows@@@Collections@NodeRT@@UAEPAXI@Z 100288b0 f i * CIL library *:* CIL module *
 0001:000278b0       ??_G?$IteratorWrapper@P$AAVRfcommDeviceService@Rfcomm@Bluetooth@Devices@Windows@@@Collections@NodeRT@@UAEPAXI@Z 100288b0 f i _nodert_generated.obj
 0001:00027960       ??_G?$IteratorWrapper@P$AAUIBuffer@Streams@Storage@Windows@@@Collections@NodeRT@@UAEPAXI@Z 10028960 f i _nodert_generated.obj
 0001:00027960       ??_E?$IteratorWrapper@P$AAUIBuffer@Streams@Storage@Windows@@@Collections@NodeRT@@UAEPAXI@Z 10028960 f i * CIL library *:* CIL module *
 0001:00027a10       ??_G?$IteratorWrapper@P$AAVGattDeviceService@GenericAttributeProfile@Bluetooth@Devices@Windows@@@Collections@NodeRT@@UAEPAXI@Z 10028a10 f i _nodert_generated.obj
 0001:00027a10       ??_E?$IteratorWrapper@P$AAVGattDeviceService@GenericAttributeProfile@Bluetooth@Devices@Windows@@@Collections@NodeRT@@UAEPAXI@Z 10028a10 f i * CIL library *:* CIL module *
 0001:00027ac0       ?HasCurrentGetter@?$IteratorWrapper@P$AAVRfcommDeviceService@Rfcomm@Bluetooth@Devices@Windows@@@Collections@NodeRT@@CAXV?$Local@VString@v8@@@v8@@ABV?$PropertyCallbackInfo@VValue@v8@@@Nan@@@Z 10028ac0 f i _nodert_generated.obj
 0001:00027ba0       ?CurrentGetter@?$IteratorWrapper@P$AAVRfcommDeviceService@Rfcomm@Bluetooth@Devices@Windows@@@Collections@NodeRT@@CAXV?$Local@VString@v8@@@v8@@ABV?$PropertyCallbackInfo@VValue@v8@@@Nan@@@Z 10028ba0 f i _nodert_generated.obj
 0001:00027cc0       ?MoveNext@?$IteratorWrapper@P$AAVRfcommDeviceService@Rfcomm@Bluetooth@Devices@Windows@@@Collections@NodeRT@@CAXABV?$FunctionCallbackInfo@VValue@v8@@@Nan@@@Z 10028cc0 f i _nodert_generated.obj
 0001:00027df0       ?HasCurrentGetter@?$IteratorWrapper@P$AAUIBuffer@Streams@Storage@Windows@@@Collections@NodeRT@@CAXV?$Local@VString@v8@@@v8@@ABV?$PropertyCallbackInfo@VValue@v8@@@Nan@@@Z 10028df0 f i _nodert_generated.obj
 0001:00027ed0       ?CurrentGetter@?$IteratorWrapper@P$AAUIBuffer@Streams@Storage@Windows@@@Collections@NodeRT@@CAXV?$Local@VString@v8@@@v8@@ABV?$PropertyCallbackInfo@VValue@v8@@@Nan@@@Z 10028ed0 f i _nodert_generated.obj
 0001:00027ff0       ?MoveNext@?$IteratorWrapper@P$AAUIBuffer@Streams@Storage@Windows@@@Collections@NodeRT@@CAXABV?$FunctionCallbackInfo@VValue@v8@@@Nan@@@Z 10028ff0 f i _nodert_generated.obj
 0001:00028120       ?HasCurrentGetter@?$IteratorWrapper@P$AAVGattDeviceService@GenericAttributeProfile@Bluetooth@Devices@Windows@@@Collections@NodeRT@@CAXV?$Local@VString@v8@@@v8@@ABV?$PropertyCallbackInfo@VValue@v8@@@Nan@@@Z 10029120 f i _nodert_generated.obj
 0001:00028200       ?CurrentGetter@?$IteratorWrapper@P$AAVGattDeviceService@GenericAttributeProfile@Bluetooth@Devices@Windows@@@Collections@NodeRT@@CAXV?$Local@VString@v8@@@v8@@ABV?$PropertyCallbackInfo@VValue@v8@@@Nan@@@Z 10029200 f i _nodert_generated.obj
 0001:00028320       ?MoveNext@?$IteratorWrapper@P$AAVGattDeviceService@GenericAttributeProfile@Bluetooth@Devices@Windows@@@Collections@NodeRT@@CAXABV?$FunctionCallbackInfo@VValue@v8@@@Nan@@@Z 10029320 f i _nodert_generated.obj
 0001:00028450       ?get@DeviceId@IBluetoothDevice@Bluetooth@Devices@Windows@@U$AAAP$AAVString@Platform@@XZ 10029450 f i _nodert_generated.obj
 0001:00028450       ?get@Id@IBluetoothDeviceId@Bluetooth@Devices@Windows@@U$AAAP$AAVString@Platform@@XZ 10029450 f i _nodert_generated.obj
 0001:00028450       ?GetDeviceSelector@IBluetoothAdapterStatics@Bluetooth@Devices@Windows@@U$AAAP$AAVString@Platform@@XZ 10029450 f i _nodert_generated.obj
 0001:00028450       ?get@DeviceId@IBluetoothAdapter@Bluetooth@Devices@Windows@@U$AAAP$AAVString@Platform@@XZ 10029450 f i _nodert_generated.obj
 0001:00028450       ?get@DeviceId@IBluetoothLEDevice@Bluetooth@Devices@Windows@@U$AAAP$AAVString@Platform@@XZ 10029450 f i _nodert_generated.obj
 0001:000284e0       ?GetRadioAsync@IBluetoothAdapter@Bluetooth@Devices@Windows@@U$AAAP$AAU?$IAsyncOperation@P$AAVRadio@Radios@Devices@Windows@@@Foundation@4@XZ 100294e0 f i _nodert_generated.obj
 0001:00028560       ?FromHostNameAsync@IBluetoothDeviceStatics@Bluetooth@Devices@Windows@@U$AAAP$AAU?$IAsyncOperation@P$AAVBluetoothDevice@Bluetooth@Devices@Windows@@@Foundation@4@P$AAVHostName@Networking@4@@Z 10029560 f i _nodert_generated.obj
 0001:00028560       ?FromIdAsync@IBluetoothAdapterStatics@Bluetooth@Devices@Windows@@U$AAAP$AAU?$IAsyncOperation@P$AAVBluetoothAdapter@Bluetooth@Devices@Windows@@@Foundation@4@P$AAVString@Platform@@@Z 10029560 f i _nodert_generated.obj
 0001:000285f0       ?GetResults@?$IAsyncOperation@P$AAVRfcommDeviceServicesResult@Rfcomm@Bluetooth@Devices@Windows@@@Foundation@Windows@@U$AAAP$AAVRfcommDeviceServicesResult@Rfcomm@Bluetooth@Devices@3@XZ 100295f0 f i _nodert_generated.obj
 0001:000285f0       ?GetResults@?$IAsyncOperation@P$AAVRadio@Radios@Devices@Windows@@@Foundation@Windows@@U$AAAP$AAVRadio@Radios@Devices@3@XZ 100295f0 f i _nodert_generated.obj
 0001:000285f0       ?GetResults@?$IAsyncOperation@P$AAVGattDeviceServicesResult@GenericAttributeProfile@Bluetooth@Devices@Windows@@@Foundation@Windows@@U$AAAP$AAVGattDeviceServicesResult@GenericAttributeProfile@Bluetooth@Devices@3@XZ 100295f0 f i _nodert_generated.obj
 0001:000285f0       ?GetResults@?$IAsyncOperation@P$AAVBluetoothDevice@Bluetooth@Devices@Windows@@@Foundation@Windows@@U$AAAP$AAVBluetoothDevice@Bluetooth@Devices@3@XZ 100295f0 f i _nodert_generated.obj
 0001:000285f0       ?get@GattServices@IBluetoothLEDevice@Bluetooth@Devices@Windows@@U$AAAP$AAU?$IVectorView@P$AAVGattDeviceService@GenericAttributeProfile@Bluetooth@Devices@Windows@@@Collections@Foundation@5@XZ 100295f0 f i _nodert_generated.obj
 0001:000285f0       ?GetRfcommServicesAsync@IBluetoothDevice3@Bluetooth@Devices@Windows@@U$AAAP$AAU?$IAsyncOperation@P$AAVRfcommDeviceServicesResult@Rfcomm@Bluetooth@Devices@Windows@@@Foundation@4@XZ 100295f0 f i _nodert_generated.obj
 0001:000285f0       ?get@OutOfRangeThresholdInDBm@IBluetoothSignalStrengthFilter@Bluetooth@Devices@Windows@@U$AAAP$AAU?$IBox@F@Platform@@XZ 100295f0 f i _nodert_generated.obj
 0001:000285f0       ?GetResults@?$IAsyncOperation@P$AAVBluetoothLEDevice@Bluetooth@Devices@Windows@@@Foundation@Windows@@U$AAAP$AAVBluetoothLEDevice@Bluetooth@Devices@3@XZ 100295f0 f i _nodert_generated.obj
 0001:000285f0       ?GetDefaultAsync@IBluetoothAdapterStatics@Bluetooth@Devices@Windows@@U$AAAP$AAU?$IAsyncOperation@P$AAVBluetoothAdapter@Bluetooth@Devices@Windows@@@Foundation@4@XZ 100295f0 f i _nodert_generated.obj
 0001:000285f0       ?GetGattServicesAsync@IBluetoothLEDevice3@Bluetooth@Devices@Windows@@U$AAAP$AAU?$IAsyncOperation@P$AAVGattDeviceServicesResult@GenericAttributeProfile@Bluetooth@Devices@Windows@@@Foundation@4@XZ 100295f0 f i _nodert_generated.obj
 0001:000285f0       ?GetResults@?$IAsyncOperation@P$AAVBluetoothAdapter@Bluetooth@Devices@Windows@@@Foundation@Windows@@U$AAAP$AAVBluetoothAdapter@Bluetooth@Devices@3@XZ 100295f0 f i _nodert_generated.obj
 0001:00028670       ?TryGetShortId@IBluetoothUuidHelperStatics@Bluetooth@Devices@Windows@@U$AAAP$AAU?$IBox@I@Platform@@VGuid@6@@Z 10029670 f i _nodert_generated.obj
 0001:00028700       ?get@ClassOfDevice@IBluetoothDevice@Bluetooth@Devices@Windows@@U$AAAP$AAVBluetoothClassOfDevice@345@XZ 10029700 f i _nodert_generated.obj
 0001:00028780       ?get@HostName@IBluetoothDevice@Bluetooth@Devices@Windows@@U$AAAP$AAV1Networking@5@XZ 10029780 f i _nodert_generated.obj
 0001:00028780       ?RequestAccessAsync@IBluetoothDevice3@Bluetooth@Devices@Windows@@U$AAAP$AAU?$IAsyncOperation@W4DeviceAccessStatus@Enumeration@Devices@Windows@@@Foundation@4@XZ 10029780 f i _nodert_generated.obj
 0001:00028780       ?RequestAccessAsync@IBluetoothLEDevice3@Bluetooth@Devices@Windows@@U$AAAP$AAU?$IAsyncOperation@W4DeviceAccessStatus@Enumeration@Devices@Windows@@@Foundation@4@XZ 10029780 f i _nodert_generated.obj
 0001:00028780       ?get@Appearance@IBluetoothLEDevice2@Bluetooth@Devices@Windows@@U$AAAP$AAVBluetoothLEAppearance@345@XZ 10029780 f i _nodert_generated.obj
 0001:00028800       ?get@Name@IBluetoothDevice@Bluetooth@Devices@Windows@@U$AAAP$AAVString@Platform@@XZ 10029800 f i _nodert_generated.obj
 0001:00028800       ?GetDeviceSelector@IBluetoothLEDeviceStatics@Bluetooth@Devices@Windows@@U$AAAP$AAVString@Platform@@XZ 10029800 f i _nodert_generated.obj
 0001:00028890       ?get@RfcommServices@IBluetoothDevice@Bluetooth@Devices@Windows@@U$AAAP$AAU?$IVectorView@P$AAVRfcommDeviceService@Rfcomm@Bluetooth@Devices@Windows@@@Collections@Foundation@5@XZ 10029890 f i _nodert_generated.obj
 0001:00028910       ?get@SdpRecords@IBluetoothDevice@Bluetooth@Devices@Windows@@U$AAAP$AAU?$IVectorView@P$AAUIBuffer@Streams@Storage@Windows@@@Collections@Foundation@5@XZ 10029910 f i _nodert_generated.obj
 0001:00028910       ?get@OutOfRangeTimeout@IBluetoothSignalStrengthFilter@Bluetooth@Devices@Windows@@U$AAAP$AAU?$IBox@VTimeSpan@Foundation@Windows@@@Platform@@XZ 10029910 f i _nodert_generated.obj
 0001:00028990       ?add@ConnectionStatusChanged@IBluetoothDevice@Bluetooth@Devices@Windows@@U$AAA?AVEventRegistrationToken@Foundation@5@P$AAV?$TypedEventHandler@P$AAVBluetoothDevice@Bluetooth@Devices@Windows@@P$AAVObject@Platform@@@75@@Z 10029990 f i _nodert_generated.obj
 0001:000289c0       ?remove@ConnectionStatusChanged@IBluetoothDevice@Bluetooth@Devices@Windows@@U$AAAXVEventRegistrationToken@Foundation@5@@Z 100299c0 f i _nodert_generated.obj
 0001:000289e0       ?add@NameChanged@IBluetoothDevice@Bluetooth@Devices@Windows@@U$AAA?AVEventRegistrationToken@Foundation@5@P$AAV?$TypedEventHandler@P$AAVBluetoothDevice@Bluetooth@Devices@Windows@@P$AAVObject@Platform@@@75@@Z 100299e0 f i _nodert_generated.obj
 0001:000289e0       ?add@GattServicesChanged@IBluetoothLEDevice@Bluetooth@Devices@Windows@@U$AAA?AVEventRegistrationToken@Foundation@5@P$AAV?$TypedEventHandler@P$AAVBluetoothLEDevice@Bluetooth@Devices@Windows@@P$AAVObject@Platform@@@75@@Z 100299e0 f i _nodert_generated.obj
 0001:00028a10       ?remove@NameChanged@IBluetoothDevice@Bluetooth@Devices@Windows@@U$AAAXVEventRegistrationToken@Foundation@5@@Z 10029a10 f i _nodert_generated.obj
 0001:00028a10       ?remove@GattServicesChanged@IBluetoothLEDevice@Bluetooth@Devices@Windows@@U$AAAXVEventRegistrationToken@Foundation@5@@Z 10029a10 f i _nodert_generated.obj
 0001:00028a30       ?add@SdpRecordsChanged@IBluetoothDevice@Bluetooth@Devices@Windows@@U$AAA?AVEventRegistrationToken@Foundation@5@P$AAV?$TypedEventHandler@P$AAVBluetoothDevice@Bluetooth@Devices@Windows@@P$AAVObject@Platform@@@75@@Z 10029a30 f i _nodert_generated.obj
 0001:00028a30       ?add@ConnectionStatusChanged@IBluetoothLEDevice@Bluetooth@Devices@Windows@@U$AAA?AVEventRegistrationToken@Foundation@5@P$AAV?$TypedEventHandler@P$AAVBluetoothLEDevice@Bluetooth@Devices@Windows@@P$AAVObject@Platform@@@75@@Z 10029a30 f i _nodert_generated.obj
 0001:00028a60       ?remove@ConnectionStatusChanged@IBluetoothLEDevice@Bluetooth@Devices@Windows@@U$AAAXVEventRegistrationToken@Foundation@5@@Z 10029a60 f i _nodert_generated.obj
 0001:00028a60       ?remove@SdpRecordsChanged@IBluetoothDevice@Bluetooth@Devices@Windows@@U$AAAXVEventRegistrationToken@Foundation@5@@Z 10029a60 f i _nodert_generated.obj
 0001:00028a80       ?First@?$IIterable@P$AAUIBuffer@Streams@Storage@Windows@@@Collections@Foundation@Windows@@U$AAAP$AAU?$IIterator@P$AAUIBuffer@Streams@Storage@Windows@@@234@XZ 10029a80 f i _nodert_generated.obj
 0001:00028a80       ?First@?$IIterable@P$AAVRfcommDeviceService@Rfcomm@Bluetooth@Devices@Windows@@@Collections@Foundation@Windows@@U$AAAP$AAU?$IIterator@P$AAVRfcommDeviceService@Rfcomm@Bluetooth@Devices@Windows@@@234@XZ 10029a80 f i _nodert_generated.obj
 0001:00028a80       ?get@DeviceAccessInformation@IBluetoothLEDevice3@Bluetooth@Devices@Windows@@U$AAAP$AAV1Enumeration@45@XZ 10029a80 f i _nodert_generated.obj
 0001:00028a80       ?get@Current@?$IIterator@P$AAVRfcommDeviceService@Rfcomm@Bluetooth@Devices@Windows@@@Collections@Foundation@Windows@@U$AAAP$AAVRfcommDeviceService@Rfcomm@Bluetooth@Devices@5@XZ 10029a80 f i _nodert_generated.obj
 0001:00028a80       ?First@?$IIterable@P$AAVGattDeviceService@GenericAttributeProfile@Bluetooth@Devices@Windows@@@Collections@Foundation@Windows@@U$AAAP$AAU?$IIterator@P$AAVGattDeviceService@GenericAttributeProfile@Bluetooth@Devices@Windows@@@234@XZ 10029a80 f i _nodert_generated.obj
 0001:00028a80       ?get@DeviceInformation@IBluetoothDevice2@Bluetooth@Devices@Windows@@U$AAAP$AAV1Enumeration@45@XZ 10029a80 f i _nodert_generated.obj
 0001:00028a80       ?get@Current@?$IIterator@P$AAUIBuffer@Streams@Storage@Windows@@@Collections@Foundation@Windows@@U$AAAP$AAUIBuffer@Streams@Storage@5@XZ 10029a80 f i _nodert_generated.obj
 0001:00028a80       ?get@DeviceAccessInformation@IBluetoothDevice3@Bluetooth@Devices@Windows@@U$AAAP$AAV1Enumeration@45@XZ 10029a80 f i _nodert_generated.obj
 0001:00028a80       ?get@InRangeThresholdInDBm@IBluetoothSignalStrengthFilter@Bluetooth@Devices@Windows@@U$AAAP$AAU?$IBox@F@Platform@@XZ 10029a80 f i _nodert_generated.obj
 0001:00028a80       ?ActivateInstance@IActivationFactory@Details@Platform@@U$AAAP$AAVObject@3@XZ 10029a80 f i _nodert_generated.obj
 0001:00028a80       ?get@Current@?$IIterator@P$AAVGattDeviceService@GenericAttributeProfile@Bluetooth@Devices@Windows@@@Collections@Foundation@Windows@@U$AAAP$AAVGattDeviceService@GenericAttributeProfile@Bluetooth@Devices@5@XZ 10029a80 f i _nodert_generated.obj
 0001:00028a80       ?get@DeviceInformation@IBluetoothLEDevice2@Bluetooth@Devices@Windows@@U$AAAP$AAV1Enumeration@45@XZ 10029a80 f i _nodert_generated.obj
 0001:00028b00       ?GetRfcommServicesAsync@IBluetoothDevice3@Bluetooth@Devices@Windows@@U$AAAP$AAU?$IAsyncOperation@P$AAVRfcommDeviceServicesResult@Rfcomm@Bluetooth@Devices@Windows@@@Foundation@4@W4BluetoothCacheMode@234@@Z 10029b00 f i _nodert_generated.obj
 0001:00028b00       ?GetGattServicesAsync@IBluetoothLEDevice3@Bluetooth@Devices@Windows@@U$AAAP$AAU?$IAsyncOperation@P$AAVGattDeviceServicesResult@GenericAttributeProfile@Bluetooth@Devices@Windows@@@Foundation@4@W4BluetoothCacheMode@234@@Z 10029b00 f i _nodert_generated.obj
 0001:00028b90       ?GetRfcommServicesForIdAsync@IBluetoothDevice3@Bluetooth@Devices@Windows@@U$AAAP$AAU?$IAsyncOperation@P$AAVRfcommDeviceServicesResult@Rfcomm@Bluetooth@Devices@Windows@@@Foundation@4@P$AAVRfcommServiceId@Rfcomm@234@@Z 10029b90 f i _nodert_generated.obj
 0001:00028c20       ?GetRfcommServicesForIdAsync@IBluetoothDevice3@Bluetooth@Devices@Windows@@U$AAAP$AAU?$IAsyncOperation@P$AAVRfcommDeviceServicesResult@Rfcomm@Bluetooth@Devices@Windows@@@Foundation@4@P$AAVRfcommServiceId@Rfcomm@234@W4BluetoothCacheMode@234@@Z 10029c20 f i _nodert_generated.obj
 0001:00028cb0       ?FromIdAsync@IBluetoothLEDeviceStatics@Bluetooth@Devices@Windows@@U$AAAP$AAU?$IAsyncOperation@P$AAVBluetoothLEDevice@Bluetooth@Devices@Windows@@@Foundation@4@P$AAVString@Platform@@@Z 10029cb0 f i _nodert_generated.obj
 0001:00028cb0       ?GetAt@?$IVectorView@P$AAVGattDeviceService@GenericAttributeProfile@Bluetooth@Devices@Windows@@@Collections@Foundation@Windows@@U$AAAP$AAVGattDeviceService@GenericAttributeProfile@Bluetooth@Devices@4@I@Z 10029cb0 f i _nodert_generated.obj
 0001:00028cb0       ?FromRawValue@IBluetoothClassOfDeviceStatics@Bluetooth@Devices@Windows@@U$AAAP$AAVBluetoothClassOfDevice@234@I@Z 10029cb0 f i _nodert_generated.obj
 0001:00028cb0       ?FromIdAsync@IBluetoothDeviceStatics@Bluetooth@Devices@Windows@@U$AAAP$AAU?$IAsyncOperation@P$AAVBluetoothDevice@Bluetooth@Devices@Windows@@@Foundation@4@P$AAVString@Platform@@@Z 10029cb0 f i _nodert_generated.obj
 0001:00028cb0       ?GetAt@?$IVectorView@P$AAVRfcommDeviceService@Rfcomm@Bluetooth@Devices@Windows@@@Collections@Foundation@Windows@@U$AAAP$AAVRfcommDeviceService@Rfcomm@Bluetooth@Devices@4@I@Z 10029cb0 f i _nodert_generated.obj
 0001:00028cb0       ?FromRawValue@IBluetoothLEAppearanceStatics@Bluetooth@Devices@Windows@@U$AAAP$AAVBluetoothLEAppearance@234@G@Z 10029cb0 f i _nodert_generated.obj
 0001:00028cb0       ?GetAt@?$IVectorView@P$AAUIBuffer@Streams@Storage@Windows@@@Collections@Foundation@Windows@@U$AAAP$AAUIBuffer@Streams@Storage@4@I@Z 10029cb0 f i _nodert_generated.obj
 0001:00028d40       ?FromBluetoothAddressAsync@IBluetoothDeviceStatics@Bluetooth@Devices@Windows@@U$AAAP$AAU?$IAsyncOperation@P$AAVBluetoothDevice@Bluetooth@Devices@Windows@@@Foundation@4@_K@Z 10029d40 f i _nodert_generated.obj
 0001:00028dd0       ?GetDeviceSelector@IBluetoothDeviceStatics@Bluetooth@Devices@Windows@@U$AAAP$AAVString@Platform@@XZ 10029dd0 f i _nodert_generated.obj
 0001:00028e60       ?GetDeviceSelectorFromPairingState@IBluetoothLEDeviceStatics2@Bluetooth@Devices@Windows@@U$AAAP$AAVString@Platform@@_N@Z 10029e60 f i _nodert_generated.obj
 0001:00028e60       ?GetDeviceSelectorFromPairingState@IBluetoothDeviceStatics2@Bluetooth@Devices@Windows@@U$AAAP$AAVString@Platform@@_N@Z 10029e60 f i _nodert_generated.obj
 0001:00028ef0       ?GetDeviceSelectorFromConnectionStatus@IBluetoothLEDeviceStatics2@Bluetooth@Devices@Windows@@U$AAAP$AAVString@Platform@@W4BluetoothConnectionStatus@234@@Z 10029ef0 f i _nodert_generated.obj
 0001:00028ef0       ?GetDeviceSelectorFromConnectionStatus@IBluetoothDeviceStatics2@Bluetooth@Devices@Windows@@U$AAAP$AAVString@Platform@@W4BluetoothConnectionStatus@234@@Z 10029ef0 f i _nodert_generated.obj
 0001:00028f80       ?GetDeviceSelectorFromDeviceName@IBluetoothLEDeviceStatics2@Bluetooth@Devices@Windows@@U$AAAP$AAVString@Platform@@P$AAV56@@Z 10029f80 f i _nodert_generated.obj
 0001:00028f80       ?GetDeviceSelectorFromDeviceName@IBluetoothDeviceStatics2@Bluetooth@Devices@Windows@@U$AAAP$AAVString@Platform@@P$AAV56@@Z 10029f80 f i _nodert_generated.obj
 0001:00029010       ?GetDeviceSelectorFromBluetoothAddress@IBluetoothDeviceStatics2@Bluetooth@Devices@Windows@@U$AAAP$AAVString@Platform@@_K@Z 1002a010 f i _nodert_generated.obj
 0001:00029010       ?GetDeviceSelectorFromBluetoothAddress@IBluetoothLEDeviceStatics2@Bluetooth@Devices@Windows@@U$AAAP$AAVString@Platform@@_K@Z 1002a010 f i _nodert_generated.obj
 0001:000290a0       ?GetDeviceSelectorFromClassOfDevice@IBluetoothDeviceStatics2@Bluetooth@Devices@Windows@@U$AAAP$AAVString@Platform@@P$AAVBluetoothClassOfDevice@234@@Z 1002a0a0 f i _nodert_generated.obj
 0001:00029130       ?FromParts@IBluetoothClassOfDeviceStatics@Bluetooth@Devices@Windows@@U$AAAP$AAVBluetoothClassOfDevice@234@W4BluetoothMajorClass@234@W4BluetoothMinorClass@234@W4BluetoothServiceCapabilities@234@@Z 1002a130 f i _nodert_generated.obj
 0001:000291c0       ?CreateInt64@IPropertyValueStatics@Foundation@Windows@@U$AAAP$AAVObject@Platform@@_J@Z 1002a1c0 f i _nodert_generated.obj
 0001:00029250       ?FromParts@IBluetoothLEAppearanceStatics@Bluetooth@Devices@Windows@@U$AAAP$AAVBluetoothLEAppearance@234@GG@Z 1002a250 f i _nodert_generated.obj
 0001:00029250       ?FromBluetoothAddressAsync@IBluetoothLEDeviceStatics@Bluetooth@Devices@Windows@@U$AAAP$AAU?$IAsyncOperation@P$AAVBluetoothLEDevice@Bluetooth@Devices@Windows@@@Foundation@4@_K@Z 1002a250 f i _nodert_generated.obj
 0001:000292e0       ?get@Name@IBluetoothLEDevice@Bluetooth@Devices@Windows@@U$AAAP$AAVString@Platform@@XZ 1002a2e0 f i _nodert_generated.obj
 0001:00029370       ?add@NameChanged@IBluetoothLEDevice@Bluetooth@Devices@Windows@@U$AAA?AVEventRegistrationToken@Foundation@5@P$AAV?$TypedEventHandler@P$AAVBluetoothLEDevice@Bluetooth@Devices@Windows@@P$AAVObject@Platform@@@75@@Z 1002a370 f i _nodert_generated.obj
 0001:000293a0       ?remove@NameChanged@IBluetoothLEDevice@Bluetooth@Devices@Windows@@U$AAAXVEventRegistrationToken@Foundation@5@@Z 1002a3a0 f i _nodert_generated.obj
 0001:000293c0       ?GetGattService@IBluetoothLEDevice@Bluetooth@Devices@Windows@@U$AAAP$AAVGattDeviceService@GenericAttributeProfile@234@VGuid@Platform@@@Z 1002a3c0 f i _nodert_generated.obj
 0001:00029450       ?GetGattServicesForUuidAsync@IBluetoothLEDevice3@Bluetooth@Devices@Windows@@U$AAAP$AAU?$IAsyncOperation@P$AAVGattDeviceServicesResult@GenericAttributeProfile@Bluetooth@Devices@Windows@@@Foundation@4@VGuid@Platform@@@Z 1002a450 f i _nodert_generated.obj
 0001:000294e0       ?GetGattServicesForUuidAsync@IBluetoothLEDevice3@Bluetooth@Devices@Windows@@U$AAAP$AAU?$IAsyncOperation@P$AAVGattDeviceServicesResult@GenericAttributeProfile@Bluetooth@Devices@Windows@@@Foundation@4@VGuid@Platform@@W4BluetoothCacheMode@234@@Z 1002a4e0 f i _nodert_generated.obj
 0001:00029570       ?GetDeviceSelectorFromBluetoothAddress@IBluetoothLEDeviceStatics2@Bluetooth@Devices@Windows@@U$AAAP$AAVString@Platform@@_KW4BluetoothAddressType@234@@Z 1002a570 f i _nodert_generated.obj
 0001:00029600       ?GetDeviceSelectorFromAppearance@IBluetoothLEDeviceStatics2@Bluetooth@Devices@Windows@@U$AAAP$AAVString@Platform@@P$AAVBluetoothLEAppearance@234@@Z 1002a600 f i _nodert_generated.obj
 0001:00029690       ?FromBluetoothAddressAsync@IBluetoothLEDeviceStatics2@Bluetooth@Devices@Windows@@U$AAAP$AAU?$IAsyncOperation@P$AAVBluetoothLEDevice@Bluetooth@Devices@Windows@@@Foundation@4@_KW4BluetoothAddressType@234@@Z 1002a690 f i _nodert_generated.obj
 0001:00029720       ?get@SamplingInterval@IBluetoothSignalStrengthFilter@Bluetooth@Devices@Windows@@U$AAAP$AAU?$IBox@VTimeSpan@Foundation@Windows@@@Platform@@XZ 1002a720 f i _nodert_generated.obj
 0001:000297a0       ?IndexOf@?$IVectorView@P$AAVRfcommDeviceService@Rfcomm@Bluetooth@Devices@Windows@@@Collections@Foundation@Windows@@U$AAA_NP$AAVRfcommDeviceService@Rfcomm@Bluetooth@Devices@4@PAI@Z 1002a7a0 f i _nodert_generated.obj
 0001:000297a0       ?IndexOf@?$IVectorView@P$AAUIBuffer@Streams@Storage@Windows@@@Collections@Foundation@Windows@@U$AAA_NP$AAUIBuffer@Streams@Storage@4@PAI@Z 1002a7a0 f i _nodert_generated.obj
 0001:000297a0       ?IndexOf@?$IVectorView@P$AAVGattDeviceService@GenericAttributeProfile@Bluetooth@Devices@Windows@@@Collections@Foundation@Windows@@U$AAA_NP$AAVGattDeviceService@GenericAttributeProfile@Bluetooth@Devices@4@PAI@Z 1002a7a0 f i _nodert_generated.obj
 0001:000297e0       ??$New@VBoolean@v8@@_N@Nan@@YA?AV?$Local@VBoolean@v8@@@v8@@_N@Z 1002a7e0 f i _nodert_generated.obj
 0001:00029810       ??$Reset@VObject@v8@@@?$Persistent@VObject@v8@@V?$NonCopyablePersistentTraits@VObject@v8@@@2@@Nan@@QAEXABV?$Local@VObject@v8@@@v8@@@Z 1002a810 f i _nodert_generated.obj
 0001:00029850       ??$wait@V<lambda_cf8f1d893b3a87da856048d6f694e263>@@@condition_variable@std@@QAEXAAV?$unique_lock@Vmutex@std@@@1@V<lambda_cf8f1d893b3a87da856048d6f694e263>@@@Z 1002a850 f i _nodert_generated.obj
 0001:000298a0       ??$make_shared@U_ExceptionHolder@details@Concurrency@@ABVexception_ptr@std@@V_TaskCreationCallstack@23@@std@@YA?AV?$shared_ptr@U_ExceptionHolder@details@Concurrency@@@0@ABVexception_ptr@0@$$QAV_TaskCreationCallstack@details@Concurrency@@@Z 1002a8a0 f i _nodert_generated.obj
 0001:00029920       ??$?4AAV?$function@$$A6AXXZ@std@@XX@?$function@$$A6AXXZ@std@@QAEAAV01@AAV01@@Z 1002a920 f i _nodert_generated.obj
 0001:000299c0       ??$?0V<lambda_847758569c482b5c3071d04a93fd5a03>@@XX@?$function@$$A6AXXZ@std@@QAE@V<lambda_847758569c482b5c3071d04a93fd5a03>@@@Z 1002a9c0 f i _nodert_generated.obj
 0001:00029a90       ??$SetMethod@VObject@v8@@VLocal@2@@Nan@@YAXV?$Local@VObject@v8@@@v8@@PBDP6AXABV?$FunctionCallbackInfo@VValue@v8@@@0@@Z@Z 1002aa90 f i _nodert_generated.obj
 0001:00029b50       ??$IsWinRtWrapperOf@P$AAVBluetoothAdapter@Bluetooth@Devices@Windows@@@Utils@NodeRT@@YA_NV?$Local@VValue@v8@@@v8@@@Z 1002ab50 f i _nodert_generated.obj
 0001:00029ca0       ??$Unwrap@VBluetoothLEDevice@Bluetooth@Devices@Windows@NodeRT@@@ObjectWrap@Nan@@SAPAVBluetoothLEDevice@Bluetooth@Devices@Windows@NodeRT@@V?$Local@VObject@v8@@@v8@@@Z 1002aca0 f i _nodert_generated.obj
 0001:00029ca0       ??$Unwrap@VBluetoothDevice@Bluetooth@Devices@Windows@NodeRT@@@ObjectWrap@Nan@@SAPAVBluetoothDevice@Bluetooth@Devices@Windows@NodeRT@@V?$Local@VObject@v8@@@v8@@@Z 1002aca0 f i _nodert_generated.obj
 0001:00029ca0       ??$Unwrap@VBluetoothLEAppearance@Bluetooth@Devices@Windows@NodeRT@@@ObjectWrap@Nan@@SAPAVBluetoothLEAppearance@Bluetooth@Devices@Windows@NodeRT@@V?$Local@VObject@v8@@@v8@@@Z 1002aca0 f i _nodert_generated.obj
 0001:00029ca0       ??$Unwrap@VOpaqueWrapper@NodeRT@@@ObjectWrap@Nan@@SAPAVOpaqueWrapper@NodeRT@@V?$Local@VObject@v8@@@v8@@@Z 1002aca0 f i _nodert_generated.obj
 0001:00029ca0       ??$Unwrap@V?$VectorViewWrapper@P$AAVRfcommDeviceService@Rfcomm@Bluetooth@Devices@Windows@@@Collections@NodeRT@@@ObjectWrap@Nan@@SAPAV?$VectorViewWrapper@P$AAVRfcommDeviceService@Rfcomm@Bluetooth@Devices@Windows@@@Collections@NodeRT@@V?$Local@VObject@v8@@@v8@@@Z 1002aca0 f i _nodert_generated.obj
 0001:00029ca0       ??$Unwrap@V?$VectorViewWrapper@P$AAVGattDeviceService@GenericAttributeProfile@Bluetooth@Devices@Windows@@@Collections@NodeRT@@@ObjectWrap@Nan@@SAPAV?$VectorViewWrapper@P$AAVGattDeviceService@GenericAttributeProfile@Bluetooth@Devices@Windows@@@Collections@NodeRT@@V?$Local@VObject@v8@@@v8@@@Z 1002aca0 f i _nodert_generated.obj
 0001:00029ca0       ??$Unwrap@VBluetoothAdapter@Bluetooth@Devices@Windows@NodeRT@@@ObjectWrap@Nan@@SAPAVBluetoothAdapter@Bluetooth@Devices@Windows@NodeRT@@V?$Local@VObject@v8@@@v8@@@Z 1002aca0 f i _nodert_generated.obj
 0001:00029ca0       ??$Unwrap@V?$IteratorWrapper@P$AAVRfcommDeviceService@Rfcomm@Bluetooth@Devices@Windows@@@Collections@NodeRT@@@ObjectWrap@Nan@@SAPAV?$IteratorWrapper@P$AAVRfcommDeviceService@Rfcomm@Bluetooth@Devices@Windows@@@Collections@NodeRT@@V?$Local@VObject@v8@@@v8@@@Z 1002aca0 f i _nodert_generated.obj
 0001:00029ca0       ??$Unwrap@V?$IteratorWrapper@P$AAUIBuffer@Streams@Storage@Windows@@@Collections@NodeRT@@@ObjectWrap@Nan@@SAPAV?$IteratorWrapper@P$AAUIBuffer@Streams@Storage@Windows@@@Collections@NodeRT@@V?$Local@VObject@v8@@@v8@@@Z 1002aca0 f i _nodert_generated.obj
 0001:00029ca0       ??$Unwrap@V?$VectorViewWrapper@P$AAUIBuffer@Streams@Storage@Windows@@@Collections@NodeRT@@@ObjectWrap@Nan@@SAPAV?$VectorViewWrapper@P$AAUIBuffer@Streams@Storage@Windows@@@Collections@NodeRT@@V?$Local@VObject@v8@@@v8@@@Z 1002aca0 f i _nodert_generated.obj
 0001:00029ca0       ??$Unwrap@V?$IteratorWrapper@P$AAVGattDeviceService@GenericAttributeProfile@Bluetooth@Devices@Windows@@@Collections@NodeRT@@@ObjectWrap@Nan@@SAPAV?$IteratorWrapper@P$AAVGattDeviceService@GenericAttributeProfile@Bluetooth@Devices@Windows@@@Collections@NodeRT@@V?$Local@VObject@v8@@@v8@@@Z 1002aca0 f i _nodert_generated.obj
 0001:00029ca0       ??$Unwrap@VBluetoothDeviceId@Bluetooth@Devices@Windows@NodeRT@@@ObjectWrap@Nan@@SAPAVBluetoothDeviceId@Bluetooth@Devices@Windows@NodeRT@@V?$Local@VObject@v8@@@v8@@@Z 1002aca0 f i _nodert_generated.obj
 0001:00029ca0       ??$Unwrap@VBluetoothSignalStrengthFilter@Bluetooth@Devices@Windows@NodeRT@@@ObjectWrap@Nan@@SAPAVBluetoothSignalStrengthFilter@Bluetooth@Devices@Windows@NodeRT@@V?$Local@VObject@v8@@@v8@@@Z 1002aca0 f i _nodert_generated.obj
 0001:00029ca0       ??$Unwrap@VWrapperBase@NodeRT@@@ObjectWrap@Nan@@SAPAVWrapperBase@NodeRT@@V?$Local@VObject@v8@@@v8@@@Z 1002aca0 f i _nodert_generated.obj
 0001:00029ca0       ??$Unwrap@VBluetoothClassOfDevice@Bluetooth@Devices@Windows@NodeRT@@@ObjectWrap@Nan@@SAPAVBluetoothClassOfDevice@Bluetooth@Devices@Windows@NodeRT@@V?$Local@VObject@v8@@@v8@@@Z 1002aca0 f i _nodert_generated.obj
 0001:00029d10       ??$create_task@P$AAU?$IAsyncOperation@P$AAVRadio@Radios@Devices@Windows@@@Foundation@Windows@@@Concurrency@@YA?AV?$task@P$AAVRadio@Radios@Devices@Windows@@@0@P$AAU?$IAsyncOperation@P$AAVRadio@Radios@Devices@Windows@@@Foundation@Windows@@Vtask_options@0@@Z 1002ad10 f i _nodert_generated.obj
 0001:00029dc0       ??$?0V<lambda_14f1f715b558ff3f1896f1a2d375bd61>@@XX@?$function@$$A6AXV?$function@$$A6AXHPAV?$Local@VValue@v8@@@v8@@@Z@std@@@Z@std@@QAE@V<lambda_14f1f715b558ff3f1896f1a2d375bd61>@@@Z 1002adc0 f i _nodert_generated.obj
 0001:00029e40       ??$then@V<lambda_747ec3eb3a097e44df54679908ea0d09>@@@?$task@P$AAVRadio@Radios@Devices@Windows@@@Concurrency@@QBE?AV?$task@X@1@ABV<lambda_747ec3eb3a097e44df54679908ea0d09>@@@Z 1002ae40 f i _nodert_generated.obj
 0001:0002a040       ??$create_task@P$AAU?$IAsyncOperation@P$AAVBluetoothAdapter@Bluetooth@Devices@Windows@@@Foundation@Windows@@@Concurrency@@YA?AV?$task@P$AAVBluetoothAdapter@Bluetooth@Devices@Windows@@@0@P$AAU?$IAsyncOperation@P$AAVBluetoothAdapter@Bluetooth@Devices@Windows@@@Foundation@Windows@@Vtask_options@0@@Z 1002b040 f i _nodert_generated.obj
 0001:0002a0f0       ??$?0V<lambda_18e6cab7d1ade338b0bade6a66c837c9>@@XX@?$function@$$A6AXV?$function@$$A6AXHPAV?$Local@VValue@v8@@@v8@@@Z@std@@@Z@std@@QAE@V<lambda_18e6cab7d1ade338b0bade6a66c837c9>@@@Z 1002b0f0 f i _nodert_generated.obj
 0001:0002a170       ??$then@V<lambda_5ec53a2f3b8c40fcfce1c97e868d4a76>@@@?$task@P$AAVBluetoothAdapter@Bluetooth@Devices@Windows@@@Concurrency@@QBE?AV?$task@X@1@ABV<lambda_5ec53a2f3b8c40fcfce1c97e868d4a76>@@@Z 1002b170 f i _nodert_generated.obj
 0001:0002a340       ??$?0V<lambda_303346c6205280f0400a0a4337cb6f94>@@XX@?$function@$$A6AXV?$function@$$A6AXHPAV?$Local@VValue@v8@@@v8@@@Z@std@@@Z@std@@QAE@V<lambda_303346c6205280f0400a0a4337cb6f94>@@@Z 1002b340 f i _nodert_generated.obj
 0001:0002a3c0       ??$then@V<lambda_b301bd98ae2fed6582e1efada6fc5ceb>@@@?$task@P$AAVBluetoothAdapter@Bluetooth@Devices@Windows@@@Concurrency@@QBE?AV?$task@X@1@ABV<lambda_b301bd98ae2fed6582e1efada6fc5ceb>@@@Z 1002b3c0 f i _nodert_generated.obj
 0001:0002a590       ??$IsWinRtWrapperOf@P$AAVBluetoothDeviceId@Bluetooth@Devices@Windows@@@Utils@NodeRT@@YA_NV?$Local@VValue@v8@@@v8@@@Z 1002b590 f i _nodert_generated.obj
 0001:0002a6e0       ??$IsWinRtWrapperOf@P$AAVBluetoothLEAppearanceSubcategories@Bluetooth@Devices@Windows@@@Utils@NodeRT@@YA_NV?$Local@VValue@v8@@@v8@@@Z 1002b6e0 f i _nodert_generated.obj
 0001:0002a6e0       ??$IsWinRtWrapperOf@P$AAVBluetoothUuidHelper@Bluetooth@Devices@Windows@@@Utils@NodeRT@@YA_NV?$Local@VValue@v8@@@v8@@@Z 1002b6e0 f i _nodert_generated.obj
 0001:0002a6e0       ??$IsWinRtWrapperOf@P$AAVBluetoothLEAppearanceCategories@Bluetooth@Devices@Windows@@@Utils@NodeRT@@YA_NV?$Local@VValue@v8@@@v8@@@Z 1002b6e0 f i _nodert_generated.obj
 0001:0002a830       ??$New@VInteger@v8@@I@Nan@@YA?AV?$Local@VInteger@v8@@@v8@@I@Z 1002b830 f i _nodert_generated.obj
 0001:0002a870       ??$IsWinRtWrapperOf@P$AAVBluetoothDevice@Bluetooth@Devices@Windows@@@Utils@NodeRT@@YA_NV?$Local@VValue@v8@@@v8@@@Z 1002b870 f i _nodert_generated.obj
 0001:0002a9c0       ??$create_task@P$AAU?$IAsyncOperation@W4DeviceAccessStatus@Enumeration@Devices@Windows@@@Foundation@Windows@@@Concurrency@@YA?AV?$task@W4DeviceAccessStatus@Enumeration@Devices@Windows@@@0@P$AAU?$IAsyncOperation@W4DeviceAccessStatus@Enumeration@Devices@Windows@@@Foundation@Windows@@Vtask_options@0@@Z 1002b9c0 f i _nodert_generated.obj
 0001:0002aa70       ??$?0V<lambda_85324de540444b6fadd78ae5974fe4b9>@@XX@?$function@$$A6AXV?$function@$$A6AXHPAV?$Local@VValue@v8@@@v8@@@Z@std@@@Z@std@@QAE@V<lambda_85324de540444b6fadd78ae5974fe4b9>@@@Z 1002ba70 f i _nodert_generated.obj
 0001:0002aaf0       ??$then@V<lambda_09c86ff1b6a1cdd4b1c67fc041d113fb>@@@?$task@W4DeviceAccessStatus@Enumeration@Devices@Windows@@@Concurrency@@QBE?AV?$task@X@1@ABV<lambda_09c86ff1b6a1cdd4b1c67fc041d113fb>@@@Z 1002baf0 f i _nodert_generated.obj
 0001:0002acc0       ??$create_task@P$AAU?$IAsyncOperation@P$AAVRfcommDeviceServicesResult@Rfcomm@Bluetooth@Devices@Windows@@@Foundation@Windows@@@Concurrency@@YA?AV?$task@P$AAVRfcommDeviceServicesResult@Rfcomm@Bluetooth@Devices@Windows@@@0@P$AAU?$IAsyncOperation@P$AAVRfcommDeviceServicesResult@Rfcomm@Bluetooth@Devices@Windows@@@Foundation@Windows@@Vtask_options@0@@Z 1002bcc0 f i _nodert_generated.obj
 0001:0002ad70       ??$?0V<lambda_3de740e13969e2b8a3ac1e24d37ecf1e>@@XX@?$function@$$A6AXV?$function@$$A6AXHPAV?$Local@VValue@v8@@@v8@@@Z@std@@@Z@std@@QAE@V<lambda_3de740e13969e2b8a3ac1e24d37ecf1e>@@@Z 1002bd70 f i _nodert_generated.obj
 0001:0002adf0       ??$then@V<lambda_ddc783f4c1398e092806cb9237aa3654>@@@?$task@P$AAVRfcommDeviceServicesResult@Rfcomm@Bluetooth@Devices@Windows@@@Concurrency@@QBE?AV?$task@X@1@ABV<lambda_ddc783f4c1398e092806cb9237aa3654>@@@Z 1002bdf0 f i _nodert_generated.obj
 0001:0002afc0       ??$IsWinRtWrapperOf@P$AAVRfcommServiceId@Rfcomm@Bluetooth@Devices@Windows@@@Utils@NodeRT@@YA_NV?$Local@VValue@v8@@@v8@@@Z 1002bfc0 f i _nodert_generated.obj
 0001:0002b110       ??$?0V<lambda_262dc18221bbebaf5c9d902693b8c78e>@@XX@?$function@$$A6AXV?$function@$$A6AXHPAV?$Local@VValue@v8@@@v8@@@Z@std@@@Z@std@@QAE@V<lambda_262dc18221bbebaf5c9d902693b8c78e>@@@Z 1002c110 f i _nodert_generated.obj
 0001:0002b190       ??$then@V<lambda_b86b2a0148a1d5e4b4569c5430b449d8>@@@?$task@P$AAVRfcommDeviceServicesResult@Rfcomm@Bluetooth@Devices@Windows@@@Concurrency@@QBE?AV?$task@X@1@ABV<lambda_b86b2a0148a1d5e4b4569c5430b449d8>@@@Z 1002c190 f i _nodert_generated.obj
 0001:0002b360       ??$create_task@P$AAU?$IAsyncOperation@P$AAVBluetoothDevice@Bluetooth@Devices@Windows@@@Foundation@Windows@@@Concurrency@@YA?AV?$task@P$AAVBluetoothDevice@Bluetooth@Devices@Windows@@@0@P$AAU?$IAsyncOperation@P$AAVBluetoothDevice@Bluetooth@Devices@Windows@@@Foundation@Windows@@Vtask_options@0@@Z 1002c360 f i _nodert_generated.obj
 0001:0002b410       ??$?0V<lambda_0a965d69dad08e8c30c0d6726b1285f8>@@XX@?$function@$$A6AXV?$function@$$A6AXHPAV?$Local@VValue@v8@@@v8@@@Z@std@@@Z@std@@QAE@V<lambda_0a965d69dad08e8c30c0d6726b1285f8>@@@Z 1002c410 f i _nodert_generated.obj
 0001:0002b490       ??$then@V<lambda_a422017cc2cb3ea9ea84dc6f3397536e>@@@?$task@P$AAVBluetoothDevice@Bluetooth@Devices@Windows@@@Concurrency@@QBE?AV?$task@X@1@ABV<lambda_a422017cc2cb3ea9ea84dc6f3397536e>@@@Z 1002c490 f i _nodert_generated.obj
 0001:0002b660       ??$IsWinRtWrapperOf@P$AAVHostName@Networking@Windows@@@Utils@NodeRT@@YA_NV?$Local@VValue@v8@@@v8@@@Z 1002c660 f i _nodert_generated.obj
 0001:0002b7b0       ??$?0V<lambda_9b07747e2608eab745e1d48b0ade56b8>@@XX@?$function@$$A6AXV?$function@$$A6AXHPAV?$Local@VValue@v8@@@v8@@@Z@std@@@Z@std@@QAE@V<lambda_9b07747e2608eab745e1d48b0ade56b8>@@@Z 1002c7b0 f i _nodert_generated.obj
 0001:0002b830       ??$then@V<lambda_c0b2bbf4a71c8527bc0a2d5b6d9db5f6>@@@?$task@P$AAVBluetoothDevice@Bluetooth@Devices@Windows@@@Concurrency@@QBE?AV?$task@X@1@ABV<lambda_c0b2bbf4a71c8527bc0a2d5b6d9db5f6>@@@Z 1002c830 f i _nodert_generated.obj
 0001:0002ba00       ??$?0V<lambda_28386656da5c779c164d4e8f3ced1c51>@@XX@?$function@$$A6AXV?$function@$$A6AXHPAV?$Local@VValue@v8@@@v8@@@Z@std@@@Z@std@@QAE@V<lambda_28386656da5c779c164d4e8f3ced1c51>@@@Z 1002ca00 f i _nodert_generated.obj
 0001:0002ba80       ??$then@V<lambda_c67692e49665ca78d5770ac62b32390b>@@@?$task@P$AAVBluetoothDevice@Bluetooth@Devices@Windows@@@Concurrency@@QBE?AV?$task@X@1@ABV<lambda_c67692e49665ca78d5770ac62b32390b>@@@Z 1002ca80 f i _nodert_generated.obj
 0001:0002bc50       ??$IsWinRtWrapperOf@P$AAVBluetoothClassOfDevice@Bluetooth@Devices@Windows@@@Utils@NodeRT@@YA_NV?$Local@VValue@v8@@@v8@@@Z 1002cc50 f i _nodert_generated.obj
 0001:0002bda0       ??$IsWinRtWrapperOf@P$AAVRfcommDeviceService@Rfcomm@Bluetooth@Devices@Windows@@@Utils@NodeRT@@YA_NV?$Local@VValue@v8@@@v8@@@Z 1002cda0 f i _nodert_generated.obj
 0001:0002bef0       ??$IsWinRtWrapperOf@P$AAUIBuffer@Streams@Storage@Windows@@@Utils@NodeRT@@YA_NV?$Local@VValue@v8@@@v8@@@Z 1002cef0 f i _nodert_generated.obj
 0001:0002c040       ??$?0V?$Persistent@VObject@v8@@V?$NonCopyablePersistentTraits@VObject@v8@@@2@@Nan@@V<lambda_d583e3ad4cbeba261287277e1fa4fd4a>@@@?$shared_ptr@V?$Persistent@VObject@v8@@V?$NonCopyablePersistentTraits@VObject@v8@@@2@@Nan@@@std@@QAE@PAV?$Persistent@VObject@v8@@V?$NonCopyablePersistentTraits@VObject@v8@@@2@@Nan@@V<lambda_d583e3ad4cbeba261287277e1fa4fd4a>@@@Z 1002d040 f i _nodert_generated.obj
 0001:0002c0c0       ??$?0V<lambda_4779ea09785d47ce6b74ad0b9641d6a3>@@XX@?$function@$$A6AXXZ@std@@QAE@V<lambda_4779ea09785d47ce6b74ad0b9641d6a3>@@@Z 1002d0c0 f i _nodert_generated.obj
 0001:0002c1b0       ??$?0V<lambda_0ff02e744efabf3b08ab4652efc1f2a9>@@@?$TypedEventHandler@P$AAVBluetoothDevice@Bluetooth@Devices@Windows@@P$AAVObject@Platform@@@Foundation@Windows@@Q$AAA@V<lambda_0ff02e744efabf3b08ab4652efc1f2a9>@@W4CallbackContext@Platform@@_N@Z 1002d1b0 f i _nodert_generated.obj
 0001:0002c2f0       ??$__abi_winrt_ptrto_delegate_dtor@V?$TypedEventHandler@P$AAVBluetoothDevice@Bluetooth@Devices@Windows@@P$AAVObject@Platform@@@Foundation@Windows@@@@YAXP$ADV?$TypedEventHandler@P$AAVBluetoothDevice@Bluetooth@Devices@Windows@@P$AAVObject@Platform@@@Foundation@Windows@@@Z 1002d2f0 f i _nodert_generated.obj
 0001:0002c2f0       ??$__abi_winrt_ptrto_delegate_dtor@V?$AsyncOperationCompletedHandler@W4DeviceAccessStatus@Enumeration@Devices@Windows@@@Foundation@Windows@@@@YAXP$ADV?$AsyncOperationCompletedHandler@W4DeviceAccessStatus@Enumeration@Devices@Windows@@@Foundation@Windows@@@Z 1002d2f0 f i _nodert_generated.obj
 0001:0002c2f0       ??$__abi_winrt_ptrto_delegate_dtor@V?$AsyncOperationCompletedHandler@P$AAVBluetoothDevice@Bluetooth@Devices@Windows@@@Foundation@Windows@@@@YAXP$ADV?$AsyncOperationCompletedHandler@P$AAVBluetoothDevice@Bluetooth@Devices@Windows@@@Foundation@Windows@@@Z 1002d2f0 f i _nodert_generated.obj
 0001:0002c2f0       ??$__abi_winrt_ptrto_delegate_dtor@V?$AsyncOperationCompletedHandler@P$AAVRfcommDeviceServicesResult@Rfcomm@Bluetooth@Devices@Windows@@@Foundation@Windows@@@@YAXP$ADV?$AsyncOperationCompletedHandler@P$AAVRfcommDeviceServicesResult@Rfcomm@Bluetooth@Devices@Windows@@@Foundation@Windows@@@Z 1002d2f0 f i _nodert_generated.obj
 0001:0002c2f0       ??$__abi_winrt_ptrto_delegate_dtor@V?$AsyncOperationCompletedHandler@P$AAVBluetoothAdapter@Bluetooth@Devices@Windows@@@Foundation@Windows@@@@YAXP$ADV?$AsyncOperationCompletedHandler@P$AAVBluetoothAdapter@Bluetooth@Devices@Windows@@@Foundation@Windows@@@Z 1002d2f0 f i _nodert_generated.obj
 0001:0002c2f0       ??$__abi_winrt_ptrto_delegate_dtor@V?$AsyncOperationCompletedHandler@P$AAVRadio@Radios@Devices@Windows@@@Foundation@Windows@@@@YAXP$ADV?$AsyncOperationCompletedHandler@P$AAVRadio@Radios@Devices@Windows@@@Foundation@Windows@@@Z 1002d2f0 f i _nodert_generated.obj
 0001:0002c2f0       ??$__abi_winrt_ptrto_delegate_dtor@V?$TypedEventHandler@P$AAVBluetoothLEDevice@Bluetooth@Devices@Windows@@P$AAVObject@Platform@@@Foundation@Windows@@@@YAXP$ADV?$TypedEventHandler@P$AAVBluetoothLEDevice@Bluetooth@Devices@Windows@@P$AAVObject@Platform@@@Foundation@Windows@@@Z 1002d2f0 f i _nodert_generated.obj
 0001:0002c2f0       ??$__abi_winrt_ptrto_delegate_dtor@V?$AsyncOperationCompletedHandler@P$AAVGattDeviceServicesResult@GenericAttributeProfile@Bluetooth@Devices@Windows@@@Foundation@Windows@@@@YAXP$ADV?$AsyncOperationCompletedHandler@P$AAVGattDeviceServicesResult@GenericAttributeProfile@Bluetooth@Devices@Windows@@@Foundation@Windows@@@Z 1002d2f0 f i _nodert_generated.obj
 0001:0002c2f0       ??$__abi_winrt_ptrto_delegate_dtor@V?$AsyncOperationCompletedHandler@P$AAVBluetoothLEDevice@Bluetooth@Devices@Windows@@@Foundation@Windows@@@@YAXP$ADV?$AsyncOperationCompletedHandler@P$AAVBluetoothLEDevice@Bluetooth@Devices@Windows@@@Foundation@Windows@@@Z 1002d2f0 f i _nodert_generated.obj
 0001:0002c300       ??$?0V?$Persistent@VObject@v8@@V?$NonCopyablePersistentTraits@VObject@v8@@@2@@Nan@@V<lambda_1853ce3c12b6c6e41831df1b46a203a3>@@@?$shared_ptr@V?$Persistent@VObject@v8@@V?$NonCopyablePersistentTraits@VObject@v8@@@2@@Nan@@@std@@QAE@PAV?$Persistent@VObject@v8@@V?$NonCopyablePersistentTraits@VObject@v8@@@2@@Nan@@V<lambda_1853ce3c12b6c6e41831df1b46a203a3>@@@Z 1002d300 f i _nodert_generated.obj
 0001:0002c380       ??$?0V<lambda_21245c7ce8f5fddc838816d351bb245c>@@XX@?$function@$$A6AXXZ@std@@QAE@V<lambda_21245c7ce8f5fddc838816d351bb245c>@@@Z 1002d380 f i _nodert_generated.obj
 0001:0002c470       ??$?0V<lambda_811216496a9d3d39f34249a25051ff32>@@@?$TypedEventHandler@P$AAVBluetoothDevice@Bluetooth@Devices@Windows@@P$AAVObject@Platform@@@Foundation@Windows@@Q$AAA@V<lambda_811216496a9d3d39f34249a25051ff32>@@W4CallbackContext@Platform@@_N@Z 1002d470 f i _nodert_generated.obj
 0001:0002c5b0       ??$?0V?$Persistent@VObject@v8@@V?$NonCopyablePersistentTraits@VObject@v8@@@2@@Nan@@V<lambda_d373631d158baa05484fcf38ca74f733>@@@?$shared_ptr@V?$Persistent@VObject@v8@@V?$NonCopyablePersistentTraits@VObject@v8@@@2@@Nan@@@std@@QAE@PAV?$Persistent@VObject@v8@@V?$NonCopyablePersistentTraits@VObject@v8@@@2@@Nan@@V<lambda_d373631d158baa05484fcf38ca74f733>@@@Z 1002d5b0 f i _nodert_generated.obj
 0001:0002c630       ??$?0V<lambda_11d52c4e8e039308584b1c6301bf3129>@@XX@?$function@$$A6AXXZ@std@@QAE@V<lambda_11d52c4e8e039308584b1c6301bf3129>@@@Z 1002d630 f i _nodert_generated.obj
 0001:0002c720       ??$?0V<lambda_370d947a313ea5ad0c7760f0a69faccf>@@@?$TypedEventHandler@P$AAVBluetoothDevice@Bluetooth@Devices@Windows@@P$AAVObject@Platform@@@Foundation@Windows@@Q$AAA@V<lambda_370d947a313ea5ad0c7760f0a69faccf>@@W4CallbackContext@Platform@@_N@Z 1002d720 f i _nodert_generated.obj
 0001:0002c860       ??$__abi_unbox@_J@@YA_JP$AAVObject@Platform@@@Z 1002d860 f i _nodert_generated.obj
 0001:0002c8f0       ??$IsWinRtWrapperOf@P$AAVBluetoothLEAppearance@Bluetooth@Devices@Windows@@@Utils@NodeRT@@YA_NV?$Local@VValue@v8@@@v8@@@Z 1002d8f0 f i _nodert_generated.obj
 0001:0002ca40       ??$IsWinRtWrapperOf@P$AAVBluetoothLEDevice@Bluetooth@Devices@Windows@@@Utils@NodeRT@@YA_NV?$Local@VValue@v8@@@v8@@@Z 1002da40 f i _nodert_generated.obj
 0001:0002cb90       ??$?0V<lambda_f72c7d94d1b4205e6643f6e601058a4c>@@XX@?$function@$$A6AXV?$function@$$A6AXHPAV?$Local@VValue@v8@@@v8@@@Z@std@@@Z@std@@QAE@V<lambda_f72c7d94d1b4205e6643f6e601058a4c>@@@Z 1002db90 f i _nodert_generated.obj
 0001:0002cc10       ??$then@V<lambda_e4fa91270f620c683eb90f5221d569b3>@@@?$task@W4DeviceAccessStatus@Enumeration@Devices@Windows@@@Concurrency@@QBE?AV?$task@X@1@ABV<lambda_e4fa91270f620c683eb90f5221d569b3>@@@Z 1002dc10 f i _nodert_generated.obj
 0001:0002cde0       ??$create_task@P$AAU?$IAsyncOperation@P$AAVGattDeviceServicesResult@GenericAttributeProfile@Bluetooth@Devices@Windows@@@Foundation@Windows@@@Concurrency@@YA?AV?$task@P$AAVGattDeviceServicesResult@GenericAttributeProfile@Bluetooth@Devices@Windows@@@0@P$AAU?$IAsyncOperation@P$AAVGattDeviceServicesResult@GenericAttributeProfile@Bluetooth@Devices@Windows@@@Foundation@Windows@@Vtask_options@0@@Z 1002dde0 f i _nodert_generated.obj
 0001:0002ce90       ??$?0V<lambda_187bfff809842edec62074d62b22b32f>@@XX@?$function@$$A6AXV?$function@$$A6AXHPAV?$Local@VValue@v8@@@v8@@@Z@std@@@Z@std@@QAE@V<lambda_187bfff809842edec62074d62b22b32f>@@@Z 1002de90 f i _nodert_generated.obj
 0001:0002cf10       ??$then@V<lambda_17692cdfbcd492d685873501f5a0a200>@@@?$task@P$AAVGattDeviceServicesResult@GenericAttributeProfile@Bluetooth@Devices@Windows@@@Concurrency@@QBE?AV?$task@X@1@ABV<lambda_17692cdfbcd492d685873501f5a0a200>@@@Z 1002df10 f i _nodert_generated.obj
 0001:0002d0e0       ??$?0V<lambda_d73df75e068ac21414fb299eee9ee9d4>@@XX@?$function@$$A6AXV?$function@$$A6AXHPAV?$Local@VValue@v8@@@v8@@@Z@std@@@Z@std@@QAE@V<lambda_d73df75e068ac21414fb299eee9ee9d4>@@@Z 1002e0e0 f i _nodert_generated.obj
 0001:0002d160       ??$then@V<lambda_cdd1f60660fdf3ea982e929d08ad3045>@@@?$task@P$AAVGattDeviceServicesResult@GenericAttributeProfile@Bluetooth@Devices@Windows@@@Concurrency@@QBE?AV?$task@X@1@ABV<lambda_cdd1f60660fdf3ea982e929d08ad3045>@@@Z 1002e160 f i _nodert_generated.obj
 0001:0002d330       ??$create_task@P$AAU?$IAsyncOperation@P$AAVBluetoothLEDevice@Bluetooth@Devices@Windows@@@Foundation@Windows@@@Concurrency@@YA?AV?$task@P$AAVBluetoothLEDevice@Bluetooth@Devices@Windows@@@0@P$AAU?$IAsyncOperation@P$AAVBluetoothLEDevice@Bluetooth@Devices@Windows@@@Foundation@Windows@@Vtask_options@0@@Z 1002e330 f i _nodert_generated.obj
 0001:0002d3e0       ??$?0V<lambda_dbe60ed01c1e3c76a597f3af09957bae>@@XX@?$function@$$A6AXV?$function@$$A6AXHPAV?$Local@VValue@v8@@@v8@@@Z@std@@@Z@std@@QAE@V<lambda_dbe60ed01c1e3c76a597f3af09957bae>@@@Z 1002e3e0 f i _nodert_generated.obj
 0001:0002d460       ??$then@V<lambda_e8c606f4a354d9274c0c416c6b42ad06>@@@?$task@P$AAVBluetoothLEDevice@Bluetooth@Devices@Windows@@@Concurrency@@QBE?AV?$task@X@1@ABV<lambda_e8c606f4a354d9274c0c416c6b42ad06>@@@Z 1002e460 f i _nodert_generated.obj
 0001:0002d630       ??$?0V<lambda_25051fbfe6c38c7d30193c2fb9fc5459>@@XX@?$function@$$A6AXV?$function@$$A6AXHPAV?$Local@VValue@v8@@@v8@@@Z@std@@@Z@std@@QAE@V<lambda_25051fbfe6c38c7d30193c2fb9fc5459>@@@Z 1002e630 f i _nodert_generated.obj
 0001:0002d6b0       ??$then@V<lambda_95a33bc271dcb0aacb259968d44ea12d>@@@?$task@P$AAVBluetoothLEDevice@Bluetooth@Devices@Windows@@@Concurrency@@QBE?AV?$task@X@1@ABV<lambda_95a33bc271dcb0aacb259968d44ea12d>@@@Z 1002e6b0 f i _nodert_generated.obj
 0001:0002d880       ??$IsWinRtWrapperOf@P$AAVGattDeviceService@GenericAttributeProfile@Bluetooth@Devices@Windows@@@Utils@NodeRT@@YA_NV?$Local@VValue@v8@@@v8@@@Z 1002e880 f i _nodert_generated.obj
 0001:0002d9d0       ??$?0V?$Persistent@VObject@v8@@V?$NonCopyablePersistentTraits@VObject@v8@@@2@@Nan@@V<lambda_920710e3d6bf5475724ebbb9357ddbf4>@@@?$shared_ptr@V?$Persistent@VObject@v8@@V?$NonCopyablePersistentTraits@VObject@v8@@@2@@Nan@@@std@@QAE@PAV?$Persistent@VObject@v8@@V?$NonCopyablePersistentTraits@VObject@v8@@@2@@Nan@@V<lambda_920710e3d6bf5475724ebbb9357ddbf4>@@@Z 1002e9d0 f i _nodert_generated.obj
 0001:0002da50       ??$?0V<lambda_b178835706b8fe80973af7c915c5e45f>@@XX@?$function@$$A6AXXZ@std@@QAE@V<lambda_b178835706b8fe80973af7c915c5e45f>@@@Z 1002ea50 f i _nodert_generated.obj
 0001:0002db40       ??$?0V<lambda_4a10107e183966b0fff76c8a1bed8121>@@@?$TypedEventHandler@P$AAVBluetoothLEDevice@Bluetooth@Devices@Windows@@P$AAVObject@Platform@@@Foundation@Windows@@Q$AAA@V<lambda_4a10107e183966b0fff76c8a1bed8121>@@W4CallbackContext@Platform@@_N@Z 1002eb40 f i _nodert_generated.obj
 0001:0002dc80       ??$?0V?$Persistent@VObject@v8@@V?$NonCopyablePersistentTraits@VObject@v8@@@2@@Nan@@V<lambda_b1b9f90765862e03fa467072316e8fd3>@@@?$shared_ptr@V?$Persistent@VObject@v8@@V?$NonCopyablePersistentTraits@VObject@v8@@@2@@Nan@@@std@@QAE@PAV?$Persistent@VObject@v8@@V?$NonCopyablePersistentTraits@VObject@v8@@@2@@Nan@@V<lambda_b1b9f90765862e03fa467072316e8fd3>@@@Z 1002ec80 f i _nodert_generated.obj
 0001:0002dd00       ??$?0V<lambda_59389d5c5c04822e8fbd05aa862dcce0>@@XX@?$function@$$A6AXXZ@std@@QAE@V<lambda_59389d5c5c04822e8fbd05aa862dcce0>@@@Z 1002ed00 f i _nodert_generated.obj
 0001:0002ddf0       ??$?0V<lambda_f5485a71606726f667fba1eb6d209cf3>@@@?$TypedEventHandler@P$AAVBluetoothLEDevice@Bluetooth@Devices@Windows@@P$AAVObject@Platform@@@Foundation@Windows@@Q$AAA@V<lambda_f5485a71606726f667fba1eb6d209cf3>@@W4CallbackContext@Platform@@_N@Z 1002edf0 f i _nodert_generated.obj
 0001:0002df30       ??$?0V?$Persistent@VObject@v8@@V?$NonCopyablePersistentTraits@VObject@v8@@@2@@Nan@@V<lambda_0c61f5da77e337355f14540e68780a41>@@@?$shared_ptr@V?$Persistent@VObject@v8@@V?$NonCopyablePersistentTraits@VObject@v8@@@2@@Nan@@@std@@QAE@PAV?$Persistent@VObject@v8@@V?$NonCopyablePersistentTraits@VObject@v8@@@2@@Nan@@V<lambda_0c61f5da77e337355f14540e68780a41>@@@Z 1002ef30 f i _nodert_generated.obj
 0001:0002dfb0       ??$?0V<lambda_d8fb6bded5a33607e87380aecfede953>@@XX@?$function@$$A6AXXZ@std@@QAE@V<lambda_d8fb6bded5a33607e87380aecfede953>@@@Z 1002efb0 f i _nodert_generated.obj
 0001:0002e0a0       ??$?0V<lambda_b0291749b0a9b731bd07c14cec5a0280>@@@?$TypedEventHandler@P$AAVBluetoothLEDevice@Bluetooth@Devices@Windows@@P$AAVObject@Platform@@@Foundation@Windows@@Q$AAA@V<lambda_b0291749b0a9b731bd07c14cec5a0280>@@W4CallbackContext@Platform@@_N@Z 1002f0a0 f i _nodert_generated.obj
 0001:0002e1e0       ??$IsWinRtWrapperOf@P$AAVBluetoothSignalStrengthFilter@Bluetooth@Devices@Windows@@@Utils@NodeRT@@YA_NV?$Local@VValue@v8@@@v8@@@Z 1002f1e0 f i _nodert_generated.obj
 0001:0002e330       ??$make_shared@U?$_Task_impl@E@details@Concurrency@@AAPAV_CancellationTokenState@23@AAUscheduler_ptr@3@@std@@YA?AV?$shared_ptr@U?$_Task_impl@E@details@Concurrency@@@0@AAPAV_CancellationTokenState@details@Concurrency@@AAUscheduler_ptr@4@@Z 1002f330 f i _nodert_generated.obj
 0001:0002e3d0       ??$IsWinRtWrapperOf@P$AAU?$IVectorView@P$AAVGattDeviceService@GenericAttributeProfile@Bluetooth@Devices@Windows@@@Collections@Foundation@Windows@@@Utils@NodeRT@@YA_NV?$Local@VValue@v8@@@v8@@@Z 1002f3d0 f i _nodert_generated.obj
 0001:0002e520       ??$IsWinRtWrapperOf@P$AAU?$IVectorView@P$AAUIBuffer@Streams@Storage@Windows@@@Collections@Foundation@Windows@@@Utils@NodeRT@@YA_NV?$Local@VValue@v8@@@v8@@@Z 1002f520 f i _nodert_generated.obj
 0001:0002e670       ??$IsWinRtWrapperOf@P$AAU?$IVectorView@P$AAVRfcommDeviceService@Rfcomm@Bluetooth@Devices@Windows@@@Collections@Foundation@Windows@@@Utils@NodeRT@@YA_NV?$Local@VValue@v8@@@v8@@@Z 1002f670 f i _nodert_generated.obj
 0001:0002e7c0       ??$IsWinRtWrapperOf@P$AAU?$IIterator@P$AAVRfcommDeviceService@Rfcomm@Bluetooth@Devices@Windows@@@Collections@Foundation@Windows@@@Utils@NodeRT@@YA_NV?$Local@VValue@v8@@@v8@@@Z 1002f7c0 f i _nodert_generated.obj
 0001:0002e910       ??$IsWinRtWrapperOf@P$AAU?$IIterator@P$AAUIBuffer@Streams@Storage@Windows@@@Collections@Foundation@Windows@@@Utils@NodeRT@@YA_NV?$Local@VValue@v8@@@v8@@@Z 1002f910 f i _nodert_generated.obj
 0001:0002ea60       ??$IsWinRtWrapperOf@P$AAU?$IIterator@P$AAVGattDeviceService@GenericAttributeProfile@Bluetooth@Devices@Windows@@@Collections@Foundation@Windows@@@Utils@NodeRT@@YA_NV?$Local@VValue@v8@@@v8@@@Z 1002fa60 f i _nodert_generated.obj
 0001:0002ebb0       ?_Delete_this@?$_Ref_count_del@V?$Persistent@VObject@v8@@V?$NonCopyablePersistentTraits@VObject@v8@@@2@@Nan@@V<lambda_1853ce3c12b6c6e41831df1b46a203a3>@@@std@@EAEXXZ 1002fbb0 f i _nodert_generated.obj
 0001:0002ebb0       ?_Delete_this@?$_Ref_count_obj@U_ExceptionHolder@details@Concurrency@@@std@@EAEXXZ 1002fbb0 f i _nodert_generated.obj
 0001:0002ebb0       ?_Delete_this@?$_Ref_count_del@V?$Persistent@VObject@v8@@V?$NonCopyablePersistentTraits@VObject@v8@@@2@@Nan@@V<lambda_d373631d158baa05484fcf38ca74f733>@@@std@@EAEXXZ 1002fbb0 f i _nodert_generated.obj
 0001:0002ebb0       ?_Delete_this@?$_Ref_count_obj@U?$_Task_impl@E@details@Concurrency@@@std@@EAEXXZ 1002fbb0 f i _nodert_generated.obj
 0001:0002ebb0       ?_Delete_this@?$_Ref_count_del@V?$Persistent@VObject@v8@@V?$NonCopyablePersistentTraits@VObject@v8@@@2@@Nan@@V<lambda_b1b9f90765862e03fa467072316e8fd3>@@@std@@EAEXXZ 1002fbb0 f i _nodert_generated.obj
 0001:0002ebb0       ?_Delete_this@?$_Ref_count_obj@U?$_Task_impl@P$AAVBluetoothLEDevice@Bluetooth@Devices@Windows@@@details@Concurrency@@@std@@EAEXXZ 1002fbb0 f i _nodert_generated.obj
 0001:0002ebb0       ?_Delete_this@?$_Ref_count_obj@U?$_Task_impl@P$AAVBluetoothDevice@Bluetooth@Devices@Windows@@@details@Concurrency@@@std@@EAEXXZ 1002fbb0 f i _nodert_generated.obj
 0001:0002ebb0       ?_Delete_this@?$_Ref_count_obj@U?$_Task_impl@P$AAVGattDeviceServicesResult@GenericAttributeProfile@Bluetooth@Devices@Windows@@@details@Concurrency@@@std@@EAEXXZ 1002fbb0 f i _nodert_generated.obj
 0001:0002ebb0       ?_Delete_this@?$_Ref_count_del@V?$Persistent@VObject@v8@@V?$NonCopyablePersistentTraits@VObject@v8@@@2@@Nan@@V<lambda_0c61f5da77e337355f14540e68780a41>@@@std@@EAEXXZ 1002fbb0 f i _nodert_generated.obj
 0001:0002ebb0       ?_Delete_this@?$_Ref_count_obj@U?$_Task_impl@P$AAVBluetoothAdapter@Bluetooth@Devices@Windows@@@details@Concurrency@@@std@@EAEXXZ 1002fbb0 f i _nodert_generated.obj
 0001:0002ebb0       ?_Delete_this@?$_Ref_count_del@V?$Persistent@VObject@v8@@V?$NonCopyablePersistentTraits@VObject@v8@@@2@@Nan@@V<lambda_920710e3d6bf5475724ebbb9357ddbf4>@@@std@@EAEXXZ 1002fbb0 f i _nodert_generated.obj
 0001:0002ebb0       ?_Delete_this@?$_Ref_count_del@V?$Persistent@VObject@v8@@V?$NonCopyablePersistentTraits@VObject@v8@@@2@@Nan@@V<lambda_d583e3ad4cbeba261287277e1fa4fd4a>@@@std@@EAEXXZ 1002fbb0 f i _nodert_generated.obj
 0001:0002ebb0       ?_Delete_this@?$_Ref_count_obj@U?$_Task_impl@P$AAVRadio@Radios@Devices@Windows@@@details@Concurrency@@@std@@EAEXXZ 1002fbb0 f i _nodert_generated.obj
 0001:0002ebb0       ?_Delete_this@?$_Ref_count_obj@U?$_Task_impl@W4DeviceAccessStatus@Enumeration@Devices@Windows@@@details@Concurrency@@@std@@EAEXXZ 1002fbb0 f i _nodert_generated.obj
 0001:0002ebb0       ?_Delete_this@?$_Ref_count_obj@U?$_Task_impl@P$AAVRfcommDeviceServicesResult@Rfcomm@Bluetooth@Devices@Windows@@@details@Concurrency@@@std@@EAEXXZ 1002fbb0 f i _nodert_generated.obj
 0001:0002ebc0       ?_Destroy@?$_Ref_count_obj@U?$_Task_impl@P$AAVBluetoothLEDevice@Bluetooth@Devices@Windows@@@details@Concurrency@@@std@@EAEXXZ 1002fbc0 f i _nodert_generated.obj
 0001:0002ebc0       ?_Destroy@?$_Ref_count_obj@U?$_Task_impl@P$AAVRadio@Radios@Devices@Windows@@@details@Concurrency@@@std@@EAEXXZ 1002fbc0 f i _nodert_generated.obj
 0001:0002ebc0       ?_Destroy@?$_Ref_count_obj@U?$_Task_impl@P$AAVRfcommDeviceServicesResult@Rfcomm@Bluetooth@Devices@Windows@@@details@Concurrency@@@std@@EAEXXZ 1002fbc0 f i _nodert_generated.obj
 0001:0002ebc0       ?_Destroy@?$_Ref_count_obj@U?$_Task_impl@P$AAVBluetoothDevice@Bluetooth@Devices@Windows@@@details@Concurrency@@@std@@EAEXXZ 1002fbc0 f i _nodert_generated.obj
 0001:0002ebc0       ?_Destroy@?$_Ref_count_obj@U?$_Task_impl@W4DeviceAccessStatus@Enumeration@Devices@Windows@@@details@Concurrency@@@std@@EAEXXZ 1002fbc0 f i _nodert_generated.obj
 0001:0002ebc0       ?_Destroy@?$_Ref_count_obj@U?$_Task_impl@P$AAVBluetoothAdapter@Bluetooth@Devices@Windows@@@details@Concurrency@@@std@@EAEXXZ 1002fbc0 f i _nodert_generated.obj
 0001:0002ebc0       ?_Destroy@?$_Ref_count_obj@U?$_Task_impl@E@details@Concurrency@@@std@@EAEXXZ 1002fbc0 f i _nodert_generated.obj
 0001:0002ebc0       ?_Destroy@?$_Ref_count_obj@U?$_Task_impl@P$AAVGattDeviceServicesResult@GenericAttributeProfile@Bluetooth@Devices@Windows@@@details@Concurrency@@@std@@EAEXXZ 1002fbc0 f i _nodert_generated.obj
 0001:0002ebd0       ?Invoke@?$__abi_FunctorCapture@V<lambda_b0291749b0a9b731bd07c14cec5a0280>@@XP$AAVBluetoothLEDevice@Bluetooth@Devices@Windows@@P$AAVObject@Platform@@@Details@Platform@@UAGXP$AAVBluetoothLEDevice@Bluetooth@Devices@Windows@@P$AAVObject@3@@Z 1002fbd0 f i _nodert_generated.obj
 0001:0002ebf0       ??0?$__abi_FunctorCapture@V<lambda_b0291749b0a9b731bd07c14cec5a0280>@@XP$AAVBluetoothLEDevice@Bluetooth@Devices@Windows@@P$AAVObject@Platform@@@Details@Platform@@QAE@V<lambda_b0291749b0a9b731bd07c14cec5a0280>@@@Z 1002fbf0 f i _nodert_generated.obj
 0001:0002eca0       ?Invoke@?$__abi_FunctorCapture@V<lambda_f5485a71606726f667fba1eb6d209cf3>@@XP$AAVBluetoothLEDevice@Bluetooth@Devices@Windows@@P$AAVObject@Platform@@@Details@Platform@@UAGXP$AAVBluetoothLEDevice@Bluetooth@Devices@Windows@@P$AAVObject@3@@Z 1002fca0 f i _nodert_generated.obj
 0001:0002ecc0       ??0?$__abi_FunctorCapture@V<lambda_f5485a71606726f667fba1eb6d209cf3>@@XP$AAVBluetoothLEDevice@Bluetooth@Devices@Windows@@P$AAVObject@Platform@@@Details@Platform@@QAE@V<lambda_f5485a71606726f667fba1eb6d209cf3>@@@Z 1002fcc0 f i _nodert_generated.obj
 0001:0002ed70       ?Invoke@?$__abi_FunctorCapture@V<lambda_4a10107e183966b0fff76c8a1bed8121>@@XP$AAVBluetoothLEDevice@Bluetooth@Devices@Windows@@P$AAVObject@Platform@@@Details@Platform@@UAGXP$AAVBluetoothLEDevice@Bluetooth@Devices@Windows@@P$AAVObject@3@@Z 1002fd70 f i _nodert_generated.obj
 0001:0002ed90       ??0?$__abi_FunctorCapture@V<lambda_4a10107e183966b0fff76c8a1bed8121>@@XP$AAVBluetoothLEDevice@Bluetooth@Devices@Windows@@P$AAVObject@Platform@@@Details@Platform@@QAE@V<lambda_4a10107e183966b0fff76c8a1bed8121>@@@Z 1002fd90 f i _nodert_generated.obj
 0001:0002ee40       ??B?$Box@_J@Platform@@Q$AAA_JXZ 1002fe40 f i _nodert_generated.obj
 0001:0002ef10       ?Invoke@?$__abi_FunctorCapture@V<lambda_370d947a313ea5ad0c7760f0a69faccf>@@XP$AAVBluetoothDevice@Bluetooth@Devices@Windows@@P$AAVObject@Platform@@@Details@Platform@@UAGXP$AAVBluetoothDevice@Bluetooth@Devices@Windows@@P$AAVObject@3@@Z 1002ff10 f i _nodert_generated.obj
 0001:0002ef30       ??0?$__abi_FunctorCapture@V<lambda_370d947a313ea5ad0c7760f0a69faccf>@@XP$AAVBluetoothDevice@Bluetooth@Devices@Windows@@P$AAVObject@Platform@@@Details@Platform@@QAE@V<lambda_370d947a313ea5ad0c7760f0a69faccf>@@@Z 1002ff30 f i _nodert_generated.obj
 0001:0002efe0       ?Invoke@?$__abi_FunctorCapture@V<lambda_811216496a9d3d39f34249a25051ff32>@@XP$AAVBluetoothDevice@Bluetooth@Devices@Windows@@P$AAVObject@Platform@@@Details@Platform@@UAGXP$AAVBluetoothDevice@Bluetooth@Devices@Windows@@P$AAVObject@3@@Z 1002ffe0 f i _nodert_generated.obj
 0001:0002f000       ??0?$__abi_FunctorCapture@V<lambda_811216496a9d3d39f34249a25051ff32>@@XP$AAVBluetoothDevice@Bluetooth@Devices@Windows@@P$AAVObject@Platform@@@Details@Platform@@QAE@V<lambda_811216496a9d3d39f34249a25051ff32>@@@Z 10030000 f i _nodert_generated.obj
 0001:0002f0b0       ?Invoke@?$__abi_FunctorCapture@V<lambda_0ff02e744efabf3b08ab4652efc1f2a9>@@XP$AAVBluetoothDevice@Bluetooth@Devices@Windows@@P$AAVObject@Platform@@@Details@Platform@@UAGXP$AAVBluetoothDevice@Bluetooth@Devices@Windows@@P$AAVObject@3@@Z 100300b0 f i _nodert_generated.obj
 0001:0002f0d0       ??0?$__abi_FunctorCapture@V<lambda_0ff02e744efabf3b08ab4652efc1f2a9>@@XP$AAVBluetoothDevice@Bluetooth@Devices@Windows@@P$AAVObject@Platform@@@Details@Platform@@QAE@V<lambda_0ff02e744efabf3b08ab4652efc1f2a9>@@@Z 100300d0 f i _nodert_generated.obj
 0001:0002f180       ?_Destroy@?$_Ref_count_obj@U_ExceptionHolder@details@Concurrency@@@std@@EAEXXZ 10030180 f i _nodert_generated.obj
 0001:0002f190       ??1?$function@$$A6AXV?$task@P$AAVRadio@Radios@Devices@Windows@@@Concurrency@@@Z@std@@QAE@XZ 10030190 f i _nodert_generated.obj
 0001:0002f190       ??1?$_Func_class@XV?$task@P$AAVRadio@Radios@Devices@Windows@@@Concurrency@@@std@@QAE@XZ 10030190 f i _nodert_generated.obj
 0001:0002f1e0       ??_E?$__abi_FunctorCapture@V<lambda_c81b94355d62964b0964e4aea5068d88>@@XP$AAU?$IAsyncOperation@P$AAVBluetoothAdapter@Bluetooth@Devices@Windows@@@Foundation@Windows@@W4AsyncStatus@34@@Details@Platform@@UAEPAXI@Z 100301e0 f i * CIL library *:* CIL module *
 0001:0002f1e0       ??_E?$__abi_FunctorCapture@V<lambda_3ee6f2826c3c19771cbf15c64ebe54f7>@@XP$AAU?$IAsyncOperation@P$AAVBluetoothDevice@Bluetooth@Devices@Windows@@@Foundation@Windows@@W4AsyncStatus@34@@Details@Platform@@UAEPAXI@Z 100301e0 f i * CIL library *:* CIL module *
 0001:0002f1e0       ??_G?$__abi_FunctorCapture@V<lambda_b11842390d5ede0b58231da51bcc8b4c>@@XP$AAU?$IAsyncOperation@P$AAVGattDeviceServicesResult@GenericAttributeProfile@Bluetooth@Devices@Windows@@@Foundation@Windows@@W4AsyncStatus@34@@Details@Platform@@UAEPAXI@Z 100301e0 f i _nodert_generated.obj
 0001:0002f1e0       ??_E?$__abi_FunctorCapture@V<lambda_1d4db423df950a9db6d5162d107d760e>@@XP$AAU?$IAsyncOperation@P$AAVRadio@Radios@Devices@Windows@@@Foundation@Windows@@W4AsyncStatus@34@@Details@Platform@@UAEPAXI@Z 100301e0 f i * CIL library *:* CIL module *
 0001:0002f1e0       ??_G?$__abi_FunctorCapture@V<lambda_c81b94355d62964b0964e4aea5068d88>@@XP$AAU?$IAsyncOperation@P$AAVBluetoothAdapter@Bluetooth@Devices@Windows@@@Foundation@Windows@@W4AsyncStatus@34@@Details@Platform@@UAEPAXI@Z 100301e0 f i _nodert_generated.obj
 0001:0002f1e0       ??_G?$__abi_FunctorCapture@V<lambda_811216496a9d3d39f34249a25051ff32>@@XP$AAVBluetoothDevice@Bluetooth@Devices@Windows@@P$AAVObject@Platform@@@Details@Platform@@UAEPAXI@Z 100301e0 f i _nodert_generated.obj
 0001:0002f1e0       ??_G?$__abi_FunctorCapture@V<lambda_0ff02e744efabf3b08ab4652efc1f2a9>@@XP$AAVBluetoothDevice@Bluetooth@Devices@Windows@@P$AAVObject@Platform@@@Details@Platform@@UAEPAXI@Z 100301e0 f i _nodert_generated.obj
 0001:0002f1e0       ??_E?$__abi_FunctorCapture@V<lambda_b11842390d5ede0b58231da51bcc8b4c>@@XP$AAU?$IAsyncOperation@P$AAVGattDeviceServicesResult@GenericAttributeProfile@Bluetooth@Devices@Windows@@@Foundation@Windows@@W4AsyncStatus@34@@Details@Platform@@UAEPAXI@Z 100301e0 f i * CIL library *:* CIL module *
 0001:0002f1e0       ??_G?$__abi_FunctorCapture@V<lambda_b0291749b0a9b731bd07c14cec5a0280>@@XP$AAVBluetoothLEDevice@Bluetooth@Devices@Windows@@P$AAVObject@Platform@@@Details@Platform@@UAEPAXI@Z 100301e0 f i _nodert_generated.obj
 0001:0002f1e0       ??_E?$__abi_FunctorCapture@V<lambda_146cf764c0b3a8a0c9c182e03699f750>@@XP$AAU?$IAsyncOperation@P$AAVBluetoothLEDevice@Bluetooth@Devices@Windows@@@Foundation@Windows@@W4AsyncStatus@34@@Details@Platform@@UAEPAXI@Z 100301e0 f i * CIL library *:* CIL module *
 0001:0002f1e0       ??_G?$__abi_FunctorCapture@V<lambda_3ee6f2826c3c19771cbf15c64ebe54f7>@@XP$AAU?$IAsyncOperation@P$AAVBluetoothDevice@Bluetooth@Devices@Windows@@@Foundation@Windows@@W4AsyncStatus@34@@Details@Platform@@UAEPAXI@Z 100301e0 f i _nodert_generated.obj
 0001:0002f1e0       ??_G?$__abi_FunctorCapture@V<lambda_370d947a313ea5ad0c7760f0a69faccf>@@XP$AAVBluetoothDevice@Bluetooth@Devices@Windows@@P$AAVObject@Platform@@@Details@Platform@@UAEPAXI@Z 100301e0 f i _nodert_generated.obj
 0001:0002f1e0       ??_E?$__abi_FunctorCapture@V<lambda_18c149b0d0c4e277dffabc6505f78489>@@XP$AAU?$IAsyncOperation@P$AAVRfcommDeviceServicesResult@Rfcomm@Bluetooth@Devices@Windows@@@Foundation@Windows@@W4AsyncStatus@34@@Details@Platform@@UAEPAXI@Z 100301e0 f i * CIL library *:* CIL module *
 0001:0002f1e0       ??_E?$__abi_FunctorCapture@V<lambda_370d947a313ea5ad0c7760f0a69faccf>@@XP$AAVBluetoothDevice@Bluetooth@Devices@Windows@@P$AAVObject@Platform@@@Details@Platform@@UAEPAXI@Z 100301e0 f i * CIL library *:* CIL module *
 0001:0002f1e0       ??_G?$__abi_FunctorCapture@V<lambda_18c149b0d0c4e277dffabc6505f78489>@@XP$AAU?$IAsyncOperation@P$AAVRfcommDeviceServicesResult@Rfcomm@Bluetooth@Devices@Windows@@@Foundation@Windows@@W4AsyncStatus@34@@Details@Platform@@UAEPAXI@Z 100301e0 f i _nodert_generated.obj
 0001:0002f1e0       ??_E?$__abi_FunctorCapture@V<lambda_811216496a9d3d39f34249a25051ff32>@@XP$AAVBluetoothDevice@Bluetooth@Devices@Windows@@P$AAVObject@Platform@@@Details@Platform@@UAEPAXI@Z 100301e0 f i * CIL library *:* CIL module *
 0001:0002f1e0       ??_E?$__abi_FunctorCapture@V<lambda_9c5e4db394b94b3091f90d14e17b8f83>@@XP$AAU?$IAsyncOperation@W4DeviceAccessStatus@Enumeration@Devices@Windows@@@Foundation@Windows@@W4AsyncStatus@34@@Details@Platform@@UAEPAXI@Z 100301e0 f i * CIL library *:* CIL module *
 0001:0002f1e0       ??_G?$__abi_FunctorCapture@V<lambda_146cf764c0b3a8a0c9c182e03699f750>@@XP$AAU?$IAsyncOperation@P$AAVBluetoothLEDevice@Bluetooth@Devices@Windows@@@Foundation@Windows@@W4AsyncStatus@34@@Details@Platform@@UAEPAXI@Z 100301e0 f i _nodert_generated.obj
 0001:0002f1e0       ??_G?$__abi_FunctorCapture@V<lambda_1d4db423df950a9db6d5162d107d760e>@@XP$AAU?$IAsyncOperation@P$AAVRadio@Radios@Devices@Windows@@@Foundation@Windows@@W4AsyncStatus@34@@Details@Platform@@UAEPAXI@Z 100301e0 f i _nodert_generated.obj
 0001:0002f1e0       ??_G?$__abi_FunctorCapture@V<lambda_4a10107e183966b0fff76c8a1bed8121>@@XP$AAVBluetoothLEDevice@Bluetooth@Devices@Windows@@P$AAVObject@Platform@@@Details@Platform@@UAEPAXI@Z 100301e0 f i _nodert_generated.obj
 0001:0002f1e0       ??_E?$__abi_FunctorCapture@V<lambda_f5485a71606726f667fba1eb6d209cf3>@@XP$AAVBluetoothLEDevice@Bluetooth@Devices@Windows@@P$AAVObject@Platform@@@Details@Platform@@UAEPAXI@Z 100301e0 f i * CIL library *:* CIL module *
 0001:0002f1e0       ??_E?$__abi_FunctorCapture@V<lambda_b0291749b0a9b731bd07c14cec5a0280>@@XP$AAVBluetoothLEDevice@Bluetooth@Devices@Windows@@P$AAVObject@Platform@@@Details@Platform@@UAEPAXI@Z 100301e0 f i * CIL library *:* CIL module *
 0001:0002f1e0       ??_E?$__abi_FunctorCapture@V<lambda_4a10107e183966b0fff76c8a1bed8121>@@XP$AAVBluetoothLEDevice@Bluetooth@Devices@Windows@@P$AAVObject@Platform@@@Details@Platform@@UAEPAXI@Z 100301e0 f i * CIL library *:* CIL module *
 0001:0002f1e0       ??_G?$__abi_FunctorCapture@V<lambda_9c5e4db394b94b3091f90d14e17b8f83>@@XP$AAU?$IAsyncOperation@W4DeviceAccessStatus@Enumeration@Devices@Windows@@@Foundation@Windows@@W4AsyncStatus@34@@Details@Platform@@UAEPAXI@Z 100301e0 f i _nodert_generated.obj
 0001:0002f1e0       ??_G?$__abi_FunctorCapture@V<lambda_f5485a71606726f667fba1eb6d209cf3>@@XP$AAVBluetoothLEDevice@Bluetooth@Devices@Windows@@P$AAVObject@Platform@@@Details@Platform@@UAEPAXI@Z 100301e0 f i _nodert_generated.obj
 0001:0002f1e0       ??_E?$__abi_FunctorCapture@V<lambda_0ff02e744efabf3b08ab4652efc1f2a9>@@XP$AAVBluetoothDevice@Bluetooth@Devices@Windows@@P$AAVObject@Platform@@@Details@Platform@@UAEPAXI@Z 100301e0 f i * CIL library *:* CIL module *
 0001:0002f260       ?_Reset0@?$_Ptr_base@U_Task_impl_base@details@Concurrency@@@std@@QAEXPAU_Task_impl_base@details@Concurrency@@PAV_Ref_count_base@2@@Z 10030260 f i _nodert_generated.obj
 0001:0002f2c0       ?_Swap@?$_Func_class@X$$V@std@@IAEXAAV12@@Z 100302c0 f i _nodert_generated.obj
 0001:0002f3e0       ??$?0ABVexception_ptr@std@@V_TaskCreationCallstack@details@Concurrency@@@?$_Ref_count_obj@U_ExceptionHolder@details@Concurrency@@@std@@QAE@ABVexception_ptr@1@$$QAV_TaskCreationCallstack@details@Concurrency@@@Z 100303e0 f i _nodert_generated.obj
 0001:0002f480       ??$SetMethodAux@V?$Local@VObject@v8@@@v8@@@imp@Nan@@YAXV?$Local@VObject@v8@@@v8@@V?$Local@VString@v8@@@3@V?$Local@VFunctionTemplate@v8@@@3@ZZ 10030480 f i _nodert_generated.obj
 0001:0002f4c0       ??$?0P$AAU?$IAsyncOperation@P$AAVRadio@Radios@Devices@Windows@@@Foundation@Windows@@@?$task@P$AAVRadio@Radios@Devices@Windows@@@Concurrency@@QAE@P$AAU?$IAsyncOperation@P$AAVRadio@Radios@Devices@Windows@@@Foundation@Windows@@ABVtask_options@1@@Z 100304c0 f i _nodert_generated.obj
 0001:0002f660       ??$_ThenImpl@P$AAVRadio@Radios@Devices@Windows@@V?$function@$$A6AXV?$task@P$AAVRadio@Radios@Devices@Windows@@@Concurrency@@@Z@std@@@?$task@P$AAVRadio@Radios@Devices@Windows@@@Concurrency@@ABE?AV?$task@X@1@ABV?$function@$$A6AXV?$task@P$AAVRadio@Radios@Devices@Windows@@@Concurrency@@@Z@std@@AAU_ThenImplOptions@details@1@@Z 10030660 f i _nodert_generated.obj
 0001:0002f7b0       ??$?0P$AAU?$IAsyncOperation@P$AAVBluetoothAdapter@Bluetooth@Devices@Windows@@@Foundation@Windows@@@?$task@P$AAVBluetoothAdapter@Bluetooth@Devices@Windows@@@Concurrency@@QAE@P$AAU?$IAsyncOperation@P$AAVBluetoothAdapter@Bluetooth@Devices@Windows@@@Foundation@Windows@@ABVtask_options@1@@Z 100307b0 f i _nodert_generated.obj
 0001:0002f950       ??$_ThenImpl@P$AAVBluetoothAdapter@Bluetooth@Devices@Windows@@V?$function@$$A6AXV?$task@P$AAVBluetoothAdapter@Bluetooth@Devices@Windows@@@Concurrency@@@Z@std@@@?$task@P$AAVBluetoothAdapter@Bluetooth@Devices@Windows@@@Concurrency@@ABE?AV?$task@X@1@ABV?$function@$$A6AXV?$task@P$AAVBluetoothAdapter@Bluetooth@Devices@Windows@@@Concurrency@@@Z@std@@AAU_ThenImplOptions@details@1@@Z 10030950 f i _nodert_generated.obj
 0001:0002faa0       ??$?0P$AAU?$IAsyncOperation@W4DeviceAccessStatus@Enumeration@Devices@Windows@@@Foundation@Windows@@@?$task@W4DeviceAccessStatus@Enumeration@Devices@Windows@@@Concurrency@@QAE@P$AAU?$IAsyncOperation@W4DeviceAccessStatus@Enumeration@Devices@Windows@@@Foundation@Windows@@ABVtask_options@1@@Z 10030aa0 f i _nodert_generated.obj
 0001:0002fc40       ??$_ThenImpl@W4DeviceAccessStatus@Enumeration@Devices@Windows@@V?$function@$$A6AXV?$task@W4DeviceAccessStatus@Enumeration@Devices@Windows@@@Concurrency@@@Z@std@@@?$task@W4DeviceAccessStatus@Enumeration@Devices@Windows@@@Concurrency@@ABE?AV?$task@X@1@ABV?$function@$$A6AXV?$task@W4DeviceAccessStatus@Enumeration@Devices@Windows@@@Concurrency@@@Z@std@@AAU_ThenImplOptions@details@1@@Z 10030c40 f i _nodert_generated.obj
 0001:0002fd90       ??$?0P$AAU?$IAsyncOperation@P$AAVRfcommDeviceServicesResult@Rfcomm@Bluetooth@Devices@Windows@@@Foundation@Windows@@@?$task@P$AAVRfcommDeviceServicesResult@Rfcomm@Bluetooth@Devices@Windows@@@Concurrency@@QAE@P$AAU?$IAsyncOperation@P$AAVRfcommDeviceServicesResult@Rfcomm@Bluetooth@Devices@Windows@@@Foundation@Windows@@ABVtask_options@1@@Z 10030d90 f i _nodert_generated.obj
 0001:0002ff30       ??$_ThenImpl@P$AAVRfcommDeviceServicesResult@Rfcomm@Bluetooth@Devices@Windows@@V?$function@$$A6AXV?$task@P$AAVRfcommDeviceServicesResult@Rfcomm@Bluetooth@Devices@Windows@@@Concurrency@@@Z@std@@@?$task@P$AAVRfcommDeviceServicesResult@Rfcomm@Bluetooth@Devices@Windows@@@Concurrency@@ABE?AV?$task@X@1@ABV?$function@$$A6AXV?$task@P$AAVRfcommDeviceServicesResult@Rfcomm@Bluetooth@Devices@Windows@@@Concurrency@@@Z@std@@AAU_ThenImplOptions@details@1@@Z 10030f30 f i _nodert_generated.obj
 0001:00030080       ??$?0P$AAU?$IAsyncOperation@P$AAVBluetoothDevice@Bluetooth@Devices@Windows@@@Foundation@Windows@@@?$task@P$AAVBluetoothDevice@Bluetooth@Devices@Windows@@@Concurrency@@QAE@P$AAU?$IAsyncOperation@P$AAVBluetoothDevice@Bluetooth@Devices@Windows@@@Foundation@Windows@@ABVtask_options@1@@Z 10031080 f i _nodert_generated.obj
 0001:00030220       ??$_ThenImpl@P$AAVBluetoothDevice@Bluetooth@Devices@Windows@@V?$function@$$A6AXV?$task@P$AAVBluetoothDevice@Bluetooth@Devices@Windows@@@Concurrency@@@Z@std@@@?$task@P$AAVBluetoothDevice@Bluetooth@Devices@Windows@@@Concurrency@@ABE?AV?$task@X@1@ABV?$function@$$A6AXV?$task@P$AAVBluetoothDevice@Bluetooth@Devices@Windows@@@Concurrency@@@Z@std@@AAU_ThenImplOptions@details@1@@Z 10031220 f i _nodert_generated.obj
 0001:00030370       ??$?0P$AAU?$IAsyncOperation@P$AAVGattDeviceServicesResult@GenericAttributeProfile@Bluetooth@Devices@Windows@@@Foundation@Windows@@@?$task@P$AAVGattDeviceServicesResult@GenericAttributeProfile@Bluetooth@Devices@Windows@@@Concurrency@@QAE@P$AAU?$IAsyncOperation@P$AAVGattDeviceServicesResult@GenericAttributeProfile@Bluetooth@Devices@Windows@@@Foundation@Windows@@ABVtask_options@1@@Z 10031370 f i _nodert_generated.obj
 0001:00030510       ??$_ThenImpl@P$AAVGattDeviceServicesResult@GenericAttributeProfile@Bluetooth@Devices@Windows@@V?$function@$$A6AXV?$task@P$AAVGattDeviceServicesResult@GenericAttributeProfile@Bluetooth@Devices@Windows@@@Concurrency@@@Z@std@@@?$task@P$AAVGattDeviceServicesResult@GenericAttributeProfile@Bluetooth@Devices@Windows@@@Concurrency@@ABE?AV?$task@X@1@ABV?$function@$$A6AXV?$task@P$AAVGattDeviceServicesResult@GenericAttributeProfile@Bluetooth@Devices@Windows@@@Concurrency@@@Z@std@@AAU_ThenImplOptions@details@1@@Z 10031510 f i _nodert_generated.obj
 0001:00030660       ??$?0P$AAU?$IAsyncOperation@P$AAVBluetoothLEDevice@Bluetooth@Devices@Windows@@@Foundation@Windows@@@?$task@P$AAVBluetoothLEDevice@Bluetooth@Devices@Windows@@@Concurrency@@QAE@P$AAU?$IAsyncOperation@P$AAVBluetoothLEDevice@Bluetooth@Devices@Windows@@@Foundation@Windows@@ABVtask_options@1@@Z 10031660 f i _nodert_generated.obj
 0001:00030800       ??$_ThenImpl@P$AAVBluetoothLEDevice@Bluetooth@Devices@Windows@@V?$function@$$A6AXV?$task@P$AAVBluetoothLEDevice@Bluetooth@Devices@Windows@@@Concurrency@@@Z@std@@@?$task@P$AAVBluetoothLEDevice@Bluetooth@Devices@Windows@@@Concurrency@@ABE?AV?$task@X@1@ABV?$function@$$A6AXV?$task@P$AAVBluetoothLEDevice@Bluetooth@Devices@Windows@@@Concurrency@@@Z@std@@AAU_ThenImplOptions@details@1@@Z 10031800 f i _nodert_generated.obj
 0001:00030950       ??$make_exception_ptr@P$AAVException@Platform@@@std@@YA?AVexception_ptr@0@P$AAVException@Platform@@@Z 10031950 f i _nodert_generated.obj
 0001:00030990       ??_G?$_Ref_count_obj@U_ExceptionHolder@details@Concurrency@@@std@@UAEPAXI@Z 10031990 f i _nodert_generated.obj
 0001:00030990       ??_E?$_Ref_count_obj@U_ExceptionHolder@details@Concurrency@@@std@@UAEPAXI@Z 10031990 f i * CIL library *:* CIL module *
 0001:000309c0       ??_E?$_Ref_count_obj@U?$_Task_impl@P$AAVRadio@Radios@Devices@Windows@@@details@Concurrency@@@std@@UAEPAXI@Z 100319c0 f i * CIL library *:* CIL module *
 0001:000309c0       ??_G?$_Ref_count_obj@U?$_Task_impl@P$AAVBluetoothDevice@Bluetooth@Devices@Windows@@@details@Concurrency@@@std@@UAEPAXI@Z 100319c0 f i _nodert_generated.obj
 0001:000309c0       ??_G?$_Ref_count_obj@U?$_Task_impl@P$AAVRadio@Radios@Devices@Windows@@@details@Concurrency@@@std@@UAEPAXI@Z 100319c0 f i _nodert_generated.obj
 0001:000309c0       ??_G?$_Ref_count_obj@U?$_Task_impl@E@details@Concurrency@@@std@@UAEPAXI@Z 100319c0 f i _nodert_generated.obj
 0001:000309c0       ??_G?$_Ref_count_obj@U?$_Task_impl@P$AAVBluetoothLEDevice@Bluetooth@Devices@Windows@@@details@Concurrency@@@std@@UAEPAXI@Z 100319c0 f i _nodert_generated.obj
 0001:000309c0       ??_G?$_Ref_count_obj@U?$_Task_impl@P$AAVRfcommDeviceServicesResult@Rfcomm@Bluetooth@Devices@Windows@@@details@Concurrency@@@std@@UAEPAXI@Z 100319c0 f i _nodert_generated.obj
 0001:000309c0       ??_G?$_Ref_count_obj@U?$_Task_impl@P$AAVBluetoothAdapter@Bluetooth@Devices@Windows@@@details@Concurrency@@@std@@UAEPAXI@Z 100319c0 f i _nodert_generated.obj
 0001:000309c0       ??_E?$_Ref_count_obj@U?$_Task_impl@P$AAVBluetoothLEDevice@Bluetooth@Devices@Windows@@@details@Concurrency@@@std@@UAEPAXI@Z 100319c0 f i * CIL library *:* CIL module *
 0001:000309c0       ??_G?$_Ref_count_obj@U?$_Task_impl@W4DeviceAccessStatus@Enumeration@Devices@Windows@@@details@Concurrency@@@std@@UAEPAXI@Z 100319c0 f i _nodert_generated.obj
 0001:000309c0       ??_G?$_Ref_count_obj@U?$_Task_impl@P$AAVGattDeviceServicesResult@GenericAttributeProfile@Bluetooth@Devices@Windows@@@details@Concurrency@@@std@@UAEPAXI@Z 100319c0 f i _nodert_generated.obj
 0001:000309c0       ??_E?$_Ref_count_obj@U?$_Task_impl@P$AAVRfcommDeviceServicesResult@Rfcomm@Bluetooth@Devices@Windows@@@details@Concurrency@@@std@@UAEPAXI@Z 100319c0 f i * CIL library *:* CIL module *
 0001:000309c0       ??_E?$_Ref_count_obj@U?$_Task_impl@P$AAVBluetoothAdapter@Bluetooth@Devices@Windows@@@details@Concurrency@@@std@@UAEPAXI@Z 100319c0 f i * CIL library *:* CIL module *
 0001:000309c0       ??_E?$_Ref_count_obj@U?$_Task_impl@P$AAVGattDeviceServicesResult@GenericAttributeProfile@Bluetooth@Devices@Windows@@@details@Concurrency@@@std@@UAEPAXI@Z 100319c0 f i * CIL library *:* CIL module *
 0001:000309c0       ??_E?$_Ref_count_obj@U?$_Task_impl@W4DeviceAccessStatus@Enumeration@Devices@Windows@@@details@Concurrency@@@std@@UAEPAXI@Z 100319c0 f i * CIL library *:* CIL module *
 0001:000309c0       ??_E?$_Ref_count_obj@U?$_Task_impl@P$AAVBluetoothDevice@Bluetooth@Devices@Windows@@@details@Concurrency@@@std@@UAEPAXI@Z 100319c0 f i * CIL library *:* CIL module *
 0001:000309c0       ??_E?$_Ref_count_obj@U?$_Task_impl@E@details@Concurrency@@@std@@UAEPAXI@Z 100319c0 f i * CIL library *:* CIL module *
 0001:000309f0       ?_Destroy@?$_Ref_count_del@V?$Persistent@VObject@v8@@V?$NonCopyablePersistentTraits@VObject@v8@@@2@@Nan@@V<lambda_0c61f5da77e337355f14540e68780a41>@@@std@@EAEXXZ 100319f0 f i _nodert_generated.obj
 0001:00030a10       ?_Get_deleter@?$_Ref_count_del@V?$Persistent@VObject@v8@@V?$NonCopyablePersistentTraits@VObject@v8@@@2@@Nan@@V<lambda_0c61f5da77e337355f14540e68780a41>@@@std@@UBEPAXABVtype_info@@@Z 10031a10 f i _nodert_generated.obj
 0001:00030a40       ?_Destroy@?$_Ref_count_del@V?$Persistent@VObject@v8@@V?$NonCopyablePersistentTraits@VObject@v8@@@2@@Nan@@V<lambda_b1b9f90765862e03fa467072316e8fd3>@@@std@@EAEXXZ 10031a40 f i _nodert_generated.obj
 0001:00030a60       ?_Get_deleter@?$_Ref_count_del@V?$Persistent@VObject@v8@@V?$NonCopyablePersistentTraits@VObject@v8@@@2@@Nan@@V<lambda_b1b9f90765862e03fa467072316e8fd3>@@@std@@UBEPAXABVtype_info@@@Z 10031a60 f i _nodert_generated.obj
 0001:00030a90       ?_Destroy@?$_Ref_count_del@V?$Persistent@VObject@v8@@V?$NonCopyablePersistentTraits@VObject@v8@@@2@@Nan@@V<lambda_920710e3d6bf5475724ebbb9357ddbf4>@@@std@@EAEXXZ 10031a90 f i _nodert_generated.obj
 0001:00030ab0       ?_Get_deleter@?$_Ref_count_del@V?$Persistent@VObject@v8@@V?$NonCopyablePersistentTraits@VObject@v8@@@2@@Nan@@V<lambda_920710e3d6bf5475724ebbb9357ddbf4>@@@std@@UBEPAXABVtype_info@@@Z 10031ab0 f i _nodert_generated.obj
 0001:00030ae0       ?_GetTaskImplBase@?$_PPLTaskHandle@EU?$_ContinuationTaskHandle@P$AAVRadio@Radios@Devices@Windows@@XV?$function@$$A6AXV?$task@P$AAVRadio@Radios@Devices@Windows@@@Concurrency@@@Z@std@@U?$integral_constant@_N$00@6@U_TypeSelectorNoAsync@details@Concurrency@@@?$task@P$AAVRadio@Radios@Devices@Windows@@@Concurrency@@U_ContinuationTaskHandleBase@details@3@@details@Concurrency@@UBE?AV?$shared_ptr@U_Task_impl_base@details@Concurrency@@@std@@XZ 10031ae0 f i _nodert_generated.obj
 0001:00030ae0       ?_GetTaskImplBase@?$_PPLTaskHandle@EU?$_ContinuationTaskHandle@P$AAVGattDeviceServicesResult@GenericAttributeProfile@Bluetooth@Devices@Windows@@XV?$function@$$A6AXV?$task@P$AAVGattDeviceServicesResult@GenericAttributeProfile@Bluetooth@Devices@Windows@@@Concurrency@@@Z@std@@U?$integral_constant@_N$00@7@U_TypeSelectorNoAsync@details@Concurrency@@@?$task@P$AAVGattDeviceServicesResult@GenericAttributeProfile@Bluetooth@Devices@Windows@@@Concurrency@@U_ContinuationTaskHandleBase@details@3@@details@Concurrency@@UBE?AV?$shared_ptr@U_Task_impl_base@details@Concurrency@@@std@@XZ 10031ae0 f i _nodert_generated.obj
 0001:00030ae0       ?_GetTaskImplBase@?$_PPLTaskHandle@EU?$_ContinuationTaskHandle@P$AAVRfcommDeviceServicesResult@Rfcomm@Bluetooth@Devices@Windows@@XV?$function@$$A6AXV?$task@P$AAVRfcommDeviceServicesResult@Rfcomm@Bluetooth@Devices@Windows@@@Concurrency@@@Z@std@@U?$integral_constant@_N$00@7@U_TypeSelectorNoAsync@details@Concurrency@@@?$task@P$AAVRfcommDeviceServicesResult@Rfcomm@Bluetooth@Devices@Windows@@@Concurrency@@U_ContinuationTaskHandleBase@details@3@@details@Concurrency@@UBE?AV?$shared_ptr@U_Task_impl_base@details@Concurrency@@@std@@XZ 10031ae0 f i _nodert_generated.obj
 0001:00030ae0       ?_GetTaskImplBase@?$_PPLTaskHandle@EU?$_ContinuationTaskHandle@P$AAVBluetoothAdapter@Bluetooth@Devices@Windows@@XV?$function@$$A6AXV?$task@P$AAVBluetoothAdapter@Bluetooth@Devices@Windows@@@Concurrency@@@Z@std@@U?$integral_constant@_N$00@6@U_TypeSelectorNoAsync@details@Concurrency@@@?$task@P$AAVBluetoothAdapter@Bluetooth@Devices@Windows@@@Concurrency@@U_ContinuationTaskHandleBase@details@3@@details@Concurrency@@UBE?AV?$shared_ptr@U_Task_impl_base@details@Concurrency@@@std@@XZ 10031ae0 f i _nodert_generated.obj
 0001:00030ae0       ?_GetTaskImplBase@?$_PPLTaskHandle@EU?$_ContinuationTaskHandle@P$AAVBluetoothDevice@Bluetooth@Devices@Windows@@XV?$function@$$A6AXV?$task@P$AAVBluetoothDevice@Bluetooth@Devices@Windows@@@Concurrency@@@Z@std@@U?$integral_constant@_N$00@6@U_TypeSelectorNoAsync@details@Concurrency@@@?$task@P$AAVBluetoothDevice@Bluetooth@Devices@Windows@@@Concurrency@@U_ContinuationTaskHandleBase@details@3@@details@Concurrency@@UBE?AV?$shared_ptr@U_Task_impl_base@details@Concurrency@@@std@@XZ 10031ae0 f i _nodert_generated.obj
 0001:00030ae0       ?_GetTaskImplBase@?$_PPLTaskHandle@EU?$_ContinuationTaskHandle@P$AAVBluetoothLEDevice@Bluetooth@Devices@Windows@@XV?$function@$$A6AXV?$task@P$AAVBluetoothLEDevice@Bluetooth@Devices@Windows@@@Concurrency@@@Z@std@@U?$integral_constant@_N$00@6@U_TypeSelectorNoAsync@details@Concurrency@@@?$task@P$AAVBluetoothLEDevice@Bluetooth@Devices@Windows@@@Concurrency@@U_ContinuationTaskHandleBase@details@3@@details@Concurrency@@UBE?AV?$shared_ptr@U_Task_impl_base@details@Concurrency@@@std@@XZ 10031ae0 f i _nodert_generated.obj
 0001:00030ae0       ?_GetTaskImplBase@?$_PPLTaskHandle@EU?$_ContinuationTaskHandle@W4DeviceAccessStatus@Enumeration@Devices@Windows@@XV?$function@$$A6AXV?$task@W4DeviceAccessStatus@Enumeration@Devices@Windows@@@Concurrency@@@Z@std@@U?$integral_constant@_N$00@6@U_TypeSelectorNoAsync@details@Concurrency@@@?$task@W4DeviceAccessStatus@Enumeration@Devices@Windows@@@Concurrency@@U_ContinuationTaskHandleBase@details@3@@details@Concurrency@@UBE?AV?$shared_ptr@U_Task_impl_base@details@Concurrency@@@std@@XZ 10031ae0 f i _nodert_generated.obj
 0001:00030b50       ?invoke@?$_PPLTaskHandle@EU?$_ContinuationTaskHandle@P$AAVBluetoothLEDevice@Bluetooth@Devices@Windows@@XV?$function@$$A6AXV?$task@P$AAVBluetoothLEDevice@Bluetooth@Devices@Windows@@@Concurrency@@@Z@std@@U?$integral_constant@_N$00@6@U_TypeSelectorNoAsync@details@Concurrency@@@?$task@P$AAVBluetoothLEDevice@Bluetooth@Devices@Windows@@@Concurrency@@U_ContinuationTaskHandleBase@details@3@@details@Concurrency@@UBEXXZ 10031b50 f i _nodert_generated.obj
 0001:00030c10       ??1?$_PPLTaskHandle@EU?$_ContinuationTaskHandle@P$AAVBluetoothLEDevice@Bluetooth@Devices@Windows@@XV?$function@$$A6AXV?$task@P$AAVBluetoothLEDevice@Bluetooth@Devices@Windows@@@Concurrency@@@Z@std@@U?$integral_constant@_N$00@6@U_TypeSelectorNoAsync@details@Concurrency@@@?$task@P$AAVBluetoothLEDevice@Bluetooth@Devices@Windows@@@Concurrency@@U_ContinuationTaskHandleBase@details@3@@details@Concurrency@@UAE@XZ 10031c10 f i _nodert_generated.obj
 0001:00030cb0       ??1?$_ContinuationTaskHandle@P$AAVBluetoothLEDevice@Bluetooth@Devices@Windows@@XV?$function@$$A6AXV?$task@P$AAVBluetoothLEDevice@Bluetooth@Devices@Windows@@@Concurrency@@@Z@std@@U?$integral_constant@_N$00@6@U_TypeSelectorNoAsync@details@Concurrency@@@?$task@P$AAVBluetoothLEDevice@Bluetooth@Devices@Windows@@@Concurrency@@UAE@XZ 10031cb0 f i _nodert_generated.obj
 0001:00030da0       ??0?$_ContinuationTaskHandle@P$AAVBluetoothLEDevice@Bluetooth@Devices@Windows@@XV?$function@$$A6AXV?$task@P$AAVBluetoothLEDevice@Bluetooth@Devices@Windows@@@Concurrency@@@Z@std@@U?$integral_constant@_N$00@6@U_TypeSelectorNoAsync@details@Concurrency@@@?$task@P$AAVBluetoothLEDevice@Bluetooth@Devices@Windows@@@Concurrency@@QAE@ABV?$shared_ptr@U?$_Task_impl@P$AAVBluetoothLEDevice@Bluetooth@Devices@Windows@@@details@Concurrency@@@std@@ABV?$shared_ptr@U?$_Task_impl@E@details@Concurrency@@@4@ABV?$function@$$A6AXV?$task@P$AAVBluetoothLEDevice@Bluetooth@Devices@Windows@@@Concurrency@@@Z@4@ABVtask_continuation_context@2@W4_TaskInliningMode@details@2@@Z 10031da0 f i _nodert_generated.obj
 0001:00030ed0       ?invoke@?$_PPLTaskHandle@EU?$_ContinuationTaskHandle@P$AAVGattDeviceServicesResult@GenericAttributeProfile@Bluetooth@Devices@Windows@@XV?$function@$$A6AXV?$task@P$AAVGattDeviceServicesResult@GenericAttributeProfile@Bluetooth@Devices@Windows@@@Concurrency@@@Z@std@@U?$integral_constant@_N$00@7@U_TypeSelectorNoAsync@details@Concurrency@@@?$task@P$AAVGattDeviceServicesResult@GenericAttributeProfile@Bluetooth@Devices@Windows@@@Concurrency@@U_ContinuationTaskHandleBase@details@3@@details@Concurrency@@UBEXXZ 10031ed0 f i _nodert_generated.obj
 0001:00030f90       ??1?$_PPLTaskHandle@EU?$_ContinuationTaskHandle@P$AAVGattDeviceServicesResult@GenericAttributeProfile@Bluetooth@Devices@Windows@@XV?$function@$$A6AXV?$task@P$AAVGattDeviceServicesResult@GenericAttributeProfile@Bluetooth@Devices@Windows@@@Concurrency@@@Z@std@@U?$integral_constant@_N$00@7@U_TypeSelectorNoAsync@details@Concurrency@@@?$task@P$AAVGattDeviceServicesResult@GenericAttributeProfile@Bluetooth@Devices@Windows@@@Concurrency@@U_ContinuationTaskHandleBase@details@3@@details@Concurrency@@UAE@XZ 10031f90 f i _nodert_generated.obj
 0001:00031030       ??1?$_ContinuationTaskHandle@P$AAVGattDeviceServicesResult@GenericAttributeProfile@Bluetooth@Devices@Windows@@XV?$function@$$A6AXV?$task@P$AAVGattDeviceServicesResult@GenericAttributeProfile@Bluetooth@Devices@Windows@@@Concurrency@@@Z@std@@U?$integral_constant@_N$00@7@U_TypeSelectorNoAsync@details@Concurrency@@@?$task@P$AAVGattDeviceServicesResult@GenericAttributeProfile@Bluetooth@Devices@Windows@@@Concurrency@@UAE@XZ 10032030 f i _nodert_generated.obj
 0001:00031120       ??0?$_ContinuationTaskHandle@P$AAVGattDeviceServicesResult@GenericAttributeProfile@Bluetooth@Devices@Windows@@XV?$function@$$A6AXV?$task@P$AAVGattDeviceServicesResult@GenericAttributeProfile@Bluetooth@Devices@Windows@@@Concurrency@@@Z@std@@U?$integral_constant@_N$00@7@U_TypeSelectorNoAsync@details@Concurrency@@@?$task@P$AAVGattDeviceServicesResult@GenericAttributeProfile@Bluetooth@Devices@Windows@@@Concurrency@@QAE@ABV?$shared_ptr@U?$_Task_impl@P$AAVGattDeviceServicesResult@GenericAttributeProfile@Bluetooth@Devices@Windows@@@details@Concurrency@@@std@@ABV?$shared_ptr@U?$_Task_impl@E@details@Concurrency@@@4@ABV?$function@$$A6AXV?$task@P$AAVGattDeviceServicesResult@GenericAttributeProfile@Bluetooth@Devices@Windows@@@Concurrency@@@Z@4@ABVtask_continuation_context@2@W4_TaskInliningMode@details@2@@Z 10032120 f i _nodert_generated.obj
 0001:00031250       ?_Destroy@?$_Ref_count_del@V?$Persistent@VObject@v8@@V?$NonCopyablePersistentTraits@VObject@v8@@@2@@Nan@@V<lambda_d373631d158baa05484fcf38ca74f733>@@@std@@EAEXXZ 10032250 f i _nodert_generated.obj
 0001:00031270       ?_Get_deleter@?$_Ref_count_del@V?$Persistent@VObject@v8@@V?$NonCopyablePersistentTraits@VObject@v8@@@2@@Nan@@V<lambda_d373631d158baa05484fcf38ca74f733>@@@std@@UBEPAXABVtype_info@@@Z 10032270 f i _nodert_generated.obj
 0001:000312a0       ?_Destroy@?$_Ref_count_del@V?$Persistent@VObject@v8@@V?$NonCopyablePersistentTraits@VObject@v8@@@2@@Nan@@V<lambda_1853ce3c12b6c6e41831df1b46a203a3>@@@std@@EAEXXZ 100322a0 f i _nodert_generated.obj
 0001:000312c0       ?_Get_deleter@?$_Ref_count_del@V?$Persistent@VObject@v8@@V?$NonCopyablePersistentTraits@VObject@v8@@@2@@Nan@@V<lambda_1853ce3c12b6c6e41831df1b46a203a3>@@@std@@UBEPAXABVtype_info@@@Z 100322c0 f i _nodert_generated.obj
 0001:000312f0       ?_Destroy@?$_Ref_count_del@V?$Persistent@VObject@v8@@V?$NonCopyablePersistentTraits@VObject@v8@@@2@@Nan@@V<lambda_d583e3ad4cbeba261287277e1fa4fd4a>@@@std@@EAEXXZ 100322f0 f i _nodert_generated.obj
 0001:00031310       ?_Get_deleter@?$_Ref_count_del@V?$Persistent@VObject@v8@@V?$NonCopyablePersistentTraits@VObject@v8@@@2@@Nan@@V<lambda_d583e3ad4cbeba261287277e1fa4fd4a>@@@std@@UBEPAXABVtype_info@@@Z 10032310 f i _nodert_generated.obj
 0001:00031340       ?invoke@?$_PPLTaskHandle@EU?$_ContinuationTaskHandle@P$AAVBluetoothDevice@Bluetooth@Devices@Windows@@XV?$function@$$A6AXV?$task@P$AAVBluetoothDevice@Bluetooth@Devices@Windows@@@Concurrency@@@Z@std@@U?$integral_constant@_N$00@6@U_TypeSelectorNoAsync@details@Concurrency@@@?$task@P$AAVBluetoothDevice@Bluetooth@Devices@Windows@@@Concurrency@@U_ContinuationTaskHandleBase@details@3@@details@Concurrency@@UBEXXZ 10032340 f i _nodert_generated.obj
 0001:00031400       ??1?$_PPLTaskHandle@EU?$_ContinuationTaskHandle@P$AAVBluetoothDevice@Bluetooth@Devices@Windows@@XV?$function@$$A6AXV?$task@P$AAVBluetoothDevice@Bluetooth@Devices@Windows@@@Concurrency@@@Z@std@@U?$integral_constant@_N$00@6@U_TypeSelectorNoAsync@details@Concurrency@@@?$task@P$AAVBluetoothDevice@Bluetooth@Devices@Windows@@@Concurrency@@U_ContinuationTaskHandleBase@details@3@@details@Concurrency@@UAE@XZ 10032400 f i _nodert_generated.obj
 0001:000314a0       ??1?$_ContinuationTaskHandle@P$AAVBluetoothDevice@Bluetooth@Devices@Windows@@XV?$function@$$A6AXV?$task@P$AAVBluetoothDevice@Bluetooth@Devices@Windows@@@Concurrency@@@Z@std@@U?$integral_constant@_N$00@6@U_TypeSelectorNoAsync@details@Concurrency@@@?$task@P$AAVBluetoothDevice@Bluetooth@Devices@Windows@@@Concurrency@@UAE@XZ 100324a0 f i _nodert_generated.obj
 0001:00031590       ??0?$_ContinuationTaskHandle@P$AAVBluetoothDevice@Bluetooth@Devices@Windows@@XV?$function@$$A6AXV?$task@P$AAVBluetoothDevice@Bluetooth@Devices@Windows@@@Concurrency@@@Z@std@@U?$integral_constant@_N$00@6@U_TypeSelectorNoAsync@details@Concurrency@@@?$task@P$AAVBluetoothDevice@Bluetooth@Devices@Windows@@@Concurrency@@QAE@ABV?$shared_ptr@U?$_Task_impl@P$AAVBluetoothDevice@Bluetooth@Devices@Windows@@@details@Concurrency@@@std@@ABV?$shared_ptr@U?$_Task_impl@E@details@Concurrency@@@4@ABV?$function@$$A6AXV?$task@P$AAVBluetoothDevice@Bluetooth@Devices@Windows@@@Concurrency@@@Z@4@ABVtask_continuation_context@2@W4_TaskInliningMode@details@2@@Z 10032590 f i _nodert_generated.obj
 0001:000316c0       ?invoke@?$_PPLTaskHandle@EU?$_ContinuationTaskHandle@P$AAVRfcommDeviceServicesResult@Rfcomm@Bluetooth@Devices@Windows@@XV?$function@$$A6AXV?$task@P$AAVRfcommDeviceServicesResult@Rfcomm@Bluetooth@Devices@Windows@@@Concurrency@@@Z@std@@U?$integral_constant@_N$00@7@U_TypeSelectorNoAsync@details@Concurrency@@@?$task@P$AAVRfcommDeviceServicesResult@Rfcomm@Bluetooth@Devices@Windows@@@Concurrency@@U_ContinuationTaskHandleBase@details@3@@details@Concurrency@@UBEXXZ 100326c0 f i _nodert_generated.obj
 0001:00031780       ??1?$_PPLTaskHandle@EU?$_ContinuationTaskHandle@P$AAVRfcommDeviceServicesResult@Rfcomm@Bluetooth@Devices@Windows@@XV?$function@$$A6AXV?$task@P$AAVRfcommDeviceServicesResult@Rfcomm@Bluetooth@Devices@Windows@@@Concurrency@@@Z@std@@U?$integral_constant@_N$00@7@U_TypeSelectorNoAsync@details@Concurrency@@@?$task@P$AAVRfcommDeviceServicesResult@Rfcomm@Bluetooth@Devices@Windows@@@Concurrency@@U_ContinuationTaskHandleBase@details@3@@details@Concurrency@@UAE@XZ 10032780 f i _nodert_generated.obj
 0001:00031820       ??1?$_ContinuationTaskHandle@P$AAVRfcommDeviceServicesResult@Rfcomm@Bluetooth@Devices@Windows@@XV?$function@$$A6AXV?$task@P$AAVRfcommDeviceServicesResult@Rfcomm@Bluetooth@Devices@Windows@@@Concurrency@@@Z@std@@U?$integral_constant@_N$00@7@U_TypeSelectorNoAsync@details@Concurrency@@@?$task@P$AAVRfcommDeviceServicesResult@Rfcomm@Bluetooth@Devices@Windows@@@Concurrency@@UAE@XZ 10032820 f i _nodert_generated.obj
 0001:00031910       ??0?$_ContinuationTaskHandle@P$AAVRfcommDeviceServicesResult@Rfcomm@Bluetooth@Devices@Windows@@XV?$function@$$A6AXV?$task@P$AAVRfcommDeviceServicesResult@Rfcomm@Bluetooth@Devices@Windows@@@Concurrency@@@Z@std@@U?$integral_constant@_N$00@7@U_TypeSelectorNoAsync@details@Concurrency@@@?$task@P$AAVRfcommDeviceServicesResult@Rfcomm@Bluetooth@Devices@Windows@@@Concurrency@@QAE@ABV?$shared_ptr@U?$_Task_impl@P$AAVRfcommDeviceServicesResult@Rfcomm@Bluetooth@Devices@Windows@@@details@Concurrency@@@std@@ABV?$shared_ptr@U?$_Task_impl@E@details@Concurrency@@@4@ABV?$function@$$A6AXV?$task@P$AAVRfcommDeviceServicesResult@Rfcomm@Bluetooth@Devices@Windows@@@Concurrency@@@Z@4@ABVtask_continuation_context@2@W4_TaskInliningMode@details@2@@Z 10032910 f i _nodert_generated.obj
 0001:00031a40       ?invoke@?$_PPLTaskHandle@EU?$_ContinuationTaskHandle@W4DeviceAccessStatus@Enumeration@Devices@Windows@@XV?$function@$$A6AXV?$task@W4DeviceAccessStatus@Enumeration@Devices@Windows@@@Concurrency@@@Z@std@@U?$integral_constant@_N$00@6@U_TypeSelectorNoAsync@details@Concurrency@@@?$task@W4DeviceAccessStatus@Enumeration@Devices@Windows@@@Concurrency@@U_ContinuationTaskHandleBase@details@3@@details@Concurrency@@UBEXXZ 10032a40 f i _nodert_generated.obj
 0001:00031b00       ??1?$_PPLTaskHandle@EU?$_ContinuationTaskHandle@W4DeviceAccessStatus@Enumeration@Devices@Windows@@XV?$function@$$A6AXV?$task@W4DeviceAccessStatus@Enumeration@Devices@Windows@@@Concurrency@@@Z@std@@U?$integral_constant@_N$00@6@U_TypeSelectorNoAsync@details@Concurrency@@@?$task@W4DeviceAccessStatus@Enumeration@Devices@Windows@@@Concurrency@@U_ContinuationTaskHandleBase@details@3@@details@Concurrency@@UAE@XZ 10032b00 f i _nodert_generated.obj
 0001:00031ba0       ??1?$_ContinuationTaskHandle@W4DeviceAccessStatus@Enumeration@Devices@Windows@@XV?$function@$$A6AXV?$task@W4DeviceAccessStatus@Enumeration@Devices@Windows@@@Concurrency@@@Z@std@@U?$integral_constant@_N$00@6@U_TypeSelectorNoAsync@details@Concurrency@@@?$task@W4DeviceAccessStatus@Enumeration@Devices@Windows@@@Concurrency@@UAE@XZ 10032ba0 f i _nodert_generated.obj
 0001:00031c90       ??0?$_ContinuationTaskHandle@W4DeviceAccessStatus@Enumeration@Devices@Windows@@XV?$function@$$A6AXV?$task@W4DeviceAccessStatus@Enumeration@Devices@Windows@@@Concurrency@@@Z@std@@U?$integral_constant@_N$00@6@U_TypeSelectorNoAsync@details@Concurrency@@@?$task@W4DeviceAccessStatus@Enumeration@Devices@Windows@@@Concurrency@@QAE@ABV?$shared_ptr@U?$_Task_impl@W4DeviceAccessStatus@Enumeration@Devices@Windows@@@details@Concurrency@@@std@@ABV?$shared_ptr@U?$_Task_impl@E@details@Concurrency@@@4@ABV?$function@$$A6AXV?$task@W4DeviceAccessStatus@Enumeration@Devices@Windows@@@Concurrency@@@Z@4@ABVtask_continuation_context@2@W4_TaskInliningMode@details@2@@Z 10032c90 f i _nodert_generated.obj
 0001:00031dc0       ?invoke@?$_PPLTaskHandle@EU?$_ContinuationTaskHandle@P$AAVBluetoothAdapter@Bluetooth@Devices@Windows@@XV?$function@$$A6AXV?$task@P$AAVBluetoothAdapter@Bluetooth@Devices@Windows@@@Concurrency@@@Z@std@@U?$integral_constant@_N$00@6@U_TypeSelectorNoAsync@details@Concurrency@@@?$task@P$AAVBluetoothAdapter@Bluetooth@Devices@Windows@@@Concurrency@@U_ContinuationTaskHandleBase@details@3@@details@Concurrency@@UBEXXZ 10032dc0 f i _nodert_generated.obj
 0001:00031e80       ??1?$_PPLTaskHandle@EU?$_ContinuationTaskHandle@P$AAVBluetoothAdapter@Bluetooth@Devices@Windows@@XV?$function@$$A6AXV?$task@P$AAVBluetoothAdapter@Bluetooth@Devices@Windows@@@Concurrency@@@Z@std@@U?$integral_constant@_N$00@6@U_TypeSelectorNoAsync@details@Concurrency@@@?$task@P$AAVBluetoothAdapter@Bluetooth@Devices@Windows@@@Concurrency@@U_ContinuationTaskHandleBase@details@3@@details@Concurrency@@UAE@XZ 10032e80 f i _nodert_generated.obj
 0001:00031f20       ??1?$_ContinuationTaskHandle@P$AAVBluetoothAdapter@Bluetooth@Devices@Windows@@XV?$function@$$A6AXV?$task@P$AAVBluetoothAdapter@Bluetooth@Devices@Windows@@@Concurrency@@@Z@std@@U?$integral_constant@_N$00@6@U_TypeSelectorNoAsync@details@Concurrency@@@?$task@P$AAVBluetoothAdapter@Bluetooth@Devices@Windows@@@Concurrency@@UAE@XZ 10032f20 f i _nodert_generated.obj
 0001:00032010       ??0?$_ContinuationTaskHandle@P$AAVBluetoothAdapter@Bluetooth@Devices@Windows@@XV?$function@$$A6AXV?$task@P$AAVBluetoothAdapter@Bluetooth@Devices@Windows@@@Concurrency@@@Z@std@@U?$integral_constant@_N$00@6@U_TypeSelectorNoAsync@details@Concurrency@@@?$task@P$AAVBluetoothAdapter@Bluetooth@Devices@Windows@@@Concurrency@@QAE@ABV?$shared_ptr@U?$_Task_impl@P$AAVBluetoothAdapter@Bluetooth@Devices@Windows@@@details@Concurrency@@@std@@ABV?$shared_ptr@U?$_Task_impl@E@details@Concurrency@@@4@ABV?$function@$$A6AXV?$task@P$AAVBluetoothAdapter@Bluetooth@Devices@Windows@@@Concurrency@@@Z@4@ABVtask_continuation_context@2@W4_TaskInliningMode@details@2@@Z 10033010 f i _nodert_generated.obj
 0001:00032140       ?invoke@?$_PPLTaskHandle@EU?$_ContinuationTaskHandle@P$AAVRadio@Radios@Devices@Windows@@XV?$function@$$A6AXV?$task@P$AAVRadio@Radios@Devices@Windows@@@Concurrency@@@Z@std@@U?$integral_constant@_N$00@6@U_TypeSelectorNoAsync@details@Concurrency@@@?$task@P$AAVRadio@Radios@Devices@Windows@@@Concurrency@@U_ContinuationTaskHandleBase@details@3@@details@Concurrency@@UBEXXZ 10033140 f i _nodert_generated.obj
 0001:00032200       ??1?$_PPLTaskHandle@EU?$_ContinuationTaskHandle@P$AAVRadio@Radios@Devices@Windows@@XV?$function@$$A6AXV?$task@P$AAVRadio@Radios@Devices@Windows@@@Concurrency@@@Z@std@@U?$integral_constant@_N$00@6@U_TypeSelectorNoAsync@details@Concurrency@@@?$task@P$AAVRadio@Radios@Devices@Windows@@@Concurrency@@U_ContinuationTaskHandleBase@details@3@@details@Concurrency@@UAE@XZ 10033200 f i _nodert_generated.obj
 0001:000322a0       ??1?$_ContinuationTaskHandle@P$AAVRadio@Radios@Devices@Windows@@XV?$function@$$A6AXV?$task@P$AAVRadio@Radios@Devices@Windows@@@Concurrency@@@Z@std@@U?$integral_constant@_N$00@6@U_TypeSelectorNoAsync@details@Concurrency@@@?$task@P$AAVRadio@Radios@Devices@Windows@@@Concurrency@@UAE@XZ 100332a0 f i _nodert_generated.obj
 0001:000323a0       ??0?$_ContinuationTaskHandle@P$AAVRadio@Radios@Devices@Windows@@XV?$function@$$A6AXV?$task@P$AAVRadio@Radios@Devices@Windows@@@Concurrency@@@Z@std@@U?$integral_constant@_N$00@6@U_TypeSelectorNoAsync@details@Concurrency@@@?$task@P$AAVRadio@Radios@Devices@Windows@@@Concurrency@@QAE@ABV?$shared_ptr@U?$_Task_impl@P$AAVRadio@Radios@Devices@Windows@@@details@Concurrency@@@std@@ABV?$shared_ptr@U?$_Task_impl@E@details@Concurrency@@@4@ABV?$function@$$A6AXV?$task@P$AAVRadio@Radios@Devices@Windows@@@Concurrency@@@Z@4@ABVtask_continuation_context@2@W4_TaskInliningMode@details@2@@Z 100333a0 f i _nodert_generated.obj
 0001:000324f0       ?_CreateImpl@?$task@P$AAVBluetoothLEDevice@Bluetooth@Devices@Windows@@@Concurrency@@QAEXPAV_CancellationTokenState@details@2@Uscheduler_ptr@2@@Z 100334f0 f i _nodert_generated.obj
 0001:00032690       ?_CreateImpl@?$task@P$AAVGattDeviceServicesResult@GenericAttributeProfile@Bluetooth@Devices@Windows@@@Concurrency@@QAEXPAV_CancellationTokenState@details@2@Uscheduler_ptr@2@@Z 10033690 f i _nodert_generated.obj
 0001:00032830       ?_CreateImpl@?$task@P$AAVBluetoothDevice@Bluetooth@Devices@Windows@@@Concurrency@@QAEXPAV_CancellationTokenState@details@2@Uscheduler_ptr@2@@Z 10033830 f i _nodert_generated.obj
 0001:000329d0       ?_CreateImpl@?$task@P$AAVRfcommDeviceServicesResult@Rfcomm@Bluetooth@Devices@Windows@@@Concurrency@@QAEXPAV_CancellationTokenState@details@2@Uscheduler_ptr@2@@Z 100339d0 f i _nodert_generated.obj
 0001:00032b70       ?_CreateImpl@?$task@W4DeviceAccessStatus@Enumeration@Devices@Windows@@@Concurrency@@QAEXPAV_CancellationTokenState@details@2@Uscheduler_ptr@2@@Z 10033b70 f i _nodert_generated.obj
 0001:00032d10       ?_CreateImpl@?$task@P$AAVBluetoothAdapter@Bluetooth@Devices@Windows@@@Concurrency@@QAEXPAV_CancellationTokenState@details@2@Uscheduler_ptr@2@@Z 10033d10 f i _nodert_generated.obj
 0001:00032eb0       ?_CreateImpl@?$task@P$AAVRadio@Radios@Devices@Windows@@@Concurrency@@QAEXPAV_CancellationTokenState@details@2@Uscheduler_ptr@2@@Z 10033eb0 f i _nodert_generated.obj
 0001:00033050       ??0?$_Task_impl@E@details@Concurrency@@QAE@PAV_CancellationTokenState@12@Uscheduler_ptr@2@@Z 10034050 f i _nodert_generated.obj
 0001:00033110       ?_Reset@?$_Ptr_base@U_Task_impl_base@details@Concurrency@@@std@@QAEXPAU_Task_impl_base@details@Concurrency@@PAV_Ref_count_base@2@_N@Z 10034110 f i _nodert_generated.obj
 0001:00033190       ??_G?$_Ref_count_del@V?$Persistent@VObject@v8@@V?$NonCopyablePersistentTraits@VObject@v8@@@2@@Nan@@V<lambda_b1b9f90765862e03fa467072316e8fd3>@@@std@@UAEPAXI@Z 10034190 f i _nodert_generated.obj
 0001:00033190       ??_E?$_Ref_count_del@V?$Persistent@VObject@v8@@V?$NonCopyablePersistentTraits@VObject@v8@@@2@@Nan@@V<lambda_0c61f5da77e337355f14540e68780a41>@@@std@@UAEPAXI@Z 10034190 f i * CIL library *:* CIL module *
 0001:00033190       ??_E?$_Ref_count_del@V?$Persistent@VObject@v8@@V?$NonCopyablePersistentTraits@VObject@v8@@@2@@Nan@@V<lambda_d373631d158baa05484fcf38ca74f733>@@@std@@UAEPAXI@Z 10034190 f i * CIL library *:* CIL module *
 0001:00033190       ??_E?$_Ref_count_del@V?$Persistent@VObject@v8@@V?$NonCopyablePersistentTraits@VObject@v8@@@2@@Nan@@V<lambda_920710e3d6bf5475724ebbb9357ddbf4>@@@std@@UAEPAXI@Z 10034190 f i * CIL library *:* CIL module *
 0001:00033190       ??_G?$_Ref_count_del@V?$Persistent@VObject@v8@@V?$NonCopyablePersistentTraits@VObject@v8@@@2@@Nan@@V<lambda_920710e3d6bf5475724ebbb9357ddbf4>@@@std@@UAEPAXI@Z 10034190 f i _nodert_generated.obj
 0001:00033190       ??_G?$_Ref_count_del@V?$Persistent@VObject@v8@@V?$NonCopyablePersistentTraits@VObject@v8@@@2@@Nan@@V<lambda_0c61f5da77e337355f14540e68780a41>@@@std@@UAEPAXI@Z 10034190 f i _nodert_generated.obj
 0001:00033190       ??_E?$_Ref_count_del@V?$Persistent@VObject@v8@@V?$NonCopyablePersistentTraits@VObject@v8@@@2@@Nan@@V<lambda_b1b9f90765862e03fa467072316e8fd3>@@@std@@UAEPAXI@Z 10034190 f i * CIL library *:* CIL module *
 0001:00033190       ??_G?$_Ref_count_del@V?$Persistent@VObject@v8@@V?$NonCopyablePersistentTraits@VObject@v8@@@2@@Nan@@V<lambda_d373631d158baa05484fcf38ca74f733>@@@std@@UAEPAXI@Z 10034190 f i _nodert_generated.obj
 0001:00033190       ??_G?$_Ref_count_del@V?$Persistent@VObject@v8@@V?$NonCopyablePersistentTraits@VObject@v8@@@2@@Nan@@V<lambda_1853ce3c12b6c6e41831df1b46a203a3>@@@std@@UAEPAXI@Z 10034190 f i _nodert_generated.obj
 0001:00033190       ??_E?$_Ref_count_del@V?$Persistent@VObject@v8@@V?$NonCopyablePersistentTraits@VObject@v8@@@2@@Nan@@V<lambda_d583e3ad4cbeba261287277e1fa4fd4a>@@@std@@UAEPAXI@Z 10034190 f i * CIL library *:* CIL module *
 0001:00033190       ??_G?$_Ref_count_del@V?$Persistent@VObject@v8@@V?$NonCopyablePersistentTraits@VObject@v8@@@2@@Nan@@V<lambda_d583e3ad4cbeba261287277e1fa4fd4a>@@@std@@UAEPAXI@Z 10034190 f i _nodert_generated.obj
 0001:00033190       ??_E?$_Ref_count_del@V?$Persistent@VObject@v8@@V?$NonCopyablePersistentTraits@VObject@v8@@@2@@Nan@@V<lambda_1853ce3c12b6c6e41831df1b46a203a3>@@@std@@UAEPAXI@Z 10034190 f i * CIL library *:* CIL module *
 0001:000331c0       ??_E?$_PPLTaskHandle@EU?$_ContinuationTaskHandle@P$AAVBluetoothLEDevice@Bluetooth@Devices@Windows@@XV?$function@$$A6AXV?$task@P$AAVBluetoothLEDevice@Bluetooth@Devices@Windows@@@Concurrency@@@Z@std@@U?$integral_constant@_N$00@6@U_TypeSelectorNoAsync@details@Concurrency@@@?$task@P$AAVBluetoothLEDevice@Bluetooth@Devices@Windows@@@Concurrency@@U_ContinuationTaskHandleBase@details@3@@details@Concurrency@@UAEPAXI@Z 100341c0 f i * CIL library *:* CIL module *
 0001:000331c0       ??_G?$_PPLTaskHandle@EU?$_ContinuationTaskHandle@P$AAVBluetoothLEDevice@Bluetooth@Devices@Windows@@XV?$function@$$A6AXV?$task@P$AAVBluetoothLEDevice@Bluetooth@Devices@Windows@@@Concurrency@@@Z@std@@U?$integral_constant@_N$00@6@U_TypeSelectorNoAsync@details@Concurrency@@@?$task@P$AAVBluetoothLEDevice@Bluetooth@Devices@Windows@@@Concurrency@@U_ContinuationTaskHandleBase@details@3@@details@Concurrency@@UAEPAXI@Z 100341c0 f i _nodert_generated.obj
 0001:00033270       ??_E?$_ContinuationTaskHandle@P$AAVBluetoothLEDevice@Bluetooth@Devices@Windows@@XV?$function@$$A6AXV?$task@P$AAVBluetoothLEDevice@Bluetooth@Devices@Windows@@@Concurrency@@@Z@std@@U?$integral_constant@_N$00@6@U_TypeSelectorNoAsync@details@Concurrency@@@?$task@P$AAVBluetoothLEDevice@Bluetooth@Devices@Windows@@@Concurrency@@UAEPAXI@Z 10034270 f i * CIL library *:* CIL module *
 0001:00033270       ??_G?$_ContinuationTaskHandle@P$AAVBluetoothLEDevice@Bluetooth@Devices@Windows@@XV?$function@$$A6AXV?$task@P$AAVBluetoothLEDevice@Bluetooth@Devices@Windows@@@Concurrency@@@Z@std@@U?$integral_constant@_N$00@6@U_TypeSelectorNoAsync@details@Concurrency@@@?$task@P$AAVBluetoothLEDevice@Bluetooth@Devices@Windows@@@Concurrency@@UAEPAXI@Z 10034270 f i _nodert_generated.obj
 0001:00033290       ??_G?$_PPLTaskHandle@EU?$_ContinuationTaskHandle@P$AAVGattDeviceServicesResult@GenericAttributeProfile@Bluetooth@Devices@Windows@@XV?$function@$$A6AXV?$task@P$AAVGattDeviceServicesResult@GenericAttributeProfile@Bluetooth@Devices@Windows@@@Concurrency@@@Z@std@@U?$integral_constant@_N$00@7@U_TypeSelectorNoAsync@details@Concurrency@@@?$task@P$AAVGattDeviceServicesResult@GenericAttributeProfile@Bluetooth@Devices@Windows@@@Concurrency@@U_ContinuationTaskHandleBase@details@3@@details@Concurrency@@UAEPAXI@Z 10034290 f i _nodert_generated.obj
 0001:00033290       ??_E?$_PPLTaskHandle@EU?$_ContinuationTaskHandle@P$AAVGattDeviceServicesResult@GenericAttributeProfile@Bluetooth@Devices@Windows@@XV?$function@$$A6AXV?$task@P$AAVGattDeviceServicesResult@GenericAttributeProfile@Bluetooth@Devices@Windows@@@Concurrency@@@Z@std@@U?$integral_constant@_N$00@7@U_TypeSelectorNoAsync@details@Concurrency@@@?$task@P$AAVGattDeviceServicesResult@GenericAttributeProfile@Bluetooth@Devices@Windows@@@Concurrency@@U_ContinuationTaskHandleBase@details@3@@details@Concurrency@@UAEPAXI@Z 10034290 f i * CIL library *:* CIL module *
 0001:00033340       ??_E?$_ContinuationTaskHandle@P$AAVGattDeviceServicesResult@GenericAttributeProfile@Bluetooth@Devices@Windows@@XV?$function@$$A6AXV?$task@P$AAVGattDeviceServicesResult@GenericAttributeProfile@Bluetooth@Devices@Windows@@@Concurrency@@@Z@std@@U?$integral_constant@_N$00@7@U_TypeSelectorNoAsync@details@Concurrency@@@?$task@P$AAVGattDeviceServicesResult@GenericAttributeProfile@Bluetooth@Devices@Windows@@@Concurrency@@UAEPAXI@Z 10034340 f i * CIL library *:* CIL module *
 0001:00033340       ??_G?$_ContinuationTaskHandle@P$AAVGattDeviceServicesResult@GenericAttributeProfile@Bluetooth@Devices@Windows@@XV?$function@$$A6AXV?$task@P$AAVGattDeviceServicesResult@GenericAttributeProfile@Bluetooth@Devices@Windows@@@Concurrency@@@Z@std@@U?$integral_constant@_N$00@7@U_TypeSelectorNoAsync@details@Concurrency@@@?$task@P$AAVGattDeviceServicesResult@GenericAttributeProfile@Bluetooth@Devices@Windows@@@Concurrency@@UAEPAXI@Z 10034340 f i _nodert_generated.obj
 0001:00033360       ??_E?$_PPLTaskHandle@EU?$_ContinuationTaskHandle@P$AAVBluetoothDevice@Bluetooth@Devices@Windows@@XV?$function@$$A6AXV?$task@P$AAVBluetoothDevice@Bluetooth@Devices@Windows@@@Concurrency@@@Z@std@@U?$integral_constant@_N$00@6@U_TypeSelectorNoAsync@details@Concurrency@@@?$task@P$AAVBluetoothDevice@Bluetooth@Devices@Windows@@@Concurrency@@U_ContinuationTaskHandleBase@details@3@@details@Concurrency@@UAEPAXI@Z 10034360 f i * CIL library *:* CIL module *
 0001:00033360       ??_G?$_PPLTaskHandle@EU?$_ContinuationTaskHandle@P$AAVBluetoothDevice@Bluetooth@Devices@Windows@@XV?$function@$$A6AXV?$task@P$AAVBluetoothDevice@Bluetooth@Devices@Windows@@@Concurrency@@@Z@std@@U?$integral_constant@_N$00@6@U_TypeSelectorNoAsync@details@Concurrency@@@?$task@P$AAVBluetoothDevice@Bluetooth@Devices@Windows@@@Concurrency@@U_ContinuationTaskHandleBase@details@3@@details@Concurrency@@UAEPAXI@Z 10034360 f i _nodert_generated.obj
 0001:00033410       ??_G?$_ContinuationTaskHandle@P$AAVBluetoothDevice@Bluetooth@Devices@Windows@@XV?$function@$$A6AXV?$task@P$AAVBluetoothDevice@Bluetooth@Devices@Windows@@@Concurrency@@@Z@std@@U?$integral_constant@_N$00@6@U_TypeSelectorNoAsync@details@Concurrency@@@?$task@P$AAVBluetoothDevice@Bluetooth@Devices@Windows@@@Concurrency@@UAEPAXI@Z 10034410 f i _nodert_generated.obj
 0001:00033410       ??_E?$_ContinuationTaskHandle@P$AAVBluetoothDevice@Bluetooth@Devices@Windows@@XV?$function@$$A6AXV?$task@P$AAVBluetoothDevice@Bluetooth@Devices@Windows@@@Concurrency@@@Z@std@@U?$integral_constant@_N$00@6@U_TypeSelectorNoAsync@details@Concurrency@@@?$task@P$AAVBluetoothDevice@Bluetooth@Devices@Windows@@@Concurrency@@UAEPAXI@Z 10034410 f i * CIL library *:* CIL module *
 0001:00033430       ??_E?$_PPLTaskHandle@EU?$_ContinuationTaskHandle@P$AAVRfcommDeviceServicesResult@Rfcomm@Bluetooth@Devices@Windows@@XV?$function@$$A6AXV?$task@P$AAVRfcommDeviceServicesResult@Rfcomm@Bluetooth@Devices@Windows@@@Concurrency@@@Z@std@@U?$integral_constant@_N$00@7@U_TypeSelectorNoAsync@details@Concurrency@@@?$task@P$AAVRfcommDeviceServicesResult@Rfcomm@Bluetooth@Devices@Windows@@@Concurrency@@U_ContinuationTaskHandleBase@details@3@@details@Concurrency@@UAEPAXI@Z 10034430 f i * CIL library *:* CIL module *
 0001:00033430       ??_G?$_PPLTaskHandle@EU?$_ContinuationTaskHandle@P$AAVRfcommDeviceServicesResult@Rfcomm@Bluetooth@Devices@Windows@@XV?$function@$$A6AXV?$task@P$AAVRfcommDeviceServicesResult@Rfcomm@Bluetooth@Devices@Windows@@@Concurrency@@@Z@std@@U?$integral_constant@_N$00@7@U_TypeSelectorNoAsync@details@Concurrency@@@?$task@P$AAVRfcommDeviceServicesResult@Rfcomm@Bluetooth@Devices@Windows@@@Concurrency@@U_ContinuationTaskHandleBase@details@3@@details@Concurrency@@UAEPAXI@Z 10034430 f i _nodert_generated.obj
 0001:000334e0       ??_E?$_ContinuationTaskHandle@P$AAVRfcommDeviceServicesResult@Rfcomm@Bluetooth@Devices@Windows@@XV?$function@$$A6AXV?$task@P$AAVRfcommDeviceServicesResult@Rfcomm@Bluetooth@Devices@Windows@@@Concurrency@@@Z@std@@U?$integral_constant@_N$00@7@U_TypeSelectorNoAsync@details@Concurrency@@@?$task@P$AAVRfcommDeviceServicesResult@Rfcomm@Bluetooth@Devices@Windows@@@Concurrency@@UAEPAXI@Z 100344e0 f i * CIL library *:* CIL module *
 0001:000334e0       ??_G?$_ContinuationTaskHandle@P$AAVRfcommDeviceServicesResult@Rfcomm@Bluetooth@Devices@Windows@@XV?$function@$$A6AXV?$task@P$AAVRfcommDeviceServicesResult@Rfcomm@Bluetooth@Devices@Windows@@@Concurrency@@@Z@std@@U?$integral_constant@_N$00@7@U_TypeSelectorNoAsync@details@Concurrency@@@?$task@P$AAVRfcommDeviceServicesResult@Rfcomm@Bluetooth@Devices@Windows@@@Concurrency@@UAEPAXI@Z 100344e0 f i _nodert_generated.obj
 0001:00033500       ??_E?$_PPLTaskHandle@EU?$_ContinuationTaskHandle@W4DeviceAccessStatus@Enumeration@Devices@Windows@@XV?$function@$$A6AXV?$task@W4DeviceAccessStatus@Enumeration@Devices@Windows@@@Concurrency@@@Z@std@@U?$integral_constant@_N$00@6@U_TypeSelectorNoAsync@details@Concurrency@@@?$task@W4DeviceAccessStatus@Enumeration@Devices@Windows@@@Concurrency@@U_ContinuationTaskHandleBase@details@3@@details@Concurrency@@UAEPAXI@Z 10034500 f i * CIL library *:* CIL module *
 0001:00033500       ??_G?$_PPLTaskHandle@EU?$_ContinuationTaskHandle@W4DeviceAccessStatus@Enumeration@Devices@Windows@@XV?$function@$$A6AXV?$task@W4DeviceAccessStatus@Enumeration@Devices@Windows@@@Concurrency@@@Z@std@@U?$integral_constant@_N$00@6@U_TypeSelectorNoAsync@details@Concurrency@@@?$task@W4DeviceAccessStatus@Enumeration@Devices@Windows@@@Concurrency@@U_ContinuationTaskHandleBase@details@3@@details@Concurrency@@UAEPAXI@Z 10034500 f i _nodert_generated.obj
 0001:000335b0       ??_E?$_ContinuationTaskHandle@W4DeviceAccessStatus@Enumeration@Devices@Windows@@XV?$function@$$A6AXV?$task@W4DeviceAccessStatus@Enumeration@Devices@Windows@@@Concurrency@@@Z@std@@U?$integral_constant@_N$00@6@U_TypeSelectorNoAsync@details@Concurrency@@@?$task@W4DeviceAccessStatus@Enumeration@Devices@Windows@@@Concurrency@@UAEPAXI@Z 100345b0 f i * CIL library *:* CIL module *
 0001:000335b0       ??_G?$_ContinuationTaskHandle@W4DeviceAccessStatus@Enumeration@Devices@Windows@@XV?$function@$$A6AXV?$task@W4DeviceAccessStatus@Enumeration@Devices@Windows@@@Concurrency@@@Z@std@@U?$integral_constant@_N$00@6@U_TypeSelectorNoAsync@details@Concurrency@@@?$task@W4DeviceAccessStatus@Enumeration@Devices@Windows@@@Concurrency@@UAEPAXI@Z 100345b0 f i _nodert_generated.obj
 0001:000335d0       ??_G?$_PPLTaskHandle@EU?$_ContinuationTaskHandle@P$AAVBluetoothAdapter@Bluetooth@Devices@Windows@@XV?$function@$$A6AXV?$task@P$AAVBluetoothAdapter@Bluetooth@Devices@Windows@@@Concurrency@@@Z@std@@U?$integral_constant@_N$00@6@U_TypeSelectorNoAsync@details@Concurrency@@@?$task@P$AAVBluetoothAdapter@Bluetooth@Devices@Windows@@@Concurrency@@U_ContinuationTaskHandleBase@details@3@@details@Concurrency@@UAEPAXI@Z 100345d0 f i _nodert_generated.obj
 0001:000335d0       ??_E?$_PPLTaskHandle@EU?$_ContinuationTaskHandle@P$AAVBluetoothAdapter@Bluetooth@Devices@Windows@@XV?$function@$$A6AXV?$task@P$AAVBluetoothAdapter@Bluetooth@Devices@Windows@@@Concurrency@@@Z@std@@U?$integral_constant@_N$00@6@U_TypeSelectorNoAsync@details@Concurrency@@@?$task@P$AAVBluetoothAdapter@Bluetooth@Devices@Windows@@@Concurrency@@U_ContinuationTaskHandleBase@details@3@@details@Concurrency@@UAEPAXI@Z 100345d0 f i * CIL library *:* CIL module *
 0001:00033680       ??_E?$_ContinuationTaskHandle@P$AAVBluetoothAdapter@Bluetooth@Devices@Windows@@XV?$function@$$A6AXV?$task@P$AAVBluetoothAdapter@Bluetooth@Devices@Windows@@@Concurrency@@@Z@std@@U?$integral_constant@_N$00@6@U_TypeSelectorNoAsync@details@Concurrency@@@?$task@P$AAVBluetoothAdapter@Bluetooth@Devices@Windows@@@Concurrency@@UAEPAXI@Z 10034680 f i * CIL library *:* CIL module *
 0001:00033680       ??_G?$_ContinuationTaskHandle@P$AAVBluetoothAdapter@Bluetooth@Devices@Windows@@XV?$function@$$A6AXV?$task@P$AAVBluetoothAdapter@Bluetooth@Devices@Windows@@@Concurrency@@@Z@std@@U?$integral_constant@_N$00@6@U_TypeSelectorNoAsync@details@Concurrency@@@?$task@P$AAVBluetoothAdapter@Bluetooth@Devices@Windows@@@Concurrency@@UAEPAXI@Z 10034680 f i _nodert_generated.obj
 0001:000336a0       ??_E?$_PPLTaskHandle@EU?$_ContinuationTaskHandle@P$AAVRadio@Radios@Devices@Windows@@XV?$function@$$A6AXV?$task@P$AAVRadio@Radios@Devices@Windows@@@Concurrency@@@Z@std@@U?$integral_constant@_N$00@6@U_TypeSelectorNoAsync@details@Concurrency@@@?$task@P$AAVRadio@Radios@Devices@Windows@@@Concurrency@@U_ContinuationTaskHandleBase@details@3@@details@Concurrency@@UAEPAXI@Z 100346a0 f i * CIL library *:* CIL module *
 0001:000336a0       ??_G?$_PPLTaskHandle@EU?$_ContinuationTaskHandle@P$AAVRadio@Radios@Devices@Windows@@XV?$function@$$A6AXV?$task@P$AAVRadio@Radios@Devices@Windows@@@Concurrency@@@Z@std@@U?$integral_constant@_N$00@6@U_TypeSelectorNoAsync@details@Concurrency@@@?$task@P$AAVRadio@Radios@Devices@Windows@@@Concurrency@@U_ContinuationTaskHandleBase@details@3@@details@Concurrency@@UAEPAXI@Z 100346a0 f i _nodert_generated.obj
 0001:00033750       ??_G?$_ContinuationTaskHandle@P$AAVRadio@Radios@Devices@Windows@@XV?$function@$$A6AXV?$task@P$AAVRadio@Radios@Devices@Windows@@@Concurrency@@@Z@std@@U?$integral_constant@_N$00@6@U_TypeSelectorNoAsync@details@Concurrency@@@?$task@P$AAVRadio@Radios@Devices@Windows@@@Concurrency@@UAEPAXI@Z 10034750 f i _nodert_generated.obj
 0001:00033750       ??_E?$_ContinuationTaskHandle@P$AAVRadio@Radios@Devices@Windows@@XV?$function@$$A6AXV?$task@P$AAVRadio@Radios@Devices@Windows@@@Concurrency@@@Z@std@@U?$integral_constant@_N$00@6@U_TypeSelectorNoAsync@details@Concurrency@@@?$task@P$AAVRadio@Radios@Devices@Windows@@@Concurrency@@UAEPAXI@Z 10034750 f i * CIL library *:* CIL module *
 0001:00033770       ??0?$_PPLTaskHandle@EU?$_ContinuationTaskHandle@P$AAVBluetoothLEDevice@Bluetooth@Devices@Windows@@XV?$function@$$A6AXV?$task@P$AAVBluetoothLEDevice@Bluetooth@Devices@Windows@@@Concurrency@@@Z@std@@U?$integral_constant@_N$00@6@U_TypeSelectorNoAsync@details@Concurrency@@@?$task@P$AAVBluetoothLEDevice@Bluetooth@Devices@Windows@@@Concurrency@@U_ContinuationTaskHandleBase@details@3@@details@Concurrency@@QAE@ABV?$shared_ptr@U?$_Task_impl@E@details@Concurrency@@@std@@@Z 10034770 f i _nodert_generated.obj
 0001:00033840       ??0?$_PPLTaskHandle@EU?$_ContinuationTaskHandle@P$AAVGattDeviceServicesResult@GenericAttributeProfile@Bluetooth@Devices@Windows@@XV?$function@$$A6AXV?$task@P$AAVGattDeviceServicesResult@GenericAttributeProfile@Bluetooth@Devices@Windows@@@Concurrency@@@Z@std@@U?$integral_constant@_N$00@7@U_TypeSelectorNoAsync@details@Concurrency@@@?$task@P$AAVGattDeviceServicesResult@GenericAttributeProfile@Bluetooth@Devices@Windows@@@Concurrency@@U_ContinuationTaskHandleBase@details@3@@details@Concurrency@@QAE@ABV?$shared_ptr@U?$_Task_impl@E@details@Concurrency@@@std@@@Z 10034840 f i _nodert_generated.obj
 0001:00033910       ??0?$_PPLTaskHandle@EU?$_ContinuationTaskHandle@P$AAVBluetoothDevice@Bluetooth@Devices@Windows@@XV?$function@$$A6AXV?$task@P$AAVBluetoothDevice@Bluetooth@Devices@Windows@@@Concurrency@@@Z@std@@U?$integral_constant@_N$00@6@U_TypeSelectorNoAsync@details@Concurrency@@@?$task@P$AAVBluetoothDevice@Bluetooth@Devices@Windows@@@Concurrency@@U_ContinuationTaskHandleBase@details@3@@details@Concurrency@@QAE@ABV?$shared_ptr@U?$_Task_impl@E@details@Concurrency@@@std@@@Z 10034910 f i _nodert_generated.obj
 0001:000339e0       ??0?$_PPLTaskHandle@EU?$_ContinuationTaskHandle@P$AAVRfcommDeviceServicesResult@Rfcomm@Bluetooth@Devices@Windows@@XV?$function@$$A6AXV?$task@P$AAVRfcommDeviceServicesResult@Rfcomm@Bluetooth@Devices@Windows@@@Concurrency@@@Z@std@@U?$integral_constant@_N$00@7@U_TypeSelectorNoAsync@details@Concurrency@@@?$task@P$AAVRfcommDeviceServicesResult@Rfcomm@Bluetooth@Devices@Windows@@@Concurrency@@U_ContinuationTaskHandleBase@details@3@@details@Concurrency@@QAE@ABV?$shared_ptr@U?$_Task_impl@E@details@Concurrency@@@std@@@Z 100349e0 f i _nodert_generated.obj
 0001:00033ab0       ??0?$_PPLTaskHandle@EU?$_ContinuationTaskHandle@W4DeviceAccessStatus@Enumeration@Devices@Windows@@XV?$function@$$A6AXV?$task@W4DeviceAccessStatus@Enumeration@Devices@Windows@@@Concurrency@@@Z@std@@U?$integral_constant@_N$00@6@U_TypeSelectorNoAsync@details@Concurrency@@@?$task@W4DeviceAccessStatus@Enumeration@Devices@Windows@@@Concurrency@@U_ContinuationTaskHandleBase@details@3@@details@Concurrency@@QAE@ABV?$shared_ptr@U?$_Task_impl@E@details@Concurrency@@@std@@@Z 10034ab0 f i _nodert_generated.obj
 0001:00033b80       ??0?$_PPLTaskHandle@EU?$_ContinuationTaskHandle@P$AAVBluetoothAdapter@Bluetooth@Devices@Windows@@XV?$function@$$A6AXV?$task@P$AAVBluetoothAdapter@Bluetooth@Devices@Windows@@@Concurrency@@@Z@std@@U?$integral_constant@_N$00@6@U_TypeSelectorNoAsync@details@Concurrency@@@?$task@P$AAVBluetoothAdapter@Bluetooth@Devices@Windows@@@Concurrency@@U_ContinuationTaskHandleBase@details@3@@details@Concurrency@@QAE@ABV?$shared_ptr@U?$_Task_impl@E@details@Concurrency@@@std@@@Z 10034b80 f i _nodert_generated.obj
 0001:00033c50       ??0?$_PPLTaskHandle@EU?$_ContinuationTaskHandle@P$AAVRadio@Radios@Devices@Windows@@XV?$function@$$A6AXV?$task@P$AAVRadio@Radios@Devices@Windows@@@Concurrency@@@Z@std@@U?$integral_constant@_N$00@6@U_TypeSelectorNoAsync@details@Concurrency@@@?$task@P$AAVRadio@Radios@Devices@Windows@@@Concurrency@@U_ContinuationTaskHandleBase@details@3@@details@Concurrency@@QAE@ABV?$shared_ptr@U?$_Task_impl@E@details@Concurrency@@@std@@@Z 10034c50 f i _nodert_generated.obj
 0001:00033d20       ?_Make@?$_Task_ptr@P$AAVBluetoothLEDevice@Bluetooth@Devices@Windows@@@details@Concurrency@@SA?AV?$shared_ptr@U?$_Task_impl@P$AAVBluetoothLEDevice@Bluetooth@Devices@Windows@@@details@Concurrency@@@std@@PAV_CancellationTokenState@23@Uscheduler_ptr@3@@Z 10034d20 f i _nodert_generated.obj
 0001:00033db0       ?_Make@?$_Task_ptr@P$AAVGattDeviceServicesResult@GenericAttributeProfile@Bluetooth@Devices@Windows@@@details@Concurrency@@SA?AV?$shared_ptr@U?$_Task_impl@P$AAVGattDeviceServicesResult@GenericAttributeProfile@Bluetooth@Devices@Windows@@@details@Concurrency@@@std@@PAV_CancellationTokenState@23@Uscheduler_ptr@3@@Z 10034db0 f i _nodert_generated.obj
 0001:00033e40       ?_Make@?$_Task_ptr@P$AAVBluetoothDevice@Bluetooth@Devices@Windows@@@details@Concurrency@@SA?AV?$shared_ptr@U?$_Task_impl@P$AAVBluetoothDevice@Bluetooth@Devices@Windows@@@details@Concurrency@@@std@@PAV_CancellationTokenState@23@Uscheduler_ptr@3@@Z 10034e40 f i _nodert_generated.obj
 0001:00033ed0       ?_Make@?$_Task_ptr@P$AAVRfcommDeviceServicesResult@Rfcomm@Bluetooth@Devices@Windows@@@details@Concurrency@@SA?AV?$shared_ptr@U?$_Task_impl@P$AAVRfcommDeviceServicesResult@Rfcomm@Bluetooth@Devices@Windows@@@details@Concurrency@@@std@@PAV_CancellationTokenState@23@Uscheduler_ptr@3@@Z 10034ed0 f i _nodert_generated.obj
 0001:00033f60       ?_Make@?$_Task_ptr@W4DeviceAccessStatus@Enumeration@Devices@Windows@@@details@Concurrency@@SA?AV?$shared_ptr@U?$_Task_impl@W4DeviceAccessStatus@Enumeration@Devices@Windows@@@details@Concurrency@@@std@@PAV_CancellationTokenState@23@Uscheduler_ptr@3@@Z 10034f60 f i _nodert_generated.obj
 0001:00033ff0       ?_Make@?$_Task_ptr@P$AAVBluetoothAdapter@Bluetooth@Devices@Windows@@@details@Concurrency@@SA?AV?$shared_ptr@U?$_Task_impl@P$AAVBluetoothAdapter@Bluetooth@Devices@Windows@@@details@Concurrency@@@std@@PAV_CancellationTokenState@23@Uscheduler_ptr@3@@Z 10034ff0 f i _nodert_generated.obj
 0001:00034080       ?_Make@?$_Task_ptr@P$AAVRadio@Radios@Devices@Windows@@@details@Concurrency@@SA?AV?$shared_ptr@U?$_Task_impl@P$AAVRadio@Radios@Devices@Windows@@@details@Concurrency@@@std@@PAV_CancellationTokenState@23@Uscheduler_ptr@3@@Z 10035080 f i _nodert_generated.obj
 0001:00034110       ?_Continue@?$_ContinuationTaskHandle@P$AAVBluetoothLEDevice@Bluetooth@Devices@Windows@@XV?$function@$$A6AXV?$task@P$AAVBluetoothLEDevice@Bluetooth@Devices@Windows@@@Concurrency@@@Z@std@@U?$integral_constant@_N$00@6@U_TypeSelectorNoAsync@details@Concurrency@@@?$task@P$AAVBluetoothLEDevice@Bluetooth@Devices@Windows@@@Concurrency@@QBEXU?$integral_constant@_N$00@std@@U_TypeSelectorNoAsync@details@3@@Z 10035110 f i _nodert_generated.obj
 0001:00034260       ?_Continue@?$_ContinuationTaskHandle@P$AAVGattDeviceServicesResult@GenericAttributeProfile@Bluetooth@Devices@Windows@@XV?$function@$$A6AXV?$task@P$AAVGattDeviceServicesResult@GenericAttributeProfile@Bluetooth@Devices@Windows@@@Concurrency@@@Z@std@@U?$integral_constant@_N$00@7@U_TypeSelectorNoAsync@details@Concurrency@@@?$task@P$AAVGattDeviceServicesResult@GenericAttributeProfile@Bluetooth@Devices@Windows@@@Concurrency@@QBEXU?$integral_constant@_N$00@std@@U_TypeSelectorNoAsync@details@3@@Z 10035260 f i _nodert_generated.obj
 0001:000343b0       ?_Continue@?$_ContinuationTaskHandle@P$AAVBluetoothDevice@Bluetooth@Devices@Windows@@XV?$function@$$A6AXV?$task@P$AAVBluetoothDevice@Bluetooth@Devices@Windows@@@Concurrency@@@Z@std@@U?$integral_constant@_N$00@6@U_TypeSelectorNoAsync@details@Concurrency@@@?$task@P$AAVBluetoothDevice@Bluetooth@Devices@Windows@@@Concurrency@@QBEXU?$integral_constant@_N$00@std@@U_TypeSelectorNoAsync@details@3@@Z 100353b0 f i _nodert_generated.obj
 0001:00034500       ?_Continue@?$_ContinuationTaskHandle@P$AAVRfcommDeviceServicesResult@Rfcomm@Bluetooth@Devices@Windows@@XV?$function@$$A6AXV?$task@P$AAVRfcommDeviceServicesResult@Rfcomm@Bluetooth@Devices@Windows@@@Concurrency@@@Z@std@@U?$integral_constant@_N$00@7@U_TypeSelectorNoAsync@details@Concurrency@@@?$task@P$AAVRfcommDeviceServicesResult@Rfcomm@Bluetooth@Devices@Windows@@@Concurrency@@QBEXU?$integral_constant@_N$00@std@@U_TypeSelectorNoAsync@details@3@@Z 10035500 f i _nodert_generated.obj
 0001:00034650       ?_Continue@?$_ContinuationTaskHandle@W4DeviceAccessStatus@Enumeration@Devices@Windows@@XV?$function@$$A6AXV?$task@W4DeviceAccessStatus@Enumeration@Devices@Windows@@@Concurrency@@@Z@std@@U?$integral_constant@_N$00@6@U_TypeSelectorNoAsync@details@Concurrency@@@?$task@W4DeviceAccessStatus@Enumeration@Devices@Windows@@@Concurrency@@QBEXU?$integral_constant@_N$00@std@@U_TypeSelectorNoAsync@details@3@@Z 10035650 f i _nodert_generated.obj
 0001:000347a0       ?_Continue@?$_ContinuationTaskHandle@P$AAVBluetoothAdapter@Bluetooth@Devices@Windows@@XV?$function@$$A6AXV?$task@P$AAVBluetoothAdapter@Bluetooth@Devices@Windows@@@Concurrency@@@Z@std@@U?$integral_constant@_N$00@6@U_TypeSelectorNoAsync@details@Concurrency@@@?$task@P$AAVBluetoothAdapter@Bluetooth@Devices@Windows@@@Concurrency@@QBEXU?$integral_constant@_N$00@std@@U_TypeSelectorNoAsync@details@3@@Z 100357a0 f i _nodert_generated.obj
 0001:000348f0       ?_Continue@?$_ContinuationTaskHandle@P$AAVRadio@Radios@Devices@Windows@@XV?$function@$$A6AXV?$task@P$AAVRadio@Radios@Devices@Windows@@@Concurrency@@@Z@std@@U?$integral_constant@_N$00@6@U_TypeSelectorNoAsync@details@Concurrency@@@?$task@P$AAVRadio@Radios@Devices@Windows@@@Concurrency@@QBEXU?$integral_constant@_N$00@std@@U_TypeSelectorNoAsync@details@3@@Z 100358f0 f i _nodert_generated.obj
 0001:00034a30       ??1?$_Func_class@EV?$task@P$AAVRadio@Radios@Devices@Windows@@@Concurrency@@@std@@QAE@XZ 10035a30 f i _nodert_generated.obj
 0001:00034a30       ??1?$function@$$A6AEV?$task@P$AAVRadio@Radios@Devices@Windows@@@Concurrency@@@Z@std@@QAE@XZ 10035a30 f i _nodert_generated.obj
 0001:00034a60       ?_Perform@?$_Continuation_func_transformer@V?$task@P$AAVRadio@Radios@Devices@Windows@@@Concurrency@@X@Concurrency@@SA?AV?$function@$$A6AEV?$task@P$AAVRadio@Radios@Devices@Windows@@@Concurrency@@@Z@std@@V?$function@$$A6AXV?$task@P$AAVRadio@Radios@Devices@Windows@@@Concurrency@@@Z@4@@Z 10035a60 f i _nodert_generated.obj
 0001:00034b10       ??1?$_Func_class@EV?$task@P$AAVBluetoothAdapter@Bluetooth@Devices@Windows@@@Concurrency@@@std@@QAE@XZ 10035b10 f i _nodert_generated.obj
 0001:00034b10       ??1?$function@$$A6AEV?$task@P$AAVBluetoothAdapter@Bluetooth@Devices@Windows@@@Concurrency@@@Z@std@@QAE@XZ 10035b10 f i _nodert_generated.obj
 0001:00034b60       ?_Perform@?$_Continuation_func_transformer@V?$task@P$AAVBluetoothAdapter@Bluetooth@Devices@Windows@@@Concurrency@@X@Concurrency@@SA?AV?$function@$$A6AEV?$task@P$AAVBluetoothAdapter@Bluetooth@Devices@Windows@@@Concurrency@@@Z@std@@V?$function@$$A6AXV?$task@P$AAVBluetoothAdapter@Bluetooth@Devices@Windows@@@Concurrency@@@Z@4@@Z 10035b60 f i _nodert_generated.obj
 0001:00034be0       ??1?$function@$$A6AEV?$task@W4DeviceAccessStatus@Enumeration@Devices@Windows@@@Concurrency@@@Z@std@@QAE@XZ 10035be0 f i _nodert_generated.obj
 0001:00034be0       ??1?$_Func_class@EV?$task@W4DeviceAccessStatus@Enumeration@Devices@Windows@@@Concurrency@@@std@@QAE@XZ 10035be0 f i _nodert_generated.obj
 0001:00034c30       ?_Perform@?$_Continuation_func_transformer@V?$task@W4DeviceAccessStatus@Enumeration@Devices@Windows@@@Concurrency@@X@Concurrency@@SA?AV?$function@$$A6AEV?$task@W4DeviceAccessStatus@Enumeration@Devices@Windows@@@Concurrency@@@Z@std@@V?$function@$$A6AXV?$task@W4DeviceAccessStatus@Enumeration@Devices@Windows@@@Concurrency@@@Z@4@@Z 10035c30 f i _nodert_generated.obj
 0001:00034cb0       ??1?$function@$$A6AEV?$task@P$AAVRfcommDeviceServicesResult@Rfcomm@Bluetooth@Devices@Windows@@@Concurrency@@@Z@std@@QAE@XZ 10035cb0 f i _nodert_generated.obj
 0001:00034cb0       ??1?$_Func_class@EV?$task@P$AAVRfcommDeviceServicesResult@Rfcomm@Bluetooth@Devices@Windows@@@Concurrency@@@std@@QAE@XZ 10035cb0 f i _nodert_generated.obj
 0001:00034d00       ?_Perform@?$_Continuation_func_transformer@V?$task@P$AAVRfcommDeviceServicesResult@Rfcomm@Bluetooth@Devices@Windows@@@Concurrency@@X@Concurrency@@SA?AV?$function@$$A6AEV?$task@P$AAVRfcommDeviceServicesResult@Rfcomm@Bluetooth@Devices@Windows@@@Concurrency@@@Z@std@@V?$function@$$A6AXV?$task@P$AAVRfcommDeviceServicesResult@Rfcomm@Bluetooth@Devices@Windows@@@Concurrency@@@Z@4@@Z 10035d00 f i _nodert_generated.obj
 0001:00034d80       ??1?$_Func_class@EV?$task@P$AAVBluetoothDevice@Bluetooth@Devices@Windows@@@Concurrency@@@std@@QAE@XZ 10035d80 f i _nodert_generated.obj
 0001:00034d80       ??1?$function@$$A6AEV?$task@P$AAVBluetoothDevice@Bluetooth@Devices@Windows@@@Concurrency@@@Z@std@@QAE@XZ 10035d80 f i _nodert_generated.obj
 0001:00034dd0       ?_Perform@?$_Continuation_func_transformer@V?$task@P$AAVBluetoothDevice@Bluetooth@Devices@Windows@@@Concurrency@@X@Concurrency@@SA?AV?$function@$$A6AEV?$task@P$AAVBluetoothDevice@Bluetooth@Devices@Windows@@@Concurrency@@@Z@std@@V?$function@$$A6AXV?$task@P$AAVBluetoothDevice@Bluetooth@Devices@Windows@@@Concurrency@@@Z@4@@Z 10035dd0 f i _nodert_generated.obj
 0001:00034e50       ??1?$_Func_class@EV?$task@P$AAVGattDeviceServicesResult@GenericAttributeProfile@Bluetooth@Devices@Windows@@@Concurrency@@@std@@QAE@XZ 10035e50 f i _nodert_generated.obj
 0001:00034e50       ??1?$function@$$A6AEV?$task@P$AAVGattDeviceServicesResult@GenericAttributeProfile@Bluetooth@Devices@Windows@@@Concurrency@@@Z@std@@QAE@XZ 10035e50 f i _nodert_generated.obj
 0001:00034ea0       ?_Perform@?$_Continuation_func_transformer@V?$task@P$AAVGattDeviceServicesResult@GenericAttributeProfile@Bluetooth@Devices@Windows@@@Concurrency@@X@Concurrency@@SA?AV?$function@$$A6AEV?$task@P$AAVGattDeviceServicesResult@GenericAttributeProfile@Bluetooth@Devices@Windows@@@Concurrency@@@Z@std@@V?$function@$$A6AXV?$task@P$AAVGattDeviceServicesResult@GenericAttributeProfile@Bluetooth@Devices@Windows@@@Concurrency@@@Z@4@@Z 10035ea0 f i _nodert_generated.obj
 0001:00034f20       ??1?$_Func_class@EV?$task@P$AAVBluetoothLEDevice@Bluetooth@Devices@Windows@@@Concurrency@@@std@@QAE@XZ 10035f20 f i _nodert_generated.obj
 0001:00034f20       ??1?$function@$$A6AEV?$task@P$AAVBluetoothLEDevice@Bluetooth@Devices@Windows@@@Concurrency@@@Z@std@@QAE@XZ 10035f20 f i _nodert_generated.obj
 0001:00034f70       ?_Perform@?$_Continuation_func_transformer@V?$task@P$AAVBluetoothLEDevice@Bluetooth@Devices@Windows@@@Concurrency@@X@Concurrency@@SA?AV?$function@$$A6AEV?$task@P$AAVBluetoothLEDevice@Bluetooth@Devices@Windows@@@Concurrency@@@Z@std@@V?$function@$$A6AXV?$task@P$AAVBluetoothLEDevice@Bluetooth@Devices@Windows@@@Concurrency@@@Z@4@@Z 10035f70 f i _nodert_generated.obj
 0001:00034ff0       ??$make_shared@U?$_Task_impl@P$AAVBluetoothLEDevice@Bluetooth@Devices@Windows@@@details@Concurrency@@AAPAV_CancellationTokenState@23@AAUscheduler_ptr@3@@std@@YA?AV?$shared_ptr@U?$_Task_impl@P$AAVBluetoothLEDevice@Bluetooth@Devices@Windows@@@details@Concurrency@@@0@AAPAV_CancellationTokenState@details@Concurrency@@AAUscheduler_ptr@4@@Z 10035ff0 f i _nodert_generated.obj
 0001:00035090       ??$make_shared@U?$_Task_impl@P$AAVGattDeviceServicesResult@GenericAttributeProfile@Bluetooth@Devices@Windows@@@details@Concurrency@@AAPAV_CancellationTokenState@23@AAUscheduler_ptr@3@@std@@YA?AV?$shared_ptr@U?$_Task_impl@P$AAVGattDeviceServicesResult@GenericAttributeProfile@Bluetooth@Devices@Windows@@@details@Concurrency@@@0@AAPAV_CancellationTokenState@details@Concurrency@@AAUscheduler_ptr@4@@Z 10036090 f i _nodert_generated.obj
 0001:00035130       ??$make_shared@U?$_Task_impl@P$AAVBluetoothDevice@Bluetooth@Devices@Windows@@@details@Concurrency@@AAPAV_CancellationTokenState@23@AAUscheduler_ptr@3@@std@@YA?AV?$shared_ptr@U?$_Task_impl@P$AAVBluetoothDevice@Bluetooth@Devices@Windows@@@details@Concurrency@@@0@AAPAV_CancellationTokenState@details@Concurrency@@AAUscheduler_ptr@4@@Z 10036130 f i _nodert_generated.obj
 0001:000351d0       ??$make_shared@U?$_Task_impl@P$AAVRfcommDeviceServicesResult@Rfcomm@Bluetooth@Devices@Windows@@@details@Concurrency@@AAPAV_CancellationTokenState@23@AAUscheduler_ptr@3@@std@@YA?AV?$shared_ptr@U?$_Task_impl@P$AAVRfcommDeviceServicesResult@Rfcomm@Bluetooth@Devices@Windows@@@details@Concurrency@@@0@AAPAV_CancellationTokenState@details@Concurrency@@AAUscheduler_ptr@4@@Z 100361d0 f i _nodert_generated.obj
 0001:00035270       ??$make_shared@U?$_Task_impl@W4DeviceAccessStatus@Enumeration@Devices@Windows@@@details@Concurrency@@AAPAV_CancellationTokenState@23@AAUscheduler_ptr@3@@std@@YA?AV?$shared_ptr@U?$_Task_impl@W4DeviceAccessStatus@Enumeration@Devices@Windows@@@details@Concurrency@@@0@AAPAV_CancellationTokenState@details@Concurrency@@AAUscheduler_ptr@4@@Z 10036270 f i _nodert_generated.obj
 0001:00035310       ??$make_shared@U?$_Task_impl@P$AAVBluetoothAdapter@Bluetooth@Devices@Windows@@@details@Concurrency@@AAPAV_CancellationTokenState@23@AAUscheduler_ptr@3@@std@@YA?AV?$shared_ptr@U?$_Task_impl@P$AAVBluetoothAdapter@Bluetooth@Devices@Windows@@@details@Concurrency@@@0@AAPAV_CancellationTokenState@details@Concurrency@@AAUscheduler_ptr@4@@Z 10036310 f i _nodert_generated.obj
 0001:000353b0       ??$make_shared@U?$_Task_impl@P$AAVRadio@Radios@Devices@Windows@@@details@Concurrency@@AAPAV_CancellationTokenState@23@AAUscheduler_ptr@3@@std@@YA?AV?$shared_ptr@U?$_Task_impl@P$AAVRadio@Radios@Devices@Windows@@@details@Concurrency@@@0@AAPAV_CancellationTokenState@details@Concurrency@@AAUscheduler_ptr@4@@Z 100363b0 f i _nodert_generated.obj
 0001:00035450       ??$_MakeTToUnitFunc@V?$task@P$AAVBluetoothLEDevice@Bluetooth@Devices@Windows@@@Concurrency@@@details@Concurrency@@YA?AV?$function@$$A6AEV?$task@P$AAVBluetoothLEDevice@Bluetooth@Devices@Windows@@@Concurrency@@@Z@std@@ABV?$function@$$A6AXV?$task@P$AAVBluetoothLEDevice@Bluetooth@Devices@Windows@@@Concurrency@@@Z@3@@Z 10036450 f i _nodert_generated.obj
 0001:000355b0       ??$_MakeTToUnitFunc@V?$task@P$AAVGattDeviceServicesResult@GenericAttributeProfile@Bluetooth@Devices@Windows@@@Concurrency@@@details@Concurrency@@YA?AV?$function@$$A6AEV?$task@P$AAVGattDeviceServicesResult@GenericAttributeProfile@Bluetooth@Devices@Windows@@@Concurrency@@@Z@std@@ABV?$function@$$A6AXV?$task@P$AAVGattDeviceServicesResult@GenericAttributeProfile@Bluetooth@Devices@Windows@@@Concurrency@@@Z@3@@Z 100365b0 f i _nodert_generated.obj
 0001:00035630       ??$_MakeTToUnitFunc@V?$task@P$AAVBluetoothDevice@Bluetooth@Devices@Windows@@@Concurrency@@@details@Concurrency@@YA?AV?$function@$$A6AEV?$task@P$AAVBluetoothDevice@Bluetooth@Devices@Windows@@@Concurrency@@@Z@std@@ABV?$function@$$A6AXV?$task@P$AAVBluetoothDevice@Bluetooth@Devices@Windows@@@Concurrency@@@Z@3@@Z 10036630 f i _nodert_generated.obj
 0001:000356b0       ??$_MakeTToUnitFunc@V?$task@P$AAVRfcommDeviceServicesResult@Rfcomm@Bluetooth@Devices@Windows@@@Concurrency@@@details@Concurrency@@YA?AV?$function@$$A6AEV?$task@P$AAVRfcommDeviceServicesResult@Rfcomm@Bluetooth@Devices@Windows@@@Concurrency@@@Z@std@@ABV?$function@$$A6AXV?$task@P$AAVRfcommDeviceServicesResult@Rfcomm@Bluetooth@Devices@Windows@@@Concurrency@@@Z@3@@Z 100366b0 f i _nodert_generated.obj
 0001:00035730       ??$_MakeTToUnitFunc@V?$task@W4DeviceAccessStatus@Enumeration@Devices@Windows@@@Concurrency@@@details@Concurrency@@YA?AV?$function@$$A6AEV?$task@W4DeviceAccessStatus@Enumeration@Devices@Windows@@@Concurrency@@@Z@std@@ABV?$function@$$A6AXV?$task@W4DeviceAccessStatus@Enumeration@Devices@Windows@@@Concurrency@@@Z@3@@Z 10036730 f i _nodert_generated.obj
 0001:000357b0       ??$_MakeTToUnitFunc@V?$task@P$AAVBluetoothAdapter@Bluetooth@Devices@Windows@@@Concurrency@@@details@Concurrency@@YA?AV?$function@$$A6AEV?$task@P$AAVBluetoothAdapter@Bluetooth@Devices@Windows@@@Concurrency@@@Z@std@@ABV?$function@$$A6AXV?$task@P$AAVBluetoothAdapter@Bluetooth@Devices@Windows@@@Concurrency@@@Z@3@@Z 100367b0 f i _nodert_generated.obj
 0001:00035830       ??$_MakeTToUnitFunc@V?$task@P$AAVRadio@Radios@Devices@Windows@@@Concurrency@@@details@Concurrency@@YA?AV?$function@$$A6AEV?$task@P$AAVRadio@Radios@Devices@Windows@@@Concurrency@@@Z@std@@ABV?$function@$$A6AXV?$task@P$AAVRadio@Radios@Devices@Windows@@@Concurrency@@@Z@3@@Z 10036830 f i _nodert_generated.obj
 0001:00035a80       ?_Delete_this@?$_Func_impl@V<lambda_aabaacc002fde96bfbc91e142e053487>@@V?$allocator@H@std@@X$$V@std@@EAEX_N@Z 10036a80 f i _nodert_generated.obj
 0001:00035a80       ?_Delete_this@?$_Func_impl@V<lambda_aab2ebd78256abe6d7eb9e9ef0ce6177>@@V?$allocator@H@std@@X$$V@std@@EAEX_N@Z 10036a80 f i _nodert_generated.obj
 0001:00035a80       ?_Delete_this@?$_Func_impl@V<lambda_e42415e4bfc0c1c1903973909de48f28>@@V?$allocator@H@std@@X$$V@std@@EAEX_N@Z 10036a80 f i _nodert_generated.obj
 0001:00035a80       ?_Delete_this@?$_Func_impl@V<lambda_5c2735fbe729f4d0beeee30411374ac3>@@V?$allocator@H@std@@X$$V@std@@EAEX_N@Z 10036a80 f i _nodert_generated.obj
 0001:00035a80       ?_Delete_this@?$_Func_impl@V<lambda_bead7dddc6d9b72bee4bc5b66d9b15d6>@@V?$allocator@H@std@@X$$V@std@@EAEX_N@Z 10036a80 f i _nodert_generated.obj
 0001:00035a80       ?_Delete_this@?$_Func_impl@V<lambda_a8e7bd0a308934cd3ace874a75b49998>@@V?$allocator@H@std@@X$$V@std@@EAEX_N@Z 10036a80 f i _nodert_generated.obj
 0001:00035a80       ?_Delete_this@?$_Func_impl@V<lambda_0456396a71e3abd88ede77bdd2823d8e>@@V?$allocator@H@std@@X$$V@std@@EAEX_N@Z 10036a80 f i _nodert_generated.obj
 0001:00035a80       ?_Delete_this@?$_Func_impl@V<lambda_91ad9afadcffe71200cd6cf450d50e17>@@V?$allocator@H@std@@X$$V@std@@EAEX_N@Z 10036a80 f i _nodert_generated.obj
 0001:00035a80       ?_Delete_this@?$_Func_impl@V<lambda_4e914b1469c3aefd416421ad96660547>@@V?$allocator@H@std@@X$$V@std@@EAEX_N@Z 10036a80 f i _nodert_generated.obj
 0001:00035a80       ?_Delete_this@?$_Func_impl@V<lambda_1ee62a0db51ecb8c20d150c88a2ca072>@@V?$allocator@H@std@@X$$V@std@@EAEX_N@Z 10036a80 f i _nodert_generated.obj
 0001:00035a80       ?_Delete_this@?$_Func_impl@V<lambda_d3d9b92f44ebadb5ee1549c9e26a3e77>@@V?$allocator@H@std@@X$$V@std@@EAEX_N@Z 10036a80 f i _nodert_generated.obj
 0001:00035a80       ?_Delete_this@?$_Func_impl@V<lambda_7e3d6834ea73197fdf17902cbe71f633>@@V?$allocator@H@std@@X$$V@std@@EAEX_N@Z 10036a80 f i _nodert_generated.obj
 0001:00035a80       ?_Delete_this@?$_Func_impl@V<lambda_df1945beffcb083a7bf4478b72a3c872>@@V?$allocator@H@std@@X$$V@std@@EAEX_N@Z 10036a80 f i _nodert_generated.obj
 0001:00035a80       ?_Delete_this@?$_Func_impl@V<lambda_0f851f59cc213dd96b42bba8df22669a>@@V?$allocator@H@std@@X$$V@std@@EAEX_N@Z 10036a80 f i _nodert_generated.obj
 0001:00035a80       ?_Delete_this@?$_Func_impl@V<lambda_2115abd8794008df6b65a528e9ce87dd>@@V?$allocator@H@std@@X$$V@std@@EAEX_N@Z 10036a80 f i _nodert_generated.obj
 0001:00035aa0       ?_Get@?$_Func_impl@V<lambda_acabef03453c5d7452ff36946e434048>@@V?$allocator@H@std@@X$$V@std@@EBEPBXXZ 10036aa0 f i _nodert_generated.obj
 0001:00035aa0       ?_Get@?$_Func_impl@V<lambda_43409595a9ec3d3c6305ecd0b2be6ffb>@@V?$allocator@H@std@@_NV?$Local@VValue@v8@@@v8@@@std@@EBEPBXXZ 10036aa0 f i _nodert_generated.obj
 0001:00035aa0       ?_Get@?$_Func_impl@V<lambda_ad54f25efe834c8863be8e55d55ceb51>@@V?$allocator@H@std@@XV?$function@$$A6AXHPAV?$Local@VValue@v8@@@v8@@@Z@3@@std@@EBEPBXXZ 10036aa0 f i _nodert_generated.obj
 0001:00035aa0       ?_Get@?$_Func_impl@V<lambda_df1945beffcb083a7bf4478b72a3c872>@@V?$allocator@H@std@@X$$V@std@@EBEPBXXZ 10036aa0 f i _nodert_generated.obj
 0001:00035aa0       ?_Get@?$_Func_impl@V<lambda_be75d5fea2a84d65e08b7b948640c5d3>@@V?$allocator@H@std@@XV?$function@$$A6AXHPAV?$Local@VValue@v8@@@v8@@@Z@3@@std@@EBEPBXXZ 10036aa0 f i _nodert_generated.obj
 0001:00035aa0       ?_Get@?$_Func_impl@V<lambda_3de740e13969e2b8a3ac1e24d37ecf1e>@@V?$allocator@H@std@@XV?$function@$$A6AXHPAV?$Local@VValue@v8@@@v8@@@Z@3@@std@@EBEPBXXZ 10036aa0 f i _nodert_generated.obj
 0001:00035aa0       ?_Get@?$_Func_impl@V<lambda_5ec53a2f3b8c40fcfce1c97e868d4a76>@@V?$allocator@H@std@@XV?$task@P$AAVBluetoothAdapter@Bluetooth@Devices@Windows@@@Concurrency@@@std@@EBEPBXXZ 10036aa0 f i _nodert_generated.obj
 0001:00035aa0       ?_Get@?$_Func_impl@V<lambda_4e914b1469c3aefd416421ad96660547>@@V?$allocator@H@std@@X$$V@std@@EBEPBXXZ 10036aa0 f i _nodert_generated.obj
 0001:00035aa0       ?_Get@?$_Func_impl@V<lambda_7ff700b370056163c5ea4d7b4b5a67be>@@V?$allocator@H@std@@X$$V@std@@EBEPBXXZ 10036aa0 f i _nodert_generated.obj
 0001:00035aa0       ?_Get@?$_Func_impl@V<lambda_5c2735fbe729f4d0beeee30411374ac3>@@V?$allocator@H@std@@X$$V@std@@EBEPBXXZ 10036aa0 f i _nodert_generated.obj
 0001:00035aa0       ?_Get@?$_Func_impl@V<lambda_262dc18221bbebaf5c9d902693b8c78e>@@V?$allocator@H@std@@XV?$function@$$A6AXHPAV?$Local@VValue@v8@@@v8@@@Z@3@@std@@EBEPBXXZ 10036aa0 f i _nodert_generated.obj
 0001:00035aa0       ?_Get@?$_Func_impl@V<lambda_69beb62467a038c376c709c65cfdcf60>@@V?$allocator@H@std@@V?$Local@VValue@v8@@@v8@@P$AAUIBuffer@Streams@Storage@Windows@@@std@@EBEPBXXZ 10036aa0 f i _nodert_generated.obj
 0001:00035aa0       ?_Get@?$_Func_impl@V<lambda_cdd1f60660fdf3ea982e929d08ad3045>@@V?$allocator@H@std@@XV?$task@P$AAVGattDeviceServicesResult@GenericAttributeProfile@Bluetooth@Devices@Windows@@@Concurrency@@@std@@EBEPBXXZ 10036aa0 f i _nodert_generated.obj
 0001:00035aa0       ?_Get@?$_Func_impl@V<lambda_e274403a9a3c76a94c80f22710ef3033>@@V?$allocator@H@std@@XV?$function@$$A6AXHPAV?$Local@VValue@v8@@@v8@@@Z@3@@std@@EBEPBXXZ 10036aa0 f i _nodert_generated.obj
 0001:00035aa0       ?_Get@?$_Func_impl@V<lambda_499991dc379cdd966d05446e4c24e079>@@V?$allocator@H@std@@X$$V@std@@EBEPBXXZ 10036aa0 f i _nodert_generated.obj
 0001:00035aa0       ?_Get@?$_Func_impl@V<lambda_e8c606f4a354d9274c0c416c6b42ad06>@@V?$allocator@H@std@@XV?$task@P$AAVBluetoothLEDevice@Bluetooth@Devices@Windows@@@Concurrency@@@std@@EBEPBXXZ 10036aa0 f i _nodert_generated.obj
 0001:00035aa0       ?_Get@?$_Func_impl@V<lambda_9b07747e2608eab745e1d48b0ade56b8>@@V?$allocator@H@std@@XV?$function@$$A6AXHPAV?$Local@VValue@v8@@@v8@@@Z@3@@std@@EBEPBXXZ 10036aa0 f i _nodert_generated.obj
 0001:00035aa0       ?_Get@?$_Func_impl@V<lambda_c0b2bbf4a71c8527bc0a2d5b6d9db5f6>@@V?$allocator@H@std@@XV?$task@P$AAVBluetoothDevice@Bluetooth@Devices@Windows@@@Concurrency@@@std@@EBEPBXXZ 10036aa0 f i _nodert_generated.obj
 0001:00035aa0       ?_Get@?$_Func_impl@V<lambda_bce598ee05d3af566a8b68421ce1dd37>@@V?$allocator@H@std@@XV?$function@$$A6AXHPAV?$Local@VValue@v8@@@v8@@@Z@3@@std@@EBEPBXXZ 10036aa0 f i _nodert_generated.obj
 0001:00035aa0       ?_Get@?$_Func_impl@V<lambda_1c0e9084657b5b5aae2add7f023fe44a>@@V?$allocator@H@std@@P$AAUIBuffer@Streams@Storage@Windows@@V?$Local@VValue@v8@@@v8@@@std@@EBEPBXXZ 10036aa0 f i _nodert_generated.obj
 0001:00035aa0       ?_Get@?$_Func_impl@V<lambda_418da4fc7fd2d4ca75e49519a55b40b1>@@V?$allocator@H@std@@XV?$function@$$A6AXHPAV?$Local@VValue@v8@@@v8@@@Z@3@@std@@EBEPBXXZ 10036aa0 f i _nodert_generated.obj
 0001:00035aa0       ?_Get@?$_Func_impl@V<lambda_ecb9dd0ae37e39021795d8045ef0ac04>@@V?$allocator@H@std@@XV?$function@$$A6AXHPAV?$Local@VValue@v8@@@v8@@@Z@3@@std@@EBEPBXXZ 10036aa0 f i _nodert_generated.obj
 0001:00035aa0       ?_Get@?$_Func_impl@V<lambda_747ec3eb3a097e44df54679908ea0d09>@@V?$allocator@H@std@@XV?$task@P$AAVRadio@Radios@Devices@Windows@@@Concurrency@@@std@@EBEPBXXZ 10036aa0 f i _nodert_generated.obj
 0001:00035aa0       ?_Get@?$_Func_impl@V<lambda_0a965d69dad08e8c30c0d6726b1285f8>@@V?$allocator@H@std@@XV?$function@$$A6AXHPAV?$Local@VValue@v8@@@v8@@@Z@3@@std@@EBEPBXXZ 10036aa0 f i _nodert_generated.obj
 0001:00035aa0       ?_Get@?$_Func_impl@V<lambda_7caa66d77ce1eb9e319528262512f2de>@@V?$allocator@H@std@@XV?$function@$$A6AXHPAV?$Local@VValue@v8@@@v8@@@Z@3@@std@@EBEPBXXZ 10036aa0 f i _nodert_generated.obj
 0001:00035aa0       ?_Get@?$_Func_impl@V<lambda_2115abd8794008df6b65a528e9ce87dd>@@V?$allocator@H@std@@X$$V@std@@EBEPBXXZ 10036aa0 f i _nodert_generated.obj
 0001:00035aa0       ?_Get@?$_Func_impl@V<lambda_79b8a5eb52f9bfa95275c321739a91a0>@@V?$allocator@H@std@@X$$V@std@@EBEPBXXZ 10036aa0 f i _nodert_generated.obj
 0001:00035aa0       ?_Get@?$_Func_impl@V<lambda_6b344b9f416cbf271c606b5f43372795>@@V?$allocator@H@std@@XV?$function@$$A6AXHPAV?$Local@VValue@v8@@@v8@@@Z@3@@std@@EBEPBXXZ 10036aa0 f i _nodert_generated.obj
 0001:00035aa0       ?_Get@?$_Func_impl@V<lambda_d8fb6bded5a33607e87380aecfede953>@@V?$allocator@H@std@@X$$V@std@@EBEPBXXZ 10036aa0 f i _nodert_generated.obj
 0001:00035aa0       ?_Get@?$_Func_impl@V<lambda_aab2ebd78256abe6d7eb9e9ef0ce6177>@@V?$allocator@H@std@@X$$V@std@@EBEPBXXZ 10036aa0 f i _nodert_generated.obj
 0001:00035aa0       ?_Get@?$_Func_impl@V<lambda_938fa980b0b5f876be0458d9a1d6acb0>@@V?$allocator@H@std@@XHPAV?$Local@VValue@v8@@@v8@@@std@@EBEPBXXZ 10036aa0 f i _nodert_generated.obj
 0001:00035aa0       ?_Get@?$_Func_impl@V<lambda_14f1f715b558ff3f1896f1a2d375bd61>@@V?$allocator@H@std@@XV?$function@$$A6AXHPAV?$Local@VValue@v8@@@v8@@@Z@3@@std@@EBEPBXXZ 10036aa0 f i _nodert_generated.obj
 0001:00035aa0       ?_Get@?$_Func_impl@V<lambda_5f3b583570c66db5ec790701141b29d1>@@V?$allocator@H@std@@P$AAVRfcommDeviceService@Rfcomm@Bluetooth@Devices@Windows@@V?$Local@VValue@v8@@@v8@@@std@@EBEPBXXZ 10036aa0 f i _nodert_generated.obj
 0001:00035aa0       ?_Get@?$_Func_impl@V<lambda_95a33bc271dcb0aacb259968d44ea12d>@@V?$allocator@H@std@@XV?$task@P$AAVBluetoothLEDevice@Bluetooth@Devices@Windows@@@Concurrency@@@std@@EBEPBXXZ 10036aa0 f i _nodert_generated.obj
 0001:00035aa0       ?_Get@?$_Func_impl@V<lambda_c67692e49665ca78d5770ac62b32390b>@@V?$allocator@H@std@@XV?$task@P$AAVBluetoothDevice@Bluetooth@Devices@Windows@@@Concurrency@@@std@@EBEPBXXZ 10036aa0 f i _nodert_generated.obj
 0001:00035aa0       ?_Get@?$_Func_impl@V<lambda_11d52c4e8e039308584b1c6301bf3129>@@V?$allocator@H@std@@X$$V@std@@EBEPBXXZ 10036aa0 f i _nodert_generated.obj
 0001:00035aa0       ?_Get@?$_Func_impl@V<lambda_74e29896e65e0b0ea397316bdaa40b7e>@@V?$allocator@H@std@@_NV?$Local@VValue@v8@@@v8@@@std@@EBEPBXXZ 10036aa0 f i _nodert_generated.obj
 0001:00035aa0       ?_Get@?$_Func_impl@V<lambda_25051fbfe6c38c7d30193c2fb9fc5459>@@V?$allocator@H@std@@XV?$function@$$A6AXHPAV?$Local@VValue@v8@@@v8@@@Z@3@@std@@EBEPBXXZ 10036aa0 f i _nodert_generated.obj
 0001:00035aa0       ?_Get@?$_Func_impl@V<lambda_a422017cc2cb3ea9ea84dc6f3397536e>@@V?$allocator@H@std@@XV?$task@P$AAVBluetoothDevice@Bluetooth@Devices@Windows@@@Concurrency@@@std@@EBEPBXXZ 10036aa0 f i _nodert_generated.obj
 0001:00035aa0       ?_Get@?$_Func_impl@V<lambda_187bfff809842edec62074d62b22b32f>@@V?$allocator@H@std@@XV?$function@$$A6AXHPAV?$Local@VValue@v8@@@v8@@@Z@3@@std@@EBEPBXXZ 10036aa0 f i _nodert_generated.obj
 0001:00035aa0       ?_Get@?$_Func_impl@V<lambda_4f93c2a5cc8661f1894fa0a15cd0c840>@@V?$allocator@H@std@@X$$V@std@@EBEPBXXZ 10036aa0 f i _nodert_generated.obj
 0001:00035aa0       ?_Get@?$_Func_impl@V<lambda_ddc783f4c1398e092806cb9237aa3654>@@V?$allocator@H@std@@XV?$task@P$AAVRfcommDeviceServicesResult@Rfcomm@Bluetooth@Devices@Windows@@@Concurrency@@@std@@EBEPBXXZ 10036aa0 f i _nodert_generated.obj
 0001:00035aa0       ?_Get@?$_Func_impl@V<lambda_5c4cb274c5425512d281ab7a425ca5eb>@@V?$allocator@H@std@@_NV?$Local@VValue@v8@@@v8@@@std@@EBEPBXXZ 10036aa0 f i _nodert_generated.obj
 0001:00035aa0       ?_Get@?$_Func_impl@V<lambda_0456396a71e3abd88ede77bdd2823d8e>@@V?$allocator@H@std@@X$$V@std@@EBEPBXXZ 10036aa0 f i _nodert_generated.obj
 0001:00035aa0       ?_Get@?$_Func_impl@V<lambda_91ad9afadcffe71200cd6cf450d50e17>@@V?$allocator@H@std@@X$$V@std@@EBEPBXXZ 10036aa0 f i _nodert_generated.obj
 0001:00035aa0       ?_Get@?$_Func_impl@V<lambda_28386656da5c779c164d4e8f3ced1c51>@@V?$allocator@H@std@@XV?$function@$$A6AXHPAV?$Local@VValue@v8@@@v8@@@Z@3@@std@@EBEPBXXZ 10036aa0 f i _nodert_generated.obj
 0001:00035aa0       ?_Get@?$_Func_impl@V<lambda_4ef9722db020cc44c324cd40b412edef>@@V?$allocator@H@std@@XV?$function@$$A6AXHPAV?$Local@VValue@v8@@@v8@@@Z@3@@std@@EBEPBXXZ 10036aa0 f i _nodert_generated.obj
 0001:00035aa0       ?_Get@?$_Func_impl@V<lambda_09c86ff1b6a1cdd4b1c67fc041d113fb>@@V?$allocator@H@std@@XV?$task@W4DeviceAccessStatus@Enumeration@Devices@Windows@@@Concurrency@@@std@@EBEPBXXZ 10036aa0 f i _nodert_generated.obj
 0001:00035aa0       ?_Get@?$_Func_impl@V<lambda_d3d9b92f44ebadb5ee1549c9e26a3e77>@@V?$allocator@H@std@@X$$V@std@@EBEPBXXZ 10036aa0 f i _nodert_generated.obj
 0001:00035aa0       ?_Get@?$_Func_impl@V<lambda_f08ec446ca8b33299a4e48e3172e9b8c>@@V?$allocator@H@std@@X$$V@std@@EBEPBXXZ 10036aa0 f i _nodert_generated.obj
 0001:00035aa0       ?_Get@?$_Func_impl@V<lambda_303346c6205280f0400a0a4337cb6f94>@@V?$allocator@H@std@@XV?$function@$$A6AXHPAV?$Local@VValue@v8@@@v8@@@Z@3@@std@@EBEPBXXZ 10036aa0 f i _nodert_generated.obj
 0001:00035aa0       ?_Get@?$_Func_impl@V<lambda_aabaacc002fde96bfbc91e142e053487>@@V?$allocator@H@std@@X$$V@std@@EBEPBXXZ 10036aa0 f i _nodert_generated.obj
 0001:00035aa0       ?_Get@?$_Func_impl@V<lambda_6145d2349ddbc560c26b9810f6eb6315>@@V?$allocator@H@std@@XV?$function@$$A6AXHPAV?$Local@VValue@v8@@@v8@@@Z@3@@std@@EBEPBXXZ 10036aa0 f i _nodert_generated.obj
 0001:00035aa0       ?_Get@?$_Func_impl@V<lambda_4bc8cb4ab5790b6f4049bea13d735bbb>@@V?$allocator@H@std@@XV?$function@$$A6AXHPAV?$Local@VValue@v8@@@v8@@@Z@3@@std@@EBEPBXXZ 10036aa0 f i _nodert_generated.obj
 0001:00035aa0       ?_Get@?$_Func_impl@V<lambda_7e3d6834ea73197fdf17902cbe71f633>@@V?$allocator@H@std@@X$$V@std@@EBEPBXXZ 10036aa0 f i _nodert_generated.obj
 0001:00035aa0       ?_Get@?$_Func_impl@V<lambda_59389d5c5c04822e8fbd05aa862dcce0>@@V?$allocator@H@std@@X$$V@std@@EBEPBXXZ 10036aa0 f i _nodert_generated.obj
 0001:00035aa0       ?_Get@?$_Func_impl@V<lambda_d73df75e068ac21414fb299eee9ee9d4>@@V?$allocator@H@std@@XV?$function@$$A6AXHPAV?$Local@VValue@v8@@@v8@@@Z@3@@std@@EBEPBXXZ 10036aa0 f i _nodert_generated.obj
 0001:00035aa0       ?_Get@?$_Func_impl@V<lambda_b86b2a0148a1d5e4b4569c5430b449d8>@@V?$allocator@H@std@@XV?$task@P$AAVRfcommDeviceServicesResult@Rfcomm@Bluetooth@Devices@Windows@@@Concurrency@@@std@@EBEPBXXZ 10036aa0 f i _nodert_generated.obj
 0001:00035aa0       ?_Get@?$_Func_impl@V<lambda_a8e7bd0a308934cd3ace874a75b49998>@@V?$allocator@H@std@@X$$V@std@@EBEPBXXZ 10036aa0 f i _nodert_generated.obj
 0001:00035aa0       ?_Get@?$_Func_impl@V<lambda_e42415e4bfc0c1c1903973909de48f28>@@V?$allocator@H@std@@X$$V@std@@EBEPBXXZ 10036aa0 f i _nodert_generated.obj
 0001:00035aa0       ?_Get@?$_Func_impl@V<lambda_18e6cab7d1ade338b0bade6a66c837c9>@@V?$allocator@H@std@@XV?$function@$$A6AXHPAV?$Local@VValue@v8@@@v8@@@Z@3@@std@@EBEPBXXZ 10036aa0 f i _nodert_generated.obj
 0001:00035aa0       ?_Get@?$_Func_impl@V<lambda_dbe60ed01c1e3c76a597f3af09957bae>@@V?$allocator@H@std@@XV?$function@$$A6AXHPAV?$Local@VValue@v8@@@v8@@@Z@3@@std@@EBEPBXXZ 10036aa0 f i _nodert_generated.obj
 0001:00035aa0       ?_Get@?$_Func_impl@V<lambda_14856f1fb561633bcb84ffea98dfce42>@@V?$allocator@H@std@@XV?$function@$$A6AXHPAV?$Local@VValue@v8@@@v8@@@Z@3@@std@@EBEPBXXZ 10036aa0 f i _nodert_generated.obj
 0001:00035aa0       ?_Get@?$_Func_impl@V<lambda_f329010e8d11ed93906f9193b952fa00>@@V?$allocator@H@std@@V?$Local@VValue@v8@@@v8@@P$AAVRfcommDeviceService@Rfcomm@Bluetooth@Devices@Windows@@@std@@EBEPBXXZ 10036aa0 f i _nodert_generated.obj
 0001:00035aa0       ?_Get@?$_Func_impl@V<lambda_3c7e7bb64bd06e7f524fe91a071b8c93>@@V?$allocator@H@std@@P$AAVGattDeviceService@GenericAttributeProfile@Bluetooth@Devices@Windows@@V?$Local@VValue@v8@@@v8@@@std@@EBEPBXXZ 10036aa0 f i _nodert_generated.obj
 0001:00035aa0       ?_Get@?$_Func_impl@V<lambda_5e5ab22ea98f4361dbf159481d01f54d>@@V?$allocator@H@std@@X$$V@std@@EBEPBXXZ 10036aa0 f i _nodert_generated.obj
 0001:00035aa0       ?_Get@?$_Func_impl@V<lambda_bead7dddc6d9b72bee4bc5b66d9b15d6>@@V?$allocator@H@std@@X$$V@std@@EBEPBXXZ 10036aa0 f i _nodert_generated.obj
 0001:00035aa0       ?_Get@?$_Func_impl@V<lambda_17692cdfbcd492d685873501f5a0a200>@@V?$allocator@H@std@@XV?$task@P$AAVGattDeviceServicesResult@GenericAttributeProfile@Bluetooth@Devices@Windows@@@Concurrency@@@std@@EBEPBXXZ 10036aa0 f i _nodert_generated.obj
 0001:00035aa0       ?_Get@?$_Func_impl@V<lambda_b178835706b8fe80973af7c915c5e45f>@@V?$allocator@H@std@@X$$V@std@@EBEPBXXZ 10036aa0 f i _nodert_generated.obj
 0001:00035aa0       ?_Get@?$_Func_impl@V<lambda_ce186e95416a375dc50e4d51deb0226a>@@V?$allocator@H@std@@XV?$function@$$A6AXHPAV?$Local@VValue@v8@@@v8@@@Z@3@@std@@EBEPBXXZ 10036aa0 f i _nodert_generated.obj
 0001:00035aa0       ?_Get@?$_Func_impl@V<lambda_4779ea09785d47ce6b74ad0b9641d6a3>@@V?$allocator@H@std@@X$$V@std@@EBEPBXXZ 10036aa0 f i _nodert_generated.obj
 0001:00035aa0       ?_Get@?$_Func_impl@V<lambda_e4fa91270f620c683eb90f5221d569b3>@@V?$allocator@H@std@@XV?$task@W4DeviceAccessStatus@Enumeration@Devices@Windows@@@Concurrency@@@std@@EBEPBXXZ 10036aa0 f i _nodert_generated.obj
 0001:00035aa0       ?_Get@?$_Func_impl@V<lambda_1ee62a0db51ecb8c20d150c88a2ca072>@@V?$allocator@H@std@@X$$V@std@@EBEPBXXZ 10036aa0 f i _nodert_generated.obj
 0001:00035aa0       ?_Get@?$_Func_impl@V<lambda_fcae90260632ca601fce10b1a87b1d76>@@V?$allocator@H@std@@XV?$function@$$A6AXHPAV?$Local@VValue@v8@@@v8@@@Z@3@@std@@EBEPBXXZ 10036aa0 f i _nodert_generated.obj
 0001:00035aa0       ?_Get@?$_Func_impl@V<lambda_c4db4e9d2e2b6fb83e3dbdcbe44e9bab>@@V?$allocator@H@std@@V?$Local@VValue@v8@@@v8@@P$AAVGattDeviceService@GenericAttributeProfile@Bluetooth@Devices@Windows@@@std@@EBEPBXXZ 10036aa0 f i _nodert_generated.obj
 0001:00035aa0       ?_Get@?$_Func_impl@V<lambda_163447debca1a99374464820a5cb87b2>@@V?$allocator@H@std@@X$$V@std@@EBEPBXXZ 10036aa0 f i _nodert_generated.obj
 0001:00035aa0       ?_Get@?$_Func_impl@V<lambda_b301bd98ae2fed6582e1efada6fc5ceb>@@V?$allocator@H@std@@XV?$task@P$AAVBluetoothAdapter@Bluetooth@Devices@Windows@@@Concurrency@@@std@@EBEPBXXZ 10036aa0 f i _nodert_generated.obj
 0001:00035aa0       ?_Get@?$_Func_impl@V<lambda_0f851f59cc213dd96b42bba8df22669a>@@V?$allocator@H@std@@X$$V@std@@EBEPBXXZ 10036aa0 f i _nodert_generated.obj
 0001:00035aa0       ?_Get@?$_Func_impl@V<lambda_85324de540444b6fadd78ae5974fe4b9>@@V?$allocator@H@std@@XV?$function@$$A6AXHPAV?$Local@VValue@v8@@@v8@@@Z@3@@std@@EBEPBXXZ 10036aa0 f i _nodert_generated.obj
 0001:00035aa0       ?_Get@?$_Func_impl@V<lambda_f72c7d94d1b4205e6643f6e601058a4c>@@V?$allocator@H@std@@XV?$function@$$A6AXHPAV?$Local@VValue@v8@@@v8@@@Z@3@@std@@EBEPBXXZ 10036aa0 f i _nodert_generated.obj
 0001:00035aa0       ?_Get@?$_Func_impl@V<lambda_21245c7ce8f5fddc838816d351bb245c>@@V?$allocator@H@std@@X$$V@std@@EBEPBXXZ 10036aa0 f i _nodert_generated.obj
 0001:00035aa0       ?_Get@?$_Func_impl@V<lambda_47f361ef028abbee84897a6b0d975796>@@V?$allocator@H@std@@_NV?$Local@VValue@v8@@@v8@@@std@@EBEPBXXZ 10036aa0 f i _nodert_generated.obj
 0001:00035ab0       ?_Target_type@?$_Func_impl@V<lambda_2115abd8794008df6b65a528e9ce87dd>@@V?$allocator@H@std@@X$$V@std@@EBEABVtype_info@@XZ 10036ab0 f i _nodert_generated.obj
 0001:00035ac0       ?_Do_call@?$_Func_impl@V<lambda_aabaacc002fde96bfbc91e142e053487>@@V?$allocator@H@std@@X$$V@std@@EAEXXZ 10036ac0 f i _nodert_generated.obj
 0001:00035ac0       ?_Do_call@?$_Func_impl@V<lambda_d3d9b92f44ebadb5ee1549c9e26a3e77>@@V?$allocator@H@std@@X$$V@std@@EAEXXZ 10036ac0 f i _nodert_generated.obj
 0001:00035ac0       ?_Do_call@?$_Func_impl@V<lambda_bead7dddc6d9b72bee4bc5b66d9b15d6>@@V?$allocator@H@std@@X$$V@std@@EAEXXZ 10036ac0 f i _nodert_generated.obj
 0001:00035ac0       ?_Do_call@?$_Func_impl@V<lambda_0456396a71e3abd88ede77bdd2823d8e>@@V?$allocator@H@std@@X$$V@std@@EAEXXZ 10036ac0 f i _nodert_generated.obj
 0001:00035ac0       ?_Do_call@?$_Func_impl@V<lambda_e42415e4bfc0c1c1903973909de48f28>@@V?$allocator@H@std@@X$$V@std@@EAEXXZ 10036ac0 f i _nodert_generated.obj
 0001:00035ac0       ?_Do_call@?$_Func_impl@V<lambda_91ad9afadcffe71200cd6cf450d50e17>@@V?$allocator@H@std@@X$$V@std@@EAEXXZ 10036ac0 f i _nodert_generated.obj
 0001:00035ac0       ?_Do_call@?$_Func_impl@V<lambda_2115abd8794008df6b65a528e9ce87dd>@@V?$allocator@H@std@@X$$V@std@@EAEXXZ 10036ac0 f i _nodert_generated.obj
 0001:00035ac0       ?_Do_call@?$_Func_impl@V<lambda_a8e7bd0a308934cd3ace874a75b49998>@@V?$allocator@H@std@@X$$V@std@@EAEXXZ 10036ac0 f i _nodert_generated.obj
 0001:00035ad0       ?_Copy@?$_Func_impl@V<lambda_2115abd8794008df6b65a528e9ce87dd>@@V?$allocator@H@std@@X$$V@std@@EBEPAV?$_Func_base@X$$V@2@PAX@Z 10036ad0 f i _nodert_generated.obj
 0001:00035ad0       ?_Move@?$_Func_impl@V<lambda_2115abd8794008df6b65a528e9ce87dd>@@V?$allocator@H@std@@X$$V@std@@EAEPAV?$_Func_base@X$$V@2@PAX@Z 10036ad0 f i _nodert_generated.obj
 0001:00035af0       ?_Target_type@?$_Func_impl@V<lambda_d3d9b92f44ebadb5ee1549c9e26a3e77>@@V?$allocator@H@std@@X$$V@std@@EBEABVtype_info@@XZ 10036af0 f i _nodert_generated.obj
 0001:00035b00       ?_Copy@?$_Func_impl@V<lambda_d3d9b92f44ebadb5ee1549c9e26a3e77>@@V?$allocator@H@std@@X$$V@std@@EBEPAV?$_Func_base@X$$V@2@PAX@Z 10036b00 f i _nodert_generated.obj
 0001:00035b00       ?_Move@?$_Func_impl@V<lambda_d3d9b92f44ebadb5ee1549c9e26a3e77>@@V?$allocator@H@std@@X$$V@std@@EAEPAV?$_Func_base@X$$V@2@PAX@Z 10036b00 f i _nodert_generated.obj
 0001:00035b20       ?_Target_type@?$_Func_impl@V<lambda_aabaacc002fde96bfbc91e142e053487>@@V?$allocator@H@std@@X$$V@std@@EBEABVtype_info@@XZ 10036b20 f i _nodert_generated.obj
 0001:00035b30       ?_Copy@?$_Func_impl@V<lambda_aabaacc002fde96bfbc91e142e053487>@@V?$allocator@H@std@@X$$V@std@@EBEPAV?$_Func_base@X$$V@2@PAX@Z 10036b30 f i _nodert_generated.obj
 0001:00035b30       ?_Move@?$_Func_impl@V<lambda_aabaacc002fde96bfbc91e142e053487>@@V?$allocator@H@std@@X$$V@std@@EAEPAV?$_Func_base@X$$V@2@PAX@Z 10036b30 f i _nodert_generated.obj
 0001:00035b50       ?_Target_type@?$_Func_impl@V<lambda_91ad9afadcffe71200cd6cf450d50e17>@@V?$allocator@H@std@@X$$V@std@@EBEABVtype_info@@XZ 10036b50 f i _nodert_generated.obj
 0001:00035b60       ?_Move@?$_Func_impl@V<lambda_91ad9afadcffe71200cd6cf450d50e17>@@V?$allocator@H@std@@X$$V@std@@EAEPAV?$_Func_base@X$$V@2@PAX@Z 10036b60 f i _nodert_generated.obj
 0001:00035b60       ?_Copy@?$_Func_impl@V<lambda_91ad9afadcffe71200cd6cf450d50e17>@@V?$allocator@H@std@@X$$V@std@@EBEPAV?$_Func_base@X$$V@2@PAX@Z 10036b60 f i _nodert_generated.obj
 0001:00035b80       ?_Target_type@?$_Func_impl@V<lambda_bead7dddc6d9b72bee4bc5b66d9b15d6>@@V?$allocator@H@std@@X$$V@std@@EBEABVtype_info@@XZ 10036b80 f i _nodert_generated.obj
 0001:00035b90       ?_Move@?$_Func_impl@V<lambda_bead7dddc6d9b72bee4bc5b66d9b15d6>@@V?$allocator@H@std@@X$$V@std@@EAEPAV?$_Func_base@X$$V@2@PAX@Z 10036b90 f i _nodert_generated.obj
 0001:00035b90       ?_Copy@?$_Func_impl@V<lambda_bead7dddc6d9b72bee4bc5b66d9b15d6>@@V?$allocator@H@std@@X$$V@std@@EBEPAV?$_Func_base@X$$V@2@PAX@Z 10036b90 f i _nodert_generated.obj
 0001:00035bb0       ?_Target_type@?$_Func_impl@V<lambda_e42415e4bfc0c1c1903973909de48f28>@@V?$allocator@H@std@@X$$V@std@@EBEABVtype_info@@XZ 10036bb0 f i _nodert_generated.obj
 0001:00035bc0       ?_Copy@?$_Func_impl@V<lambda_e42415e4bfc0c1c1903973909de48f28>@@V?$allocator@H@std@@X$$V@std@@EBEPAV?$_Func_base@X$$V@2@PAX@Z 10036bc0 f i _nodert_generated.obj
 0001:00035bc0       ?_Move@?$_Func_impl@V<lambda_e42415e4bfc0c1c1903973909de48f28>@@V?$allocator@H@std@@X$$V@std@@EAEPAV?$_Func_base@X$$V@2@PAX@Z 10036bc0 f i _nodert_generated.obj
 0001:00035be0       ?_Target_type@?$_Func_impl@V<lambda_a8e7bd0a308934cd3ace874a75b49998>@@V?$allocator@H@std@@X$$V@std@@EBEABVtype_info@@XZ 10036be0 f i _nodert_generated.obj
 0001:00035bf0       ?_Copy@?$_Func_impl@V<lambda_a8e7bd0a308934cd3ace874a75b49998>@@V?$allocator@H@std@@X$$V@std@@EBEPAV?$_Func_base@X$$V@2@PAX@Z 10036bf0 f i _nodert_generated.obj
 0001:00035bf0       ?_Move@?$_Func_impl@V<lambda_a8e7bd0a308934cd3ace874a75b49998>@@V?$allocator@H@std@@X$$V@std@@EAEPAV?$_Func_base@X$$V@2@PAX@Z 10036bf0 f i _nodert_generated.obj
 0001:00035c10       ?_Target_type@?$_Func_impl@V<lambda_0456396a71e3abd88ede77bdd2823d8e>@@V?$allocator@H@std@@X$$V@std@@EBEABVtype_info@@XZ 10036c10 f i _nodert_generated.obj
 0001:00035c20       ?_Copy@?$_Func_impl@V<lambda_0456396a71e3abd88ede77bdd2823d8e>@@V?$allocator@H@std@@X$$V@std@@EBEPAV?$_Func_base@X$$V@2@PAX@Z 10036c20 f i _nodert_generated.obj
 0001:00035c20       ?_Move@?$_Func_impl@V<lambda_0456396a71e3abd88ede77bdd2823d8e>@@V?$allocator@H@std@@X$$V@std@@EAEPAV?$_Func_base@X$$V@2@PAX@Z 10036c20 f i _nodert_generated.obj
 0001:00035c40       ?_Delete_this@?$_Func_impl@V<lambda_d8fb6bded5a33607e87380aecfede953>@@V?$allocator@H@std@@X$$V@std@@EAEX_N@Z 10036c40 f i _nodert_generated.obj
 0001:00035ce0       ?_Target_type@?$_Func_impl@V<lambda_d8fb6bded5a33607e87380aecfede953>@@V?$allocator@H@std@@X$$V@std@@EBEABVtype_info@@XZ 10036ce0 f i _nodert_generated.obj
 0001:00035cf0       ?_Do_call@?$_Func_impl@V<lambda_d8fb6bded5a33607e87380aecfede953>@@V?$allocator@H@std@@X$$V@std@@EAEXXZ 10036cf0 f i _nodert_generated.obj
 0001:00035cf0       ?_Do_call@?$_Func_impl@V<lambda_59389d5c5c04822e8fbd05aa862dcce0>@@V?$allocator@H@std@@X$$V@std@@EAEXXZ 10036cf0 f i _nodert_generated.obj
 0001:00035cf0       ?_Do_call@?$_Func_impl@V<lambda_b178835706b8fe80973af7c915c5e45f>@@V?$allocator@H@std@@X$$V@std@@EAEXXZ 10036cf0 f i _nodert_generated.obj
 0001:00035d00       ?_Move@?$_Func_impl@V<lambda_d8fb6bded5a33607e87380aecfede953>@@V?$allocator@H@std@@X$$V@std@@EAEPAV?$_Func_base@X$$V@2@PAX@Z 10036d00 f i _nodert_generated.obj
 0001:00035d90       ?_Copy@?$_Func_impl@V<lambda_d8fb6bded5a33607e87380aecfede953>@@V?$allocator@H@std@@X$$V@std@@EBEPAV?$_Func_base@X$$V@2@PAX@Z 10036d90 f i _nodert_generated.obj
 0001:00035dc0       ?_Target_type@?$_Func_impl@V<lambda_5c2735fbe729f4d0beeee30411374ac3>@@V?$allocator@H@std@@X$$V@std@@EBEABVtype_info@@XZ 10036dc0 f i _nodert_generated.obj
 0001:00035dd0       ?_Do_call@?$_Func_impl@V<lambda_5c2735fbe729f4d0beeee30411374ac3>@@V?$allocator@H@std@@X$$V@std@@EAEXXZ 10036dd0 f i _nodert_generated.obj
 0001:00035dd0       ?_Do_call@?$_Func_impl@V<lambda_0f851f59cc213dd96b42bba8df22669a>@@V?$allocator@H@std@@X$$V@std@@EAEXXZ 10036dd0 f i _nodert_generated.obj
 0001:00035dd0       ?_Do_call@?$_Func_impl@V<lambda_7e3d6834ea73197fdf17902cbe71f633>@@V?$allocator@H@std@@X$$V@std@@EAEXXZ 10036dd0 f i _nodert_generated.obj
 0001:00035dd0       ?_Do_call@?$_Func_impl@V<lambda_4e914b1469c3aefd416421ad96660547>@@V?$allocator@H@std@@X$$V@std@@EAEXXZ 10036dd0 f i _nodert_generated.obj
 0001:00035dd0       ?_Do_call@?$_Func_impl@V<lambda_1ee62a0db51ecb8c20d150c88a2ca072>@@V?$allocator@H@std@@X$$V@std@@EAEXXZ 10036dd0 f i _nodert_generated.obj
 0001:00035dd0       ?_Do_call@?$_Func_impl@V<lambda_df1945beffcb083a7bf4478b72a3c872>@@V?$allocator@H@std@@X$$V@std@@EAEXXZ 10036dd0 f i _nodert_generated.obj
 0001:00035e40       ?_Copy@?$_Func_impl@V<lambda_5c2735fbe729f4d0beeee30411374ac3>@@V?$allocator@H@std@@X$$V@std@@EBEPAV?$_Func_base@X$$V@2@PAX@Z 10036e40 f i _nodert_generated.obj
 0001:00035e40       ?_Move@?$_Func_impl@V<lambda_5c2735fbe729f4d0beeee30411374ac3>@@V?$allocator@H@std@@X$$V@std@@EAEPAV?$_Func_base@X$$V@2@PAX@Z 10036e40 f i _nodert_generated.obj
 0001:00035e60       ?_Delete_this@?$_Func_impl@V<lambda_59389d5c5c04822e8fbd05aa862dcce0>@@V?$allocator@H@std@@X$$V@std@@EAEX_N@Z 10036e60 f i _nodert_generated.obj
 0001:00035f00       ?_Target_type@?$_Func_impl@V<lambda_59389d5c5c04822e8fbd05aa862dcce0>@@V?$allocator@H@std@@X$$V@std@@EBEABVtype_info@@XZ 10036f00 f i _nodert_generated.obj
 0001:00035f10       ?_Move@?$_Func_impl@V<lambda_59389d5c5c04822e8fbd05aa862dcce0>@@V?$allocator@H@std@@X$$V@std@@EAEPAV?$_Func_base@X$$V@2@PAX@Z 10036f10 f i _nodert_generated.obj
 0001:00035fa0       ?_Copy@?$_Func_impl@V<lambda_59389d5c5c04822e8fbd05aa862dcce0>@@V?$allocator@H@std@@X$$V@std@@EBEPAV?$_Func_base@X$$V@2@PAX@Z 10036fa0 f i _nodert_generated.obj
 0001:00035fd0       ?_Target_type@?$_Func_impl@V<lambda_df1945beffcb083a7bf4478b72a3c872>@@V?$allocator@H@std@@X$$V@std@@EBEABVtype_info@@XZ 10036fd0 f i _nodert_generated.obj
 0001:00035fe0       ?_Copy@?$_Func_impl@V<lambda_df1945beffcb083a7bf4478b72a3c872>@@V?$allocator@H@std@@X$$V@std@@EBEPAV?$_Func_base@X$$V@2@PAX@Z 10036fe0 f i _nodert_generated.obj
 0001:00035fe0       ?_Move@?$_Func_impl@V<lambda_df1945beffcb083a7bf4478b72a3c872>@@V?$allocator@H@std@@X$$V@std@@EAEPAV?$_Func_base@X$$V@2@PAX@Z 10036fe0 f i _nodert_generated.obj
 0001:00036000       ?_Delete_this@?$_Func_impl@V<lambda_b178835706b8fe80973af7c915c5e45f>@@V?$allocator@H@std@@X$$V@std@@EAEX_N@Z 10037000 f i _nodert_generated.obj
 0001:000360a0       ?_Target_type@?$_Func_impl@V<lambda_b178835706b8fe80973af7c915c5e45f>@@V?$allocator@H@std@@X$$V@std@@EBEABVtype_info@@XZ 100370a0 f i _nodert_generated.obj
 0001:000360b0       ?_Move@?$_Func_impl@V<lambda_b178835706b8fe80973af7c915c5e45f>@@V?$allocator@H@std@@X$$V@std@@EAEPAV?$_Func_base@X$$V@2@PAX@Z 100370b0 f i _nodert_generated.obj
 0001:00036140       ?_Copy@?$_Func_impl@V<lambda_b178835706b8fe80973af7c915c5e45f>@@V?$allocator@H@std@@X$$V@std@@EBEPAV?$_Func_base@X$$V@2@PAX@Z 10037140 f i _nodert_generated.obj
 0001:00036170       ?_Target_type@?$_Func_impl@V<lambda_1ee62a0db51ecb8c20d150c88a2ca072>@@V?$allocator@H@std@@X$$V@std@@EBEABVtype_info@@XZ 10037170 f i _nodert_generated.obj
 0001:00036180       ?_Move@?$_Func_impl@V<lambda_1ee62a0db51ecb8c20d150c88a2ca072>@@V?$allocator@H@std@@X$$V@std@@EAEPAV?$_Func_base@X$$V@2@PAX@Z 10037180 f i _nodert_generated.obj
 0001:00036180       ?_Copy@?$_Func_impl@V<lambda_1ee62a0db51ecb8c20d150c88a2ca072>@@V?$allocator@H@std@@X$$V@std@@EBEPAV?$_Func_base@X$$V@2@PAX@Z 10037180 f i _nodert_generated.obj
 0001:000361a0       ?_Delete_this@?$_Func_impl@V<lambda_3c7e7bb64bd06e7f524fe91a071b8c93>@@V?$allocator@H@std@@P$AAVGattDeviceService@GenericAttributeProfile@Bluetooth@Devices@Windows@@V?$Local@VValue@v8@@@v8@@@std@@EAEX_N@Z 100371a0 f i _nodert_generated.obj
 0001:000361c0       ?_Target_type@?$_Func_impl@V<lambda_3c7e7bb64bd06e7f524fe91a071b8c93>@@V?$allocator@H@std@@P$AAVGattDeviceService@GenericAttributeProfile@Bluetooth@Devices@Windows@@V?$Local@VValue@v8@@@v8@@@std@@EBEABVtype_info@@XZ 100371c0 f i _nodert_generated.obj
 0001:000361d0       ?_Do_call@?$_Func_impl@V<lambda_3c7e7bb64bd06e7f524fe91a071b8c93>@@V?$allocator@H@std@@P$AAVGattDeviceService@GenericAttributeProfile@Bluetooth@Devices@Windows@@V?$Local@VValue@v8@@@v8@@@std@@EAEP$AAVGattDeviceService@GenericAttributeProfile@Bluetooth@Devices@Windows@@$$QAV?$Local@VValue@v8@@@v8@@@Z 100371d0 f i _nodert_generated.obj
 0001:00036240       ?_Move@?$_Func_impl@V<lambda_3c7e7bb64bd06e7f524fe91a071b8c93>@@V?$allocator@H@std@@P$AAVGattDeviceService@GenericAttributeProfile@Bluetooth@Devices@Windows@@V?$Local@VValue@v8@@@v8@@@std@@EAEPAV?$_Func_base@P$AAVGattDeviceService@GenericAttributeProfile@Bluetooth@Devices@Windows@@V?$Local@VValue@v8@@@v8@@@2@PAX@Z 10037240 f i _nodert_generated.obj
 0001:00036240       ?_Copy@?$_Func_impl@V<lambda_3c7e7bb64bd06e7f524fe91a071b8c93>@@V?$allocator@H@std@@P$AAVGattDeviceService@GenericAttributeProfile@Bluetooth@Devices@Windows@@V?$Local@VValue@v8@@@v8@@@std@@EBEPAV?$_Func_base@P$AAVGattDeviceService@GenericAttributeProfile@Bluetooth@Devices@Windows@@V?$Local@VValue@v8@@@v8@@@2@PAX@Z 10037240 f i _nodert_generated.obj
 0001:00036260       ?_Delete_this@?$_Func_impl@V<lambda_74e29896e65e0b0ea397316bdaa40b7e>@@V?$allocator@H@std@@_NV?$Local@VValue@v8@@@v8@@@std@@EAEX_N@Z 10037260 f i _nodert_generated.obj
 0001:00036260       ?_Delete_this@?$_Func_impl@V<lambda_47f361ef028abbee84897a6b0d975796>@@V?$allocator@H@std@@_NV?$Local@VValue@v8@@@v8@@@std@@EAEX_N@Z 10037260 f i _nodert_generated.obj
 0001:00036260       ?_Delete_this@?$_Func_impl@V<lambda_43409595a9ec3d3c6305ecd0b2be6ffb>@@V?$allocator@H@std@@_NV?$Local@VValue@v8@@@v8@@@std@@EAEX_N@Z 10037260 f i _nodert_generated.obj
 0001:00036260       ?_Delete_this@?$_Func_impl@V<lambda_5c4cb274c5425512d281ab7a425ca5eb>@@V?$allocator@H@std@@_NV?$Local@VValue@v8@@@v8@@@std@@EAEX_N@Z 10037260 f i _nodert_generated.obj
 0001:00036280       ?_Target_type@?$_Func_impl@V<lambda_5c4cb274c5425512d281ab7a425ca5eb>@@V?$allocator@H@std@@_NV?$Local@VValue@v8@@@v8@@@std@@EBEABVtype_info@@XZ 10037280 f i _nodert_generated.obj
 0001:00036290       ?_Do_call@?$_Func_impl@V<lambda_5c4cb274c5425512d281ab7a425ca5eb>@@V?$allocator@H@std@@_NV?$Local@VValue@v8@@@v8@@@std@@EAE_N$$QAV?$Local@VValue@v8@@@v8@@@Z 10037290 f i _nodert_generated.obj
 0001:000362b0       ?_Copy@?$_Func_impl@V<lambda_5c4cb274c5425512d281ab7a425ca5eb>@@V?$allocator@H@std@@_NV?$Local@VValue@v8@@@v8@@@std@@EBEPAV?$_Func_base@_NV?$Local@VValue@v8@@@v8@@@2@PAX@Z 100372b0 f i _nodert_generated.obj
 0001:000362b0       ?_Move@?$_Func_impl@V<lambda_5c4cb274c5425512d281ab7a425ca5eb>@@V?$allocator@H@std@@_NV?$Local@VValue@v8@@@v8@@@std@@EAEPAV?$_Func_base@_NV?$Local@VValue@v8@@@v8@@@2@PAX@Z 100372b0 f i _nodert_generated.obj
 0001:000362d0       ?_Delete_this@?$_Func_impl@V<lambda_c4db4e9d2e2b6fb83e3dbdcbe44e9bab>@@V?$allocator@H@std@@V?$Local@VValue@v8@@@v8@@P$AAVGattDeviceService@GenericAttributeProfile@Bluetooth@Devices@Windows@@@std@@EAEX_N@Z 100372d0 f i _nodert_generated.obj
 0001:000362f0       ?_Target_type@?$_Func_impl@V<lambda_c4db4e9d2e2b6fb83e3dbdcbe44e9bab>@@V?$allocator@H@std@@V?$Local@VValue@v8@@@v8@@P$AAVGattDeviceService@GenericAttributeProfile@Bluetooth@Devices@Windows@@@std@@EBEABVtype_info@@XZ 100372f0 f i _nodert_generated.obj
 0001:00036300       ?_Do_call@?$_Func_impl@V<lambda_c4db4e9d2e2b6fb83e3dbdcbe44e9bab>@@V?$allocator@H@std@@V?$Local@VValue@v8@@@v8@@P$AAVGattDeviceService@GenericAttributeProfile@Bluetooth@Devices@Windows@@@std@@EAE?AV?$Local@VValue@v8@@@v8@@$$QAP$AAVGattDeviceService@GenericAttributeProfile@Bluetooth@Devices@Windows@@@Z 10037300 f i _nodert_generated.obj
 0001:00036330       ?_Copy@?$_Func_impl@V<lambda_c4db4e9d2e2b6fb83e3dbdcbe44e9bab>@@V?$allocator@H@std@@V?$Local@VValue@v8@@@v8@@P$AAVGattDeviceService@GenericAttributeProfile@Bluetooth@Devices@Windows@@@std@@EBEPAV?$_Func_base@V?$Local@VValue@v8@@@v8@@P$AAVGattDeviceService@GenericAttributeProfile@Bluetooth@Devices@Windows@@@2@PAX@Z 10037330 f i _nodert_generated.obj
 0001:00036330       ?_Move@?$_Func_impl@V<lambda_c4db4e9d2e2b6fb83e3dbdcbe44e9bab>@@V?$allocator@H@std@@V?$Local@VValue@v8@@@v8@@P$AAVGattDeviceService@GenericAttributeProfile@Bluetooth@Devices@Windows@@@std@@EAEPAV?$_Func_base@V?$Local@VValue@v8@@@v8@@P$AAVGattDeviceService@GenericAttributeProfile@Bluetooth@Devices@Windows@@@2@PAX@Z 10037330 f i _nodert_generated.obj
 0001:00036350       ?_Delete_this@?$_Func_impl@V<lambda_25051fbfe6c38c7d30193c2fb9fc5459>@@V?$allocator@H@std@@XV?$function@$$A6AXHPAV?$Local@VValue@v8@@@v8@@@Z@3@@std@@EAEX_N@Z 10037350 f i _nodert_generated.obj
 0001:000363c0       ?_Target_type@?$_Func_impl@V<lambda_25051fbfe6c38c7d30193c2fb9fc5459>@@V?$allocator@H@std@@XV?$function@$$A6AXHPAV?$Local@VValue@v8@@@v8@@@Z@3@@std@@EBEABVtype_info@@XZ 100373c0 f i _nodert_generated.obj
 0001:000363d0       ?_Do_call@?$_Func_impl@V<lambda_3de740e13969e2b8a3ac1e24d37ecf1e>@@V?$allocator@H@std@@XV?$function@$$A6AXHPAV?$Local@VValue@v8@@@v8@@@Z@3@@std@@EAEX$$QAV?$function@$$A6AXHPAV?$Local@VValue@v8@@@v8@@@Z@2@@Z 100373d0 f i _nodert_generated.obj
 0001:000363d0       ?_Do_call@?$_Func_impl@V<lambda_18e6cab7d1ade338b0bade6a66c837c9>@@V?$allocator@H@std@@XV?$function@$$A6AXHPAV?$Local@VValue@v8@@@v8@@@Z@3@@std@@EAEX$$QAV?$function@$$A6AXHPAV?$Local@VValue@v8@@@v8@@@Z@2@@Z 100373d0 f i _nodert_generated.obj
 0001:000363d0       ?_Do_call@?$_Func_impl@V<lambda_dbe60ed01c1e3c76a597f3af09957bae>@@V?$allocator@H@std@@XV?$function@$$A6AXHPAV?$Local@VValue@v8@@@v8@@@Z@3@@std@@EAEX$$QAV?$function@$$A6AXHPAV?$Local@VValue@v8@@@v8@@@Z@2@@Z 100373d0 f i _nodert_generated.obj
 0001:000363d0       ?_Do_call@?$_Func_impl@V<lambda_14f1f715b558ff3f1896f1a2d375bd61>@@V?$allocator@H@std@@XV?$function@$$A6AXHPAV?$Local@VValue@v8@@@v8@@@Z@3@@std@@EAEX$$QAV?$function@$$A6AXHPAV?$Local@VValue@v8@@@v8@@@Z@2@@Z 100373d0 f i _nodert_generated.obj
 0001:000363d0       ?_Do_call@?$_Func_impl@V<lambda_25051fbfe6c38c7d30193c2fb9fc5459>@@V?$allocator@H@std@@XV?$function@$$A6AXHPAV?$Local@VValue@v8@@@v8@@@Z@3@@std@@EAEX$$QAV?$function@$$A6AXHPAV?$Local@VValue@v8@@@v8@@@Z@2@@Z 100373d0 f i _nodert_generated.obj
 0001:000363d0       ?_Do_call@?$_Func_impl@V<lambda_187bfff809842edec62074d62b22b32f>@@V?$allocator@H@std@@XV?$function@$$A6AXHPAV?$Local@VValue@v8@@@v8@@@Z@3@@std@@EAEX$$QAV?$function@$$A6AXHPAV?$Local@VValue@v8@@@v8@@@Z@2@@Z 100373d0 f i _nodert_generated.obj
 0001:000363d0       ?_Do_call@?$_Func_impl@V<lambda_d73df75e068ac21414fb299eee9ee9d4>@@V?$allocator@H@std@@XV?$function@$$A6AXHPAV?$Local@VValue@v8@@@v8@@@Z@3@@std@@EAEX$$QAV?$function@$$A6AXHPAV?$Local@VValue@v8@@@v8@@@Z@2@@Z 100373d0 f i _nodert_generated.obj
 0001:000363d0       ?_Do_call@?$_Func_impl@V<lambda_f72c7d94d1b4205e6643f6e601058a4c>@@V?$allocator@H@std@@XV?$function@$$A6AXHPAV?$Local@VValue@v8@@@v8@@@Z@3@@std@@EAEX$$QAV?$function@$$A6AXHPAV?$Local@VValue@v8@@@v8@@@Z@2@@Z 100373d0 f i _nodert_generated.obj
 0001:000363d0       ?_Do_call@?$_Func_impl@V<lambda_303346c6205280f0400a0a4337cb6f94>@@V?$allocator@H@std@@XV?$function@$$A6AXHPAV?$Local@VValue@v8@@@v8@@@Z@3@@std@@EAEX$$QAV?$function@$$A6AXHPAV?$Local@VValue@v8@@@v8@@@Z@2@@Z 100373d0 f i _nodert_generated.obj
 0001:000363d0       ?_Do_call@?$_Func_impl@V<lambda_9b07747e2608eab745e1d48b0ade56b8>@@V?$allocator@H@std@@XV?$function@$$A6AXHPAV?$Local@VValue@v8@@@v8@@@Z@3@@std@@EAEX$$QAV?$function@$$A6AXHPAV?$Local@VValue@v8@@@v8@@@Z@2@@Z 100373d0 f i _nodert_generated.obj
 0001:000363d0       ?_Do_call@?$_Func_impl@V<lambda_0a965d69dad08e8c30c0d6726b1285f8>@@V?$allocator@H@std@@XV?$function@$$A6AXHPAV?$Local@VValue@v8@@@v8@@@Z@3@@std@@EAEX$$QAV?$function@$$A6AXHPAV?$Local@VValue@v8@@@v8@@@Z@2@@Z 100373d0 f i _nodert_generated.obj
 0001:000363d0       ?_Do_call@?$_Func_impl@V<lambda_262dc18221bbebaf5c9d902693b8c78e>@@V?$allocator@H@std@@XV?$function@$$A6AXHPAV?$Local@VValue@v8@@@v8@@@Z@3@@std@@EAEX$$QAV?$function@$$A6AXHPAV?$Local@VValue@v8@@@v8@@@Z@2@@Z 100373d0 f i _nodert_generated.obj
 0001:000363d0       ?_Do_call@?$_Func_impl@V<lambda_28386656da5c779c164d4e8f3ced1c51>@@V?$allocator@H@std@@XV?$function@$$A6AXHPAV?$Local@VValue@v8@@@v8@@@Z@3@@std@@EAEX$$QAV?$function@$$A6AXHPAV?$Local@VValue@v8@@@v8@@@Z@2@@Z 100373d0 f i _nodert_generated.obj
 0001:000363d0       ?_Do_call@?$_Func_impl@V<lambda_85324de540444b6fadd78ae5974fe4b9>@@V?$allocator@H@std@@XV?$function@$$A6AXHPAV?$Local@VValue@v8@@@v8@@@Z@3@@std@@EAEX$$QAV?$function@$$A6AXHPAV?$Local@VValue@v8@@@v8@@@Z@2@@Z 100373d0 f i _nodert_generated.obj
 0001:000363e0       ?_Move@?$_Func_impl@V<lambda_25051fbfe6c38c7d30193c2fb9fc5459>@@V?$allocator@H@std@@XV?$function@$$A6AXHPAV?$Local@VValue@v8@@@v8@@@Z@3@@std@@EAEPAV?$_Func_base@XV?$function@$$A6AXHPAV?$Local@VValue@v8@@@v8@@@Z@std@@@2@PAX@Z 100373e0 f i _nodert_generated.obj
 0001:000363e0       ?_Copy@?$_Func_impl@V<lambda_25051fbfe6c38c7d30193c2fb9fc5459>@@V?$allocator@H@std@@XV?$function@$$A6AXHPAV?$Local@VValue@v8@@@v8@@@Z@3@@std@@EBEPAV?$_Func_base@XV?$function@$$A6AXHPAV?$Local@VValue@v8@@@v8@@@Z@std@@@2@PAX@Z 100373e0 f i _nodert_generated.obj
 0001:00036440       ?_Delete_this@?$_Func_impl@V<lambda_bce598ee05d3af566a8b68421ce1dd37>@@V?$allocator@H@std@@XV?$function@$$A6AXHPAV?$Local@VValue@v8@@@v8@@@Z@3@@std@@EAEX_N@Z 10037440 f i _nodert_generated.obj
 0001:000364b0       ?_Target_type@?$_Func_impl@V<lambda_bce598ee05d3af566a8b68421ce1dd37>@@V?$allocator@H@std@@XV?$function@$$A6AXHPAV?$Local@VValue@v8@@@v8@@@Z@3@@std@@EBEABVtype_info@@XZ 100374b0 f i _nodert_generated.obj
 0001:000364c0       ?_Do_call@?$_Func_impl@V<lambda_4bc8cb4ab5790b6f4049bea13d735bbb>@@V?$allocator@H@std@@XV?$function@$$A6AXHPAV?$Local@VValue@v8@@@v8@@@Z@3@@std@@EAEX$$QAV?$function@$$A6AXHPAV?$Local@VValue@v8@@@v8@@@Z@2@@Z 100374c0 f i _nodert_generated.obj
 0001:000364c0       ?_Do_call@?$_Func_impl@V<lambda_bce598ee05d3af566a8b68421ce1dd37>@@V?$allocator@H@std@@XV?$function@$$A6AXHPAV?$Local@VValue@v8@@@v8@@@Z@3@@std@@EAEX$$QAV?$function@$$A6AXHPAV?$Local@VValue@v8@@@v8@@@Z@2@@Z 100374c0 f i _nodert_generated.obj
 0001:000364d0       ?_Copy@?$_Func_impl@V<lambda_bce598ee05d3af566a8b68421ce1dd37>@@V?$allocator@H@std@@XV?$function@$$A6AXHPAV?$Local@VValue@v8@@@v8@@@Z@3@@std@@EBEPAV?$_Func_base@XV?$function@$$A6AXHPAV?$Local@VValue@v8@@@v8@@@Z@std@@@2@PAX@Z 100374d0 f i _nodert_generated.obj
 0001:000364d0       ?_Move@?$_Func_impl@V<lambda_bce598ee05d3af566a8b68421ce1dd37>@@V?$allocator@H@std@@XV?$function@$$A6AXHPAV?$Local@VValue@v8@@@v8@@@Z@3@@std@@EAEPAV?$_Func_base@XV?$function@$$A6AXHPAV?$Local@VValue@v8@@@v8@@@Z@std@@@2@PAX@Z 100374d0 f i _nodert_generated.obj
 0001:00036530       ?_Delete_this@?$_Func_impl@V<lambda_dbe60ed01c1e3c76a597f3af09957bae>@@V?$allocator@H@std@@XV?$function@$$A6AXHPAV?$Local@VValue@v8@@@v8@@@Z@3@@std@@EAEX_N@Z 10037530 f i _nodert_generated.obj
 0001:000365a0       ?_Target_type@?$_Func_impl@V<lambda_dbe60ed01c1e3c76a597f3af09957bae>@@V?$allocator@H@std@@XV?$function@$$A6AXHPAV?$Local@VValue@v8@@@v8@@@Z@3@@std@@EBEABVtype_info@@XZ 100375a0 f i _nodert_generated.obj
 0001:000365b0       ?_Move@?$_Func_impl@V<lambda_dbe60ed01c1e3c76a597f3af09957bae>@@V?$allocator@H@std@@XV?$function@$$A6AXHPAV?$Local@VValue@v8@@@v8@@@Z@3@@std@@EAEPAV?$_Func_base@XV?$function@$$A6AXHPAV?$Local@VValue@v8@@@v8@@@Z@std@@@2@PAX@Z 100375b0 f i _nodert_generated.obj
 0001:000365b0       ?_Copy@?$_Func_impl@V<lambda_dbe60ed01c1e3c76a597f3af09957bae>@@V?$allocator@H@std@@XV?$function@$$A6AXHPAV?$Local@VValue@v8@@@v8@@@Z@3@@std@@EBEPAV?$_Func_base@XV?$function@$$A6AXHPAV?$Local@VValue@v8@@@v8@@@Z@std@@@2@PAX@Z 100375b0 f i _nodert_generated.obj
 0001:00036610       ?_Delete_this@?$_Func_impl@V<lambda_4bc8cb4ab5790b6f4049bea13d735bbb>@@V?$allocator@H@std@@XV?$function@$$A6AXHPAV?$Local@VValue@v8@@@v8@@@Z@3@@std@@EAEX_N@Z 10037610 f i _nodert_generated.obj
 0001:00036680       ?_Target_type@?$_Func_impl@V<lambda_4bc8cb4ab5790b6f4049bea13d735bbb>@@V?$allocator@H@std@@XV?$function@$$A6AXHPAV?$Local@VValue@v8@@@v8@@@Z@3@@std@@EBEABVtype_info@@XZ 10037680 f i _nodert_generated.obj
 0001:00036690       ?_Copy@?$_Func_impl@V<lambda_4bc8cb4ab5790b6f4049bea13d735bbb>@@V?$allocator@H@std@@XV?$function@$$A6AXHPAV?$Local@VValue@v8@@@v8@@@Z@3@@std@@EBEPAV?$_Func_base@XV?$function@$$A6AXHPAV?$Local@VValue@v8@@@v8@@@Z@std@@@2@PAX@Z 10037690 f i _nodert_generated.obj
 0001:00036690       ?_Move@?$_Func_impl@V<lambda_4bc8cb4ab5790b6f4049bea13d735bbb>@@V?$allocator@H@std@@XV?$function@$$A6AXHPAV?$Local@VValue@v8@@@v8@@@Z@3@@std@@EAEPAV?$_Func_base@XV?$function@$$A6AXHPAV?$Local@VValue@v8@@@v8@@@Z@std@@@2@PAX@Z 10037690 f i _nodert_generated.obj
 0001:000366f0       ?_Delete_this@?$_Func_impl@V<lambda_d73df75e068ac21414fb299eee9ee9d4>@@V?$allocator@H@std@@XV?$function@$$A6AXHPAV?$Local@VValue@v8@@@v8@@@Z@3@@std@@EAEX_N@Z 100376f0 f i _nodert_generated.obj
 0001:00036760       ?_Target_type@?$_Func_impl@V<lambda_d73df75e068ac21414fb299eee9ee9d4>@@V?$allocator@H@std@@XV?$function@$$A6AXHPAV?$Local@VValue@v8@@@v8@@@Z@3@@std@@EBEABVtype_info@@XZ 10037760 f i _nodert_generated.obj
 0001:00036770       ?_Copy@?$_Func_impl@V<lambda_d73df75e068ac21414fb299eee9ee9d4>@@V?$allocator@H@std@@XV?$function@$$A6AXHPAV?$Local@VValue@v8@@@v8@@@Z@3@@std@@EBEPAV?$_Func_base@XV?$function@$$A6AXHPAV?$Local@VValue@v8@@@v8@@@Z@std@@@2@PAX@Z 10037770 f i _nodert_generated.obj
 0001:00036770       ?_Move@?$_Func_impl@V<lambda_d73df75e068ac21414fb299eee9ee9d4>@@V?$allocator@H@std@@XV?$function@$$A6AXHPAV?$Local@VValue@v8@@@v8@@@Z@3@@std@@EAEPAV?$_Func_base@XV?$function@$$A6AXHPAV?$Local@VValue@v8@@@v8@@@Z@std@@@2@PAX@Z 10037770 f i _nodert_generated.obj
 0001:000367d0       ?_Delete_this@?$_Func_impl@V<lambda_7caa66d77ce1eb9e319528262512f2de>@@V?$allocator@H@std@@XV?$function@$$A6AXHPAV?$Local@VValue@v8@@@v8@@@Z@3@@std@@EAEX_N@Z 100377d0 f i _nodert_generated.obj
 0001:00036840       ?_Target_type@?$_Func_impl@V<lambda_7caa66d77ce1eb9e319528262512f2de>@@V?$allocator@H@std@@XV?$function@$$A6AXHPAV?$Local@VValue@v8@@@v8@@@Z@3@@std@@EBEABVtype_info@@XZ 10037840 f i _nodert_generated.obj
 0001:00036850       ?_Do_call@?$_Func_impl@V<lambda_14856f1fb561633bcb84ffea98dfce42>@@V?$allocator@H@std@@XV?$function@$$A6AXHPAV?$Local@VValue@v8@@@v8@@@Z@3@@std@@EAEX$$QAV?$function@$$A6AXHPAV?$Local@VValue@v8@@@v8@@@Z@2@@Z 10037850 f i _nodert_generated.obj
 0001:00036850       ?_Do_call@?$_Func_impl@V<lambda_7caa66d77ce1eb9e319528262512f2de>@@V?$allocator@H@std@@XV?$function@$$A6AXHPAV?$Local@VValue@v8@@@v8@@@Z@3@@std@@EAEX$$QAV?$function@$$A6AXHPAV?$Local@VValue@v8@@@v8@@@Z@2@@Z 10037850 f i _nodert_generated.obj
 0001:00036860       ?_Move@?$_Func_impl@V<lambda_7caa66d77ce1eb9e319528262512f2de>@@V?$allocator@H@std@@XV?$function@$$A6AXHPAV?$Local@VValue@v8@@@v8@@@Z@3@@std@@EAEPAV?$_Func_base@XV?$function@$$A6AXHPAV?$Local@VValue@v8@@@v8@@@Z@std@@@2@PAX@Z 10037860 f i _nodert_generated.obj
 0001:00036860       ?_Copy@?$_Func_impl@V<lambda_7caa66d77ce1eb9e319528262512f2de>@@V?$allocator@H@std@@XV?$function@$$A6AXHPAV?$Local@VValue@v8@@@v8@@@Z@3@@std@@EBEPAV?$_Func_base@XV?$function@$$A6AXHPAV?$Local@VValue@v8@@@v8@@@Z@std@@@2@PAX@Z 10037860 f i _nodert_generated.obj
 0001:000368c0       ?_Delete_this@?$_Func_impl@V<lambda_187bfff809842edec62074d62b22b32f>@@V?$allocator@H@std@@XV?$function@$$A6AXHPAV?$Local@VValue@v8@@@v8@@@Z@3@@std@@EAEX_N@Z 100378c0 f i _nodert_generated.obj
 0001:00036930       ?_Target_type@?$_Func_impl@V<lambda_187bfff809842edec62074d62b22b32f>@@V?$allocator@H@std@@XV?$function@$$A6AXHPAV?$Local@VValue@v8@@@v8@@@Z@3@@std@@EBEABVtype_info@@XZ 10037930 f i _nodert_generated.obj
 0001:00036940       ?_Move@?$_Func_impl@V<lambda_187bfff809842edec62074d62b22b32f>@@V?$allocator@H@std@@XV?$function@$$A6AXHPAV?$Local@VValue@v8@@@v8@@@Z@3@@std@@EAEPAV?$_Func_base@XV?$function@$$A6AXHPAV?$Local@VValue@v8@@@v8@@@Z@std@@@2@PAX@Z 10037940 f i _nodert_generated.obj
 0001:00036940       ?_Copy@?$_Func_impl@V<lambda_187bfff809842edec62074d62b22b32f>@@V?$allocator@H@std@@XV?$function@$$A6AXHPAV?$Local@VValue@v8@@@v8@@@Z@3@@std@@EBEPAV?$_Func_base@XV?$function@$$A6AXHPAV?$Local@VValue@v8@@@v8@@@Z@std@@@2@PAX@Z 10037940 f i _nodert_generated.obj
 0001:000369a0       ?_Delete_this@?$_Func_impl@V<lambda_14856f1fb561633bcb84ffea98dfce42>@@V?$allocator@H@std@@XV?$function@$$A6AXHPAV?$Local@VValue@v8@@@v8@@@Z@3@@std@@EAEX_N@Z 100379a0 f i _nodert_generated.obj
 0001:00036a10       ?_Target_type@?$_Func_impl@V<lambda_14856f1fb561633bcb84ffea98dfce42>@@V?$allocator@H@std@@XV?$function@$$A6AXHPAV?$Local@VValue@v8@@@v8@@@Z@3@@std@@EBEABVtype_info@@XZ 10037a10 f i _nodert_generated.obj
 0001:00036a20       ?_Copy@?$_Func_impl@V<lambda_14856f1fb561633bcb84ffea98dfce42>@@V?$allocator@H@std@@XV?$function@$$A6AXHPAV?$Local@VValue@v8@@@v8@@@Z@3@@std@@EBEPAV?$_Func_base@XV?$function@$$A6AXHPAV?$Local@VValue@v8@@@v8@@@Z@std@@@2@PAX@Z 10037a20 f i _nodert_generated.obj
 0001:00036a20       ?_Move@?$_Func_impl@V<lambda_14856f1fb561633bcb84ffea98dfce42>@@V?$allocator@H@std@@XV?$function@$$A6AXHPAV?$Local@VValue@v8@@@v8@@@Z@3@@std@@EAEPAV?$_Func_base@XV?$function@$$A6AXHPAV?$Local@VValue@v8@@@v8@@@Z@std@@@2@PAX@Z 10037a20 f i _nodert_generated.obj
 0001:00036a80       ?_Delete_this@?$_Func_impl@V<lambda_f72c7d94d1b4205e6643f6e601058a4c>@@V?$allocator@H@std@@XV?$function@$$A6AXHPAV?$Local@VValue@v8@@@v8@@@Z@3@@std@@EAEX_N@Z 10037a80 f i _nodert_generated.obj
 0001:00036af0       ?_Target_type@?$_Func_impl@V<lambda_f72c7d94d1b4205e6643f6e601058a4c>@@V?$allocator@H@std@@XV?$function@$$A6AXHPAV?$Local@VValue@v8@@@v8@@@Z@3@@std@@EBEABVtype_info@@XZ 10037af0 f i _nodert_generated.obj
 0001:00036b00       ?_Copy@?$_Func_impl@V<lambda_f72c7d94d1b4205e6643f6e601058a4c>@@V?$allocator@H@std@@XV?$function@$$A6AXHPAV?$Local@VValue@v8@@@v8@@@Z@3@@std@@EBEPAV?$_Func_base@XV?$function@$$A6AXHPAV?$Local@VValue@v8@@@v8@@@Z@std@@@2@PAX@Z 10037b00 f i _nodert_generated.obj
 0001:00036b00       ?_Move@?$_Func_impl@V<lambda_f72c7d94d1b4205e6643f6e601058a4c>@@V?$allocator@H@std@@XV?$function@$$A6AXHPAV?$Local@VValue@v8@@@v8@@@Z@3@@std@@EAEPAV?$_Func_base@XV?$function@$$A6AXHPAV?$Local@VValue@v8@@@v8@@@Z@std@@@2@PAX@Z 10037b00 f i _nodert_generated.obj
 0001:00036b60       ?_Delete_this@?$_Func_impl@V<lambda_e274403a9a3c76a94c80f22710ef3033>@@V?$allocator@H@std@@XV?$function@$$A6AXHPAV?$Local@VValue@v8@@@v8@@@Z@3@@std@@EAEX_N@Z 10037b60 f i _nodert_generated.obj
 0001:00036b60       ?_Delete_this@?$_Func_impl@V<lambda_6145d2349ddbc560c26b9810f6eb6315>@@V?$allocator@H@std@@XV?$function@$$A6AXHPAV?$Local@VValue@v8@@@v8@@@Z@3@@std@@EAEX_N@Z 10037b60 f i _nodert_generated.obj
 0001:00036b80       ?_Target_type@?$_Func_impl@V<lambda_6145d2349ddbc560c26b9810f6eb6315>@@V?$allocator@H@std@@XV?$function@$$A6AXHPAV?$Local@VValue@v8@@@v8@@@Z@3@@std@@EBEABVtype_info@@XZ 10037b80 f i _nodert_generated.obj
 0001:00036b90       ?_Do_call@?$_Func_impl@V<lambda_e274403a9a3c76a94c80f22710ef3033>@@V?$allocator@H@std@@XV?$function@$$A6AXHPAV?$Local@VValue@v8@@@v8@@@Z@3@@std@@EAEX$$QAV?$function@$$A6AXHPAV?$Local@VValue@v8@@@v8@@@Z@2@@Z 10037b90 f i _nodert_generated.obj
 0001:00036b90       ?_Do_call@?$_Func_impl@V<lambda_6145d2349ddbc560c26b9810f6eb6315>@@V?$allocator@H@std@@XV?$function@$$A6AXHPAV?$Local@VValue@v8@@@v8@@@Z@3@@std@@EAEX$$QAV?$function@$$A6AXHPAV?$Local@VValue@v8@@@v8@@@Z@2@@Z 10037b90 f i _nodert_generated.obj
 0001:00036ba0       ?_Copy@?$_Func_impl@V<lambda_6145d2349ddbc560c26b9810f6eb6315>@@V?$allocator@H@std@@XV?$function@$$A6AXHPAV?$Local@VValue@v8@@@v8@@@Z@3@@std@@EBEPAV?$_Func_base@XV?$function@$$A6AXHPAV?$Local@VValue@v8@@@v8@@@Z@std@@@2@PAX@Z 10037ba0 f i _nodert_generated.obj
 0001:00036ba0       ?_Move@?$_Func_impl@V<lambda_6145d2349ddbc560c26b9810f6eb6315>@@V?$allocator@H@std@@XV?$function@$$A6AXHPAV?$Local@VValue@v8@@@v8@@@Z@3@@std@@EAEPAV?$_Func_base@XV?$function@$$A6AXHPAV?$Local@VValue@v8@@@v8@@@Z@std@@@2@PAX@Z 10037ba0 f i _nodert_generated.obj
 0001:00036bc0       ?_Delete_this@?$_Func_impl@V<lambda_11d52c4e8e039308584b1c6301bf3129>@@V?$allocator@H@std@@X$$V@std@@EAEX_N@Z 10037bc0 f i _nodert_generated.obj
 0001:00036c60       ?_Target_type@?$_Func_impl@V<lambda_11d52c4e8e039308584b1c6301bf3129>@@V?$allocator@H@std@@X$$V@std@@EBEABVtype_info@@XZ 10037c60 f i _nodert_generated.obj
 0001:00036c70       ?_Do_call@?$_Func_impl@V<lambda_11d52c4e8e039308584b1c6301bf3129>@@V?$allocator@H@std@@X$$V@std@@EAEXXZ 10037c70 f i _nodert_generated.obj
 0001:00036c70       ?_Do_call@?$_Func_impl@V<lambda_4779ea09785d47ce6b74ad0b9641d6a3>@@V?$allocator@H@std@@X$$V@std@@EAEXXZ 10037c70 f i _nodert_generated.obj
 0001:00036c70       ?_Do_call@?$_Func_impl@V<lambda_21245c7ce8f5fddc838816d351bb245c>@@V?$allocator@H@std@@X$$V@std@@EAEXXZ 10037c70 f i _nodert_generated.obj
 0001:00036c80       ?_Move@?$_Func_impl@V<lambda_11d52c4e8e039308584b1c6301bf3129>@@V?$allocator@H@std@@X$$V@std@@EAEPAV?$_Func_base@X$$V@2@PAX@Z 10037c80 f i _nodert_generated.obj
 0001:00036d10       ?_Copy@?$_Func_impl@V<lambda_11d52c4e8e039308584b1c6301bf3129>@@V?$allocator@H@std@@X$$V@std@@EBEPAV?$_Func_base@X$$V@2@PAX@Z 10037d10 f i _nodert_generated.obj
 0001:00036d40       ?_Target_type@?$_Func_impl@V<lambda_7e3d6834ea73197fdf17902cbe71f633>@@V?$allocator@H@std@@X$$V@std@@EBEABVtype_info@@XZ 10037d40 f i _nodert_generated.obj
 0001:00036d50       ?_Copy@?$_Func_impl@V<lambda_7e3d6834ea73197fdf17902cbe71f633>@@V?$allocator@H@std@@X$$V@std@@EBEPAV?$_Func_base@X$$V@2@PAX@Z 10037d50 f i _nodert_generated.obj
 0001:00036d50       ?_Move@?$_Func_impl@V<lambda_7e3d6834ea73197fdf17902cbe71f633>@@V?$allocator@H@std@@X$$V@std@@EAEPAV?$_Func_base@X$$V@2@PAX@Z 10037d50 f i _nodert_generated.obj
 0001:00036d70       ?_Delete_this@?$_Func_impl@V<lambda_21245c7ce8f5fddc838816d351bb245c>@@V?$allocator@H@std@@X$$V@std@@EAEX_N@Z 10037d70 f i _nodert_generated.obj
 0001:00036e10       ?_Target_type@?$_Func_impl@V<lambda_21245c7ce8f5fddc838816d351bb245c>@@V?$allocator@H@std@@X$$V@std@@EBEABVtype_info@@XZ 10037e10 f i _nodert_generated.obj
 0001:00036e20       ?_Move@?$_Func_impl@V<lambda_21245c7ce8f5fddc838816d351bb245c>@@V?$allocator@H@std@@X$$V@std@@EAEPAV?$_Func_base@X$$V@2@PAX@Z 10037e20 f i _nodert_generated.obj
 0001:00036eb0       ?_Copy@?$_Func_impl@V<lambda_21245c7ce8f5fddc838816d351bb245c>@@V?$allocator@H@std@@X$$V@std@@EBEPAV?$_Func_base@X$$V@2@PAX@Z 10037eb0 f i _nodert_generated.obj
 0001:00036ee0       ?_Target_type@?$_Func_impl@V<lambda_4e914b1469c3aefd416421ad96660547>@@V?$allocator@H@std@@X$$V@std@@EBEABVtype_info@@XZ 10037ee0 f i _nodert_generated.obj
 0001:00036ef0       ?_Move@?$_Func_impl@V<lambda_4e914b1469c3aefd416421ad96660547>@@V?$allocator@H@std@@X$$V@std@@EAEPAV?$_Func_base@X$$V@2@PAX@Z 10037ef0 f i _nodert_generated.obj
 0001:00036ef0       ?_Copy@?$_Func_impl@V<lambda_4e914b1469c3aefd416421ad96660547>@@V?$allocator@H@std@@X$$V@std@@EBEPAV?$_Func_base@X$$V@2@PAX@Z 10037ef0 f i _nodert_generated.obj
 0001:00036f10       ?_Delete_this@?$_Func_impl@V<lambda_4779ea09785d47ce6b74ad0b9641d6a3>@@V?$allocator@H@std@@X$$V@std@@EAEX_N@Z 10037f10 f i _nodert_generated.obj
 0001:00036fb0       ?_Target_type@?$_Func_impl@V<lambda_4779ea09785d47ce6b74ad0b9641d6a3>@@V?$allocator@H@std@@X$$V@std@@EBEABVtype_info@@XZ 10037fb0 f i _nodert_generated.obj
 0001:00036fc0       ?_Move@?$_Func_impl@V<lambda_4779ea09785d47ce6b74ad0b9641d6a3>@@V?$allocator@H@std@@X$$V@std@@EAEPAV?$_Func_base@X$$V@2@PAX@Z 10037fc0 f i _nodert_generated.obj
 0001:00037050       ?_Copy@?$_Func_impl@V<lambda_4779ea09785d47ce6b74ad0b9641d6a3>@@V?$allocator@H@std@@X$$V@std@@EBEPAV?$_Func_base@X$$V@2@PAX@Z 10038050 f i _nodert_generated.obj
 0001:00037080       ?_Target_type@?$_Func_impl@V<lambda_0f851f59cc213dd96b42bba8df22669a>@@V?$allocator@H@std@@X$$V@std@@EBEABVtype_info@@XZ 10038080 f i _nodert_generated.obj
 0001:00037090       ?_Copy@?$_Func_impl@V<lambda_0f851f59cc213dd96b42bba8df22669a>@@V?$allocator@H@std@@X$$V@std@@EBEPAV?$_Func_base@X$$V@2@PAX@Z 10038090 f i _nodert_generated.obj
 0001:00037090       ?_Move@?$_Func_impl@V<lambda_0f851f59cc213dd96b42bba8df22669a>@@V?$allocator@H@std@@X$$V@std@@EAEPAV?$_Func_base@X$$V@2@PAX@Z 10038090 f i _nodert_generated.obj
 0001:000370b0       ?_Delete_this@?$_Func_impl@V<lambda_1c0e9084657b5b5aae2add7f023fe44a>@@V?$allocator@H@std@@P$AAUIBuffer@Streams@Storage@Windows@@V?$Local@VValue@v8@@@v8@@@std@@EAEX_N@Z 100380b0 f i _nodert_generated.obj
 0001:000370d0       ?_Target_type@?$_Func_impl@V<lambda_1c0e9084657b5b5aae2add7f023fe44a>@@V?$allocator@H@std@@P$AAUIBuffer@Streams@Storage@Windows@@V?$Local@VValue@v8@@@v8@@@std@@EBEABVtype_info@@XZ 100380d0 f i _nodert_generated.obj
 0001:000370e0       ?_Do_call@?$_Func_impl@V<lambda_1c0e9084657b5b5aae2add7f023fe44a>@@V?$allocator@H@std@@P$AAUIBuffer@Streams@Storage@Windows@@V?$Local@VValue@v8@@@v8@@@std@@EAEP$AAUIBuffer@Streams@Storage@Windows@@$$QAV?$Local@VValue@v8@@@v8@@@Z 100380e0 f i _nodert_generated.obj
 0001:00037150       ?_Move@?$_Func_impl@V<lambda_1c0e9084657b5b5aae2add7f023fe44a>@@V?$allocator@H@std@@P$AAUIBuffer@Streams@Storage@Windows@@V?$Local@VValue@v8@@@v8@@@std@@EAEPAV?$_Func_base@P$AAUIBuffer@Streams@Storage@Windows@@V?$Local@VValue@v8@@@v8@@@2@PAX@Z 10038150 f i _nodert_generated.obj
 0001:00037150       ?_Copy@?$_Func_impl@V<lambda_1c0e9084657b5b5aae2add7f023fe44a>@@V?$allocator@H@std@@P$AAUIBuffer@Streams@Storage@Windows@@V?$Local@VValue@v8@@@v8@@@std@@EBEPAV?$_Func_base@P$AAUIBuffer@Streams@Storage@Windows@@V?$Local@VValue@v8@@@v8@@@2@PAX@Z 10038150 f i _nodert_generated.obj
 0001:00037170       ?_Target_type@?$_Func_impl@V<lambda_74e29896e65e0b0ea397316bdaa40b7e>@@V?$allocator@H@std@@_NV?$Local@VValue@v8@@@v8@@@std@@EBEABVtype_info@@XZ 10038170 f i _nodert_generated.obj
 0001:00037180       ?_Do_call@?$_Func_impl@V<lambda_74e29896e65e0b0ea397316bdaa40b7e>@@V?$allocator@H@std@@_NV?$Local@VValue@v8@@@v8@@@std@@EAE_N$$QAV?$Local@VValue@v8@@@v8@@@Z 10038180 f i _nodert_generated.obj
 0001:000371a0       ?_Move@?$_Func_impl@V<lambda_74e29896e65e0b0ea397316bdaa40b7e>@@V?$allocator@H@std@@_NV?$Local@VValue@v8@@@v8@@@std@@EAEPAV?$_Func_base@_NV?$Local@VValue@v8@@@v8@@@2@PAX@Z 100381a0 f i _nodert_generated.obj
 0001:000371a0       ?_Copy@?$_Func_impl@V<lambda_74e29896e65e0b0ea397316bdaa40b7e>@@V?$allocator@H@std@@_NV?$Local@VValue@v8@@@v8@@@std@@EBEPAV?$_Func_base@_NV?$Local@VValue@v8@@@v8@@@2@PAX@Z 100381a0 f i _nodert_generated.obj
 0001:000371c0       ?_Delete_this@?$_Func_impl@V<lambda_69beb62467a038c376c709c65cfdcf60>@@V?$allocator@H@std@@V?$Local@VValue@v8@@@v8@@P$AAUIBuffer@Streams@Storage@Windows@@@std@@EAEX_N@Z 100381c0 f i _nodert_generated.obj
 0001:000371e0       ?_Target_type@?$_Func_impl@V<lambda_69beb62467a038c376c709c65cfdcf60>@@V?$allocator@H@std@@V?$Local@VValue@v8@@@v8@@P$AAUIBuffer@Streams@Storage@Windows@@@std@@EBEABVtype_info@@XZ 100381e0 f i _nodert_generated.obj
 0001:000371f0       ?_Do_call@?$_Func_impl@V<lambda_69beb62467a038c376c709c65cfdcf60>@@V?$allocator@H@std@@V?$Local@VValue@v8@@@v8@@P$AAUIBuffer@Streams@Storage@Windows@@@std@@EAE?AV?$Local@VValue@v8@@@v8@@$$QAP$AAUIBuffer@Streams@Storage@Windows@@@Z 100381f0 f i _nodert_generated.obj
 0001:00037220       ?_Copy@?$_Func_impl@V<lambda_69beb62467a038c376c709c65cfdcf60>@@V?$allocator@H@std@@V?$Local@VValue@v8@@@v8@@P$AAUIBuffer@Streams@Storage@Windows@@@std@@EBEPAV?$_Func_base@V?$Local@VValue@v8@@@v8@@P$AAUIBuffer@Streams@Storage@Windows@@@2@PAX@Z 10038220 f i _nodert_generated.obj
 0001:00037220       ?_Move@?$_Func_impl@V<lambda_69beb62467a038c376c709c65cfdcf60>@@V?$allocator@H@std@@V?$Local@VValue@v8@@@v8@@P$AAUIBuffer@Streams@Storage@Windows@@@std@@EAEPAV?$_Func_base@V?$Local@VValue@v8@@@v8@@P$AAUIBuffer@Streams@Storage@Windows@@@2@PAX@Z 10038220 f i _nodert_generated.obj
 0001:00037240       ?_Delete_this@?$_Func_impl@V<lambda_5f3b583570c66db5ec790701141b29d1>@@V?$allocator@H@std@@P$AAVRfcommDeviceService@Rfcomm@Bluetooth@Devices@Windows@@V?$Local@VValue@v8@@@v8@@@std@@EAEX_N@Z 10038240 f i _nodert_generated.obj
 0001:00037260       ?_Target_type@?$_Func_impl@V<lambda_5f3b583570c66db5ec790701141b29d1>@@V?$allocator@H@std@@P$AAVRfcommDeviceService@Rfcomm@Bluetooth@Devices@Windows@@V?$Local@VValue@v8@@@v8@@@std@@EBEABVtype_info@@XZ 10038260 f i _nodert_generated.obj
 0001:00037270       ?_Do_call@?$_Func_impl@V<lambda_5f3b583570c66db5ec790701141b29d1>@@V?$allocator@H@std@@P$AAVRfcommDeviceService@Rfcomm@Bluetooth@Devices@Windows@@V?$Local@VValue@v8@@@v8@@@std@@EAEP$AAVRfcommDeviceService@Rfcomm@Bluetooth@Devices@Windows@@$$QAV?$Local@VValue@v8@@@v8@@@Z 10038270 f i _nodert_generated.obj
 0001:000372e0       ?_Move@?$_Func_impl@V<lambda_5f3b583570c66db5ec790701141b29d1>@@V?$allocator@H@std@@P$AAVRfcommDeviceService@Rfcomm@Bluetooth@Devices@Windows@@V?$Local@VValue@v8@@@v8@@@std@@EAEPAV?$_Func_base@P$AAVRfcommDeviceService@Rfcomm@Bluetooth@Devices@Windows@@V?$Local@VValue@v8@@@v8@@@2@PAX@Z 100382e0 f i _nodert_generated.obj
 0001:000372e0       ?_Copy@?$_Func_impl@V<lambda_5f3b583570c66db5ec790701141b29d1>@@V?$allocator@H@std@@P$AAVRfcommDeviceService@Rfcomm@Bluetooth@Devices@Windows@@V?$Local@VValue@v8@@@v8@@@std@@EBEPAV?$_Func_base@P$AAVRfcommDeviceService@Rfcomm@Bluetooth@Devices@Windows@@V?$Local@VValue@v8@@@v8@@@2@PAX@Z 100382e0 f i _nodert_generated.obj
 0001:00037300       ?_Target_type@?$_Func_impl@V<lambda_47f361ef028abbee84897a6b0d975796>@@V?$allocator@H@std@@_NV?$Local@VValue@v8@@@v8@@@std@@EBEABVtype_info@@XZ 10038300 f i _nodert_generated.obj
 0001:00037310       ?_Do_call@?$_Func_impl@V<lambda_47f361ef028abbee84897a6b0d975796>@@V?$allocator@H@std@@_NV?$Local@VValue@v8@@@v8@@@std@@EAE_N$$QAV?$Local@VValue@v8@@@v8@@@Z 10038310 f i _nodert_generated.obj
 0001:00037330       ?_Copy@?$_Func_impl@V<lambda_47f361ef028abbee84897a6b0d975796>@@V?$allocator@H@std@@_NV?$Local@VValue@v8@@@v8@@@std@@EBEPAV?$_Func_base@_NV?$Local@VValue@v8@@@v8@@@2@PAX@Z 10038330 f i _nodert_generated.obj
 0001:00037330       ?_Move@?$_Func_impl@V<lambda_47f361ef028abbee84897a6b0d975796>@@V?$allocator@H@std@@_NV?$Local@VValue@v8@@@v8@@@std@@EAEPAV?$_Func_base@_NV?$Local@VValue@v8@@@v8@@@2@PAX@Z 10038330 f i _nodert_generated.obj
 0001:00037350       ?_Delete_this@?$_Func_impl@V<lambda_f329010e8d11ed93906f9193b952fa00>@@V?$allocator@H@std@@V?$Local@VValue@v8@@@v8@@P$AAVRfcommDeviceService@Rfcomm@Bluetooth@Devices@Windows@@@std@@EAEX_N@Z 10038350 f i _nodert_generated.obj
 0001:00037370       ?_Target_type@?$_Func_impl@V<lambda_f329010e8d11ed93906f9193b952fa00>@@V?$allocator@H@std@@V?$Local@VValue@v8@@@v8@@P$AAVRfcommDeviceService@Rfcomm@Bluetooth@Devices@Windows@@@std@@EBEABVtype_info@@XZ 10038370 f i _nodert_generated.obj
 0001:00037380       ?_Do_call@?$_Func_impl@V<lambda_f329010e8d11ed93906f9193b952fa00>@@V?$allocator@H@std@@V?$Local@VValue@v8@@@v8@@P$AAVRfcommDeviceService@Rfcomm@Bluetooth@Devices@Windows@@@std@@EAE?AV?$Local@VValue@v8@@@v8@@$$QAP$AAVRfcommDeviceService@Rfcomm@Bluetooth@Devices@Windows@@@Z 10038380 f i _nodert_generated.obj
 0001:000373b0       ?_Copy@?$_Func_impl@V<lambda_f329010e8d11ed93906f9193b952fa00>@@V?$allocator@H@std@@V?$Local@VValue@v8@@@v8@@P$AAVRfcommDeviceService@Rfcomm@Bluetooth@Devices@Windows@@@std@@EBEPAV?$_Func_base@V?$Local@VValue@v8@@@v8@@P$AAVRfcommDeviceService@Rfcomm@Bluetooth@Devices@Windows@@@2@PAX@Z 100383b0 f i _nodert_generated.obj
 0001:000373b0       ?_Move@?$_Func_impl@V<lambda_f329010e8d11ed93906f9193b952fa00>@@V?$allocator@H@std@@V?$Local@VValue@v8@@@v8@@P$AAVRfcommDeviceService@Rfcomm@Bluetooth@Devices@Windows@@@std@@EAEPAV?$_Func_base@V?$Local@VValue@v8@@@v8@@P$AAVRfcommDeviceService@Rfcomm@Bluetooth@Devices@Windows@@@2@PAX@Z 100383b0 f i _nodert_generated.obj
 0001:000373d0       ?_Delete_this@?$_Func_impl@V<lambda_28386656da5c779c164d4e8f3ced1c51>@@V?$allocator@H@std@@XV?$function@$$A6AXHPAV?$Local@VValue@v8@@@v8@@@Z@3@@std@@EAEX_N@Z 100383d0 f i _nodert_generated.obj
 0001:00037440       ?_Target_type@?$_Func_impl@V<lambda_28386656da5c779c164d4e8f3ced1c51>@@V?$allocator@H@std@@XV?$function@$$A6AXHPAV?$Local@VValue@v8@@@v8@@@Z@3@@std@@EBEABVtype_info@@XZ 10038440 f i _nodert_generated.obj
 0001:00037450       ?_Copy@?$_Func_impl@V<lambda_28386656da5c779c164d4e8f3ced1c51>@@V?$allocator@H@std@@XV?$function@$$A6AXHPAV?$Local@VValue@v8@@@v8@@@Z@3@@std@@EBEPAV?$_Func_base@XV?$function@$$A6AXHPAV?$Local@VValue@v8@@@v8@@@Z@std@@@2@PAX@Z 10038450 f i _nodert_generated.obj
 0001:00037450       ?_Move@?$_Func_impl@V<lambda_28386656da5c779c164d4e8f3ced1c51>@@V?$allocator@H@std@@XV?$function@$$A6AXHPAV?$Local@VValue@v8@@@v8@@@Z@3@@std@@EAEPAV?$_Func_base@XV?$function@$$A6AXHPAV?$Local@VValue@v8@@@v8@@@Z@std@@@2@PAX@Z 10038450 f i _nodert_generated.obj
 0001:000374b0       ?_Delete_this@?$_Func_impl@V<lambda_4ef9722db020cc44c324cd40b412edef>@@V?$allocator@H@std@@XV?$function@$$A6AXHPAV?$Local@VValue@v8@@@v8@@@Z@3@@std@@EAEX_N@Z 100384b0 f i _nodert_generated.obj
 0001:00037520       ?_Target_type@?$_Func_impl@V<lambda_4ef9722db020cc44c324cd40b412edef>@@V?$allocator@H@std@@XV?$function@$$A6AXHPAV?$Local@VValue@v8@@@v8@@@Z@3@@std@@EBEABVtype_info@@XZ 10038520 f i _nodert_generated.obj
 0001:00037530       ?_Do_call@?$_Func_impl@V<lambda_ecb9dd0ae37e39021795d8045ef0ac04>@@V?$allocator@H@std@@XV?$function@$$A6AXHPAV?$Local@VValue@v8@@@v8@@@Z@3@@std@@EAEX$$QAV?$function@$$A6AXHPAV?$Local@VValue@v8@@@v8@@@Z@2@@Z 10038530 f i _nodert_generated.obj
 0001:00037530       ?_Do_call@?$_Func_impl@V<lambda_4ef9722db020cc44c324cd40b412edef>@@V?$allocator@H@std@@XV?$function@$$A6AXHPAV?$Local@VValue@v8@@@v8@@@Z@3@@std@@EAEX$$QAV?$function@$$A6AXHPAV?$Local@VValue@v8@@@v8@@@Z@2@@Z 10038530 f i _nodert_generated.obj
 0001:00037530       ?_Do_call@?$_Func_impl@V<lambda_ce186e95416a375dc50e4d51deb0226a>@@V?$allocator@H@std@@XV?$function@$$A6AXHPAV?$Local@VValue@v8@@@v8@@@Z@3@@std@@EAEX$$QAV?$function@$$A6AXHPAV?$Local@VValue@v8@@@v8@@@Z@2@@Z 10038530 f i _nodert_generated.obj
 0001:00037540       ?_Copy@?$_Func_impl@V<lambda_4ef9722db020cc44c324cd40b412edef>@@V?$allocator@H@std@@XV?$function@$$A6AXHPAV?$Local@VValue@v8@@@v8@@@Z@3@@std@@EBEPAV?$_Func_base@XV?$function@$$A6AXHPAV?$Local@VValue@v8@@@v8@@@Z@std@@@2@PAX@Z 10038540 f i _nodert_generated.obj
 0001:00037540       ?_Move@?$_Func_impl@V<lambda_4ef9722db020cc44c324cd40b412edef>@@V?$allocator@H@std@@XV?$function@$$A6AXHPAV?$Local@VValue@v8@@@v8@@@Z@3@@std@@EAEPAV?$_Func_base@XV?$function@$$A6AXHPAV?$Local@VValue@v8@@@v8@@@Z@std@@@2@PAX@Z 10038540 f i _nodert_generated.obj
 0001:000375a0       ?_Delete_this@?$_Func_impl@V<lambda_9b07747e2608eab745e1d48b0ade56b8>@@V?$allocator@H@std@@XV?$function@$$A6AXHPAV?$Local@VValue@v8@@@v8@@@Z@3@@std@@EAEX_N@Z 100385a0 f i _nodert_generated.obj
 0001:00037610       ?_Target_type@?$_Func_impl@V<lambda_9b07747e2608eab745e1d48b0ade56b8>@@V?$allocator@H@std@@XV?$function@$$A6AXHPAV?$Local@VValue@v8@@@v8@@@Z@3@@std@@EBEABVtype_info@@XZ 10038610 f i _nodert_generated.obj
 0001:00037620       ?_Copy@?$_Func_impl@V<lambda_9b07747e2608eab745e1d48b0ade56b8>@@V?$allocator@H@std@@XV?$function@$$A6AXHPAV?$Local@VValue@v8@@@v8@@@Z@3@@std@@EBEPAV?$_Func_base@XV?$function@$$A6AXHPAV?$Local@VValue@v8@@@v8@@@Z@std@@@2@PAX@Z 10038620 f i _nodert_generated.obj
 0001:00037620       ?_Move@?$_Func_impl@V<lambda_9b07747e2608eab745e1d48b0ade56b8>@@V?$allocator@H@std@@XV?$function@$$A6AXHPAV?$Local@VValue@v8@@@v8@@@Z@3@@std@@EAEPAV?$_Func_base@XV?$function@$$A6AXHPAV?$Local@VValue@v8@@@v8@@@Z@std@@@2@PAX@Z 10038620 f i _nodert_generated.obj
 0001:00037680       ?_Delete_this@?$_Func_impl@V<lambda_ce186e95416a375dc50e4d51deb0226a>@@V?$allocator@H@std@@XV?$function@$$A6AXHPAV?$Local@VValue@v8@@@v8@@@Z@3@@std@@EAEX_N@Z 10038680 f i _nodert_generated.obj
 0001:000376f0       ?_Target_type@?$_Func_impl@V<lambda_ce186e95416a375dc50e4d51deb0226a>@@V?$allocator@H@std@@XV?$function@$$A6AXHPAV?$Local@VValue@v8@@@v8@@@Z@3@@std@@EBEABVtype_info@@XZ 100386f0 f i _nodert_generated.obj
 0001:00037700       ?_Move@?$_Func_impl@V<lambda_ce186e95416a375dc50e4d51deb0226a>@@V?$allocator@H@std@@XV?$function@$$A6AXHPAV?$Local@VValue@v8@@@v8@@@Z@3@@std@@EAEPAV?$_Func_base@XV?$function@$$A6AXHPAV?$Local@VValue@v8@@@v8@@@Z@std@@@2@PAX@Z 10038700 f i _nodert_generated.obj
 0001:00037700       ?_Copy@?$_Func_impl@V<lambda_ce186e95416a375dc50e4d51deb0226a>@@V?$allocator@H@std@@XV?$function@$$A6AXHPAV?$Local@VValue@v8@@@v8@@@Z@3@@std@@EBEPAV?$_Func_base@XV?$function@$$A6AXHPAV?$Local@VValue@v8@@@v8@@@Z@std@@@2@PAX@Z 10038700 f i _nodert_generated.obj
 0001:00037760       ?_Delete_this@?$_Func_impl@V<lambda_0a965d69dad08e8c30c0d6726b1285f8>@@V?$allocator@H@std@@XV?$function@$$A6AXHPAV?$Local@VValue@v8@@@v8@@@Z@3@@std@@EAEX_N@Z 10038760 f i _nodert_generated.obj
 0001:000377d0       ?_Target_type@?$_Func_impl@V<lambda_0a965d69dad08e8c30c0d6726b1285f8>@@V?$allocator@H@std@@XV?$function@$$A6AXHPAV?$Local@VValue@v8@@@v8@@@Z@3@@std@@EBEABVtype_info@@XZ 100387d0 f i _nodert_generated.obj
 0001:000377e0       ?_Copy@?$_Func_impl@V<lambda_0a965d69dad08e8c30c0d6726b1285f8>@@V?$allocator@H@std@@XV?$function@$$A6AXHPAV?$Local@VValue@v8@@@v8@@@Z@3@@std@@EBEPAV?$_Func_base@XV?$function@$$A6AXHPAV?$Local@VValue@v8@@@v8@@@Z@std@@@2@PAX@Z 100387e0 f i _nodert_generated.obj
 0001:000377e0       ?_Move@?$_Func_impl@V<lambda_0a965d69dad08e8c30c0d6726b1285f8>@@V?$allocator@H@std@@XV?$function@$$A6AXHPAV?$Local@VValue@v8@@@v8@@@Z@3@@std@@EAEPAV?$_Func_base@XV?$function@$$A6AXHPAV?$Local@VValue@v8@@@v8@@@Z@std@@@2@PAX@Z 100387e0 f i _nodert_generated.obj
 0001:00037840       ?_Delete_this@?$_Func_impl@V<lambda_ecb9dd0ae37e39021795d8045ef0ac04>@@V?$allocator@H@std@@XV?$function@$$A6AXHPAV?$Local@VValue@v8@@@v8@@@Z@3@@std@@EAEX_N@Z 10038840 f i _nodert_generated.obj
 0001:000378b0       ?_Target_type@?$_Func_impl@V<lambda_ecb9dd0ae37e39021795d8045ef0ac04>@@V?$allocator@H@std@@XV?$function@$$A6AXHPAV?$Local@VValue@v8@@@v8@@@Z@3@@std@@EBEABVtype_info@@XZ 100388b0 f i _nodert_generated.obj
 0001:000378c0       ?_Move@?$_Func_impl@V<lambda_ecb9dd0ae37e39021795d8045ef0ac04>@@V?$allocator@H@std@@XV?$function@$$A6AXHPAV?$Local@VValue@v8@@@v8@@@Z@3@@std@@EAEPAV?$_Func_base@XV?$function@$$A6AXHPAV?$Local@VValue@v8@@@v8@@@Z@std@@@2@PAX@Z 100388c0 f i _nodert_generated.obj
 0001:000378c0       ?_Copy@?$_Func_impl@V<lambda_ecb9dd0ae37e39021795d8045ef0ac04>@@V?$allocator@H@std@@XV?$function@$$A6AXHPAV?$Local@VValue@v8@@@v8@@@Z@3@@std@@EBEPAV?$_Func_base@XV?$function@$$A6AXHPAV?$Local@VValue@v8@@@v8@@@Z@std@@@2@PAX@Z 100388c0 f i _nodert_generated.obj
 0001:00037920       ?_Delete_this@?$_Func_impl@V<lambda_262dc18221bbebaf5c9d902693b8c78e>@@V?$allocator@H@std@@XV?$function@$$A6AXHPAV?$Local@VValue@v8@@@v8@@@Z@3@@std@@EAEX_N@Z 10038920 f i _nodert_generated.obj
 0001:00037990       ?_Target_type@?$_Func_impl@V<lambda_262dc18221bbebaf5c9d902693b8c78e>@@V?$allocator@H@std@@XV?$function@$$A6AXHPAV?$Local@VValue@v8@@@v8@@@Z@3@@std@@EBEABVtype_info@@XZ 10038990 f i _nodert_generated.obj
 0001:000379a0       ?_Move@?$_Func_impl@V<lambda_262dc18221bbebaf5c9d902693b8c78e>@@V?$allocator@H@std@@XV?$function@$$A6AXHPAV?$Local@VValue@v8@@@v8@@@Z@3@@std@@EAEPAV?$_Func_base@XV?$function@$$A6AXHPAV?$Local@VValue@v8@@@v8@@@Z@std@@@2@PAX@Z 100389a0 f i _nodert_generated.obj
 0001:000379a0       ?_Copy@?$_Func_impl@V<lambda_262dc18221bbebaf5c9d902693b8c78e>@@V?$allocator@H@std@@XV?$function@$$A6AXHPAV?$Local@VValue@v8@@@v8@@@Z@3@@std@@EBEPAV?$_Func_base@XV?$function@$$A6AXHPAV?$Local@VValue@v8@@@v8@@@Z@std@@@2@PAX@Z 100389a0 f i _nodert_generated.obj
 0001:00037a00       ?_Delete_this@?$_Func_impl@V<lambda_ad54f25efe834c8863be8e55d55ceb51>@@V?$allocator@H@std@@XV?$function@$$A6AXHPAV?$Local@VValue@v8@@@v8@@@Z@3@@std@@EAEX_N@Z 10038a00 f i _nodert_generated.obj
 0001:00037a70       ?_Target_type@?$_Func_impl@V<lambda_ad54f25efe834c8863be8e55d55ceb51>@@V?$allocator@H@std@@XV?$function@$$A6AXHPAV?$Local@VValue@v8@@@v8@@@Z@3@@std@@EBEABVtype_info@@XZ 10038a70 f i _nodert_generated.obj
 0001:00037a80       ?_Do_call@?$_Func_impl@V<lambda_fcae90260632ca601fce10b1a87b1d76>@@V?$allocator@H@std@@XV?$function@$$A6AXHPAV?$Local@VValue@v8@@@v8@@@Z@3@@std@@EAEX$$QAV?$function@$$A6AXHPAV?$Local@VValue@v8@@@v8@@@Z@2@@Z 10038a80 f i _nodert_generated.obj
 0001:00037a80       ?_Do_call@?$_Func_impl@V<lambda_ad54f25efe834c8863be8e55d55ceb51>@@V?$allocator@H@std@@XV?$function@$$A6AXHPAV?$Local@VValue@v8@@@v8@@@Z@3@@std@@EAEX$$QAV?$function@$$A6AXHPAV?$Local@VValue@v8@@@v8@@@Z@2@@Z 10038a80 f i _nodert_generated.obj
 0001:00037a90       ?_Move@?$_Func_impl@V<lambda_ad54f25efe834c8863be8e55d55ceb51>@@V?$allocator@H@std@@XV?$function@$$A6AXHPAV?$Local@VValue@v8@@@v8@@@Z@3@@std@@EAEPAV?$_Func_base@XV?$function@$$A6AXHPAV?$Local@VValue@v8@@@v8@@@Z@std@@@2@PAX@Z 10038a90 f i _nodert_generated.obj
 0001:00037a90       ?_Copy@?$_Func_impl@V<lambda_ad54f25efe834c8863be8e55d55ceb51>@@V?$allocator@H@std@@XV?$function@$$A6AXHPAV?$Local@VValue@v8@@@v8@@@Z@3@@std@@EBEPAV?$_Func_base@XV?$function@$$A6AXHPAV?$Local@VValue@v8@@@v8@@@Z@std@@@2@PAX@Z 10038a90 f i _nodert_generated.obj
 0001:00037af0       ?_Delete_this@?$_Func_impl@V<lambda_3de740e13969e2b8a3ac1e24d37ecf1e>@@V?$allocator@H@std@@XV?$function@$$A6AXHPAV?$Local@VValue@v8@@@v8@@@Z@3@@std@@EAEX_N@Z 10038af0 f i _nodert_generated.obj
 0001:00037b60       ?_Target_type@?$_Func_impl@V<lambda_3de740e13969e2b8a3ac1e24d37ecf1e>@@V?$allocator@H@std@@XV?$function@$$A6AXHPAV?$Local@VValue@v8@@@v8@@@Z@3@@std@@EBEABVtype_info@@XZ 10038b60 f i _nodert_generated.obj
 0001:00037b70       ?_Copy@?$_Func_impl@V<lambda_3de740e13969e2b8a3ac1e24d37ecf1e>@@V?$allocator@H@std@@XV?$function@$$A6AXHPAV?$Local@VValue@v8@@@v8@@@Z@3@@std@@EBEPAV?$_Func_base@XV?$function@$$A6AXHPAV?$Local@VValue@v8@@@v8@@@Z@std@@@2@PAX@Z 10038b70 f i _nodert_generated.obj
 0001:00037b70       ?_Move@?$_Func_impl@V<lambda_3de740e13969e2b8a3ac1e24d37ecf1e>@@V?$allocator@H@std@@XV?$function@$$A6AXHPAV?$Local@VValue@v8@@@v8@@@Z@3@@std@@EAEPAV?$_Func_base@XV?$function@$$A6AXHPAV?$Local@VValue@v8@@@v8@@@Z@std@@@2@PAX@Z 10038b70 f i _nodert_generated.obj
 0001:00037bd0       ?_Delete_this@?$_Func_impl@V<lambda_fcae90260632ca601fce10b1a87b1d76>@@V?$allocator@H@std@@XV?$function@$$A6AXHPAV?$Local@VValue@v8@@@v8@@@Z@3@@std@@EAEX_N@Z 10038bd0 f i _nodert_generated.obj
 0001:00037c40       ?_Target_type@?$_Func_impl@V<lambda_fcae90260632ca601fce10b1a87b1d76>@@V?$allocator@H@std@@XV?$function@$$A6AXHPAV?$Local@VValue@v8@@@v8@@@Z@3@@std@@EBEABVtype_info@@XZ 10038c40 f i _nodert_generated.obj
 0001:00037c50       ?_Move@?$_Func_impl@V<lambda_fcae90260632ca601fce10b1a87b1d76>@@V?$allocator@H@std@@XV?$function@$$A6AXHPAV?$Local@VValue@v8@@@v8@@@Z@3@@std@@EAEPAV?$_Func_base@XV?$function@$$A6AXHPAV?$Local@VValue@v8@@@v8@@@Z@std@@@2@PAX@Z 10038c50 f i _nodert_generated.obj
 0001:00037c50       ?_Copy@?$_Func_impl@V<lambda_fcae90260632ca601fce10b1a87b1d76>@@V?$allocator@H@std@@XV?$function@$$A6AXHPAV?$Local@VValue@v8@@@v8@@@Z@3@@std@@EBEPAV?$_Func_base@XV?$function@$$A6AXHPAV?$Local@VValue@v8@@@v8@@@Z@std@@@2@PAX@Z 10038c50 f i _nodert_generated.obj
 0001:00037cb0       ?_Delete_this@?$_Func_impl@V<lambda_85324de540444b6fadd78ae5974fe4b9>@@V?$allocator@H@std@@XV?$function@$$A6AXHPAV?$Local@VValue@v8@@@v8@@@Z@3@@std@@EAEX_N@Z 10038cb0 f i _nodert_generated.obj
 0001:00037d20       ?_Target_type@?$_Func_impl@V<lambda_85324de540444b6fadd78ae5974fe4b9>@@V?$allocator@H@std@@XV?$function@$$A6AXHPAV?$Local@VValue@v8@@@v8@@@Z@3@@std@@EBEABVtype_info@@XZ 10038d20 f i _nodert_generated.obj
 0001:00037d30       ?_Move@?$_Func_impl@V<lambda_85324de540444b6fadd78ae5974fe4b9>@@V?$allocator@H@std@@XV?$function@$$A6AXHPAV?$Local@VValue@v8@@@v8@@@Z@3@@std@@EAEPAV?$_Func_base@XV?$function@$$A6AXHPAV?$Local@VValue@v8@@@v8@@@Z@std@@@2@PAX@Z 10038d30 f i _nodert_generated.obj
 0001:00037d30       ?_Copy@?$_Func_impl@V<lambda_85324de540444b6fadd78ae5974fe4b9>@@V?$allocator@H@std@@XV?$function@$$A6AXHPAV?$Local@VValue@v8@@@v8@@@Z@3@@std@@EBEPAV?$_Func_base@XV?$function@$$A6AXHPAV?$Local@VValue@v8@@@v8@@@Z@std@@@2@PAX@Z 10038d30 f i _nodert_generated.obj
 0001:00037d90       ?_Target_type@?$_Func_impl@V<lambda_e274403a9a3c76a94c80f22710ef3033>@@V?$allocator@H@std@@XV?$function@$$A6AXHPAV?$Local@VValue@v8@@@v8@@@Z@3@@std@@EBEABVtype_info@@XZ 10038d90 f i _nodert_generated.obj
 0001:00037da0       ?_Copy@?$_Func_impl@V<lambda_e274403a9a3c76a94c80f22710ef3033>@@V?$allocator@H@std@@XV?$function@$$A6AXHPAV?$Local@VValue@v8@@@v8@@@Z@3@@std@@EBEPAV?$_Func_base@XV?$function@$$A6AXHPAV?$Local@VValue@v8@@@v8@@@Z@std@@@2@PAX@Z 10038da0 f i _nodert_generated.obj
 0001:00037da0       ?_Move@?$_Func_impl@V<lambda_e274403a9a3c76a94c80f22710ef3033>@@V?$allocator@H@std@@XV?$function@$$A6AXHPAV?$Local@VValue@v8@@@v8@@@Z@3@@std@@EAEPAV?$_Func_base@XV?$function@$$A6AXHPAV?$Local@VValue@v8@@@v8@@@Z@std@@@2@PAX@Z 10038da0 f i _nodert_generated.obj
 0001:00037dc0       ?_Delete_this@?$_Func_impl@V<lambda_303346c6205280f0400a0a4337cb6f94>@@V?$allocator@H@std@@XV?$function@$$A6AXHPAV?$Local@VValue@v8@@@v8@@@Z@3@@std@@EAEX_N@Z 10038dc0 f i _nodert_generated.obj
 0001:00037e30       ?_Target_type@?$_Func_impl@V<lambda_303346c6205280f0400a0a4337cb6f94>@@V?$allocator@H@std@@XV?$function@$$A6AXHPAV?$Local@VValue@v8@@@v8@@@Z@3@@std@@EBEABVtype_info@@XZ 10038e30 f i _nodert_generated.obj
 0001:00037e40       ?_Copy@?$_Func_impl@V<lambda_303346c6205280f0400a0a4337cb6f94>@@V?$allocator@H@std@@XV?$function@$$A6AXHPAV?$Local@VValue@v8@@@v8@@@Z@3@@std@@EBEPAV?$_Func_base@XV?$function@$$A6AXHPAV?$Local@VValue@v8@@@v8@@@Z@std@@@2@PAX@Z 10038e40 f i _nodert_generated.obj
 0001:00037e40       ?_Move@?$_Func_impl@V<lambda_303346c6205280f0400a0a4337cb6f94>@@V?$allocator@H@std@@XV?$function@$$A6AXHPAV?$Local@VValue@v8@@@v8@@@Z@3@@std@@EAEPAV?$_Func_base@XV?$function@$$A6AXHPAV?$Local@VValue@v8@@@v8@@@Z@std@@@2@PAX@Z 10038e40 f i _nodert_generated.obj
 0001:00037ea0       ?_Delete_this@?$_Func_impl@V<lambda_6b344b9f416cbf271c606b5f43372795>@@V?$allocator@H@std@@XV?$function@$$A6AXHPAV?$Local@VValue@v8@@@v8@@@Z@3@@std@@EAEX_N@Z 10038ea0 f i _nodert_generated.obj
 0001:00037f10       ?_Target_type@?$_Func_impl@V<lambda_6b344b9f416cbf271c606b5f43372795>@@V?$allocator@H@std@@XV?$function@$$A6AXHPAV?$Local@VValue@v8@@@v8@@@Z@3@@std@@EBEABVtype_info@@XZ 10038f10 f i _nodert_generated.obj
 0001:00037f20       ?_Do_call@?$_Func_impl@V<lambda_be75d5fea2a84d65e08b7b948640c5d3>@@V?$allocator@H@std@@XV?$function@$$A6AXHPAV?$Local@VValue@v8@@@v8@@@Z@3@@std@@EAEX$$QAV?$function@$$A6AXHPAV?$Local@VValue@v8@@@v8@@@Z@2@@Z 10038f20 f i _nodert_generated.obj
 0001:00037f20       ?_Do_call@?$_Func_impl@V<lambda_6b344b9f416cbf271c606b5f43372795>@@V?$allocator@H@std@@XV?$function@$$A6AXHPAV?$Local@VValue@v8@@@v8@@@Z@3@@std@@EAEX$$QAV?$function@$$A6AXHPAV?$Local@VValue@v8@@@v8@@@Z@2@@Z 10038f20 f i _nodert_generated.obj
 0001:00037f30       ?_Move@?$_Func_impl@V<lambda_6b344b9f416cbf271c606b5f43372795>@@V?$allocator@H@std@@XV?$function@$$A6AXHPAV?$Local@VValue@v8@@@v8@@@Z@3@@std@@EAEPAV?$_Func_base@XV?$function@$$A6AXHPAV?$Local@VValue@v8@@@v8@@@Z@std@@@2@PAX@Z 10038f30 f i _nodert_generated.obj
 0001:00037f30       ?_Copy@?$_Func_impl@V<lambda_6b344b9f416cbf271c606b5f43372795>@@V?$allocator@H@std@@XV?$function@$$A6AXHPAV?$Local@VValue@v8@@@v8@@@Z@3@@std@@EBEPAV?$_Func_base@XV?$function@$$A6AXHPAV?$Local@VValue@v8@@@v8@@@Z@std@@@2@PAX@Z 10038f30 f i _nodert_generated.obj
 0001:00037f90       ?_Delete_this@?$_Func_impl@V<lambda_18e6cab7d1ade338b0bade6a66c837c9>@@V?$allocator@H@std@@XV?$function@$$A6AXHPAV?$Local@VValue@v8@@@v8@@@Z@3@@std@@EAEX_N@Z 10038f90 f i _nodert_generated.obj
 0001:00038000       ?_Target_type@?$_Func_impl@V<lambda_18e6cab7d1ade338b0bade6a66c837c9>@@V?$allocator@H@std@@XV?$function@$$A6AXHPAV?$Local@VValue@v8@@@v8@@@Z@3@@std@@EBEABVtype_info@@XZ 10039000 f i _nodert_generated.obj
 0001:00038010       ?_Move@?$_Func_impl@V<lambda_18e6cab7d1ade338b0bade6a66c837c9>@@V?$allocator@H@std@@XV?$function@$$A6AXHPAV?$Local@VValue@v8@@@v8@@@Z@3@@std@@EAEPAV?$_Func_base@XV?$function@$$A6AXHPAV?$Local@VValue@v8@@@v8@@@Z@std@@@2@PAX@Z 10039010 f i _nodert_generated.obj
 0001:00038010       ?_Copy@?$_Func_impl@V<lambda_18e6cab7d1ade338b0bade6a66c837c9>@@V?$allocator@H@std@@XV?$function@$$A6AXHPAV?$Local@VValue@v8@@@v8@@@Z@3@@std@@EBEPAV?$_Func_base@XV?$function@$$A6AXHPAV?$Local@VValue@v8@@@v8@@@Z@std@@@2@PAX@Z 10039010 f i _nodert_generated.obj
 0001:00038070       ?_Delete_this@?$_Func_impl@V<lambda_be75d5fea2a84d65e08b7b948640c5d3>@@V?$allocator@H@std@@XV?$function@$$A6AXHPAV?$Local@VValue@v8@@@v8@@@Z@3@@std@@EAEX_N@Z 10039070 f i _nodert_generated.obj
 0001:000380e0       ?_Target_type@?$_Func_impl@V<lambda_be75d5fea2a84d65e08b7b948640c5d3>@@V?$allocator@H@std@@XV?$function@$$A6AXHPAV?$Local@VValue@v8@@@v8@@@Z@3@@std@@EBEABVtype_info@@XZ 100390e0 f i _nodert_generated.obj
 0001:000380f0       ?_Copy@?$_Func_impl@V<lambda_be75d5fea2a84d65e08b7b948640c5d3>@@V?$allocator@H@std@@XV?$function@$$A6AXHPAV?$Local@VValue@v8@@@v8@@@Z@3@@std@@EBEPAV?$_Func_base@XV?$function@$$A6AXHPAV?$Local@VValue@v8@@@v8@@@Z@std@@@2@PAX@Z 100390f0 f i _nodert_generated.obj
 0001:000380f0       ?_Move@?$_Func_impl@V<lambda_be75d5fea2a84d65e08b7b948640c5d3>@@V?$allocator@H@std@@XV?$function@$$A6AXHPAV?$Local@VValue@v8@@@v8@@@Z@3@@std@@EAEPAV?$_Func_base@XV?$function@$$A6AXHPAV?$Local@VValue@v8@@@v8@@@Z@std@@@2@PAX@Z 100390f0 f i _nodert_generated.obj
 0001:00038150       ?_Delete_this@?$_Func_impl@V<lambda_14f1f715b558ff3f1896f1a2d375bd61>@@V?$allocator@H@std@@XV?$function@$$A6AXHPAV?$Local@VValue@v8@@@v8@@@Z@3@@std@@EAEX_N@Z 10039150 f i _nodert_generated.obj
 0001:000381c0       ?_Target_type@?$_Func_impl@V<lambda_14f1f715b558ff3f1896f1a2d375bd61>@@V?$allocator@H@std@@XV?$function@$$A6AXHPAV?$Local@VValue@v8@@@v8@@@Z@3@@std@@EBEABVtype_info@@XZ 100391c0 f i _nodert_generated.obj
 0001:000381d0       ?_Copy@?$_Func_impl@V<lambda_14f1f715b558ff3f1896f1a2d375bd61>@@V?$allocator@H@std@@XV?$function@$$A6AXHPAV?$Local@VValue@v8@@@v8@@@Z@3@@std@@EBEPAV?$_Func_base@XV?$function@$$A6AXHPAV?$Local@VValue@v8@@@v8@@@Z@std@@@2@PAX@Z 100391d0 f i _nodert_generated.obj
 0001:000381d0       ?_Move@?$_Func_impl@V<lambda_14f1f715b558ff3f1896f1a2d375bd61>@@V?$allocator@H@std@@XV?$function@$$A6AXHPAV?$Local@VValue@v8@@@v8@@@Z@3@@std@@EAEPAV?$_Func_base@XV?$function@$$A6AXHPAV?$Local@VValue@v8@@@v8@@@Z@std@@@2@PAX@Z 100391d0 f i _nodert_generated.obj
 0001:00038230       ?_Delete_this@?$_Func_impl@V<lambda_418da4fc7fd2d4ca75e49519a55b40b1>@@V?$allocator@H@std@@XV?$function@$$A6AXHPAV?$Local@VValue@v8@@@v8@@@Z@3@@std@@EAEX_N@Z 10039230 f i _nodert_generated.obj
 0001:000382a0       ?_Target_type@?$_Func_impl@V<lambda_418da4fc7fd2d4ca75e49519a55b40b1>@@V?$allocator@H@std@@XV?$function@$$A6AXHPAV?$Local@VValue@v8@@@v8@@@Z@3@@std@@EBEABVtype_info@@XZ 100392a0 f i _nodert_generated.obj
 0001:000382b0       ?_Do_call@?$_Func_impl@V<lambda_418da4fc7fd2d4ca75e49519a55b40b1>@@V?$allocator@H@std@@XV?$function@$$A6AXHPAV?$Local@VValue@v8@@@v8@@@Z@3@@std@@EAEX$$QAV?$function@$$A6AXHPAV?$Local@VValue@v8@@@v8@@@Z@2@@Z 100392b0 f i _nodert_generated.obj
 0001:000382c0       ?_Move@?$_Func_impl@V<lambda_418da4fc7fd2d4ca75e49519a55b40b1>@@V?$allocator@H@std@@XV?$function@$$A6AXHPAV?$Local@VValue@v8@@@v8@@@Z@3@@std@@EAEPAV?$_Func_base@XV?$function@$$A6AXHPAV?$Local@VValue@v8@@@v8@@@Z@std@@@2@PAX@Z 100392c0 f i _nodert_generated.obj
 0001:000382c0       ?_Copy@?$_Func_impl@V<lambda_418da4fc7fd2d4ca75e49519a55b40b1>@@V?$allocator@H@std@@XV?$function@$$A6AXHPAV?$Local@VValue@v8@@@v8@@@Z@3@@std@@EBEPAV?$_Func_base@XV?$function@$$A6AXHPAV?$Local@VValue@v8@@@v8@@@Z@std@@@2@PAX@Z 100392c0 f i _nodert_generated.obj
 0001:00038320       ?_Delete_this@?$_Func_impl@V<lambda_847758569c482b5c3071d04a93fd5a03>@@V?$allocator@H@std@@X$$V@std@@EAEX_N@Z 10039320 f i _nodert_generated.obj
 0001:00038390       ?_Get@?$_Func_impl@V<lambda_749f92b422219f4d260f34f9dde3ae86>@@V?$allocator@H@std@@EV?$task@P$AAVBluetoothLEDevice@Bluetooth@Devices@Windows@@@Concurrency@@@std@@EBEPBXXZ 10039390 f i _nodert_generated.obj
 0001:00038390       ?_Get@?$_Func_impl@V<lambda_7773c71012c4af674f9a3bb3690277ff>@@V?$allocator@H@std@@EV?$task@P$AAVBluetoothDevice@Bluetooth@Devices@Windows@@@Concurrency@@@std@@EBEPBXXZ 10039390 f i _nodert_generated.obj
 0001:00038390       ?_Get@?$_Func_impl@V<lambda_847758569c482b5c3071d04a93fd5a03>@@V?$allocator@H@std@@X$$V@std@@EBEPBXXZ 10039390 f i _nodert_generated.obj
 0001:00038390       ?_Get@?$_Func_impl@V<lambda_2a03942fff1a73436735524b9a8ac91e>@@V?$allocator@H@std@@EV?$task@P$AAVRfcommDeviceServicesResult@Rfcomm@Bluetooth@Devices@Windows@@@Concurrency@@@std@@EBEPBXXZ 10039390 f i _nodert_generated.obj
 0001:00038390       ?_Get@?$_Func_impl@V<lambda_870e6e8cb923108b535073a80d5d4ae0>@@V?$allocator@H@std@@EV?$task@W4DeviceAccessStatus@Enumeration@Devices@Windows@@@Concurrency@@@std@@EBEPBXXZ 10039390 f i _nodert_generated.obj
 0001:00038390       ?_Get@?$_Func_impl@V<lambda_c27880a56ba3ded47134e23bf355db13>@@V?$allocator@H@std@@EV?$task@P$AAVRadio@Radios@Devices@Windows@@@Concurrency@@@std@@EBEPBXXZ 10039390 f i _nodert_generated.obj
 0001:00038390       ?_Get@?$_Func_impl@V<lambda_20f0255a0880adcdcbb70956292e7256>@@V?$allocator@H@std@@EV?$task@P$AAVGattDeviceServicesResult@GenericAttributeProfile@Bluetooth@Devices@Windows@@@Concurrency@@@std@@EBEPBXXZ 10039390 f i _nodert_generated.obj
 0001:00038390       ?_Get@?$_Func_impl@V<lambda_cd354b07c1162eefc9da4ba0b335fb0f>@@V?$allocator@H@std@@EV?$task@P$AAVBluetoothAdapter@Bluetooth@Devices@Windows@@@Concurrency@@@std@@EBEPBXXZ 10039390 f i _nodert_generated.obj
 0001:000383a0       ?_Target_type@?$_Func_impl@V<lambda_847758569c482b5c3071d04a93fd5a03>@@V?$allocator@H@std@@X$$V@std@@EBEABVtype_info@@XZ 100393a0 f i _nodert_generated.obj
 0001:000383b0       ?_Do_call@?$_Func_impl@V<lambda_847758569c482b5c3071d04a93fd5a03>@@V?$allocator@H@std@@X$$V@std@@EAEXXZ 100393b0 f i _nodert_generated.obj
 0001:000383c0       ?_Move@?$_Func_impl@V<lambda_847758569c482b5c3071d04a93fd5a03>@@V?$allocator@H@std@@X$$V@std@@EAEPAV?$_Func_base@X$$V@2@PAX@Z 100393c0 f i _nodert_generated.obj
 0001:00038430       ?_Copy@?$_Func_impl@V<lambda_847758569c482b5c3071d04a93fd5a03>@@V?$allocator@H@std@@X$$V@std@@EBEPAV?$_Func_base@X$$V@2@PAX@Z 10039430 f i _nodert_generated.obj
 0001:00038490       ?_Delete_this@?$_Func_impl@V<lambda_938fa980b0b5f876be0458d9a1d6acb0>@@V?$allocator@H@std@@XHPAV?$Local@VValue@v8@@@v8@@@std@@EAEX_N@Z 10039490 f i _nodert_generated.obj
 0001:000384b0       ?_Target_type@?$_Func_impl@V<lambda_938fa980b0b5f876be0458d9a1d6acb0>@@V?$allocator@H@std@@XHPAV?$Local@VValue@v8@@@v8@@@std@@EBEABVtype_info@@XZ 100394b0 f i _nodert_generated.obj
 0001:000384c0       ?_Do_call@?$_Func_impl@V<lambda_938fa980b0b5f876be0458d9a1d6acb0>@@V?$allocator@H@std@@XHPAV?$Local@VValue@v8@@@v8@@@std@@EAEX$$QAH$$QAPAV?$Local@VValue@v8@@@v8@@@Z 100394c0 f i _nodert_generated.obj
 0001:000384e0       ?_Move@?$_Func_impl@V<lambda_938fa980b0b5f876be0458d9a1d6acb0>@@V?$allocator@H@std@@XHPAV?$Local@VValue@v8@@@v8@@@std@@EAEPAV?$_Func_base@XHPAV?$Local@VValue@v8@@@v8@@@2@PAX@Z 100394e0 f i _nodert_generated.obj
 0001:000384e0       ?_Copy@?$_Func_impl@V<lambda_938fa980b0b5f876be0458d9a1d6acb0>@@V?$allocator@H@std@@XHPAV?$Local@VValue@v8@@@v8@@@std@@EBEPAV?$_Func_base@XHPAV?$Local@VValue@v8@@@v8@@@2@PAX@Z 100394e0 f i _nodert_generated.obj
 0001:00038500       ?_Target_type@?$_Func_impl@V<lambda_43409595a9ec3d3c6305ecd0b2be6ffb>@@V?$allocator@H@std@@_NV?$Local@VValue@v8@@@v8@@@std@@EBEABVtype_info@@XZ 10039500 f i _nodert_generated.obj
 0001:00038510       ?_Do_call@?$_Func_impl@V<lambda_43409595a9ec3d3c6305ecd0b2be6ffb>@@V?$allocator@H@std@@_NV?$Local@VValue@v8@@@v8@@@std@@EAE_N$$QAV?$Local@VValue@v8@@@v8@@@Z 10039510 f i _nodert_generated.obj
 0001:00038550       ?_Move@?$_Func_impl@V<lambda_43409595a9ec3d3c6305ecd0b2be6ffb>@@V?$allocator@H@std@@_NV?$Local@VValue@v8@@@v8@@@std@@EAEPAV?$_Func_base@_NV?$Local@VValue@v8@@@v8@@@2@PAX@Z 10039550 f i _nodert_generated.obj
 0001:00038550       ?_Copy@?$_Func_impl@V<lambda_43409595a9ec3d3c6305ecd0b2be6ffb>@@V?$allocator@H@std@@_NV?$Local@VValue@v8@@@v8@@@std@@EBEPAV?$_Func_base@_NV?$Local@VValue@v8@@@v8@@@2@PAX@Z 10039550 f i _nodert_generated.obj
 0001:00038570       ?_Target_type@?$_Func_impl@V<lambda_aab2ebd78256abe6d7eb9e9ef0ce6177>@@V?$allocator@H@std@@X$$V@std@@EBEABVtype_info@@XZ 10039570 f i _nodert_generated.obj
 0001:00038580       ?_Do_call@?$_Func_impl@V<lambda_aab2ebd78256abe6d7eb9e9ef0ce6177>@@V?$allocator@H@std@@X$$V@std@@EAEXXZ 10039580 f i _nodert_generated.obj
 0001:00038590       ?_Copy@?$_Func_impl@V<lambda_aab2ebd78256abe6d7eb9e9ef0ce6177>@@V?$allocator@H@std@@X$$V@std@@EBEPAV?$_Func_base@X$$V@2@PAX@Z 10039590 f i _nodert_generated.obj
 0001:00038590       ?_Move@?$_Func_impl@V<lambda_aab2ebd78256abe6d7eb9e9ef0ce6177>@@V?$allocator@H@std@@X$$V@std@@EAEPAV?$_Func_base@X$$V@2@PAX@Z 10039590 f i _nodert_generated.obj
 0001:000385b0       ?_Delete_this@?$_Func_impl@V<lambda_5e5ab22ea98f4361dbf159481d01f54d>@@V?$allocator@H@std@@X$$V@std@@EAEX_N@Z 100395b0 f i _nodert_generated.obj
 0001:00038600       ?_Target_type@?$_Func_impl@V<lambda_5e5ab22ea98f4361dbf159481d01f54d>@@V?$allocator@H@std@@X$$V@std@@EBEABVtype_info@@XZ 10039600 f i _nodert_generated.obj
 0001:00038610       ?_Do_call@?$_Func_impl@V<lambda_5e5ab22ea98f4361dbf159481d01f54d>@@V?$allocator@H@std@@X$$V@std@@EAEXXZ 10039610 f i _nodert_generated.obj
 0001:00038660       ?_Move@?$_Func_impl@V<lambda_5e5ab22ea98f4361dbf159481d01f54d>@@V?$allocator@H@std@@X$$V@std@@EAEPAV?$_Func_base@X$$V@2@PAX@Z 10039660 f i _nodert_generated.obj
 0001:000386a0       ?_Copy@?$_Func_impl@V<lambda_5e5ab22ea98f4361dbf159481d01f54d>@@V?$allocator@H@std@@X$$V@std@@EBEPAV?$_Func_base@X$$V@2@PAX@Z 100396a0 f i _nodert_generated.obj
 0001:000386d0       ??R?$_Func_class@EV?$task@P$AAVRadio@Radios@Devices@Windows@@@Concurrency@@@std@@QBEEV?$task@P$AAVRadio@Radios@Devices@Windows@@@Concurrency@@@Z 100396d0 f i _nodert_generated.obj
 0001:00038780       ??R?$_Func_class@EV?$task@P$AAVBluetoothAdapter@Bluetooth@Devices@Windows@@@Concurrency@@@std@@QBEEV?$task@P$AAVBluetoothAdapter@Bluetooth@Devices@Windows@@@Concurrency@@@Z 10039780 f i _nodert_generated.obj
 0001:00038780       ??R?$_Func_class@EV?$task@W4DeviceAccessStatus@Enumeration@Devices@Windows@@@Concurrency@@@std@@QBEEV?$task@W4DeviceAccessStatus@Enumeration@Devices@Windows@@@Concurrency@@@Z 10039780 f i _nodert_generated.obj
 0001:00038780       ??R?$_Func_class@EV?$task@P$AAVBluetoothDevice@Bluetooth@Devices@Windows@@@Concurrency@@@std@@QBEEV?$task@P$AAVBluetoothDevice@Bluetooth@Devices@Windows@@@Concurrency@@@Z 10039780 f i _nodert_generated.obj
 0001:00038780       ??R?$_Func_class@EV?$task@P$AAVBluetoothLEDevice@Bluetooth@Devices@Windows@@@Concurrency@@@std@@QBEEV?$task@P$AAVBluetoothLEDevice@Bluetooth@Devices@Windows@@@Concurrency@@@Z 10039780 f i _nodert_generated.obj
 0001:00038780       ??R?$_Func_class@EV?$task@P$AAVRfcommDeviceServicesResult@Rfcomm@Bluetooth@Devices@Windows@@@Concurrency@@@std@@QBEEV?$task@P$AAVRfcommDeviceServicesResult@Rfcomm@Bluetooth@Devices@Windows@@@Concurrency@@@Z 10039780 f i _nodert_generated.obj
 0001:00038780       ??R?$_Func_class@EV?$task@P$AAVGattDeviceServicesResult@GenericAttributeProfile@Bluetooth@Devices@Windows@@@Concurrency@@@std@@QBEEV?$task@P$AAVGattDeviceServicesResult@GenericAttributeProfile@Bluetooth@Devices@Windows@@@Concurrency@@@Z 10039780 f i _nodert_generated.obj
 0001:00038830       ??R?$_Func_class@XV?$task@W4DeviceAccessStatus@Enumeration@Devices@Windows@@@Concurrency@@@std@@QBEXV?$task@W4DeviceAccessStatus@Enumeration@Devices@Windows@@@Concurrency@@@Z 10039830 f i _nodert_generated.obj
 0001:00038830       ??R?$_Func_class@XV?$task@P$AAVBluetoothLEDevice@Bluetooth@Devices@Windows@@@Concurrency@@@std@@QBEXV?$task@P$AAVBluetoothLEDevice@Bluetooth@Devices@Windows@@@Concurrency@@@Z 10039830 f i _nodert_generated.obj
 0001:00038830       ??R?$_Func_class@XV?$task@P$AAVBluetoothAdapter@Bluetooth@Devices@Windows@@@Concurrency@@@std@@QBEXV?$task@P$AAVBluetoothAdapter@Bluetooth@Devices@Windows@@@Concurrency@@@Z 10039830 f i _nodert_generated.obj
 0001:00038830       ??R?$_Func_class@XV?$task@P$AAVBluetoothDevice@Bluetooth@Devices@Windows@@@Concurrency@@@std@@QBEXV?$task@P$AAVBluetoothDevice@Bluetooth@Devices@Windows@@@Concurrency@@@Z 10039830 f i _nodert_generated.obj
 0001:00038830       ??R?$_Func_class@XV?$task@P$AAVGattDeviceServicesResult@GenericAttributeProfile@Bluetooth@Devices@Windows@@@Concurrency@@@std@@QBEXV?$task@P$AAVGattDeviceServicesResult@GenericAttributeProfile@Bluetooth@Devices@Windows@@@Concurrency@@@Z 10039830 f i _nodert_generated.obj
 0001:00038830       ??R?$_Func_class@XV?$task@P$AAVRfcommDeviceServicesResult@Rfcomm@Bluetooth@Devices@Windows@@@Concurrency@@@std@@QBEXV?$task@P$AAVRfcommDeviceServicesResult@Rfcomm@Bluetooth@Devices@Windows@@@Concurrency@@@Z 10039830 f i _nodert_generated.obj
 0001:000388c0       ??R?$_Func_class@XV?$task@P$AAVRadio@Radios@Devices@Windows@@@Concurrency@@@std@@QBEXV?$task@P$AAVRadio@Radios@Devices@Windows@@@Concurrency@@@Z 100398c0 f i _nodert_generated.obj
 0001:00038950       ??$?0ABV?$allocator@H@std@@@?$_Wrap_alloc@V?$allocator@V?$_Func_impl@V<lambda_43409595a9ec3d3c6305ecd0b2be6ffb>@@V?$allocator@H@std@@_NV?$Local@VValue@v8@@@v8@@@std@@@std@@@std@@QAE@ABV?$allocator@H@1@@Z 10039950 f i _nodert_generated.obj
 0001:00038960       ??$?0V<lambda_749f92b422219f4d260f34f9dde3ae86>@@EX@?$function@$$A6AEV?$task@P$AAVBluetoothLEDevice@Bluetooth@Devices@Windows@@@Concurrency@@@Z@std@@QAE@V<lambda_749f92b422219f4d260f34f9dde3ae86>@@@Z 10039960 f i _nodert_generated.obj
 0001:00038a20       ??$?0V<lambda_20f0255a0880adcdcbb70956292e7256>@@EX@?$function@$$A6AEV?$task@P$AAVGattDeviceServicesResult@GenericAttributeProfile@Bluetooth@Devices@Windows@@@Concurrency@@@Z@std@@QAE@V<lambda_20f0255a0880adcdcbb70956292e7256>@@@Z 10039a20 f i _nodert_generated.obj
 0001:00038ae0       ??$?0V<lambda_7773c71012c4af674f9a3bb3690277ff>@@EX@?$function@$$A6AEV?$task@P$AAVBluetoothDevice@Bluetooth@Devices@Windows@@@Concurrency@@@Z@std@@QAE@V<lambda_7773c71012c4af674f9a3bb3690277ff>@@@Z 10039ae0 f i _nodert_generated.obj
 0001:00038ba0       ??$?0V<lambda_2a03942fff1a73436735524b9a8ac91e>@@EX@?$function@$$A6AEV?$task@P$AAVRfcommDeviceServicesResult@Rfcomm@Bluetooth@Devices@Windows@@@Concurrency@@@Z@std@@QAE@V<lambda_2a03942fff1a73436735524b9a8ac91e>@@@Z 10039ba0 f i _nodert_generated.obj
 0001:00038c60       ??$?0V<lambda_870e6e8cb923108b535073a80d5d4ae0>@@EX@?$function@$$A6AEV?$task@W4DeviceAccessStatus@Enumeration@Devices@Windows@@@Concurrency@@@Z@std@@QAE@V<lambda_870e6e8cb923108b535073a80d5d4ae0>@@@Z 10039c60 f i _nodert_generated.obj
 0001:00038d20       ??$?0V<lambda_cd354b07c1162eefc9da4ba0b335fb0f>@@EX@?$function@$$A6AEV?$task@P$AAVBluetoothAdapter@Bluetooth@Devices@Windows@@@Concurrency@@@Z@std@@QAE@V<lambda_cd354b07c1162eefc9da4ba0b335fb0f>@@@Z 10039d20 f i _nodert_generated.obj
 0001:00038de0       ??$?0V<lambda_c27880a56ba3ded47134e23bf355db13>@@EX@?$function@$$A6AEV?$task@P$AAVRadio@Radios@Devices@Windows@@@Concurrency@@@Z@std@@QAE@V<lambda_c27880a56ba3ded47134e23bf355db13>@@@Z 10039de0 f i _nodert_generated.obj
 0001:00038ee0       ??$_AsyncInit@P$AAVBluetoothLEDevice@Bluetooth@Devices@Windows@@P$AAV1234@@_Task_impl_base@details@Concurrency@@SAXABV?$shared_ptr@U?$_Task_impl@P$AAVBluetoothLEDevice@Bluetooth@Devices@Windows@@@details@Concurrency@@@std@@P$AAU?$IAsyncOperation@P$AAVBluetoothLEDevice@Bluetooth@Devices@Windows@@@Foundation@Windows@@@Z 10039ee0 f i _nodert_generated.obj
 0001:00039190       ?__abi_Windows_Foundation_?$AsyncOperationCompletedHandler@P$AAVBluetoothLEDevice@Bluetooth@Devices@Windows@@___abi_IDelegate____abi_Invoke@?Q__abi_IDelegate@?$AsyncOperationCompletedHandler@P$AAVBluetoothLEDevice@Bluetooth@Devices@Windows@@@Foundation@Windows@@234@U$AAGJP$AAU?$IAsyncOperation@P$AAVBluetoothLEDevice@Bluetooth@Devices@Windows@@@34@W4AsyncStatus@34@@Z 1003a190 f i _nodert_generated.obj
 0001:00039220       ?__abi_QueryInterface@?$AsyncOperationCompletedHandler@P$AAVBluetoothLEDevice@Bluetooth@Devices@Windows@@@Foundation@Windows@@U$AAGJAAVGuid@Platform@@PAPAX@Z 1003a220 f i _nodert_generated.obj
 0001:00039340       ?__abi_GetIids@?$AsyncOperationCompletedHandler@P$AAVRadio@Radios@Devices@Windows@@@Foundation@Windows@@U$AAGJPAKPAPAVGuid@Platform@@@Z 1003a340 f i _nodert_generated.obj
 0001:00039340       ?__abi_GetIids@?$AsyncOperationCompletedHandler@P$AAVRfcommDeviceServicesResult@Rfcomm@Bluetooth@Devices@Windows@@@Foundation@Windows@@U$AAGJPAKPAPAVGuid@Platform@@@Z 1003a340 f i _nodert_generated.obj
 0001:00039340       ?__abi_GetIids@?$AsyncOperationCompletedHandler@P$AAVBluetoothDevice@Bluetooth@Devices@Windows@@@Foundation@Windows@@U$AAGJPAKPAPAVGuid@Platform@@@Z 1003a340 f i _nodert_generated.obj
 0001:00039340       ?__abi_GetIids@?$AsyncOperationCompletedHandler@W4DeviceAccessStatus@Enumeration@Devices@Windows@@@Foundation@Windows@@U$AAGJPAKPAPAVGuid@Platform@@@Z 1003a340 f i _nodert_generated.obj
 0001:00039340       ?__abi_GetIids@?$AsyncOperationCompletedHandler@P$AAVBluetoothAdapter@Bluetooth@Devices@Windows@@@Foundation@Windows@@U$AAGJPAKPAPAVGuid@Platform@@@Z 1003a340 f i _nodert_generated.obj
 0001:00039340       ?__abi_GetIids@?$AsyncOperationCompletedHandler@P$AAVGattDeviceServicesResult@GenericAttributeProfile@Bluetooth@Devices@Windows@@@Foundation@Windows@@U$AAGJPAKPAPAVGuid@Platform@@@Z 1003a340 f i _nodert_generated.obj
 0001:00039340       ?__abi_GetIids@?$AsyncOperationCompletedHandler@P$AAVBluetoothLEDevice@Bluetooth@Devices@Windows@@@Foundation@Windows@@U$AAGJPAKPAPAVGuid@Platform@@@Z 1003a340 f i _nodert_generated.obj
 0001:000393a0       ?__abi_GetRuntimeClassName@?$AsyncOperationCompletedHandler@P$AAVBluetoothLEDevice@Bluetooth@Devices@Windows@@@Foundation@Windows@@U$AAGJPAPAUHSTRING__@@@Z 1003a3a0 f i _nodert_generated.obj
 0001:000393c0       ?Invoke@?$AsyncOperationCompletedHandler@P$AAVBluetoothLEDevice@Bluetooth@Devices@Windows@@@Foundation@Windows@@U$AAAXP$AAU?$IAsyncOperation@P$AAVBluetoothLEDevice@Bluetooth@Devices@Windows@@@23@W4AsyncStatus@23@@Z 1003a3c0 f i _nodert_generated.obj
 0001:00039400       ??$_AsyncInit@P$AAVGattDeviceServicesResult@GenericAttributeProfile@Bluetooth@Devices@Windows@@P$AAV12345@@_Task_impl_base@details@Concurrency@@SAXABV?$shared_ptr@U?$_Task_impl@P$AAVGattDeviceServicesResult@GenericAttributeProfile@Bluetooth@Devices@Windows@@@details@Concurrency@@@std@@P$AAU?$IAsyncOperation@P$AAVGattDeviceServicesResult@GenericAttributeProfile@Bluetooth@Devices@Windows@@@Foundation@Windows@@@Z 1003a400 f i _nodert_generated.obj
 0001:000394f0       ?__abi_Windows_Foundation_?$AsyncOperationCompletedHandler@P$AAVGattDeviceServicesResult@GenericAttributeProfile@Bluetooth@Devices@Windows@@___abi_IDelegate____abi_Invoke@?Q__abi_IDelegate@?$AsyncOperationCompletedHandler@P$AAVGattDeviceServicesResult@GenericAttributeProfile@Bluetooth@Devices@Windows@@@Foundation@Windows@@234@U$AAGJP$AAU?$IAsyncOperation@P$AAVGattDeviceServicesResult@GenericAttributeProfile@Bluetooth@Devices@Windows@@@34@W4AsyncStatus@34@@Z 1003a4f0 f i _nodert_generated.obj
 0001:00039580       ?__abi_QueryInterface@?$AsyncOperationCompletedHandler@P$AAVGattDeviceServicesResult@GenericAttributeProfile@Bluetooth@Devices@Windows@@@Foundation@Windows@@U$AAGJAAVGuid@Platform@@PAPAX@Z 1003a580 f i _nodert_generated.obj
 0001:000396a0       ?__abi_GetRuntimeClassName@?$AsyncOperationCompletedHandler@P$AAVGattDeviceServicesResult@GenericAttributeProfile@Bluetooth@Devices@Windows@@@Foundation@Windows@@U$AAGJPAPAUHSTRING__@@@Z 1003a6a0 f i _nodert_generated.obj
 0001:000396c0       ?Invoke@?$AsyncOperationCompletedHandler@P$AAVGattDeviceServicesResult@GenericAttributeProfile@Bluetooth@Devices@Windows@@@Foundation@Windows@@U$AAAXP$AAU?$IAsyncOperation@P$AAVGattDeviceServicesResult@GenericAttributeProfile@Bluetooth@Devices@Windows@@@23@W4AsyncStatus@23@@Z 1003a6c0 f i _nodert_generated.obj
 0001:00039700       ??$_AsyncInit@P$AAVBluetoothDevice@Bluetooth@Devices@Windows@@P$AAV1234@@_Task_impl_base@details@Concurrency@@SAXABV?$shared_ptr@U?$_Task_impl@P$AAVBluetoothDevice@Bluetooth@Devices@Windows@@@details@Concurrency@@@std@@P$AAU?$IAsyncOperation@P$AAVBluetoothDevice@Bluetooth@Devices@Windows@@@Foundation@Windows@@@Z 1003a700 f i _nodert_generated.obj
 0001:000397f0       ?__abi_Windows_Foundation_?$AsyncOperationCompletedHandler@P$AAVBluetoothDevice@Bluetooth@Devices@Windows@@___abi_IDelegate____abi_Invoke@?Q__abi_IDelegate@?$AsyncOperationCompletedHandler@P$AAVBluetoothDevice@Bluetooth@Devices@Windows@@@Foundation@Windows@@234@U$AAGJP$AAU?$IAsyncOperation@P$AAVBluetoothDevice@Bluetooth@Devices@Windows@@@34@W4AsyncStatus@34@@Z 1003a7f0 f i _nodert_generated.obj
 0001:00039880       ?__abi_QueryInterface@?$AsyncOperationCompletedHandler@P$AAVBluetoothDevice@Bluetooth@Devices@Windows@@@Foundation@Windows@@U$AAGJAAVGuid@Platform@@PAPAX@Z 1003a880 f i _nodert_generated.obj
 0001:000399a0       ?__abi_GetRuntimeClassName@?$AsyncOperationCompletedHandler@P$AAVBluetoothDevice@Bluetooth@Devices@Windows@@@Foundation@Windows@@U$AAGJPAPAUHSTRING__@@@Z 1003a9a0 f i _nodert_generated.obj
 0001:000399c0       ?Invoke@?$AsyncOperationCompletedHandler@P$AAVBluetoothDevice@Bluetooth@Devices@Windows@@@Foundation@Windows@@U$AAAXP$AAU?$IAsyncOperation@P$AAVBluetoothDevice@Bluetooth@Devices@Windows@@@23@W4AsyncStatus@23@@Z 1003a9c0 f i _nodert_generated.obj
 0001:00039a00       ??$_AsyncInit@P$AAVRfcommDeviceServicesResult@Rfcomm@Bluetooth@Devices@Windows@@P$AAV12345@@_Task_impl_base@details@Concurrency@@SAXABV?$shared_ptr@U?$_Task_impl@P$AAVRfcommDeviceServicesResult@Rfcomm@Bluetooth@Devices@Windows@@@details@Concurrency@@@std@@P$AAU?$IAsyncOperation@P$AAVRfcommDeviceServicesResult@Rfcomm@Bluetooth@Devices@Windows@@@Foundation@Windows@@@Z 1003aa00 f i _nodert_generated.obj
 0001:00039af0       ?__abi_Windows_Foundation_?$AsyncOperationCompletedHandler@P$AAVRfcommDeviceServicesResult@Rfcomm@Bluetooth@Devices@Windows@@___abi_IDelegate____abi_Invoke@?Q__abi_IDelegate@?$AsyncOperationCompletedHandler@P$AAVRfcommDeviceServicesResult@Rfcomm@Bluetooth@Devices@Windows@@@Foundation@Windows@@234@U$AAGJP$AAU?$IAsyncOperation@P$AAVRfcommDeviceServicesResult@Rfcomm@Bluetooth@Devices@Windows@@@34@W4AsyncStatus@34@@Z 1003aaf0 f i _nodert_generated.obj
 0001:00039b80       ?__abi_QueryInterface@?$AsyncOperationCompletedHandler@P$AAVRfcommDeviceServicesResult@Rfcomm@Bluetooth@Devices@Windows@@@Foundation@Windows@@U$AAGJAAVGuid@Platform@@PAPAX@Z 1003ab80 f i _nodert_generated.obj
 0001:00039ca0       ?__abi_GetRuntimeClassName@?$AsyncOperationCompletedHandler@P$AAVRfcommDeviceServicesResult@Rfcomm@Bluetooth@Devices@Windows@@@Foundation@Windows@@U$AAGJPAPAUHSTRING__@@@Z 1003aca0 f i _nodert_generated.obj
 0001:00039cc0       ?Invoke@?$AsyncOperationCompletedHandler@P$AAVRfcommDeviceServicesResult@Rfcomm@Bluetooth@Devices@Windows@@@Foundation@Windows@@U$AAAXP$AAU?$IAsyncOperation@P$AAVRfcommDeviceServicesResult@Rfcomm@Bluetooth@Devices@Windows@@@23@W4AsyncStatus@23@@Z 1003acc0 f i _nodert_generated.obj
 0001:00039d00       ??$_AsyncInit@W4DeviceAccessStatus@Enumeration@Devices@Windows@@W41234@@_Task_impl_base@details@Concurrency@@SAXABV?$shared_ptr@U?$_Task_impl@W4DeviceAccessStatus@Enumeration@Devices@Windows@@@details@Concurrency@@@std@@P$AAU?$IAsyncOperation@W4DeviceAccessStatus@Enumeration@Devices@Windows@@@Foundation@Windows@@@Z 1003ad00 f i _nodert_generated.obj
 0001:00039fb0       ?__abi_Windows_Foundation_?$AsyncOperationCompletedHandler@W4DeviceAccessStatus@Enumeration@Devices@Windows@@___abi_IDelegate____abi_Invoke@?Q__abi_IDelegate@?$AsyncOperationCompletedHandler@W4DeviceAccessStatus@Enumeration@Devices@Windows@@@Foundation@Windows@@234@U$AAGJP$AAU?$IAsyncOperation@W4DeviceAccessStatus@Enumeration@Devices@Windows@@@34@W4AsyncStatus@34@@Z 1003afb0 f i _nodert_generated.obj
 0001:0003a040       ?__abi_QueryInterface@?$AsyncOperationCompletedHandler@W4DeviceAccessStatus@Enumeration@Devices@Windows@@@Foundation@Windows@@U$AAGJAAVGuid@Platform@@PAPAX@Z 1003b040 f i _nodert_generated.obj
 0001:0003a160       ?__abi_GetRuntimeClassName@?$AsyncOperationCompletedHandler@W4DeviceAccessStatus@Enumeration@Devices@Windows@@@Foundation@Windows@@U$AAGJPAPAUHSTRING__@@@Z 1003b160 f i _nodert_generated.obj
 0001:0003a180       ?Invoke@?$AsyncOperationCompletedHandler@W4DeviceAccessStatus@Enumeration@Devices@Windows@@@Foundation@Windows@@U$AAAXP$AAU?$IAsyncOperation@W4DeviceAccessStatus@Enumeration@Devices@Windows@@@23@W4AsyncStatus@23@@Z 1003b180 f i _nodert_generated.obj
 0001:0003a1c0       ??$_AsyncInit@P$AAVBluetoothAdapter@Bluetooth@Devices@Windows@@P$AAV1234@@_Task_impl_base@details@Concurrency@@SAXABV?$shared_ptr@U?$_Task_impl@P$AAVBluetoothAdapter@Bluetooth@Devices@Windows@@@details@Concurrency@@@std@@P$AAU?$IAsyncOperation@P$AAVBluetoothAdapter@Bluetooth@Devices@Windows@@@Foundation@Windows@@@Z 1003b1c0 f i _nodert_generated.obj
 0001:0003a2b0       ?__abi_Windows_Foundation_?$AsyncOperationCompletedHandler@P$AAVBluetoothAdapter@Bluetooth@Devices@Windows@@___abi_IDelegate____abi_Invoke@?Q__abi_IDelegate@?$AsyncOperationCompletedHandler@P$AAVBluetoothAdapter@Bluetooth@Devices@Windows@@@Foundation@Windows@@234@U$AAGJP$AAU?$IAsyncOperation@P$AAVBluetoothAdapter@Bluetooth@Devices@Windows@@@34@W4AsyncStatus@34@@Z 1003b2b0 f i _nodert_generated.obj
 0001:0003a340       ?__abi_QueryInterface@?$AsyncOperationCompletedHandler@P$AAVBluetoothAdapter@Bluetooth@Devices@Windows@@@Foundation@Windows@@U$AAGJAAVGuid@Platform@@PAPAX@Z 1003b340 f i _nodert_generated.obj
 0001:0003a460       ?__abi_GetRuntimeClassName@?$AsyncOperationCompletedHandler@P$AAVBluetoothAdapter@Bluetooth@Devices@Windows@@@Foundation@Windows@@U$AAGJPAPAUHSTRING__@@@Z 1003b460 f i _nodert_generated.obj
 0001:0003a480       ?Invoke@?$AsyncOperationCompletedHandler@P$AAVBluetoothAdapter@Bluetooth@Devices@Windows@@@Foundation@Windows@@U$AAAXP$AAU?$IAsyncOperation@P$AAVBluetoothAdapter@Bluetooth@Devices@Windows@@@23@W4AsyncStatus@23@@Z 1003b480 f i _nodert_generated.obj
 0001:0003a4c0       ??$_AsyncInit@P$AAVRadio@Radios@Devices@Windows@@P$AAV1234@@_Task_impl_base@details@Concurrency@@SAXABV?$shared_ptr@U?$_Task_impl@P$AAVRadio@Radios@Devices@Windows@@@details@Concurrency@@@std@@P$AAU?$IAsyncOperation@P$AAVRadio@Radios@Devices@Windows@@@Foundation@Windows@@@Z 1003b4c0 f i _nodert_generated.obj
 0001:0003a5b0       ?__abi_Windows_Foundation_?$AsyncOperationCompletedHandler@P$AAVRadio@Radios@Devices@Windows@@___abi_IDelegate____abi_Invoke@?Q__abi_IDelegate@?$AsyncOperationCompletedHandler@P$AAVRadio@Radios@Devices@Windows@@@Foundation@Windows@@234@U$AAGJP$AAU?$IAsyncOperation@P$AAVRadio@Radios@Devices@Windows@@@34@W4AsyncStatus@34@@Z 1003b5b0 f i _nodert_generated.obj
 0001:0003a640       ?__abi_QueryInterface@?$AsyncOperationCompletedHandler@P$AAVRadio@Radios@Devices@Windows@@@Foundation@Windows@@U$AAGJAAVGuid@Platform@@PAPAX@Z 1003b640 f i _nodert_generated.obj
 0001:0003a760       ?__abi_GetRuntimeClassName@?$AsyncOperationCompletedHandler@P$AAVRadio@Radios@Devices@Windows@@@Foundation@Windows@@U$AAGJPAPAUHSTRING__@@@Z 1003b760 f i _nodert_generated.obj
 0001:0003a780       ?Invoke@?$AsyncOperationCompletedHandler@P$AAVRadio@Radios@Devices@Windows@@@Foundation@Windows@@U$AAAXP$AAU?$IAsyncOperation@P$AAVRadio@Radios@Devices@Windows@@@23@W4AsyncStatus@23@@Z 1003b780 f i _nodert_generated.obj
 0001:0003a7c0       ?_Delete_this@?$_Func_impl@V<lambda_95a33bc271dcb0aacb259968d44ea12d>@@V?$allocator@H@std@@XV?$task@P$AAVBluetoothLEDevice@Bluetooth@Devices@Windows@@@Concurrency@@@std@@EAEX_N@Z 1003b7c0 f i _nodert_generated.obj
 0001:0003a7c0       ?_Delete_this@?$_Func_impl@V<lambda_e8c606f4a354d9274c0c416c6b42ad06>@@V?$allocator@H@std@@XV?$task@P$AAVBluetoothLEDevice@Bluetooth@Devices@Windows@@@Concurrency@@@std@@EAEX_N@Z 1003b7c0 f i _nodert_generated.obj
 0001:0003a7e0       ?_Target_type@?$_Func_impl@V<lambda_95a33bc271dcb0aacb259968d44ea12d>@@V?$allocator@H@std@@XV?$task@P$AAVBluetoothLEDevice@Bluetooth@Devices@Windows@@@Concurrency@@@std@@EBEABVtype_info@@XZ 1003b7e0 f i _nodert_generated.obj
 0001:0003a7f0       ?_Do_call@?$_Func_impl@V<lambda_95a33bc271dcb0aacb259968d44ea12d>@@V?$allocator@H@std@@XV?$task@P$AAVBluetoothLEDevice@Bluetooth@Devices@Windows@@@Concurrency@@@std@@EAEX$$QAV?$task@P$AAVBluetoothLEDevice@Bluetooth@Devices@Windows@@@Concurrency@@@Z 1003b7f0 f i _nodert_generated.obj
 0001:0003a830       ?_Move@?$_Func_impl@V<lambda_95a33bc271dcb0aacb259968d44ea12d>@@V?$allocator@H@std@@XV?$task@P$AAVBluetoothLEDevice@Bluetooth@Devices@Windows@@@Concurrency@@@std@@EAEPAV?$_Func_base@XV?$task@P$AAVBluetoothLEDevice@Bluetooth@Devices@Windows@@@Concurrency@@@2@PAX@Z 1003b830 f i _nodert_generated.obj
 0001:0003a830       ?_Copy@?$_Func_impl@V<lambda_95a33bc271dcb0aacb259968d44ea12d>@@V?$allocator@H@std@@XV?$task@P$AAVBluetoothLEDevice@Bluetooth@Devices@Windows@@@Concurrency@@@std@@EBEPAV?$_Func_base@XV?$task@P$AAVBluetoothLEDevice@Bluetooth@Devices@Windows@@@Concurrency@@@2@PAX@Z 1003b830 f i _nodert_generated.obj
 0001:0003a850       ?_Target_type@?$_Func_impl@V<lambda_e8c606f4a354d9274c0c416c6b42ad06>@@V?$allocator@H@std@@XV?$task@P$AAVBluetoothLEDevice@Bluetooth@Devices@Windows@@@Concurrency@@@std@@EBEABVtype_info@@XZ 1003b850 f i _nodert_generated.obj
 0001:0003a860       ?_Do_call@?$_Func_impl@V<lambda_e8c606f4a354d9274c0c416c6b42ad06>@@V?$allocator@H@std@@XV?$task@P$AAVBluetoothLEDevice@Bluetooth@Devices@Windows@@@Concurrency@@@std@@EAEX$$QAV?$task@P$AAVBluetoothLEDevice@Bluetooth@Devices@Windows@@@Concurrency@@@Z 1003b860 f i _nodert_generated.obj
 0001:0003a8a0       ?_Copy@?$_Func_impl@V<lambda_e8c606f4a354d9274c0c416c6b42ad06>@@V?$allocator@H@std@@XV?$task@P$AAVBluetoothLEDevice@Bluetooth@Devices@Windows@@@Concurrency@@@std@@EBEPAV?$_Func_base@XV?$task@P$AAVBluetoothLEDevice@Bluetooth@Devices@Windows@@@Concurrency@@@2@PAX@Z 1003b8a0 f i _nodert_generated.obj
 0001:0003a8a0       ?_Move@?$_Func_impl@V<lambda_e8c606f4a354d9274c0c416c6b42ad06>@@V?$allocator@H@std@@XV?$task@P$AAVBluetoothLEDevice@Bluetooth@Devices@Windows@@@Concurrency@@@std@@EAEPAV?$_Func_base@XV?$task@P$AAVBluetoothLEDevice@Bluetooth@Devices@Windows@@@Concurrency@@@2@PAX@Z 1003b8a0 f i _nodert_generated.obj
 0001:0003a8c0       ?_Delete_this@?$_Func_impl@V<lambda_cdd1f60660fdf3ea982e929d08ad3045>@@V?$allocator@H@std@@XV?$task@P$AAVGattDeviceServicesResult@GenericAttributeProfile@Bluetooth@Devices@Windows@@@Concurrency@@@std@@EAEX_N@Z 1003b8c0 f i _nodert_generated.obj
 0001:0003a8c0       ?_Delete_this@?$_Func_impl@V<lambda_17692cdfbcd492d685873501f5a0a200>@@V?$allocator@H@std@@XV?$task@P$AAVGattDeviceServicesResult@GenericAttributeProfile@Bluetooth@Devices@Windows@@@Concurrency@@@std@@EAEX_N@Z 1003b8c0 f i _nodert_generated.obj
 0001:0003a8e0       ?_Target_type@?$_Func_impl@V<lambda_cdd1f60660fdf3ea982e929d08ad3045>@@V?$allocator@H@std@@XV?$task@P$AAVGattDeviceServicesResult@GenericAttributeProfile@Bluetooth@Devices@Windows@@@Concurrency@@@std@@EBEABVtype_info@@XZ 1003b8e0 f i _nodert_generated.obj
 0001:0003a8f0       ?_Do_call@?$_Func_impl@V<lambda_cdd1f60660fdf3ea982e929d08ad3045>@@V?$allocator@H@std@@XV?$task@P$AAVGattDeviceServicesResult@GenericAttributeProfile@Bluetooth@Devices@Windows@@@Concurrency@@@std@@EAEX$$QAV?$task@P$AAVGattDeviceServicesResult@GenericAttributeProfile@Bluetooth@Devices@Windows@@@Concurrency@@@Z 1003b8f0 f i _nodert_generated.obj
 0001:0003a930       ?_Move@?$_Func_impl@V<lambda_cdd1f60660fdf3ea982e929d08ad3045>@@V?$allocator@H@std@@XV?$task@P$AAVGattDeviceServicesResult@GenericAttributeProfile@Bluetooth@Devices@Windows@@@Concurrency@@@std@@EAEPAV?$_Func_base@XV?$task@P$AAVGattDeviceServicesResult@GenericAttributeProfile@Bluetooth@Devices@Windows@@@Concurrency@@@2@PAX@Z 1003b930 f i _nodert_generated.obj
 0001:0003a930       ?_Copy@?$_Func_impl@V<lambda_cdd1f60660fdf3ea982e929d08ad3045>@@V?$allocator@H@std@@XV?$task@P$AAVGattDeviceServicesResult@GenericAttributeProfile@Bluetooth@Devices@Windows@@@Concurrency@@@std@@EBEPAV?$_Func_base@XV?$task@P$AAVGattDeviceServicesResult@GenericAttributeProfile@Bluetooth@Devices@Windows@@@Concurrency@@@2@PAX@Z 1003b930 f i _nodert_generated.obj
 0001:0003a950       ?_Target_type@?$_Func_impl@V<lambda_17692cdfbcd492d685873501f5a0a200>@@V?$allocator@H@std@@XV?$task@P$AAVGattDeviceServicesResult@GenericAttributeProfile@Bluetooth@Devices@Windows@@@Concurrency@@@std@@EBEABVtype_info@@XZ 1003b950 f i _nodert_generated.obj
 0001:0003a960       ?_Do_call@?$_Func_impl@V<lambda_17692cdfbcd492d685873501f5a0a200>@@V?$allocator@H@std@@XV?$task@P$AAVGattDeviceServicesResult@GenericAttributeProfile@Bluetooth@Devices@Windows@@@Concurrency@@@std@@EAEX$$QAV?$task@P$AAVGattDeviceServicesResult@GenericAttributeProfile@Bluetooth@Devices@Windows@@@Concurrency@@@Z 1003b960 f i _nodert_generated.obj
 0001:0003a9a0       ?_Move@?$_Func_impl@V<lambda_17692cdfbcd492d685873501f5a0a200>@@V?$allocator@H@std@@XV?$task@P$AAVGattDeviceServicesResult@GenericAttributeProfile@Bluetooth@Devices@Windows@@@Concurrency@@@std@@EAEPAV?$_Func_base@XV?$task@P$AAVGattDeviceServicesResult@GenericAttributeProfile@Bluetooth@Devices@Windows@@@Concurrency@@@2@PAX@Z 1003b9a0 f i _nodert_generated.obj
 0001:0003a9a0       ?_Copy@?$_Func_impl@V<lambda_17692cdfbcd492d685873501f5a0a200>@@V?$allocator@H@std@@XV?$task@P$AAVGattDeviceServicesResult@GenericAttributeProfile@Bluetooth@Devices@Windows@@@Concurrency@@@std@@EBEPAV?$_Func_base@XV?$task@P$AAVGattDeviceServicesResult@GenericAttributeProfile@Bluetooth@Devices@Windows@@@Concurrency@@@2@PAX@Z 1003b9a0 f i _nodert_generated.obj
 0001:0003a9c0       ?_Delete_this@?$_Func_impl@V<lambda_e4fa91270f620c683eb90f5221d569b3>@@V?$allocator@H@std@@XV?$task@W4DeviceAccessStatus@Enumeration@Devices@Windows@@@Concurrency@@@std@@EAEX_N@Z 1003b9c0 f i _nodert_generated.obj
 0001:0003a9c0       ?_Delete_this@?$_Func_impl@V<lambda_09c86ff1b6a1cdd4b1c67fc041d113fb>@@V?$allocator@H@std@@XV?$task@W4DeviceAccessStatus@Enumeration@Devices@Windows@@@Concurrency@@@std@@EAEX_N@Z 1003b9c0 f i _nodert_generated.obj
 0001:0003a9e0       ?_Target_type@?$_Func_impl@V<lambda_e4fa91270f620c683eb90f5221d569b3>@@V?$allocator@H@std@@XV?$task@W4DeviceAccessStatus@Enumeration@Devices@Windows@@@Concurrency@@@std@@EBEABVtype_info@@XZ 1003b9e0 f i _nodert_generated.obj
 0001:0003a9f0       ?_Do_call@?$_Func_impl@V<lambda_e4fa91270f620c683eb90f5221d569b3>@@V?$allocator@H@std@@XV?$task@W4DeviceAccessStatus@Enumeration@Devices@Windows@@@Concurrency@@@std@@EAEX$$QAV?$task@W4DeviceAccessStatus@Enumeration@Devices@Windows@@@Concurrency@@@Z 1003b9f0 f i _nodert_generated.obj
 0001:0003aa30       ?_Move@?$_Func_impl@V<lambda_e4fa91270f620c683eb90f5221d569b3>@@V?$allocator@H@std@@XV?$task@W4DeviceAccessStatus@Enumeration@Devices@Windows@@@Concurrency@@@std@@EAEPAV?$_Func_base@XV?$task@W4DeviceAccessStatus@Enumeration@Devices@Windows@@@Concurrency@@@2@PAX@Z 1003ba30 f i _nodert_generated.obj
 0001:0003aa30       ?_Copy@?$_Func_impl@V<lambda_e4fa91270f620c683eb90f5221d569b3>@@V?$allocator@H@std@@XV?$task@W4DeviceAccessStatus@Enumeration@Devices@Windows@@@Concurrency@@@std@@EBEPAV?$_Func_base@XV?$task@W4DeviceAccessStatus@Enumeration@Devices@Windows@@@Concurrency@@@2@PAX@Z 1003ba30 f i _nodert_generated.obj
 0001:0003aa50       ?_Delete_this@?$_Func_impl@V<lambda_c0b2bbf4a71c8527bc0a2d5b6d9db5f6>@@V?$allocator@H@std@@XV?$task@P$AAVBluetoothDevice@Bluetooth@Devices@Windows@@@Concurrency@@@std@@EAEX_N@Z 1003ba50 f i _nodert_generated.obj
 0001:0003aa50       ?_Delete_this@?$_Func_impl@V<lambda_c67692e49665ca78d5770ac62b32390b>@@V?$allocator@H@std@@XV?$task@P$AAVBluetoothDevice@Bluetooth@Devices@Windows@@@Concurrency@@@std@@EAEX_N@Z 1003ba50 f i _nodert_generated.obj
 0001:0003aa50       ?_Delete_this@?$_Func_impl@V<lambda_a422017cc2cb3ea9ea84dc6f3397536e>@@V?$allocator@H@std@@XV?$task@P$AAVBluetoothDevice@Bluetooth@Devices@Windows@@@Concurrency@@@std@@EAEX_N@Z 1003ba50 f i _nodert_generated.obj
 0001:0003aa70       ?_Target_type@?$_Func_impl@V<lambda_c67692e49665ca78d5770ac62b32390b>@@V?$allocator@H@std@@XV?$task@P$AAVBluetoothDevice@Bluetooth@Devices@Windows@@@Concurrency@@@std@@EBEABVtype_info@@XZ 1003ba70 f i _nodert_generated.obj
 0001:0003aa80       ?_Do_call@?$_Func_impl@V<lambda_c67692e49665ca78d5770ac62b32390b>@@V?$allocator@H@std@@XV?$task@P$AAVBluetoothDevice@Bluetooth@Devices@Windows@@@Concurrency@@@std@@EAEX$$QAV?$task@P$AAVBluetoothDevice@Bluetooth@Devices@Windows@@@Concurrency@@@Z 1003ba80 f i _nodert_generated.obj
 0001:0003aac0       ?_Move@?$_Func_impl@V<lambda_c67692e49665ca78d5770ac62b32390b>@@V?$allocator@H@std@@XV?$task@P$AAVBluetoothDevice@Bluetooth@Devices@Windows@@@Concurrency@@@std@@EAEPAV?$_Func_base@XV?$task@P$AAVBluetoothDevice@Bluetooth@Devices@Windows@@@Concurrency@@@2@PAX@Z 1003bac0 f i _nodert_generated.obj
 0001:0003aac0       ?_Copy@?$_Func_impl@V<lambda_c67692e49665ca78d5770ac62b32390b>@@V?$allocator@H@std@@XV?$task@P$AAVBluetoothDevice@Bluetooth@Devices@Windows@@@Concurrency@@@std@@EBEPAV?$_Func_base@XV?$task@P$AAVBluetoothDevice@Bluetooth@Devices@Windows@@@Concurrency@@@2@PAX@Z 1003bac0 f i _nodert_generated.obj
 0001:0003aae0       ?_Target_type@?$_Func_impl@V<lambda_c0b2bbf4a71c8527bc0a2d5b6d9db5f6>@@V?$allocator@H@std@@XV?$task@P$AAVBluetoothDevice@Bluetooth@Devices@Windows@@@Concurrency@@@std@@EBEABVtype_info@@XZ 1003bae0 f i _nodert_generated.obj
 0001:0003aaf0       ?_Do_call@?$_Func_impl@V<lambda_c0b2bbf4a71c8527bc0a2d5b6d9db5f6>@@V?$allocator@H@std@@XV?$task@P$AAVBluetoothDevice@Bluetooth@Devices@Windows@@@Concurrency@@@std@@EAEX$$QAV?$task@P$AAVBluetoothDevice@Bluetooth@Devices@Windows@@@Concurrency@@@Z 1003baf0 f i _nodert_generated.obj
 0001:0003ab30       ?_Copy@?$_Func_impl@V<lambda_c0b2bbf4a71c8527bc0a2d5b6d9db5f6>@@V?$allocator@H@std@@XV?$task@P$AAVBluetoothDevice@Bluetooth@Devices@Windows@@@Concurrency@@@std@@EBEPAV?$_Func_base@XV?$task@P$AAVBluetoothDevice@Bluetooth@Devices@Windows@@@Concurrency@@@2@PAX@Z 1003bb30 f i _nodert_generated.obj
 0001:0003ab30       ?_Move@?$_Func_impl@V<lambda_c0b2bbf4a71c8527bc0a2d5b6d9db5f6>@@V?$allocator@H@std@@XV?$task@P$AAVBluetoothDevice@Bluetooth@Devices@Windows@@@Concurrency@@@std@@EAEPAV?$_Func_base@XV?$task@P$AAVBluetoothDevice@Bluetooth@Devices@Windows@@@Concurrency@@@2@PAX@Z 1003bb30 f i _nodert_generated.obj
 0001:0003ab50       ?_Target_type@?$_Func_impl@V<lambda_a422017cc2cb3ea9ea84dc6f3397536e>@@V?$allocator@H@std@@XV?$task@P$AAVBluetoothDevice@Bluetooth@Devices@Windows@@@Concurrency@@@std@@EBEABVtype_info@@XZ 1003bb50 f i _nodert_generated.obj
 0001:0003ab60       ?_Do_call@?$_Func_impl@V<lambda_a422017cc2cb3ea9ea84dc6f3397536e>@@V?$allocator@H@std@@XV?$task@P$AAVBluetoothDevice@Bluetooth@Devices@Windows@@@Concurrency@@@std@@EAEX$$QAV?$task@P$AAVBluetoothDevice@Bluetooth@Devices@Windows@@@Concurrency@@@Z 1003bb60 f i _nodert_generated.obj
 0001:0003aba0       ?_Move@?$_Func_impl@V<lambda_a422017cc2cb3ea9ea84dc6f3397536e>@@V?$allocator@H@std@@XV?$task@P$AAVBluetoothDevice@Bluetooth@Devices@Windows@@@Concurrency@@@std@@EAEPAV?$_Func_base@XV?$task@P$AAVBluetoothDevice@Bluetooth@Devices@Windows@@@Concurrency@@@2@PAX@Z 1003bba0 f i _nodert_generated.obj
 0001:0003aba0       ?_Copy@?$_Func_impl@V<lambda_a422017cc2cb3ea9ea84dc6f3397536e>@@V?$allocator@H@std@@XV?$task@P$AAVBluetoothDevice@Bluetooth@Devices@Windows@@@Concurrency@@@std@@EBEPAV?$_Func_base@XV?$task@P$AAVBluetoothDevice@Bluetooth@Devices@Windows@@@Concurrency@@@2@PAX@Z 1003bba0 f i _nodert_generated.obj
 0001:0003abc0       ?_Delete_this@?$_Func_impl@V<lambda_ddc783f4c1398e092806cb9237aa3654>@@V?$allocator@H@std@@XV?$task@P$AAVRfcommDeviceServicesResult@Rfcomm@Bluetooth@Devices@Windows@@@Concurrency@@@std@@EAEX_N@Z 1003bbc0 f i _nodert_generated.obj
 0001:0003abc0       ?_Delete_this@?$_Func_impl@V<lambda_b86b2a0148a1d5e4b4569c5430b449d8>@@V?$allocator@H@std@@XV?$task@P$AAVRfcommDeviceServicesResult@Rfcomm@Bluetooth@Devices@Windows@@@Concurrency@@@std@@EAEX_N@Z 1003bbc0 f i _nodert_generated.obj
 0001:0003abe0       ?_Target_type@?$_Func_impl@V<lambda_b86b2a0148a1d5e4b4569c5430b449d8>@@V?$allocator@H@std@@XV?$task@P$AAVRfcommDeviceServicesResult@Rfcomm@Bluetooth@Devices@Windows@@@Concurrency@@@std@@EBEABVtype_info@@XZ 1003bbe0 f i _nodert_generated.obj
 0001:0003abf0       ?_Do_call@?$_Func_impl@V<lambda_b86b2a0148a1d5e4b4569c5430b449d8>@@V?$allocator@H@std@@XV?$task@P$AAVRfcommDeviceServicesResult@Rfcomm@Bluetooth@Devices@Windows@@@Concurrency@@@std@@EAEX$$QAV?$task@P$AAVRfcommDeviceServicesResult@Rfcomm@Bluetooth@Devices@Windows@@@Concurrency@@@Z 1003bbf0 f i _nodert_generated.obj
 0001:0003ac30       ?_Copy@?$_Func_impl@V<lambda_b86b2a0148a1d5e4b4569c5430b449d8>@@V?$allocator@H@std@@XV?$task@P$AAVRfcommDeviceServicesResult@Rfcomm@Bluetooth@Devices@Windows@@@Concurrency@@@std@@EBEPAV?$_Func_base@XV?$task@P$AAVRfcommDeviceServicesResult@Rfcomm@Bluetooth@Devices@Windows@@@Concurrency@@@2@PAX@Z 1003bc30 f i _nodert_generated.obj
 0001:0003ac30       ?_Move@?$_Func_impl@V<lambda_b86b2a0148a1d5e4b4569c5430b449d8>@@V?$allocator@H@std@@XV?$task@P$AAVRfcommDeviceServicesResult@Rfcomm@Bluetooth@Devices@Windows@@@Concurrency@@@std@@EAEPAV?$_Func_base@XV?$task@P$AAVRfcommDeviceServicesResult@Rfcomm@Bluetooth@Devices@Windows@@@Concurrency@@@2@PAX@Z 1003bc30 f i _nodert_generated.obj
 0001:0003ac50       ?_Target_type@?$_Func_impl@V<lambda_ddc783f4c1398e092806cb9237aa3654>@@V?$allocator@H@std@@XV?$task@P$AAVRfcommDeviceServicesResult@Rfcomm@Bluetooth@Devices@Windows@@@Concurrency@@@std@@EBEABVtype_info@@XZ 1003bc50 f i _nodert_generated.obj
 0001:0003ac60       ?_Do_call@?$_Func_impl@V<lambda_ddc783f4c1398e092806cb9237aa3654>@@V?$allocator@H@std@@XV?$task@P$AAVRfcommDeviceServicesResult@Rfcomm@Bluetooth@Devices@Windows@@@Concurrency@@@std@@EAEX$$QAV?$task@P$AAVRfcommDeviceServicesResult@Rfcomm@Bluetooth@Devices@Windows@@@Concurrency@@@Z 1003bc60 f i _nodert_generated.obj
 0001:0003aca0       ?_Copy@?$_Func_impl@V<lambda_ddc783f4c1398e092806cb9237aa3654>@@V?$allocator@H@std@@XV?$task@P$AAVRfcommDeviceServicesResult@Rfcomm@Bluetooth@Devices@Windows@@@Concurrency@@@std@@EBEPAV?$_Func_base@XV?$task@P$AAVRfcommDeviceServicesResult@Rfcomm@Bluetooth@Devices@Windows@@@Concurrency@@@2@PAX@Z 1003bca0 f i _nodert_generated.obj
 0001:0003aca0       ?_Move@?$_Func_impl@V<lambda_ddc783f4c1398e092806cb9237aa3654>@@V?$allocator@H@std@@XV?$task@P$AAVRfcommDeviceServicesResult@Rfcomm@Bluetooth@Devices@Windows@@@Concurrency@@@std@@EAEPAV?$_Func_base@XV?$task@P$AAVRfcommDeviceServicesResult@Rfcomm@Bluetooth@Devices@Windows@@@Concurrency@@@2@PAX@Z 1003bca0 f i _nodert_generated.obj
 0001:0003acc0       ?_Target_type@?$_Func_impl@V<lambda_09c86ff1b6a1cdd4b1c67fc041d113fb>@@V?$allocator@H@std@@XV?$task@W4DeviceAccessStatus@Enumeration@Devices@Windows@@@Concurrency@@@std@@EBEABVtype_info@@XZ 1003bcc0 f i _nodert_generated.obj
 0001:0003acd0       ?_Do_call@?$_Func_impl@V<lambda_09c86ff1b6a1cdd4b1c67fc041d113fb>@@V?$allocator@H@std@@XV?$task@W4DeviceAccessStatus@Enumeration@Devices@Windows@@@Concurrency@@@std@@EAEX$$QAV?$task@W4DeviceAccessStatus@Enumeration@Devices@Windows@@@Concurrency@@@Z 1003bcd0 f i _nodert_generated.obj
 0001:0003ad10       ?_Move@?$_Func_impl@V<lambda_09c86ff1b6a1cdd4b1c67fc041d113fb>@@V?$allocator@H@std@@XV?$task@W4DeviceAccessStatus@Enumeration@Devices@Windows@@@Concurrency@@@std@@EAEPAV?$_Func_base@XV?$task@W4DeviceAccessStatus@Enumeration@Devices@Windows@@@Concurrency@@@2@PAX@Z 1003bd10 f i _nodert_generated.obj
 0001:0003ad10       ?_Copy@?$_Func_impl@V<lambda_09c86ff1b6a1cdd4b1c67fc041d113fb>@@V?$allocator@H@std@@XV?$task@W4DeviceAccessStatus@Enumeration@Devices@Windows@@@Concurrency@@@std@@EBEPAV?$_Func_base@XV?$task@W4DeviceAccessStatus@Enumeration@Devices@Windows@@@Concurrency@@@2@PAX@Z 1003bd10 f i _nodert_generated.obj
 0001:0003ad30       ?_Delete_this@?$_Func_impl@V<lambda_5ec53a2f3b8c40fcfce1c97e868d4a76>@@V?$allocator@H@std@@XV?$task@P$AAVBluetoothAdapter@Bluetooth@Devices@Windows@@@Concurrency@@@std@@EAEX_N@Z 1003bd30 f i _nodert_generated.obj
 0001:0003ad30       ?_Delete_this@?$_Func_impl@V<lambda_b301bd98ae2fed6582e1efada6fc5ceb>@@V?$allocator@H@std@@XV?$task@P$AAVBluetoothAdapter@Bluetooth@Devices@Windows@@@Concurrency@@@std@@EAEX_N@Z 1003bd30 f i _nodert_generated.obj
 0001:0003ad50       ?_Target_type@?$_Func_impl@V<lambda_b301bd98ae2fed6582e1efada6fc5ceb>@@V?$allocator@H@std@@XV?$task@P$AAVBluetoothAdapter@Bluetooth@Devices@Windows@@@Concurrency@@@std@@EBEABVtype_info@@XZ 1003bd50 f i _nodert_generated.obj
 0001:0003ad60       ?_Do_call@?$_Func_impl@V<lambda_b301bd98ae2fed6582e1efada6fc5ceb>@@V?$allocator@H@std@@XV?$task@P$AAVBluetoothAdapter@Bluetooth@Devices@Windows@@@Concurrency@@@std@@EAEX$$QAV?$task@P$AAVBluetoothAdapter@Bluetooth@Devices@Windows@@@Concurrency@@@Z 1003bd60 f i _nodert_generated.obj
 0001:0003ada0       ?_Copy@?$_Func_impl@V<lambda_b301bd98ae2fed6582e1efada6fc5ceb>@@V?$allocator@H@std@@XV?$task@P$AAVBluetoothAdapter@Bluetooth@Devices@Windows@@@Concurrency@@@std@@EBEPAV?$_Func_base@XV?$task@P$AAVBluetoothAdapter@Bluetooth@Devices@Windows@@@Concurrency@@@2@PAX@Z 1003bda0 f i _nodert_generated.obj
 0001:0003ada0       ?_Move@?$_Func_impl@V<lambda_b301bd98ae2fed6582e1efada6fc5ceb>@@V?$allocator@H@std@@XV?$task@P$AAVBluetoothAdapter@Bluetooth@Devices@Windows@@@Concurrency@@@std@@EAEPAV?$_Func_base@XV?$task@P$AAVBluetoothAdapter@Bluetooth@Devices@Windows@@@Concurrency@@@2@PAX@Z 1003bda0 f i _nodert_generated.obj
 0001:0003adc0       ?_Target_type@?$_Func_impl@V<lambda_5ec53a2f3b8c40fcfce1c97e868d4a76>@@V?$allocator@H@std@@XV?$task@P$AAVBluetoothAdapter@Bluetooth@Devices@Windows@@@Concurrency@@@std@@EBEABVtype_info@@XZ 1003bdc0 f i _nodert_generated.obj
 0001:0003add0       ?_Do_call@?$_Func_impl@V<lambda_5ec53a2f3b8c40fcfce1c97e868d4a76>@@V?$allocator@H@std@@XV?$task@P$AAVBluetoothAdapter@Bluetooth@Devices@Windows@@@Concurrency@@@std@@EAEX$$QAV?$task@P$AAVBluetoothAdapter@Bluetooth@Devices@Windows@@@Concurrency@@@Z 1003bdd0 f i _nodert_generated.obj
 0001:0003ae10       ?_Move@?$_Func_impl@V<lambda_5ec53a2f3b8c40fcfce1c97e868d4a76>@@V?$allocator@H@std@@XV?$task@P$AAVBluetoothAdapter@Bluetooth@Devices@Windows@@@Concurrency@@@std@@EAEPAV?$_Func_base@XV?$task@P$AAVBluetoothAdapter@Bluetooth@Devices@Windows@@@Concurrency@@@2@PAX@Z 1003be10 f i _nodert_generated.obj
 0001:0003ae10       ?_Copy@?$_Func_impl@V<lambda_5ec53a2f3b8c40fcfce1c97e868d4a76>@@V?$allocator@H@std@@XV?$task@P$AAVBluetoothAdapter@Bluetooth@Devices@Windows@@@Concurrency@@@std@@EBEPAV?$_Func_base@XV?$task@P$AAVBluetoothAdapter@Bluetooth@Devices@Windows@@@Concurrency@@@2@PAX@Z 1003be10 f i _nodert_generated.obj
 0001:0003ae30       ?_Delete_this@?$_Func_impl@V<lambda_747ec3eb3a097e44df54679908ea0d09>@@V?$allocator@H@std@@XV?$task@P$AAVRadio@Radios@Devices@Windows@@@Concurrency@@@std@@EAEX_N@Z 1003be30 f i _nodert_generated.obj
 0001:0003ae50       ?_Target_type@?$_Func_impl@V<lambda_747ec3eb3a097e44df54679908ea0d09>@@V?$allocator@H@std@@XV?$task@P$AAVRadio@Radios@Devices@Windows@@@Concurrency@@@std@@EBEABVtype_info@@XZ 1003be50 f i _nodert_generated.obj
 0001:0003ae60       ?_Do_call@?$_Func_impl@V<lambda_747ec3eb3a097e44df54679908ea0d09>@@V?$allocator@H@std@@XV?$task@P$AAVRadio@Radios@Devices@Windows@@@Concurrency@@@std@@EAEX$$QAV?$task@P$AAVRadio@Radios@Devices@Windows@@@Concurrency@@@Z 1003be60 f i _nodert_generated.obj
 0001:0003aea0       ?_Copy@?$_Func_impl@V<lambda_747ec3eb3a097e44df54679908ea0d09>@@V?$allocator@H@std@@XV?$task@P$AAVRadio@Radios@Devices@Windows@@@Concurrency@@@std@@EBEPAV?$_Func_base@XV?$task@P$AAVRadio@Radios@Devices@Windows@@@Concurrency@@@2@PAX@Z 1003bea0 f i _nodert_generated.obj
 0001:0003aea0       ?_Move@?$_Func_impl@V<lambda_747ec3eb3a097e44df54679908ea0d09>@@V?$allocator@H@std@@XV?$task@P$AAVRadio@Radios@Devices@Windows@@@Concurrency@@@std@@EAEPAV?$_Func_base@XV?$task@P$AAVRadio@Radios@Devices@Windows@@@Concurrency@@@2@PAX@Z 1003bea0 f i _nodert_generated.obj
 0001:0003aec0       ?_SetUnwrappedAsyncOp@?$_Task_impl@P$AAVBluetoothLEDevice@Bluetooth@Devices@Windows@@@details@Concurrency@@QAEXP$AAU?$IAsyncOperation@P$AAVBluetoothLEDevice@Bluetooth@Devices@Windows@@@Foundation@Windows@@@Z 1003bec0 f i _nodert_generated.obj
 0001:0003b090       ?_FinalizeAndRunContinuations@?$_Task_impl@P$AAVBluetoothDevice@Bluetooth@Devices@Windows@@@details@Concurrency@@QAEXP$AAVBluetoothDevice@Bluetooth@Devices@Windows@@@Z 1003c090 f i _nodert_generated.obj
 0001:0003b090       ?_FinalizeAndRunContinuations@?$_Task_impl@P$AAVRadio@Radios@Devices@Windows@@@details@Concurrency@@QAEXP$AAVRadio@Radios@Devices@Windows@@@Z 1003c090 f i _nodert_generated.obj
 0001:0003b090       ?_FinalizeAndRunContinuations@?$_Task_impl@P$AAVRfcommDeviceServicesResult@Rfcomm@Bluetooth@Devices@Windows@@@details@Concurrency@@QAEXP$AAVRfcommDeviceServicesResult@Rfcomm@Bluetooth@Devices@Windows@@@Z 1003c090 f i _nodert_generated.obj
 0001:0003b090       ?_FinalizeAndRunContinuations@?$_Task_impl@P$AAVBluetoothAdapter@Bluetooth@Devices@Windows@@@details@Concurrency@@QAEXP$AAVBluetoothAdapter@Bluetooth@Devices@Windows@@@Z 1003c090 f i _nodert_generated.obj
 0001:0003b090       ?_FinalizeAndRunContinuations@?$_Task_impl@P$AAVBluetoothLEDevice@Bluetooth@Devices@Windows@@@details@Concurrency@@QAEXP$AAVBluetoothLEDevice@Bluetooth@Devices@Windows@@@Z 1003c090 f i _nodert_generated.obj
 0001:0003b090       ?_FinalizeAndRunContinuations@?$_Task_impl@P$AAVGattDeviceServicesResult@GenericAttributeProfile@Bluetooth@Devices@Windows@@@details@Concurrency@@QAEXP$AAVGattDeviceServicesResult@GenericAttributeProfile@Bluetooth@Devices@Windows@@@Z 1003c090 f i _nodert_generated.obj
 0001:0003b190       ??0?$_Task_impl@P$AAVBluetoothLEDevice@Bluetooth@Devices@Windows@@@details@Concurrency@@QAE@PAV_CancellationTokenState@12@Uscheduler_ptr@2@@Z 1003c190 f i _nodert_generated.obj
 0001:0003b260       ?_SetUnwrappedAsyncOp@?$_Task_impl@P$AAVGattDeviceServicesResult@GenericAttributeProfile@Bluetooth@Devices@Windows@@@details@Concurrency@@QAEXP$AAU?$IAsyncOperation@P$AAVGattDeviceServicesResult@GenericAttributeProfile@Bluetooth@Devices@Windows@@@Foundation@Windows@@@Z 1003c260 f i _nodert_generated.obj
 0001:0003b3a0       ??0?$_Task_impl@P$AAVGattDeviceServicesResult@GenericAttributeProfile@Bluetooth@Devices@Windows@@@details@Concurrency@@QAE@PAV_CancellationTokenState@12@Uscheduler_ptr@2@@Z 1003c3a0 f i _nodert_generated.obj
 0001:0003b470       ?_SetUnwrappedAsyncOp@?$_Task_impl@P$AAVBluetoothDevice@Bluetooth@Devices@Windows@@@details@Concurrency@@QAEXP$AAU?$IAsyncOperation@P$AAVBluetoothDevice@Bluetooth@Devices@Windows@@@Foundation@Windows@@@Z 1003c470 f i _nodert_generated.obj
 0001:0003b5b0       ??0?$_Task_impl@P$AAVBluetoothDevice@Bluetooth@Devices@Windows@@@details@Concurrency@@QAE@PAV_CancellationTokenState@12@Uscheduler_ptr@2@@Z 1003c5b0 f i _nodert_generated.obj
 0001:0003b680       ?_SetUnwrappedAsyncOp@?$_Task_impl@P$AAVRfcommDeviceServicesResult@Rfcomm@Bluetooth@Devices@Windows@@@details@Concurrency@@QAEXP$AAU?$IAsyncOperation@P$AAVRfcommDeviceServicesResult@Rfcomm@Bluetooth@Devices@Windows@@@Foundation@Windows@@@Z 1003c680 f i _nodert_generated.obj
 0001:0003b7c0       ??0?$_Task_impl@P$AAVRfcommDeviceServicesResult@Rfcomm@Bluetooth@Devices@Windows@@@details@Concurrency@@QAE@PAV_CancellationTokenState@12@Uscheduler_ptr@2@@Z 1003c7c0 f i _nodert_generated.obj
 0001:0003b890       ?_SetUnwrappedAsyncOp@?$_Task_impl@W4DeviceAccessStatus@Enumeration@Devices@Windows@@@details@Concurrency@@QAEXP$AAU?$IAsyncOperation@W4DeviceAccessStatus@Enumeration@Devices@Windows@@@Foundation@Windows@@@Z 1003c890 f i _nodert_generated.obj
 0001:0003b9d0       ?_FinalizeAndRunContinuations@?$_Task_impl@W4DeviceAccessStatus@Enumeration@Devices@Windows@@@details@Concurrency@@QAEXW4DeviceAccessStatus@Enumeration@Devices@Windows@@@Z 1003c9d0 f i _nodert_generated.obj
 0001:0003ba50       ??0?$_Task_impl@W4DeviceAccessStatus@Enumeration@Devices@Windows@@@details@Concurrency@@QAE@PAV_CancellationTokenState@12@Uscheduler_ptr@2@@Z 1003ca50 f i _nodert_generated.obj
 0001:0003bb10       ?_SetUnwrappedAsyncOp@?$_Task_impl@P$AAVBluetoothAdapter@Bluetooth@Devices@Windows@@@details@Concurrency@@QAEXP$AAU?$IAsyncOperation@P$AAVBluetoothAdapter@Bluetooth@Devices@Windows@@@Foundation@Windows@@@Z 1003cb10 f i _nodert_generated.obj
 0001:0003bc50       ??0?$_Task_impl@P$AAVBluetoothAdapter@Bluetooth@Devices@Windows@@@details@Concurrency@@QAE@PAV_CancellationTokenState@12@Uscheduler_ptr@2@@Z 1003cc50 f i _nodert_generated.obj
 0001:0003bd20       ?_SetUnwrappedAsyncOp@?$_Task_impl@P$AAVRadio@Radios@Devices@Windows@@@details@Concurrency@@QAEXP$AAU?$IAsyncOperation@P$AAVRadio@Radios@Devices@Windows@@@Foundation@Windows@@@Z 1003cd20 f i _nodert_generated.obj
 0001:0003be60       ??0?$_Task_impl@P$AAVRadio@Radios@Devices@Windows@@@details@Concurrency@@QAE@PAV_CancellationTokenState@12@Uscheduler_ptr@2@@Z 1003ce60 f i _nodert_generated.obj
 0001:0003bf30       ??$?0V<lambda_146cf764c0b3a8a0c9c182e03699f750>@@@?$AsyncOperationCompletedHandler@P$AAVBluetoothLEDevice@Bluetooth@Devices@Windows@@@Foundation@Windows@@Q$AAA@V<lambda_146cf764c0b3a8a0c9c182e03699f750>@@W4CallbackContext@Platform@@_N@Z 1003cf30 f i _nodert_generated.obj
 0001:0003c070       ??$?0V<lambda_b11842390d5ede0b58231da51bcc8b4c>@@@?$AsyncOperationCompletedHandler@P$AAVGattDeviceServicesResult@GenericAttributeProfile@Bluetooth@Devices@Windows@@@Foundation@Windows@@Q$AAA@V<lambda_b11842390d5ede0b58231da51bcc8b4c>@@W4CallbackContext@Platform@@_N@Z 1003d070 f i _nodert_generated.obj
 0001:0003c1b0       ??$?0V<lambda_3ee6f2826c3c19771cbf15c64ebe54f7>@@@?$AsyncOperationCompletedHandler@P$AAVBluetoothDevice@Bluetooth@Devices@Windows@@@Foundation@Windows@@Q$AAA@V<lambda_3ee6f2826c3c19771cbf15c64ebe54f7>@@W4CallbackContext@Platform@@_N@Z 1003d1b0 f i _nodert_generated.obj
 0001:0003c2f0       ??$?0V<lambda_18c149b0d0c4e277dffabc6505f78489>@@@?$AsyncOperationCompletedHandler@P$AAVRfcommDeviceServicesResult@Rfcomm@Bluetooth@Devices@Windows@@@Foundation@Windows@@Q$AAA@V<lambda_18c149b0d0c4e277dffabc6505f78489>@@W4CallbackContext@Platform@@_N@Z 1003d2f0 f i _nodert_generated.obj
 0001:0003c430       ??$?0V<lambda_9c5e4db394b94b3091f90d14e17b8f83>@@@?$AsyncOperationCompletedHandler@W4DeviceAccessStatus@Enumeration@Devices@Windows@@@Foundation@Windows@@Q$AAA@V<lambda_9c5e4db394b94b3091f90d14e17b8f83>@@W4CallbackContext@Platform@@_N@Z 1003d430 f i _nodert_generated.obj
 0001:0003c570       ??$?0V<lambda_c81b94355d62964b0964e4aea5068d88>@@@?$AsyncOperationCompletedHandler@P$AAVBluetoothAdapter@Bluetooth@Devices@Windows@@@Foundation@Windows@@Q$AAA@V<lambda_c81b94355d62964b0964e4aea5068d88>@@W4CallbackContext@Platform@@_N@Z 1003d570 f i _nodert_generated.obj
 0001:0003c6b0       ??$?0V<lambda_1d4db423df950a9db6d5162d107d760e>@@@?$AsyncOperationCompletedHandler@P$AAVRadio@Radios@Devices@Windows@@@Foundation@Windows@@Q$AAA@V<lambda_1d4db423df950a9db6d5162d107d760e>@@W4CallbackContext@Platform@@_N@Z 1003d6b0 f i _nodert_generated.obj
 0001:0003c7f0       ??$?4V<lambda_499991dc379cdd966d05446e4c24e079>@@XX@?$function@$$A6AXXZ@std@@QAEAAV01@$$QAV<lambda_499991dc379cdd966d05446e4c24e079>@@@Z 1003d7f0 f i _nodert_generated.obj
 0001:0003c8c0       ??$?4V<lambda_79b8a5eb52f9bfa95275c321739a91a0>@@XX@?$function@$$A6AXXZ@std@@QAEAAV01@$$QAV<lambda_79b8a5eb52f9bfa95275c321739a91a0>@@@Z 1003d8c0 f i _nodert_generated.obj
 0001:0003c990       ??$?4V<lambda_acabef03453c5d7452ff36946e434048>@@XX@?$function@$$A6AXXZ@std@@QAEAAV01@$$QAV<lambda_acabef03453c5d7452ff36946e434048>@@@Z 1003d990 f i _nodert_generated.obj
 0001:0003ca60       ??$?4V<lambda_7ff700b370056163c5ea4d7b4b5a67be>@@XX@?$function@$$A6AXXZ@std@@QAEAAV01@$$QAV<lambda_7ff700b370056163c5ea4d7b4b5a67be>@@@Z 1003da60 f i _nodert_generated.obj
 0001:0003cb30       ??$?4V<lambda_163447debca1a99374464820a5cb87b2>@@XX@?$function@$$A6AXXZ@std@@QAEAAV01@$$QAV<lambda_163447debca1a99374464820a5cb87b2>@@@Z 1003db30 f i _nodert_generated.obj
 0001:0003cc00       ??$?4V<lambda_4f93c2a5cc8661f1894fa0a15cd0c840>@@XX@?$function@$$A6AXXZ@std@@QAEAAV01@$$QAV<lambda_4f93c2a5cc8661f1894fa0a15cd0c840>@@@Z 1003dc00 f i _nodert_generated.obj
 0001:0003ccd0       ??$?4V<lambda_f08ec446ca8b33299a4e48e3172e9b8c>@@XX@?$function@$$A6AXXZ@std@@QAEAAV01@$$QAV<lambda_f08ec446ca8b33299a4e48e3172e9b8c>@@@Z 1003dcd0 f i _nodert_generated.obj
 0001:0003cda0       ?Invoke@?$__abi_FunctorCapture@V<lambda_c81b94355d62964b0964e4aea5068d88>@@XP$AAU?$IAsyncOperation@P$AAVBluetoothAdapter@Bluetooth@Devices@Windows@@@Foundation@Windows@@W4AsyncStatus@34@@Details@Platform@@UAGXP$AAU?$IAsyncOperation@P$AAVBluetoothAdapter@Bluetooth@Devices@Windows@@@Foundation@Windows@@W4AsyncStatus@56@@Z 1003dda0 f i _nodert_generated.obj
 0001:0003cda0       ?Invoke@?$__abi_FunctorCapture@V<lambda_3ee6f2826c3c19771cbf15c64ebe54f7>@@XP$AAU?$IAsyncOperation@P$AAVBluetoothDevice@Bluetooth@Devices@Windows@@@Foundation@Windows@@W4AsyncStatus@34@@Details@Platform@@UAGXP$AAU?$IAsyncOperation@P$AAVBluetoothDevice@Bluetooth@Devices@Windows@@@Foundation@Windows@@W4AsyncStatus@56@@Z 1003dda0 f i _nodert_generated.obj
 0001:0003cda0       ?Invoke@?$__abi_FunctorCapture@V<lambda_18c149b0d0c4e277dffabc6505f78489>@@XP$AAU?$IAsyncOperation@P$AAVRfcommDeviceServicesResult@Rfcomm@Bluetooth@Devices@Windows@@@Foundation@Windows@@W4AsyncStatus@34@@Details@Platform@@UAGXP$AAU?$IAsyncOperation@P$AAVRfcommDeviceServicesResult@Rfcomm@Bluetooth@Devices@Windows@@@Foundation@Windows@@W4AsyncStatus@56@@Z 1003dda0 f i _nodert_generated.obj
 0001:0003cda0       ?Invoke@?$__abi_FunctorCapture@V<lambda_146cf764c0b3a8a0c9c182e03699f750>@@XP$AAU?$IAsyncOperation@P$AAVBluetoothLEDevice@Bluetooth@Devices@Windows@@@Foundation@Windows@@W4AsyncStatus@34@@Details@Platform@@UAGXP$AAU?$IAsyncOperation@P$AAVBluetoothLEDevice@Bluetooth@Devices@Windows@@@Foundation@Windows@@W4AsyncStatus@56@@Z 1003dda0 f i _nodert_generated.obj
 0001:0003cda0       ?Invoke@?$__abi_FunctorCapture@V<lambda_1d4db423df950a9db6d5162d107d760e>@@XP$AAU?$IAsyncOperation@P$AAVRadio@Radios@Devices@Windows@@@Foundation@Windows@@W4AsyncStatus@34@@Details@Platform@@UAGXP$AAU?$IAsyncOperation@P$AAVRadio@Radios@Devices@Windows@@@Foundation@Windows@@W4AsyncStatus@56@@Z 1003dda0 f i _nodert_generated.obj
 0001:0003cda0       ?Invoke@?$__abi_FunctorCapture@V<lambda_b11842390d5ede0b58231da51bcc8b4c>@@XP$AAU?$IAsyncOperation@P$AAVGattDeviceServicesResult@GenericAttributeProfile@Bluetooth@Devices@Windows@@@Foundation@Windows@@W4AsyncStatus@34@@Details@Platform@@UAGXP$AAU?$IAsyncOperation@P$AAVGattDeviceServicesResult@GenericAttributeProfile@Bluetooth@Devices@Windows@@@Foundation@Windows@@W4AsyncStatus@56@@Z 1003dda0 f i _nodert_generated.obj
 0001:0003cdc0       ??0?$__abi_FunctorCapture@V<lambda_1d4db423df950a9db6d5162d107d760e>@@XP$AAU?$IAsyncOperation@P$AAVRadio@Radios@Devices@Windows@@@Foundation@Windows@@W4AsyncStatus@34@@Details@Platform@@QAE@V<lambda_1d4db423df950a9db6d5162d107d760e>@@@Z 1003ddc0 f i _nodert_generated.obj
 0001:0003ce70       ??0?$__abi_FunctorCapture@V<lambda_c81b94355d62964b0964e4aea5068d88>@@XP$AAU?$IAsyncOperation@P$AAVBluetoothAdapter@Bluetooth@Devices@Windows@@@Foundation@Windows@@W4AsyncStatus@34@@Details@Platform@@QAE@V<lambda_c81b94355d62964b0964e4aea5068d88>@@@Z 1003de70 f i _nodert_generated.obj
 0001:0003cf20       ?Invoke@?$__abi_FunctorCapture@V<lambda_9c5e4db394b94b3091f90d14e17b8f83>@@XP$AAU?$IAsyncOperation@W4DeviceAccessStatus@Enumeration@Devices@Windows@@@Foundation@Windows@@W4AsyncStatus@34@@Details@Platform@@UAGXP$AAU?$IAsyncOperation@W4DeviceAccessStatus@Enumeration@Devices@Windows@@@Foundation@Windows@@W4AsyncStatus@56@@Z 1003df20 f i _nodert_generated.obj
 0001:0003cf40       ??0?$__abi_FunctorCapture@V<lambda_9c5e4db394b94b3091f90d14e17b8f83>@@XP$AAU?$IAsyncOperation@W4DeviceAccessStatus@Enumeration@Devices@Windows@@@Foundation@Windows@@W4AsyncStatus@34@@Details@Platform@@QAE@V<lambda_9c5e4db394b94b3091f90d14e17b8f83>@@@Z 1003df40 f i _nodert_generated.obj
 0001:0003cff0       ??0?$__abi_FunctorCapture@V<lambda_18c149b0d0c4e277dffabc6505f78489>@@XP$AAU?$IAsyncOperation@P$AAVRfcommDeviceServicesResult@Rfcomm@Bluetooth@Devices@Windows@@@Foundation@Windows@@W4AsyncStatus@34@@Details@Platform@@QAE@V<lambda_18c149b0d0c4e277dffabc6505f78489>@@@Z 1003dff0 f i _nodert_generated.obj
 0001:0003d0a0       ??0?$__abi_FunctorCapture@V<lambda_3ee6f2826c3c19771cbf15c64ebe54f7>@@XP$AAU?$IAsyncOperation@P$AAVBluetoothDevice@Bluetooth@Devices@Windows@@@Foundation@Windows@@W4AsyncStatus@34@@Details@Platform@@QAE@V<lambda_3ee6f2826c3c19771cbf15c64ebe54f7>@@@Z 1003e0a0 f i _nodert_generated.obj
 0001:0003d150       ??0?$__abi_FunctorCapture@V<lambda_b11842390d5ede0b58231da51bcc8b4c>@@XP$AAU?$IAsyncOperation@P$AAVGattDeviceServicesResult@GenericAttributeProfile@Bluetooth@Devices@Windows@@@Foundation@Windows@@W4AsyncStatus@34@@Details@Platform@@QAE@V<lambda_b11842390d5ede0b58231da51bcc8b4c>@@@Z 1003e150 f i _nodert_generated.obj
 0001:0003d200       ??0?$__abi_FunctorCapture@V<lambda_146cf764c0b3a8a0c9c182e03699f750>@@XP$AAU?$IAsyncOperation@P$AAVBluetoothLEDevice@Bluetooth@Devices@Windows@@@Foundation@Windows@@W4AsyncStatus@34@@Details@Platform@@QAE@V<lambda_146cf764c0b3a8a0c9c182e03699f750>@@@Z 1003e200 f i _nodert_generated.obj
 0001:0003d2b0       ??$_Call@AAV<lambda_418da4fc7fd2d4ca75e49519a55b40b1>@@V?$function@$$A6AXHPAV?$Local@VValue@v8@@@v8@@@Z@std@@@_Invoker_functor@std@@SAXAAV<lambda_418da4fc7fd2d4ca75e49519a55b40b1>@@$$QAV?$function@$$A6AXHPAV?$Local@VValue@v8@@@v8@@@Z@1@@Z 1003e2b0 f i _nodert_generated.obj
 0001:0003d320       ??$_Call@AAV<lambda_25051fbfe6c38c7d30193c2fb9fc5459>@@V?$function@$$A6AXHPAV?$Local@VValue@v8@@@v8@@@Z@std@@@_Invoker_functor@std@@SAXAAV<lambda_25051fbfe6c38c7d30193c2fb9fc5459>@@$$QAV?$function@$$A6AXHPAV?$Local@VValue@v8@@@v8@@@Z@1@@Z 1003e320 f i _nodert_generated.obj
 0001:0003d320       ??$_Call@AAV<lambda_262dc18221bbebaf5c9d902693b8c78e>@@V?$function@$$A6AXHPAV?$Local@VValue@v8@@@v8@@@Z@std@@@_Invoker_functor@std@@SAXAAV<lambda_262dc18221bbebaf5c9d902693b8c78e>@@$$QAV?$function@$$A6AXHPAV?$Local@VValue@v8@@@v8@@@Z@1@@Z 1003e320 f i _nodert_generated.obj
 0001:0003d320       ??$_Call@AAV<lambda_85324de540444b6fadd78ae5974fe4b9>@@V?$function@$$A6AXHPAV?$Local@VValue@v8@@@v8@@@Z@std@@@_Invoker_functor@std@@SAXAAV<lambda_85324de540444b6fadd78ae5974fe4b9>@@$$QAV?$function@$$A6AXHPAV?$Local@VValue@v8@@@v8@@@Z@1@@Z 1003e320 f i _nodert_generated.obj
 0001:0003d320       ??$_Call@AAV<lambda_d73df75e068ac21414fb299eee9ee9d4>@@V?$function@$$A6AXHPAV?$Local@VValue@v8@@@v8@@@Z@std@@@_Invoker_functor@std@@SAXAAV<lambda_d73df75e068ac21414fb299eee9ee9d4>@@$$QAV?$function@$$A6AXHPAV?$Local@VValue@v8@@@v8@@@Z@1@@Z 1003e320 f i _nodert_generated.obj
 0001:0003d320       ??$_Call@AAV<lambda_f72c7d94d1b4205e6643f6e601058a4c>@@V?$function@$$A6AXHPAV?$Local@VValue@v8@@@v8@@@Z@std@@@_Invoker_functor@std@@SAXAAV<lambda_f72c7d94d1b4205e6643f6e601058a4c>@@$$QAV?$function@$$A6AXHPAV?$Local@VValue@v8@@@v8@@@Z@1@@Z 1003e320 f i _nodert_generated.obj
 0001:0003d320       ??$_Call@AAV<lambda_28386656da5c779c164d4e8f3ced1c51>@@V?$function@$$A6AXHPAV?$Local@VValue@v8@@@v8@@@Z@std@@@_Invoker_functor@std@@SAXAAV<lambda_28386656da5c779c164d4e8f3ced1c51>@@$$QAV?$function@$$A6AXHPAV?$Local@VValue@v8@@@v8@@@Z@1@@Z 1003e320 f i _nodert_generated.obj
 0001:0003d320       ??$_Call@AAV<lambda_0a965d69dad08e8c30c0d6726b1285f8>@@V?$function@$$A6AXHPAV?$Local@VValue@v8@@@v8@@@Z@std@@@_Invoker_functor@std@@SAXAAV<lambda_0a965d69dad08e8c30c0d6726b1285f8>@@$$QAV?$function@$$A6AXHPAV?$Local@VValue@v8@@@v8@@@Z@1@@Z 1003e320 f i _nodert_generated.obj
 0001:0003d320       ??$_Call@AAV<lambda_9b07747e2608eab745e1d48b0ade56b8>@@V?$function@$$A6AXHPAV?$Local@VValue@v8@@@v8@@@Z@std@@@_Invoker_functor@std@@SAXAAV<lambda_9b07747e2608eab745e1d48b0ade56b8>@@$$QAV?$function@$$A6AXHPAV?$Local@VValue@v8@@@v8@@@Z@1@@Z 1003e320 f i _nodert_generated.obj
 0001:0003d320       ??$_Call@AAV<lambda_3de740e13969e2b8a3ac1e24d37ecf1e>@@V?$function@$$A6AXHPAV?$Local@VValue@v8@@@v8@@@Z@std@@@_Invoker_functor@std@@SAXAAV<lambda_3de740e13969e2b8a3ac1e24d37ecf1e>@@$$QAV?$function@$$A6AXHPAV?$Local@VValue@v8@@@v8@@@Z@1@@Z 1003e320 f i _nodert_generated.obj
 0001:0003d320       ??$_Call@AAV<lambda_187bfff809842edec62074d62b22b32f>@@V?$function@$$A6AXHPAV?$Local@VValue@v8@@@v8@@@Z@std@@@_Invoker_functor@std@@SAXAAV<lambda_187bfff809842edec62074d62b22b32f>@@$$QAV?$function@$$A6AXHPAV?$Local@VValue@v8@@@v8@@@Z@1@@Z 1003e320 f i _nodert_generated.obj
 0001:0003d320       ??$_Call@AAV<lambda_303346c6205280f0400a0a4337cb6f94>@@V?$function@$$A6AXHPAV?$Local@VValue@v8@@@v8@@@Z@std@@@_Invoker_functor@std@@SAXAAV<lambda_303346c6205280f0400a0a4337cb6f94>@@$$QAV?$function@$$A6AXHPAV?$Local@VValue@v8@@@v8@@@Z@1@@Z 1003e320 f i _nodert_generated.obj
 0001:0003d320       ??$_Call@AAV<lambda_14f1f715b558ff3f1896f1a2d375bd61>@@V?$function@$$A6AXHPAV?$Local@VValue@v8@@@v8@@@Z@std@@@_Invoker_functor@std@@SAXAAV<lambda_14f1f715b558ff3f1896f1a2d375bd61>@@$$QAV?$function@$$A6AXHPAV?$Local@VValue@v8@@@v8@@@Z@1@@Z 1003e320 f i _nodert_generated.obj
 0001:0003d320       ??$_Call@AAV<lambda_dbe60ed01c1e3c76a597f3af09957bae>@@V?$function@$$A6AXHPAV?$Local@VValue@v8@@@v8@@@Z@std@@@_Invoker_functor@std@@SAXAAV<lambda_dbe60ed01c1e3c76a597f3af09957bae>@@$$QAV?$function@$$A6AXHPAV?$Local@VValue@v8@@@v8@@@Z@1@@Z 1003e320 f i _nodert_generated.obj
 0001:0003d320       ??$_Call@AAV<lambda_18e6cab7d1ade338b0bade6a66c837c9>@@V?$function@$$A6AXHPAV?$Local@VValue@v8@@@v8@@@Z@std@@@_Invoker_functor@std@@SAXAAV<lambda_18e6cab7d1ade338b0bade6a66c837c9>@@$$QAV?$function@$$A6AXHPAV?$Local@VValue@v8@@@v8@@@Z@1@@Z 1003e320 f i _nodert_generated.obj
 0001:0003d390       ??$_Call@AAV<lambda_6b344b9f416cbf271c606b5f43372795>@@V?$function@$$A6AXHPAV?$Local@VValue@v8@@@v8@@@Z@std@@@_Invoker_functor@std@@SAXAAV<lambda_6b344b9f416cbf271c606b5f43372795>@@$$QAV?$function@$$A6AXHPAV?$Local@VValue@v8@@@v8@@@Z@1@@Z 1003e390 f i _nodert_generated.obj
 0001:0003d390       ??$_Call@AAV<lambda_be75d5fea2a84d65e08b7b948640c5d3>@@V?$function@$$A6AXHPAV?$Local@VValue@v8@@@v8@@@Z@std@@@_Invoker_functor@std@@SAXAAV<lambda_be75d5fea2a84d65e08b7b948640c5d3>@@$$QAV?$function@$$A6AXHPAV?$Local@VValue@v8@@@v8@@@Z@1@@Z 1003e390 f i _nodert_generated.obj
 0001:0003d400       ??$_Call@AAV<lambda_6145d2349ddbc560c26b9810f6eb6315>@@V?$function@$$A6AXHPAV?$Local@VValue@v8@@@v8@@@Z@std@@@_Invoker_functor@std@@SAXAAV<lambda_6145d2349ddbc560c26b9810f6eb6315>@@$$QAV?$function@$$A6AXHPAV?$Local@VValue@v8@@@v8@@@Z@1@@Z 1003e400 f i _nodert_generated.obj
 0001:0003d400       ??$_Call@AAV<lambda_e274403a9a3c76a94c80f22710ef3033>@@V?$function@$$A6AXHPAV?$Local@VValue@v8@@@v8@@@Z@std@@@_Invoker_functor@std@@SAXAAV<lambda_e274403a9a3c76a94c80f22710ef3033>@@$$QAV?$function@$$A6AXHPAV?$Local@VValue@v8@@@v8@@@Z@1@@Z 1003e400 f i _nodert_generated.obj
 0001:0003d470       ??$_Call@AAV<lambda_fcae90260632ca601fce10b1a87b1d76>@@V?$function@$$A6AXHPAV?$Local@VValue@v8@@@v8@@@Z@std@@@_Invoker_functor@std@@SAXAAV<lambda_fcae90260632ca601fce10b1a87b1d76>@@$$QAV?$function@$$A6AXHPAV?$Local@VValue@v8@@@v8@@@Z@1@@Z 1003e470 f i _nodert_generated.obj
 0001:0003d470       ??$_Call@AAV<lambda_ad54f25efe834c8863be8e55d55ceb51>@@V?$function@$$A6AXHPAV?$Local@VValue@v8@@@v8@@@Z@std@@@_Invoker_functor@std@@SAXAAV<lambda_ad54f25efe834c8863be8e55d55ceb51>@@$$QAV?$function@$$A6AXHPAV?$Local@VValue@v8@@@v8@@@Z@1@@Z 1003e470 f i _nodert_generated.obj
 0001:0003d4e0       ??$_Call@AAV<lambda_ecb9dd0ae37e39021795d8045ef0ac04>@@V?$function@$$A6AXHPAV?$Local@VValue@v8@@@v8@@@Z@std@@@_Invoker_functor@std@@SAXAAV<lambda_ecb9dd0ae37e39021795d8045ef0ac04>@@$$QAV?$function@$$A6AXHPAV?$Local@VValue@v8@@@v8@@@Z@1@@Z 1003e4e0 f i _nodert_generated.obj
 0001:0003d4e0       ??$_Call@AAV<lambda_4ef9722db020cc44c324cd40b412edef>@@V?$function@$$A6AXHPAV?$Local@VValue@v8@@@v8@@@Z@std@@@_Invoker_functor@std@@SAXAAV<lambda_4ef9722db020cc44c324cd40b412edef>@@$$QAV?$function@$$A6AXHPAV?$Local@VValue@v8@@@v8@@@Z@1@@Z 1003e4e0 f i _nodert_generated.obj
 0001:0003d4e0       ??$_Call@AAV<lambda_ce186e95416a375dc50e4d51deb0226a>@@V?$function@$$A6AXHPAV?$Local@VValue@v8@@@v8@@@Z@std@@@_Invoker_functor@std@@SAXAAV<lambda_ce186e95416a375dc50e4d51deb0226a>@@$$QAV?$function@$$A6AXHPAV?$Local@VValue@v8@@@v8@@@Z@1@@Z 1003e4e0 f i _nodert_generated.obj
 0001:0003d550       ??$_Call@AAV<lambda_14856f1fb561633bcb84ffea98dfce42>@@V?$function@$$A6AXHPAV?$Local@VValue@v8@@@v8@@@Z@std@@@_Invoker_functor@std@@SAXAAV<lambda_14856f1fb561633bcb84ffea98dfce42>@@$$QAV?$function@$$A6AXHPAV?$Local@VValue@v8@@@v8@@@Z@1@@Z 1003e550 f i _nodert_generated.obj
 0001:0003d550       ??$_Call@AAV<lambda_7caa66d77ce1eb9e319528262512f2de>@@V?$function@$$A6AXHPAV?$Local@VValue@v8@@@v8@@@Z@std@@@_Invoker_functor@std@@SAXAAV<lambda_7caa66d77ce1eb9e319528262512f2de>@@$$QAV?$function@$$A6AXHPAV?$Local@VValue@v8@@@v8@@@Z@1@@Z 1003e550 f i _nodert_generated.obj
 0001:0003d5c0       ??$_Call@AAV<lambda_4bc8cb4ab5790b6f4049bea13d735bbb>@@V?$function@$$A6AXHPAV?$Local@VValue@v8@@@v8@@@Z@std@@@_Invoker_functor@std@@SAXAAV<lambda_4bc8cb4ab5790b6f4049bea13d735bbb>@@$$QAV?$function@$$A6AXHPAV?$Local@VValue@v8@@@v8@@@Z@1@@Z 1003e5c0 f i _nodert_generated.obj
 0001:0003d5c0       ??$_Call@AAV<lambda_bce598ee05d3af566a8b68421ce1dd37>@@V?$function@$$A6AXHPAV?$Local@VValue@v8@@@v8@@@Z@std@@@_Invoker_functor@std@@SAXAAV<lambda_bce598ee05d3af566a8b68421ce1dd37>@@$$QAV?$function@$$A6AXHPAV?$Local@VValue@v8@@@v8@@@Z@1@@Z 1003e5c0 f i _nodert_generated.obj
 0001:0003d630       ?_Delete_this@?$_Func_impl@V<lambda_c27880a56ba3ded47134e23bf355db13>@@V?$allocator@H@std@@EV?$task@P$AAVRadio@Radios@Devices@Windows@@@Concurrency@@@std@@EAEX_N@Z 1003e630 f i _nodert_generated.obj
 0001:0003d650       ?_Target_type@?$_Func_impl@V<lambda_c27880a56ba3ded47134e23bf355db13>@@V?$allocator@H@std@@EV?$task@P$AAVRadio@Radios@Devices@Windows@@@Concurrency@@@std@@EBEABVtype_info@@XZ 1003e650 f i _nodert_generated.obj
 0001:0003d660       ?_Do_call@?$_Func_impl@V<lambda_c27880a56ba3ded47134e23bf355db13>@@V?$allocator@H@std@@EV?$task@P$AAVRadio@Radios@Devices@Windows@@@Concurrency@@@std@@EAEE$$QAV?$task@P$AAVRadio@Radios@Devices@Windows@@@Concurrency@@@Z 1003e660 f i _nodert_generated.obj
 0001:0003d690       ?_Move@?$_Func_impl@V<lambda_c27880a56ba3ded47134e23bf355db13>@@V?$allocator@H@std@@EV?$task@P$AAVRadio@Radios@Devices@Windows@@@Concurrency@@@std@@EAEPAV?$_Func_base@EV?$task@P$AAVRadio@Radios@Devices@Windows@@@Concurrency@@@2@PAX@Z 1003e690 f i _nodert_generated.obj
 0001:0003d6b0       ?_Copy@?$_Func_impl@V<lambda_c27880a56ba3ded47134e23bf355db13>@@V?$allocator@H@std@@EV?$task@P$AAVRadio@Radios@Devices@Windows@@@Concurrency@@@std@@EBEPAV?$_Func_base@EV?$task@P$AAVRadio@Radios@Devices@Windows@@@Concurrency@@@2@PAX@Z 1003e6b0 f i _nodert_generated.obj
 0001:0003d6e0       ?_Delete_this@?$_Func_impl@V<lambda_cd354b07c1162eefc9da4ba0b335fb0f>@@V?$allocator@H@std@@EV?$task@P$AAVBluetoothAdapter@Bluetooth@Devices@Windows@@@Concurrency@@@std@@EAEX_N@Z 1003e6e0 f i _nodert_generated.obj
 0001:0003d730       ?_Target_type@?$_Func_impl@V<lambda_cd354b07c1162eefc9da4ba0b335fb0f>@@V?$allocator@H@std@@EV?$task@P$AAVBluetoothAdapter@Bluetooth@Devices@Windows@@@Concurrency@@@std@@EBEABVtype_info@@XZ 1003e730 f i _nodert_generated.obj
 0001:0003d740       ?_Do_call@?$_Func_impl@V<lambda_cd354b07c1162eefc9da4ba0b335fb0f>@@V?$allocator@H@std@@EV?$task@P$AAVBluetoothAdapter@Bluetooth@Devices@Windows@@@Concurrency@@@std@@EAEE$$QAV?$task@P$AAVBluetoothAdapter@Bluetooth@Devices@Windows@@@Concurrency@@@Z 1003e740 f i _nodert_generated.obj
 0001:0003d740       ?_Do_call@?$_Func_impl@V<lambda_870e6e8cb923108b535073a80d5d4ae0>@@V?$allocator@H@std@@EV?$task@W4DeviceAccessStatus@Enumeration@Devices@Windows@@@Concurrency@@@std@@EAEE$$QAV?$task@W4DeviceAccessStatus@Enumeration@Devices@Windows@@@Concurrency@@@Z 1003e740 f i _nodert_generated.obj
 0001:0003d740       ?_Do_call@?$_Func_impl@V<lambda_2a03942fff1a73436735524b9a8ac91e>@@V?$allocator@H@std@@EV?$task@P$AAVRfcommDeviceServicesResult@Rfcomm@Bluetooth@Devices@Windows@@@Concurrency@@@std@@EAEE$$QAV?$task@P$AAVRfcommDeviceServicesResult@Rfcomm@Bluetooth@Devices@Windows@@@Concurrency@@@Z 1003e740 f i _nodert_generated.obj
 0001:0003d740       ?_Do_call@?$_Func_impl@V<lambda_7773c71012c4af674f9a3bb3690277ff>@@V?$allocator@H@std@@EV?$task@P$AAVBluetoothDevice@Bluetooth@Devices@Windows@@@Concurrency@@@std@@EAEE$$QAV?$task@P$AAVBluetoothDevice@Bluetooth@Devices@Windows@@@Concurrency@@@Z 1003e740 f i _nodert_generated.obj
 0001:0003d740       ?_Do_call@?$_Func_impl@V<lambda_20f0255a0880adcdcbb70956292e7256>@@V?$allocator@H@std@@EV?$task@P$AAVGattDeviceServicesResult@GenericAttributeProfile@Bluetooth@Devices@Windows@@@Concurrency@@@std@@EAEE$$QAV?$task@P$AAVGattDeviceServicesResult@GenericAttributeProfile@Bluetooth@Devices@Windows@@@Concurrency@@@Z 1003e740 f i _nodert_generated.obj
 0001:0003d740       ?_Do_call@?$_Func_impl@V<lambda_749f92b422219f4d260f34f9dde3ae86>@@V?$allocator@H@std@@EV?$task@P$AAVBluetoothLEDevice@Bluetooth@Devices@Windows@@@Concurrency@@@std@@EAEE$$QAV?$task@P$AAVBluetoothLEDevice@Bluetooth@Devices@Windows@@@Concurrency@@@Z 1003e740 f i _nodert_generated.obj
 0001:0003d770       ?_Move@?$_Func_impl@V<lambda_cd354b07c1162eefc9da4ba0b335fb0f>@@V?$allocator@H@std@@EV?$task@P$AAVBluetoothAdapter@Bluetooth@Devices@Windows@@@Concurrency@@@std@@EAEPAV?$_Func_base@EV?$task@P$AAVBluetoothAdapter@Bluetooth@Devices@Windows@@@Concurrency@@@2@PAX@Z 1003e770 f i _nodert_generated.obj
 0001:0003d7f0       ?_Copy@?$_Func_impl@V<lambda_cd354b07c1162eefc9da4ba0b335fb0f>@@V?$allocator@H@std@@EV?$task@P$AAVBluetoothAdapter@Bluetooth@Devices@Windows@@@Concurrency@@@std@@EBEPAV?$_Func_base@EV?$task@P$AAVBluetoothAdapter@Bluetooth@Devices@Windows@@@Concurrency@@@2@PAX@Z 1003e7f0 f i _nodert_generated.obj
 0001:0003d880       ?_Delete_this@?$_Func_impl@V<lambda_870e6e8cb923108b535073a80d5d4ae0>@@V?$allocator@H@std@@EV?$task@W4DeviceAccessStatus@Enumeration@Devices@Windows@@@Concurrency@@@std@@EAEX_N@Z 1003e880 f i _nodert_generated.obj
 0001:0003d8d0       ?_Target_type@?$_Func_impl@V<lambda_870e6e8cb923108b535073a80d5d4ae0>@@V?$allocator@H@std@@EV?$task@W4DeviceAccessStatus@Enumeration@Devices@Windows@@@Concurrency@@@std@@EBEABVtype_info@@XZ 1003e8d0 f i _nodert_generated.obj
 0001:0003d8e0       ?_Move@?$_Func_impl@V<lambda_870e6e8cb923108b535073a80d5d4ae0>@@V?$allocator@H@std@@EV?$task@W4DeviceAccessStatus@Enumeration@Devices@Windows@@@Concurrency@@@std@@EAEPAV?$_Func_base@EV?$task@W4DeviceAccessStatus@Enumeration@Devices@Windows@@@Concurrency@@@2@PAX@Z 1003e8e0 f i _nodert_generated.obj
 0001:0003d960       ?_Copy@?$_Func_impl@V<lambda_870e6e8cb923108b535073a80d5d4ae0>@@V?$allocator@H@std@@EV?$task@W4DeviceAccessStatus@Enumeration@Devices@Windows@@@Concurrency@@@std@@EBEPAV?$_Func_base@EV?$task@W4DeviceAccessStatus@Enumeration@Devices@Windows@@@Concurrency@@@2@PAX@Z 1003e960 f i _nodert_generated.obj
 0001:0003d9f0       ?_Delete_this@?$_Func_impl@V<lambda_2a03942fff1a73436735524b9a8ac91e>@@V?$allocator@H@std@@EV?$task@P$AAVRfcommDeviceServicesResult@Rfcomm@Bluetooth@Devices@Windows@@@Concurrency@@@std@@EAEX_N@Z 1003e9f0 f i _nodert_generated.obj
 0001:0003da40       ?_Target_type@?$_Func_impl@V<lambda_2a03942fff1a73436735524b9a8ac91e>@@V?$allocator@H@std@@EV?$task@P$AAVRfcommDeviceServicesResult@Rfcomm@Bluetooth@Devices@Windows@@@Concurrency@@@std@@EBEABVtype_info@@XZ 1003ea40 f i _nodert_generated.obj
 0001:0003da50       ?_Move@?$_Func_impl@V<lambda_2a03942fff1a73436735524b9a8ac91e>@@V?$allocator@H@std@@EV?$task@P$AAVRfcommDeviceServicesResult@Rfcomm@Bluetooth@Devices@Windows@@@Concurrency@@@std@@EAEPAV?$_Func_base@EV?$task@P$AAVRfcommDeviceServicesResult@Rfcomm@Bluetooth@Devices@Windows@@@Concurrency@@@2@PAX@Z 1003ea50 f i _nodert_generated.obj
 0001:0003dad0       ?_Copy@?$_Func_impl@V<lambda_2a03942fff1a73436735524b9a8ac91e>@@V?$allocator@H@std@@EV?$task@P$AAVRfcommDeviceServicesResult@Rfcomm@Bluetooth@Devices@Windows@@@Concurrency@@@std@@EBEPAV?$_Func_base@EV?$task@P$AAVRfcommDeviceServicesResult@Rfcomm@Bluetooth@Devices@Windows@@@Concurrency@@@2@PAX@Z 1003ead0 f i _nodert_generated.obj
 0001:0003db60       ?_Delete_this@?$_Func_impl@V<lambda_7773c71012c4af674f9a3bb3690277ff>@@V?$allocator@H@std@@EV?$task@P$AAVBluetoothDevice@Bluetooth@Devices@Windows@@@Concurrency@@@std@@EAEX_N@Z 1003eb60 f i _nodert_generated.obj
 0001:0003dbb0       ?_Target_type@?$_Func_impl@V<lambda_7773c71012c4af674f9a3bb3690277ff>@@V?$allocator@H@std@@EV?$task@P$AAVBluetoothDevice@Bluetooth@Devices@Windows@@@Concurrency@@@std@@EBEABVtype_info@@XZ 1003ebb0 f i _nodert_generated.obj
 0001:0003dbc0       ?_Move@?$_Func_impl@V<lambda_7773c71012c4af674f9a3bb3690277ff>@@V?$allocator@H@std@@EV?$task@P$AAVBluetoothDevice@Bluetooth@Devices@Windows@@@Concurrency@@@std@@EAEPAV?$_Func_base@EV?$task@P$AAVBluetoothDevice@Bluetooth@Devices@Windows@@@Concurrency@@@2@PAX@Z 1003ebc0 f i _nodert_generated.obj
 0001:0003dc40       ?_Copy@?$_Func_impl@V<lambda_7773c71012c4af674f9a3bb3690277ff>@@V?$allocator@H@std@@EV?$task@P$AAVBluetoothDevice@Bluetooth@Devices@Windows@@@Concurrency@@@std@@EBEPAV?$_Func_base@EV?$task@P$AAVBluetoothDevice@Bluetooth@Devices@Windows@@@Concurrency@@@2@PAX@Z 1003ec40 f i _nodert_generated.obj
 0001:0003dcd0       ?_Delete_this@?$_Func_impl@V<lambda_20f0255a0880adcdcbb70956292e7256>@@V?$allocator@H@std@@EV?$task@P$AAVGattDeviceServicesResult@GenericAttributeProfile@Bluetooth@Devices@Windows@@@Concurrency@@@std@@EAEX_N@Z 1003ecd0 f i _nodert_generated.obj
 0001:0003dd20       ?_Target_type@?$_Func_impl@V<lambda_20f0255a0880adcdcbb70956292e7256>@@V?$allocator@H@std@@EV?$task@P$AAVGattDeviceServicesResult@GenericAttributeProfile@Bluetooth@Devices@Windows@@@Concurrency@@@std@@EBEABVtype_info@@XZ 1003ed20 f i _nodert_generated.obj
 0001:0003dd30       ?_Move@?$_Func_impl@V<lambda_20f0255a0880adcdcbb70956292e7256>@@V?$allocator@H@std@@EV?$task@P$AAVGattDeviceServicesResult@GenericAttributeProfile@Bluetooth@Devices@Windows@@@Concurrency@@@std@@EAEPAV?$_Func_base@EV?$task@P$AAVGattDeviceServicesResult@GenericAttributeProfile@Bluetooth@Devices@Windows@@@Concurrency@@@2@PAX@Z 1003ed30 f i _nodert_generated.obj
 0001:0003ddb0       ?_Copy@?$_Func_impl@V<lambda_20f0255a0880adcdcbb70956292e7256>@@V?$allocator@H@std@@EV?$task@P$AAVGattDeviceServicesResult@GenericAttributeProfile@Bluetooth@Devices@Windows@@@Concurrency@@@std@@EBEPAV?$_Func_base@EV?$task@P$AAVGattDeviceServicesResult@GenericAttributeProfile@Bluetooth@Devices@Windows@@@Concurrency@@@2@PAX@Z 1003edb0 f i _nodert_generated.obj
 0001:0003de40       ?_Delete_this@?$_Func_impl@V<lambda_749f92b422219f4d260f34f9dde3ae86>@@V?$allocator@H@std@@EV?$task@P$AAVBluetoothLEDevice@Bluetooth@Devices@Windows@@@Concurrency@@@std@@EAEX_N@Z 1003ee40 f i _nodert_generated.obj
 0001:0003de90       ?_Target_type@?$_Func_impl@V<lambda_749f92b422219f4d260f34f9dde3ae86>@@V?$allocator@H@std@@EV?$task@P$AAVBluetoothLEDevice@Bluetooth@Devices@Windows@@@Concurrency@@@std@@EBEABVtype_info@@XZ 1003ee90 f i _nodert_generated.obj
 0001:0003dea0       ?_Move@?$_Func_impl@V<lambda_749f92b422219f4d260f34f9dde3ae86>@@V?$allocator@H@std@@EV?$task@P$AAVBluetoothLEDevice@Bluetooth@Devices@Windows@@@Concurrency@@@std@@EAEPAV?$_Func_base@EV?$task@P$AAVBluetoothLEDevice@Bluetooth@Devices@Windows@@@Concurrency@@@2@PAX@Z 1003eea0 f i _nodert_generated.obj
 0001:0003df20       ?_Copy@?$_Func_impl@V<lambda_749f92b422219f4d260f34f9dde3ae86>@@V?$allocator@H@std@@EV?$task@P$AAVBluetoothLEDevice@Bluetooth@Devices@Windows@@@Concurrency@@@std@@EBEPAV?$_Func_base@EV?$task@P$AAVBluetoothLEDevice@Bluetooth@Devices@Windows@@@Concurrency@@@2@PAX@Z 1003ef20 f i _nodert_generated.obj
 0001:0003dfb0       ??1?$_Func_base@X$$V@std@@QAE@XZ 1003efb0 f i _nodert_generated.obj
 0001:0003dfc0       ??$?0ABV<lambda_847758569c482b5c3071d04a93fd5a03>@@ABV?$allocator@H@std@@@?$_Func_impl@V<lambda_847758569c482b5c3071d04a93fd5a03>@@V?$allocator@H@std@@X$$V@std@@QAE@ABV<lambda_847758569c482b5c3071d04a93fd5a03>@@ABV?$allocator@H@1@@Z 1003efc0 f i _nodert_generated.obj
 0001:0003e060       ??$construct@V?$_Func_impl@V<lambda_c27880a56ba3ded47134e23bf355db13>@@V?$allocator@H@std@@EV?$task@P$AAVRadio@Radios@Devices@Windows@@@Concurrency@@@std@@V<lambda_c27880a56ba3ded47134e23bf355db13>@@V?$allocator@H@2@@?$allocator_traits@V?$allocator@V?$_Func_impl@V<lambda_c27880a56ba3ded47134e23bf355db13>@@V?$allocator@H@std@@EV?$task@P$AAVRadio@Radios@Devices@Windows@@@Concurrency@@@std@@@std@@@std@@SAXAAV?$allocator@V?$_Func_impl@V<lambda_c27880a56ba3ded47134e23bf355db13>@@V?$allocator@H@std@@EV?$task@P$AAVRadio@Radios@Devices@Windows@@@Concurrency@@@std@@@1@PAV?$_Func_impl@V<lambda_c27880a56ba3ded47134e23bf355db13>@@V?$allocator@H@std@@EV?$task@P$AAVRadio@Radios@Devices@Windows@@@Concurrency@@@1@$$QAV<lambda_c27880a56ba3ded47134e23bf355db13>@@$$QAV?$allocator@H@1@@Z 1003f060 f i _nodert_generated.obj
 0001:0003e060       ??$construct@V?$_Func_impl@V<lambda_c27880a56ba3ded47134e23bf355db13>@@V?$allocator@H@std@@EV?$task@P$AAVRadio@Radios@Devices@Windows@@@Concurrency@@@std@@ABV<lambda_c27880a56ba3ded47134e23bf355db13>@@ABV?$allocator@H@2@@?$allocator_traits@V?$allocator@V?$_Func_impl@V<lambda_c27880a56ba3ded47134e23bf355db13>@@V?$allocator@H@std@@EV?$task@P$AAVRadio@Radios@Devices@Windows@@@Concurrency@@@std@@@std@@@std@@SAXAAV?$allocator@V?$_Func_impl@V<lambda_c27880a56ba3ded47134e23bf355db13>@@V?$allocator@H@std@@EV?$task@P$AAVRadio@Radios@Devices@Windows@@@Concurrency@@@std@@@1@PAV?$_Func_impl@V<lambda_c27880a56ba3ded47134e23bf355db13>@@V?$allocator@H@std@@EV?$task@P$AAVRadio@Radios@Devices@Windows@@@Concurrency@@@1@ABV<lambda_c27880a56ba3ded47134e23bf355db13>@@ABV?$allocator@H@1@@Z 1003f060 f i _nodert_generated.obj
 0001:0003e1e0       ?_Delete_this@?$_Func_impl@V<lambda_f08ec446ca8b33299a4e48e3172e9b8c>@@V?$allocator@H@std@@X$$V@std@@EAEX_N@Z 1003f1e0 f i _nodert_generated.obj
 0001:0003e250       ?_Target_type@?$_Func_impl@V<lambda_f08ec446ca8b33299a4e48e3172e9b8c>@@V?$allocator@H@std@@X$$V@std@@EBEABVtype_info@@XZ 1003f250 f i _nodert_generated.obj
 0001:0003e260       ?_Do_call@?$_Func_impl@V<lambda_4f93c2a5cc8661f1894fa0a15cd0c840>@@V?$allocator@H@std@@X$$V@std@@EAEXXZ 1003f260 f i _nodert_generated.obj
 0001:0003e260       ?_Do_call@?$_Func_impl@V<lambda_f08ec446ca8b33299a4e48e3172e9b8c>@@V?$allocator@H@std@@X$$V@std@@EAEXXZ 1003f260 f i _nodert_generated.obj
 0001:0003e260       ?_Do_call@?$_Func_impl@V<lambda_7ff700b370056163c5ea4d7b4b5a67be>@@V?$allocator@H@std@@X$$V@std@@EAEXXZ 1003f260 f i _nodert_generated.obj
 0001:0003e260       ?_Do_call@?$_Func_impl@V<lambda_79b8a5eb52f9bfa95275c321739a91a0>@@V?$allocator@H@std@@X$$V@std@@EAEXXZ 1003f260 f i _nodert_generated.obj
 0001:0003e260       ?_Do_call@?$_Func_impl@V<lambda_499991dc379cdd966d05446e4c24e079>@@V?$allocator@H@std@@X$$V@std@@EAEXXZ 1003f260 f i _nodert_generated.obj
 0001:0003e260       ?_Do_call@?$_Func_impl@V<lambda_163447debca1a99374464820a5cb87b2>@@V?$allocator@H@std@@X$$V@std@@EAEXXZ 1003f260 f i _nodert_generated.obj
 0001:0003e260       ?_Do_call@?$_Func_impl@V<lambda_acabef03453c5d7452ff36946e434048>@@V?$allocator@H@std@@X$$V@std@@EAEXXZ 1003f260 f i _nodert_generated.obj
 0001:0003e270       ?_Move@?$_Func_impl@V<lambda_f08ec446ca8b33299a4e48e3172e9b8c>@@V?$allocator@H@std@@X$$V@std@@EAEPAV?$_Func_base@X$$V@2@PAX@Z 1003f270 f i _nodert_generated.obj
 0001:0003e270       ?_Copy@?$_Func_impl@V<lambda_f08ec446ca8b33299a4e48e3172e9b8c>@@V?$allocator@H@std@@X$$V@std@@EBEPAV?$_Func_base@X$$V@2@PAX@Z 1003f270 f i _nodert_generated.obj
 0001:0003e2d0       ?_Delete_this@?$_Func_impl@V<lambda_4f93c2a5cc8661f1894fa0a15cd0c840>@@V?$allocator@H@std@@X$$V@std@@EAEX_N@Z 1003f2d0 f i _nodert_generated.obj
 0001:0003e340       ?_Target_type@?$_Func_impl@V<lambda_4f93c2a5cc8661f1894fa0a15cd0c840>@@V?$allocator@H@std@@X$$V@std@@EBEABVtype_info@@XZ 1003f340 f i _nodert_generated.obj
 0001:0003e350       ?_Move@?$_Func_impl@V<lambda_4f93c2a5cc8661f1894fa0a15cd0c840>@@V?$allocator@H@std@@X$$V@std@@EAEPAV?$_Func_base@X$$V@2@PAX@Z 1003f350 f i _nodert_generated.obj
 0001:0003e350       ?_Copy@?$_Func_impl@V<lambda_4f93c2a5cc8661f1894fa0a15cd0c840>@@V?$allocator@H@std@@X$$V@std@@EBEPAV?$_Func_base@X$$V@2@PAX@Z 1003f350 f i _nodert_generated.obj
 0001:0003e3b0       ?_Delete_this@?$_Func_impl@V<lambda_163447debca1a99374464820a5cb87b2>@@V?$allocator@H@std@@X$$V@std@@EAEX_N@Z 1003f3b0 f i _nodert_generated.obj
 0001:0003e420       ?_Target_type@?$_Func_impl@V<lambda_163447debca1a99374464820a5cb87b2>@@V?$allocator@H@std@@X$$V@std@@EBEABVtype_info@@XZ 1003f420 f i _nodert_generated.obj
 0001:0003e430       ?_Copy@?$_Func_impl@V<lambda_163447debca1a99374464820a5cb87b2>@@V?$allocator@H@std@@X$$V@std@@EBEPAV?$_Func_base@X$$V@2@PAX@Z 1003f430 f i _nodert_generated.obj
 0001:0003e430       ?_Move@?$_Func_impl@V<lambda_163447debca1a99374464820a5cb87b2>@@V?$allocator@H@std@@X$$V@std@@EAEPAV?$_Func_base@X$$V@2@PAX@Z 1003f430 f i _nodert_generated.obj
 0001:0003e490       ?_Delete_this@?$_Func_impl@V<lambda_7ff700b370056163c5ea4d7b4b5a67be>@@V?$allocator@H@std@@X$$V@std@@EAEX_N@Z 1003f490 f i _nodert_generated.obj
 0001:0003e500       ?_Target_type@?$_Func_impl@V<lambda_7ff700b370056163c5ea4d7b4b5a67be>@@V?$allocator@H@std@@X$$V@std@@EBEABVtype_info@@XZ 1003f500 f i _nodert_generated.obj
 0001:0003e510       ?_Copy@?$_Func_impl@V<lambda_7ff700b370056163c5ea4d7b4b5a67be>@@V?$allocator@H@std@@X$$V@std@@EBEPAV?$_Func_base@X$$V@2@PAX@Z 1003f510 f i _nodert_generated.obj
 0001:0003e510       ?_Move@?$_Func_impl@V<lambda_7ff700b370056163c5ea4d7b4b5a67be>@@V?$allocator@H@std@@X$$V@std@@EAEPAV?$_Func_base@X$$V@2@PAX@Z 1003f510 f i _nodert_generated.obj
 0001:0003e570       ?_Delete_this@?$_Func_impl@V<lambda_acabef03453c5d7452ff36946e434048>@@V?$allocator@H@std@@X$$V@std@@EAEX_N@Z 1003f570 f i _nodert_generated.obj
 0001:0003e5e0       ?_Target_type@?$_Func_impl@V<lambda_acabef03453c5d7452ff36946e434048>@@V?$allocator@H@std@@X$$V@std@@EBEABVtype_info@@XZ 1003f5e0 f i _nodert_generated.obj
 0001:0003e5f0       ?_Copy@?$_Func_impl@V<lambda_acabef03453c5d7452ff36946e434048>@@V?$allocator@H@std@@X$$V@std@@EBEPAV?$_Func_base@X$$V@2@PAX@Z 1003f5f0 f i _nodert_generated.obj
 0001:0003e5f0       ?_Move@?$_Func_impl@V<lambda_acabef03453c5d7452ff36946e434048>@@V?$allocator@H@std@@X$$V@std@@EAEPAV?$_Func_base@X$$V@2@PAX@Z 1003f5f0 f i _nodert_generated.obj
 0001:0003e650       ?_Delete_this@?$_Func_impl@V<lambda_79b8a5eb52f9bfa95275c321739a91a0>@@V?$allocator@H@std@@X$$V@std@@EAEX_N@Z 1003f650 f i _nodert_generated.obj
 0001:0003e6c0       ?_Target_type@?$_Func_impl@V<lambda_79b8a5eb52f9bfa95275c321739a91a0>@@V?$allocator@H@std@@X$$V@std@@EBEABVtype_info@@XZ 1003f6c0 f i _nodert_generated.obj
 0001:0003e6d0       ?_Copy@?$_Func_impl@V<lambda_79b8a5eb52f9bfa95275c321739a91a0>@@V?$allocator@H@std@@X$$V@std@@EBEPAV?$_Func_base@X$$V@2@PAX@Z 1003f6d0 f i _nodert_generated.obj
 0001:0003e6d0       ?_Move@?$_Func_impl@V<lambda_79b8a5eb52f9bfa95275c321739a91a0>@@V?$allocator@H@std@@X$$V@std@@EAEPAV?$_Func_base@X$$V@2@PAX@Z 1003f6d0 f i _nodert_generated.obj
 0001:0003e730       ?_Delete_this@?$_Func_impl@V<lambda_499991dc379cdd966d05446e4c24e079>@@V?$allocator@H@std@@X$$V@std@@EAEX_N@Z 1003f730 f i _nodert_generated.obj
 0001:0003e7a0       ?_Target_type@?$_Func_impl@V<lambda_499991dc379cdd966d05446e4c24e079>@@V?$allocator@H@std@@X$$V@std@@EBEABVtype_info@@XZ 1003f7a0 f i _nodert_generated.obj
 0001:0003e7b0       ?_Move@?$_Func_impl@V<lambda_499991dc379cdd966d05446e4c24e079>@@V?$allocator@H@std@@X$$V@std@@EAEPAV?$_Func_base@X$$V@2@PAX@Z 1003f7b0 f i _nodert_generated.obj
 0001:0003e7b0       ?_Copy@?$_Func_impl@V<lambda_499991dc379cdd966d05446e4c24e079>@@V?$allocator@H@std@@X$$V@std@@EBEPAV?$_Func_base@X$$V@2@PAX@Z 1003f7b0 f i _nodert_generated.obj
 0001:0003e810       ??$?0ABV?$allocator@H@std@@V<lambda_43409595a9ec3d3c6305ecd0b2be6ffb>@@@?$_Compressed_pair@V?$allocator@H@std@@V<lambda_43409595a9ec3d3c6305ecd0b2be6ffb>@@$00@std@@QAE@U_One_then_variadic_args_t@1@ABV?$allocator@H@1@$$QAV<lambda_43409595a9ec3d3c6305ecd0b2be6ffb>@@@Z 1003f810 f i _nodert_generated.obj
 0001:0003e980       ??1?$_Func_impl@V<lambda_c27880a56ba3ded47134e23bf355db13>@@V?$allocator@H@std@@EV?$task@P$AAVRadio@Radios@Devices@Windows@@@Concurrency@@@std@@QAE@XZ 1003f980 f i _nodert_generated.obj
 0001:0003e9f0       ??1?$_Func_base@EV?$task@P$AAVRadio@Radios@Devices@Windows@@@Concurrency@@@std@@QAE@XZ 1003f9f0 f i _nodert_generated.obj
 0001:0003ea00       ??1?$_Func_base@EV?$task@P$AAVBluetoothAdapter@Bluetooth@Devices@Windows@@@Concurrency@@@std@@QAE@XZ 1003fa00 f i _nodert_generated.obj
 0001:0003ea10       ??1?$_Func_base@EV?$task@W4DeviceAccessStatus@Enumeration@Devices@Windows@@@Concurrency@@@std@@QAE@XZ 1003fa10 f i _nodert_generated.obj
 0001:0003ea20       ??1?$_Func_base@EV?$task@P$AAVRfcommDeviceServicesResult@Rfcomm@Bluetooth@Devices@Windows@@@Concurrency@@@std@@QAE@XZ 1003fa20 f i _nodert_generated.obj
 0001:0003ea30       ??1?$_Func_base@EV?$task@P$AAVBluetoothDevice@Bluetooth@Devices@Windows@@@Concurrency@@@std@@QAE@XZ 1003fa30 f i _nodert_generated.obj
 0001:0003ea40       ??1?$_Func_base@EV?$task@P$AAVGattDeviceServicesResult@GenericAttributeProfile@Bluetooth@Devices@Windows@@@Concurrency@@@std@@QAE@XZ 1003fa40 f i _nodert_generated.obj
 0001:0003ea50       ??1?$_Func_base@EV?$task@P$AAVBluetoothLEDevice@Bluetooth@Devices@Windows@@@Concurrency@@@std@@QAE@XZ 1003fa50 f i _nodert_generated.obj
 0001:0003ea57       ?__abi_QueryInterface@?QObject@Platform@@?$CustomBox@VTimeSpan@Foundation@Windows@@@Details@2@WBE@$AAGJAAVGuid@2@PAPAX@Z 1003fa57 f i _nodert_generated.obj
 0001:0003ea61       ?__abi_Platform_Details_IWeakReferenceSource____abi_GetWeakReference@?QIWeakReferenceSource@Details@Platform@@?$CustomBox@VTimeSpan@Foundation@Windows@@@23@WBA@$AAGJPAP$AAUIWeakReference@23@@Z 1003fa61 f i _nodert_generated.obj
 0001:0003ea6b       ?__abi_AddRef@?$AsyncOperationCompletedHandler@P$AAVRadio@Radios@Devices@Windows@@@Foundation@Windows@@W3$AAGKXZ 1003fa6b f i _nodert_generated.obj
 0001:0003ea6b       ?__abi_AddRef@?$AsyncOperationCompletedHandler@P$AAVGattDeviceServicesResult@GenericAttributeProfile@Bluetooth@Devices@Windows@@@Foundation@Windows@@W3$AAGKXZ 1003fa6b f i _nodert_generated.obj
 0001:0003ea6b       ?__abi_AddRef@?$AsyncOperationCompletedHandler@P$AAVBluetoothLEDevice@Bluetooth@Devices@Windows@@@Foundation@Windows@@W3$AAGKXZ 1003fa6b f i _nodert_generated.obj
 0001:0003ea6b       ?__abi_AddRef@?$AsyncOperationCompletedHandler@P$AAVBluetoothDevice@Bluetooth@Devices@Windows@@@Foundation@Windows@@W3$AAGKXZ 1003fa6b f i _nodert_generated.obj
 0001:0003ea6b       ?__abi_AddRef@?$AsyncOperationCompletedHandler@P$AAVRfcommDeviceServicesResult@Rfcomm@Bluetooth@Devices@Windows@@@Foundation@Windows@@W3$AAGKXZ 1003fa6b f i _nodert_generated.obj
 0001:0003ea6b       ?__abi_AddRef@?$TypedEventHandler@P$AAVBluetoothDevice@Bluetooth@Devices@Windows@@P$AAVObject@Platform@@@Foundation@Windows@@W3$AAGKXZ 1003fa6b f i _nodert_generated.obj
 0001:0003ea6b       ?__abi_AddRef@?$AsyncOperationCompletedHandler@W4DeviceAccessStatus@Enumeration@Devices@Windows@@@Foundation@Windows@@W3$AAGKXZ 1003fa6b f i _nodert_generated.obj
 0001:0003ea6b       ?__abi_AddRef@?$TypedEventHandler@P$AAVBluetoothLEDevice@Bluetooth@Devices@Windows@@P$AAVObject@Platform@@@Foundation@Windows@@W3$AAGKXZ 1003fa6b f i _nodert_generated.obj
 0001:0003ea6b       ?__abi_AddRef@?$AsyncOperationCompletedHandler@P$AAVBluetoothAdapter@Bluetooth@Devices@Windows@@@Foundation@Windows@@W3$AAGKXZ 1003fa6b f i _nodert_generated.obj
 0001:0003ea75       ?__abi_GetIids@?$TypedEventHandler@P$AAVBluetoothDevice@Bluetooth@Devices@Windows@@P$AAVObject@Platform@@@Foundation@Windows@@W7$AAGJPAKPAPAVGuid@Platform@@@Z 1003fa75 f i _nodert_generated.obj
 0001:0003ea75       ?__abi_GetIids@?$TypedEventHandler@P$AAVBluetoothLEDevice@Bluetooth@Devices@Windows@@P$AAVObject@Platform@@@Foundation@Windows@@W7$AAGJPAKPAPAVGuid@Platform@@@Z 1003fa75 f i _nodert_generated.obj
 0001:0003ea7f       ?__abi_Release@?$TypedEventHandler@P$AAVBluetoothLEDevice@Bluetooth@Devices@Windows@@P$AAVObject@Platform@@@Foundation@Windows@@W3$AAGKXZ 1003fa7f f i _nodert_generated.obj
 0001:0003ea7f       ?__abi_Release@?$AsyncOperationCompletedHandler@P$AAVRadio@Radios@Devices@Windows@@@Foundation@Windows@@W3$AAGKXZ 1003fa7f f i _nodert_generated.obj
 0001:0003ea7f       ?__abi_Release@?$AsyncOperationCompletedHandler@P$AAVBluetoothDevice@Bluetooth@Devices@Windows@@@Foundation@Windows@@W3$AAGKXZ 1003fa7f f i _nodert_generated.obj
 0001:0003ea7f       ?__abi_Release@?$AsyncOperationCompletedHandler@P$AAVBluetoothAdapter@Bluetooth@Devices@Windows@@@Foundation@Windows@@W3$AAGKXZ 1003fa7f f i _nodert_generated.obj
 0001:0003ea7f       ?__abi_Release@?$AsyncOperationCompletedHandler@P$AAVBluetoothLEDevice@Bluetooth@Devices@Windows@@@Foundation@Windows@@W3$AAGKXZ 1003fa7f f i _nodert_generated.obj
 0001:0003ea7f       ?__abi_Release@?$AsyncOperationCompletedHandler@W4DeviceAccessStatus@Enumeration@Devices@Windows@@@Foundation@Windows@@W3$AAGKXZ 1003fa7f f i _nodert_generated.obj
 0001:0003ea7f       ?__abi_Release@?$TypedEventHandler@P$AAVBluetoothDevice@Bluetooth@Devices@Windows@@P$AAVObject@Platform@@@Foundation@Windows@@W3$AAGKXZ 1003fa7f f i _nodert_generated.obj
 0001:0003ea7f       ?__abi_Release@?$AsyncOperationCompletedHandler@P$AAVGattDeviceServicesResult@GenericAttributeProfile@Bluetooth@Devices@Windows@@@Foundation@Windows@@W3$AAGKXZ 1003fa7f f i _nodert_generated.obj
 0001:0003ea7f       ?__abi_Release@?$AsyncOperationCompletedHandler@P$AAVRfcommDeviceServicesResult@Rfcomm@Bluetooth@Devices@Windows@@@Foundation@Windows@@W3$AAGKXZ 1003fa7f f i _nodert_generated.obj
 0001:0003ea89       ?__abi_GetIids@?$AsyncOperationCompletedHandler@P$AAVRadio@Radios@Devices@Windows@@@Foundation@Windows@@W3$AAGJPAKPAPAVGuid@Platform@@@Z 1003fa89 f i _nodert_generated.obj
 0001:0003ea89       ?__abi_GetIids@?$AsyncOperationCompletedHandler@P$AAVBluetoothDevice@Bluetooth@Devices@Windows@@@Foundation@Windows@@W3$AAGJPAKPAPAVGuid@Platform@@@Z 1003fa89 f i _nodert_generated.obj
 0001:0003ea89       ?__abi_GetIids@?$AsyncOperationCompletedHandler@P$AAVGattDeviceServicesResult@GenericAttributeProfile@Bluetooth@Devices@Windows@@@Foundation@Windows@@W3$AAGJPAKPAPAVGuid@Platform@@@Z 1003fa89 f i _nodert_generated.obj
 0001:0003ea89       ?__abi_GetIids@?$AsyncOperationCompletedHandler@P$AAVBluetoothAdapter@Bluetooth@Devices@Windows@@@Foundation@Windows@@W3$AAGJPAKPAPAVGuid@Platform@@@Z 1003fa89 f i _nodert_generated.obj
 0001:0003ea89       ?__abi_GetIids@?$AsyncOperationCompletedHandler@P$AAVBluetoothLEDevice@Bluetooth@Devices@Windows@@@Foundation@Windows@@W3$AAGJPAKPAPAVGuid@Platform@@@Z 1003fa89 f i _nodert_generated.obj
 0001:0003ea89       ?__abi_GetIids@?$AsyncOperationCompletedHandler@W4DeviceAccessStatus@Enumeration@Devices@Windows@@@Foundation@Windows@@W3$AAGJPAKPAPAVGuid@Platform@@@Z 1003fa89 f i _nodert_generated.obj
 0001:0003ea89       ?__abi_GetIids@?$AsyncOperationCompletedHandler@P$AAVRfcommDeviceServicesResult@Rfcomm@Bluetooth@Devices@Windows@@@Foundation@Windows@@W3$AAGJPAKPAPAVGuid@Platform@@@Z 1003fa89 f i _nodert_generated.obj
 0001:0003ea93       ?__abi_Platform_Details_IPrintable____abi_ToString@?QIPrintable@Details@Platform@@?$CustomBox@F@23@W7$AAGJPAP$AAVString@3@@Z 1003fa93 f i _nodert_generated.obj
 0001:0003ea93       ?__abi_Platform_Details_IPrintable____abi_ToString@?QIPrintable@Details@Platform@@?$CustomBox@VTimeSpan@Foundation@Windows@@@23@W7$AAGJPAP$AAVString@3@@Z 1003fa93 f i _nodert_generated.obj
 0001:0003ea9d       ?__abi_QueryInterface@?$AsyncOperationCompletedHandler@P$AAVBluetoothLEDevice@Bluetooth@Devices@Windows@@@Foundation@Windows@@W7$AAGJAAVGuid@Platform@@PAPAX@Z 1003fa9d f i _nodert_generated.obj
 0001:0003eaa7       ?__abi_GetRuntimeClassName@?$AsyncOperationCompletedHandler@P$AAVBluetoothAdapter@Bluetooth@Devices@Windows@@@Foundation@Windows@@W3$AAGJPAPAUHSTRING__@@@Z 1003faa7 f i _nodert_generated.obj
 0001:0003eab1       ?__abi_GetTrustLevel@?$TypedEventHandler@P$AAVBluetoothDevice@Bluetooth@Devices@Windows@@P$AAVObject@Platform@@@Foundation@Windows@@W3$AAGJPAW4__abi_TrustLevel@@@Z 1003fab1 f i _nodert_generated.obj
 0001:0003eab1       ?__abi_GetTrustLevel@?QObject@Platform@@?$CustomBox@F@Details@2@W3$AAGJPAW4__abi_TrustLevel@@@Z 1003fab1 f i _nodert_generated.obj
 0001:0003eab1       ?__abi_GetTrustLevel@?$AsyncOperationCompletedHandler@P$AAVBluetoothDevice@Bluetooth@Devices@Windows@@@Foundation@Windows@@W3$AAGJPAW4__abi_TrustLevel@@@Z 1003fab1 f i _nodert_generated.obj
 0001:0003eab1       ?__abi_GetTrustLevel@?$AsyncOperationCompletedHandler@P$AAVGattDeviceServicesResult@GenericAttributeProfile@Bluetooth@Devices@Windows@@@Foundation@Windows@@W3$AAGJPAW4__abi_TrustLevel@@@Z 1003fab1 f i _nodert_generated.obj
 0001:0003eab1       ?__abi_GetTrustLevel@?$AsyncOperationCompletedHandler@P$AAVBluetoothLEDevice@Bluetooth@Devices@Windows@@@Foundation@Windows@@W3$AAGJPAW4__abi_TrustLevel@@@Z 1003fab1 f i _nodert_generated.obj
 0001:0003eab1       ?__abi_GetTrustLevel@?$AsyncOperationCompletedHandler@P$AAVRadio@Radios@Devices@Windows@@@Foundation@Windows@@W3$AAGJPAW4__abi_TrustLevel@@@Z 1003fab1 f i _nodert_generated.obj
 0001:0003eab1       ?__abi_GetTrustLevel@?QObject@Platform@@?$CustomBox@VTimeSpan@Foundation@Windows@@@Details@2@W3$AAGJPAW4__abi_TrustLevel@@@Z 1003fab1 f i _nodert_generated.obj
 0001:0003eab1       ?__abi_GetTrustLevel@?$AsyncOperationCompletedHandler@W4DeviceAccessStatus@Enumeration@Devices@Windows@@@Foundation@Windows@@W3$AAGJPAW4__abi_TrustLevel@@@Z 1003fab1 f i _nodert_generated.obj
 0001:0003eab1       ?__abi_GetTrustLevel@?$AsyncOperationCompletedHandler@P$AAVRfcommDeviceServicesResult@Rfcomm@Bluetooth@Devices@Windows@@@Foundation@Windows@@W3$AAGJPAW4__abi_TrustLevel@@@Z 1003fab1 f i _nodert_generated.obj
 0001:0003eab1       ?__abi_GetTrustLevel@?$TypedEventHandler@P$AAVBluetoothLEDevice@Bluetooth@Devices@Windows@@P$AAVObject@Platform@@@Foundation@Windows@@W3$AAGJPAW4__abi_TrustLevel@@@Z 1003fab1 f i _nodert_generated.obj
 0001:0003eab1       ?__abi_GetTrustLevel@?$AsyncOperationCompletedHandler@P$AAVBluetoothAdapter@Bluetooth@Devices@Windows@@@Foundation@Windows@@W3$AAGJPAW4__abi_TrustLevel@@@Z 1003fab1 f i _nodert_generated.obj
 0001:0003eabb       ?__abi_GetIids@?QObject@Platform@@?$CustomBox@F@Details@2@WM@$AAGJPAKPAPAVGuid@2@@Z 1003fabb f i _nodert_generated.obj
 0001:0003eac5       ?__abi_GetRuntimeClassName@?$TypedEventHandler@P$AAVBluetoothLEDevice@Bluetooth@Devices@Windows@@P$AAVObject@Platform@@@Foundation@Windows@@W7$AAGJPAPAUHSTRING__@@@Z 1003fac5 f i _nodert_generated.obj
 0001:0003eacf       ?__abi_GetRuntimeClassName@?$AsyncOperationCompletedHandler@W4DeviceAccessStatus@Enumeration@Devices@Windows@@@Foundation@Windows@@W3$AAGJPAPAUHSTRING__@@@Z 1003facf f i _nodert_generated.obj
 0001:0003ead9       ?__abi_Release@?QObject@Platform@@?$CustomBox@VTimeSpan@Foundation@Windows@@@Details@2@WBE@$AAGKXZ 1003fad9 f i _nodert_generated.obj
 0001:0003eae3       ?__abi_AddRef@?QObject@Platform@@?$CustomBox@VTimeSpan@Foundation@Windows@@@Details@2@WBA@$AAGKXZ 1003fae3 f i _nodert_generated.obj
 0001:0003eaed       ?__abi_GetRuntimeClassName@?QObject@Platform@@?$CustomBox@F@Details@2@WM@$AAGJPAPAUHSTRING__@@@Z 1003faed f i _nodert_generated.obj
 0001:0003eaf7       ?__abi_Release@?QObject@Platform@@?$CustomBox@F@Details@2@W3$AAGKXZ 1003faf7 f i _nodert_generated.obj
 0001:0003eb01       ?__abi_Release@?$AsyncOperationCompletedHandler@W4DeviceAccessStatus@Enumeration@Devices@Windows@@@Foundation@Windows@@W7$AAGKXZ 1003fb01 f i _nodert_generated.obj
 0001:0003eb01       ?__abi_Release@?$TypedEventHandler@P$AAVBluetoothLEDevice@Bluetooth@Devices@Windows@@P$AAVObject@Platform@@@Foundation@Windows@@W7$AAGKXZ 1003fb01 f i _nodert_generated.obj
 0001:0003eb01       ?__abi_Release@?$TypedEventHandler@P$AAVBluetoothDevice@Bluetooth@Devices@Windows@@P$AAVObject@Platform@@@Foundation@Windows@@W7$AAGKXZ 1003fb01 f i _nodert_generated.obj
 0001:0003eb01       ?__abi_Release@?$AsyncOperationCompletedHandler@P$AAVRadio@Radios@Devices@Windows@@@Foundation@Windows@@W7$AAGKXZ 1003fb01 f i _nodert_generated.obj
 0001:0003eb01       ?__abi_Release@?$AsyncOperationCompletedHandler@P$AAVRfcommDeviceServicesResult@Rfcomm@Bluetooth@Devices@Windows@@@Foundation@Windows@@W7$AAGKXZ 1003fb01 f i _nodert_generated.obj
 0001:0003eb01       ?__abi_Release@?$AsyncOperationCompletedHandler@P$AAVGattDeviceServicesResult@GenericAttributeProfile@Bluetooth@Devices@Windows@@@Foundation@Windows@@W7$AAGKXZ 1003fb01 f i _nodert_generated.obj
 0001:0003eb01       ?__abi_Release@?$AsyncOperationCompletedHandler@P$AAVBluetoothAdapter@Bluetooth@Devices@Windows@@@Foundation@Windows@@W7$AAGKXZ 1003fb01 f i _nodert_generated.obj
 0001:0003eb01       ?__abi_Release@?$AsyncOperationCompletedHandler@P$AAVBluetoothLEDevice@Bluetooth@Devices@Windows@@@Foundation@Windows@@W7$AAGKXZ 1003fb01 f i _nodert_generated.obj
 0001:0003eb01       ?__abi_Release@?$AsyncOperationCompletedHandler@P$AAVBluetoothDevice@Bluetooth@Devices@Windows@@@Foundation@Windows@@W7$AAGKXZ 1003fb01 f i _nodert_generated.obj
 0001:0003eb0b       ?__abi_GetIids@?QObject@Platform@@?$CustomBox@VTimeSpan@Foundation@Windows@@@Details@2@WBE@$AAGJPAKPAPAVGuid@2@@Z 1003fb0b f i _nodert_generated.obj
 0001:0003eb15       ?__abi_QueryInterface@?QObject@Platform@@?$CustomBox@F@Details@2@W3$AAGJAAVGuid@2@PAPAX@Z 1003fb15 f i _nodert_generated.obj
 0001:0003eb1f       ?__abi_AddRef@?$AsyncOperationCompletedHandler@P$AAVGattDeviceServicesResult@GenericAttributeProfile@Bluetooth@Devices@Windows@@@Foundation@Windows@@W7$AAGKXZ 1003fb1f f i _nodert_generated.obj
 0001:0003eb1f       ?__abi_AddRef@?$AsyncOperationCompletedHandler@P$AAVBluetoothLEDevice@Bluetooth@Devices@Windows@@@Foundation@Windows@@W7$AAGKXZ 1003fb1f f i _nodert_generated.obj
 0001:0003eb1f       ?__abi_AddRef@?$AsyncOperationCompletedHandler@W4DeviceAccessStatus@Enumeration@Devices@Windows@@@Foundation@Windows@@W7$AAGKXZ 1003fb1f f i _nodert_generated.obj
 0001:0003eb1f       ?__abi_AddRef@?$AsyncOperationCompletedHandler@P$AAVBluetoothAdapter@Bluetooth@Devices@Windows@@@Foundation@Windows@@W7$AAGKXZ 1003fb1f f i _nodert_generated.obj
 0001:0003eb1f       ?__abi_AddRef@?$TypedEventHandler@P$AAVBluetoothDevice@Bluetooth@Devices@Windows@@P$AAVObject@Platform@@@Foundation@Windows@@W7$AAGKXZ 1003fb1f f i _nodert_generated.obj
 0001:0003eb1f       ?__abi_AddRef@?$AsyncOperationCompletedHandler@P$AAVBluetoothDevice@Bluetooth@Devices@Windows@@@Foundation@Windows@@W7$AAGKXZ 1003fb1f f i _nodert_generated.obj
 0001:0003eb1f       ?__abi_AddRef@?$AsyncOperationCompletedHandler@P$AAVRfcommDeviceServicesResult@Rfcomm@Bluetooth@Devices@Windows@@@Foundation@Windows@@W7$AAGKXZ 1003fb1f f i _nodert_generated.obj
 0001:0003eb1f       ?__abi_AddRef@?$AsyncOperationCompletedHandler@P$AAVRadio@Radios@Devices@Windows@@@Foundation@Windows@@W7$AAGKXZ 1003fb1f f i _nodert_generated.obj
 0001:0003eb1f       ?__abi_AddRef@?$TypedEventHandler@P$AAVBluetoothLEDevice@Bluetooth@Devices@Windows@@P$AAVObject@Platform@@@Foundation@Windows@@W7$AAGKXZ 1003fb1f f i _nodert_generated.obj
 0001:0003eb29       ?__abi_GetIids@?$AsyncOperationCompletedHandler@W4DeviceAccessStatus@Enumeration@Devices@Windows@@@Foundation@Windows@@W7$AAGJPAKPAPAVGuid@Platform@@@Z 1003fb29 f i _nodert_generated.obj
 0001:0003eb29       ?__abi_GetIids@?$AsyncOperationCompletedHandler@P$AAVBluetoothAdapter@Bluetooth@Devices@Windows@@@Foundation@Windows@@W7$AAGJPAKPAPAVGuid@Platform@@@Z 1003fb29 f i _nodert_generated.obj
 0001:0003eb29       ?__abi_GetIids@?$AsyncOperationCompletedHandler@P$AAVGattDeviceServicesResult@GenericAttributeProfile@Bluetooth@Devices@Windows@@@Foundation@Windows@@W7$AAGJPAKPAPAVGuid@Platform@@@Z 1003fb29 f i _nodert_generated.obj
 0001:0003eb29       ?__abi_GetIids@?$AsyncOperationCompletedHandler@P$AAVRadio@Radios@Devices@Windows@@@Foundation@Windows@@W7$AAGJPAKPAPAVGuid@Platform@@@Z 1003fb29 f i _nodert_generated.obj
 0001:0003eb29       ?__abi_GetIids@?$AsyncOperationCompletedHandler@P$AAVRfcommDeviceServicesResult@Rfcomm@Bluetooth@Devices@Windows@@@Foundation@Windows@@W7$AAGJPAKPAPAVGuid@Platform@@@Z 1003fb29 f i _nodert_generated.obj
 0001:0003eb29       ?__abi_GetIids@?$AsyncOperationCompletedHandler@P$AAVBluetoothLEDevice@Bluetooth@Devices@Windows@@@Foundation@Windows@@W7$AAGJPAKPAPAVGuid@Platform@@@Z 1003fb29 f i _nodert_generated.obj
 0001:0003eb29       ?__abi_GetIids@?$AsyncOperationCompletedHandler@P$AAVBluetoothDevice@Bluetooth@Devices@Windows@@@Foundation@Windows@@W7$AAGJPAKPAPAVGuid@Platform@@@Z 1003fb29 f i _nodert_generated.obj
 0001:0003eb33       ?__abi_AddRef@?QObject@Platform@@?$CustomBox@F@Details@2@W3$AAGKXZ 1003fb33 f i _nodert_generated.obj
 0001:0003eb3d       ?__abi_GetRuntimeClassName@?$TypedEventHandler@P$AAVBluetoothDevice@Bluetooth@Devices@Windows@@P$AAVObject@Platform@@@Foundation@Windows@@W3$AAGJPAPAUHSTRING__@@@Z 1003fb3d f i _nodert_generated.obj
 0001:0003eb47       ?__abi_GetRuntimeClassName@?$AsyncOperationCompletedHandler@P$AAVBluetoothAdapter@Bluetooth@Devices@Windows@@@Foundation@Windows@@W7$AAGJPAPAUHSTRING__@@@Z 1003fb47 f i _nodert_generated.obj
 0001:0003eb51       ?__abi_GetTrustLevel@?$AsyncOperationCompletedHandler@P$AAVBluetoothAdapter@Bluetooth@Devices@Windows@@@Foundation@Windows@@W7$AAGJPAW4__abi_TrustLevel@@@Z 1003fb51 f i _nodert_generated.obj
 0001:0003eb51       ?__abi_GetTrustLevel@?QObject@Platform@@?$CustomBox@VTimeSpan@Foundation@Windows@@@Details@2@W7$AAGJPAW4__abi_TrustLevel@@@Z 1003fb51 f i _nodert_generated.obj
 0001:0003eb51       ?__abi_GetTrustLevel@?$AsyncOperationCompletedHandler@W4DeviceAccessStatus@Enumeration@Devices@Windows@@@Foundation@Windows@@W7$AAGJPAW4__abi_TrustLevel@@@Z 1003fb51 f i _nodert_generated.obj
 0001:0003eb51       ?__abi_GetTrustLevel@?QObject@Platform@@?$CustomBox@F@Details@2@W7$AAGJPAW4__abi_TrustLevel@@@Z 1003fb51 f i _nodert_generated.obj
 0001:0003eb51       ?__abi_GetTrustLevel@?$AsyncOperationCompletedHandler@P$AAVBluetoothLEDevice@Bluetooth@Devices@Windows@@@Foundation@Windows@@W7$AAGJPAW4__abi_TrustLevel@@@Z 1003fb51 f i _nodert_generated.obj
 0001:0003eb51       ?__abi_GetTrustLevel@?$AsyncOperationCompletedHandler@P$AAVGattDeviceServicesResult@GenericAttributeProfile@Bluetooth@Devices@Windows@@@Foundation@Windows@@W7$AAGJPAW4__abi_TrustLevel@@@Z 1003fb51 f i _nodert_generated.obj
 0001:0003eb51       ?__abi_GetTrustLevel@?$AsyncOperationCompletedHandler@P$AAVRfcommDeviceServicesResult@Rfcomm@Bluetooth@Devices@Windows@@@Foundation@Windows@@W7$AAGJPAW4__abi_TrustLevel@@@Z 1003fb51 f i _nodert_generated.obj
 0001:0003eb51       ?__abi_GetTrustLevel@?$TypedEventHandler@P$AAVBluetoothDevice@Bluetooth@Devices@Windows@@P$AAVObject@Platform@@@Foundation@Windows@@W7$AAGJPAW4__abi_TrustLevel@@@Z 1003fb51 f i _nodert_generated.obj
 0001:0003eb51       ?__abi_GetTrustLevel@?$AsyncOperationCompletedHandler@P$AAVRadio@Radios@Devices@Windows@@@Foundation@Windows@@W7$AAGJPAW4__abi_TrustLevel@@@Z 1003fb51 f i _nodert_generated.obj
 0001:0003eb51       ?__abi_GetTrustLevel@?$TypedEventHandler@P$AAVBluetoothLEDevice@Bluetooth@Devices@Windows@@P$AAVObject@Platform@@@Foundation@Windows@@W7$AAGJPAW4__abi_TrustLevel@@@Z 1003fb51 f i _nodert_generated.obj
 0001:0003eb51       ?__abi_GetTrustLevel@?$AsyncOperationCompletedHandler@P$AAVBluetoothDevice@Bluetooth@Devices@Windows@@@Foundation@Windows@@W7$AAGJPAW4__abi_TrustLevel@@@Z 1003fb51 f i _nodert_generated.obj
 0001:0003eb5b       ?__abi_GetRuntimeClassName@?$AsyncOperationCompletedHandler@W4DeviceAccessStatus@Enumeration@Devices@Windows@@@Foundation@Windows@@W7$AAGJPAPAUHSTRING__@@@Z 1003fb5b f i _nodert_generated.obj
 0001:0003eb65       ?__abi_AddRef@?QObject@Platform@@?$CustomBox@VTimeSpan@Foundation@Windows@@@Details@2@WBE@$AAGKXZ 1003fb65 f i _nodert_generated.obj
 0001:0003eb6f       ?__abi_Release@?QObject@Platform@@?$CustomBox@F@Details@2@W7$AAGKXZ 1003fb6f f i _nodert_generated.obj
 0001:0003eb79       ?__abi_QueryInterface@?$AsyncOperationCompletedHandler@P$AAVGattDeviceServicesResult@GenericAttributeProfile@Bluetooth@Devices@Windows@@@Foundation@Windows@@W3$AAGJAAVGuid@Platform@@PAPAX@Z 1003fb79 f i _nodert_generated.obj
 0001:0003eb83       ?__abi_QueryInterface@?QObject@Platform@@?$CustomBox@F@Details@2@W7$AAGJAAVGuid@2@PAPAX@Z 1003fb83 f i _nodert_generated.obj
 0001:0003eb8d       ?__abi_QueryInterface@?$AsyncOperationCompletedHandler@W4DeviceAccessStatus@Enumeration@Devices@Windows@@@Foundation@Windows@@W3$AAGJAAVGuid@Platform@@PAPAX@Z 1003fb8d f i _nodert_generated.obj
 0001:0003eb97       ?__abi_AddRef@?QObject@Platform@@?$CustomBox@F@Details@2@W7$AAGKXZ 1003fb97 f i _nodert_generated.obj
 0001:0003eba1       ?__abi_GetRuntimeClassName@?$AsyncOperationCompletedHandler@P$AAVBluetoothDevice@Bluetooth@Devices@Windows@@@Foundation@Windows@@W3$AAGJPAPAUHSTRING__@@@Z 1003fba1 f i _nodert_generated.obj
 0001:0003ebab       ?__abi_GetRuntimeClassName@?$TypedEventHandler@P$AAVBluetoothDevice@Bluetooth@Devices@Windows@@P$AAVObject@Platform@@@Foundation@Windows@@W7$AAGJPAPAUHSTRING__@@@Z 1003fbab f i _nodert_generated.obj
 0001:0003ebb5       ?__abi_GetTrustLevel@?QObject@Platform@@?$CustomBox@F@Details@2@WM@$AAGJPAW4__abi_TrustLevel@@@Z 1003fbb5 f i _nodert_generated.obj
 0001:0003ebb5       ?__abi_GetTrustLevel@?QObject@Platform@@?$CustomBox@VTimeSpan@Foundation@Windows@@@Details@2@WM@$AAGJPAW4__abi_TrustLevel@@@Z 1003fbb5 f i _nodert_generated.obj
 0001:0003ebbf       ?__abi_GetRuntimeClassName@?QObject@Platform@@?$CustomBox@VTimeSpan@Foundation@Windows@@@Details@2@W3$AAGJPAPAUHSTRING__@@@Z 1003fbbf f i _nodert_generated.obj
 0001:0003ebc9       ?__abi_GetIids@?QObject@Platform@@?$CustomBox@F@Details@2@WBE@$AAGJPAKPAPAVGuid@2@@Z 1003fbc9 f i _nodert_generated.obj
 0001:0003ebd3       ?__abi_GetRuntimeClassName@?QObject@Platform@@?$CustomBox@F@Details@2@WBE@$AAGJPAPAUHSTRING__@@@Z 1003fbd3 f i _nodert_generated.obj
 0001:0003ebdd       ?__abi_Release@?QObject@Platform@@?$CustomBox@F@Details@2@WM@$AAGKXZ 1003fbdd f i _nodert_generated.obj
 0001:0003ebe7       ?__abi_QueryInterface@?$AsyncOperationCompletedHandler@P$AAVGattDeviceServicesResult@GenericAttributeProfile@Bluetooth@Devices@Windows@@@Foundation@Windows@@W7$AAGJAAVGuid@Platform@@PAPAX@Z 1003fbe7 f i _nodert_generated.obj
 0001:0003ebf1       ?__abi_GetRuntimeClassName@?$AsyncOperationCompletedHandler@P$AAVRfcommDeviceServicesResult@Rfcomm@Bluetooth@Devices@Windows@@@Foundation@Windows@@W3$AAGJPAPAUHSTRING__@@@Z 1003fbf1 f i _nodert_generated.obj
 0001:0003ebfb       ?__abi_QueryInterface@?$AsyncOperationCompletedHandler@P$AAVRfcommDeviceServicesResult@Rfcomm@Bluetooth@Devices@Windows@@@Foundation@Windows@@W3$AAGJAAVGuid@Platform@@PAPAX@Z 1003fbfb f i _nodert_generated.obj
 0001:0003ec05       ?__abi_QueryInterface@?$TypedEventHandler@P$AAVBluetoothDevice@Bluetooth@Devices@Windows@@P$AAVObject@Platform@@@Foundation@Windows@@W3$AAGJAAVGuid@Platform@@PAPAX@Z 1003fc05 f i _nodert_generated.obj
 0001:0003ec0f       ?GetWeakReference@?QIWeakReferenceSource@Details@Platform@@?$CustomBox@VTimeSpan@Foundation@Windows@@@23@WBA@$AAAP$AAUIWeakReference@23@XZ 1003fc0f f i _nodert_generated.obj
 0001:0003ec19       ?__abi_QueryInterface@?QObject@Platform@@?$CustomBox@F@Details@2@WM@$AAGJAAVGuid@2@PAPAX@Z 1003fc19 f i _nodert_generated.obj
 0001:0003ec23       ?__abi_QueryInterface@?$AsyncOperationCompletedHandler@W4DeviceAccessStatus@Enumeration@Devices@Windows@@@Foundation@Windows@@W7$AAGJAAVGuid@Platform@@PAPAX@Z 1003fc23 f i _nodert_generated.obj
 0001:0003ec2d       ?__abi_AddRef@?QObject@Platform@@?$CustomBox@F@Details@2@WM@$AAGKXZ 1003fc2d f i _nodert_generated.obj
 0001:0003ec37       ?__abi_GetRuntimeClassName@?$AsyncOperationCompletedHandler@P$AAVBluetoothLEDevice@Bluetooth@Devices@Windows@@@Foundation@Windows@@W3$AAGJPAPAUHSTRING__@@@Z 1003fc37 f i _nodert_generated.obj
 0001:0003ec41       ?__abi_GetRuntimeClassName@?$AsyncOperationCompletedHandler@P$AAVBluetoothDevice@Bluetooth@Devices@Windows@@@Foundation@Windows@@W7$AAGJPAPAUHSTRING__@@@Z 1003fc41 f i _nodert_generated.obj
 0001:0003ec4b       ?__abi_GetRuntimeClassName@?QObject@Platform@@?$CustomBox@VTimeSpan@Foundation@Windows@@@Details@2@W7$AAGJPAPAUHSTRING__@@@Z 1003fc4b f i _nodert_generated.obj
 0001:0003ec55       ?__abi_QueryInterface@?QObject@Platform@@?$CustomBox@VTimeSpan@Foundation@Windows@@@Details@2@W3$AAGJAAVGuid@2@PAPAX@Z 1003fc55 f i _nodert_generated.obj
 0001:0003ec5f       ?__abi_Release@?QObject@Platform@@?$CustomBox@F@Details@2@WBA@$AAGKXZ 1003fc5f f i _nodert_generated.obj
 0001:0003ec69       ?__abi_GetRuntimeClassName@?$AsyncOperationCompletedHandler@P$AAVRfcommDeviceServicesResult@Rfcomm@Bluetooth@Devices@Windows@@@Foundation@Windows@@W7$AAGJPAPAUHSTRING__@@@Z 1003fc69 f i _nodert_generated.obj
 0001:0003ec73       ?__abi_QueryInterface@?$AsyncOperationCompletedHandler@P$AAVRfcommDeviceServicesResult@Rfcomm@Bluetooth@Devices@Windows@@@Foundation@Windows@@W7$AAGJAAVGuid@Platform@@PAPAX@Z 1003fc73 f i _nodert_generated.obj
 0001:0003ec7d       ?__abi_QueryInterface@?$TypedEventHandler@P$AAVBluetoothDevice@Bluetooth@Devices@Windows@@P$AAVObject@Platform@@@Foundation@Windows@@W7$AAGJAAVGuid@Platform@@PAPAX@Z 1003fc7d f i _nodert_generated.obj
 0001:0003ec87       ?__abi_QueryInterface@?QObject@Platform@@?$CustomBox@F@Details@2@WBA@$AAGJAAVGuid@2@PAPAX@Z 1003fc87 f i _nodert_generated.obj
 0001:0003ec91       ?__abi_GetRuntimeClassName@?$AsyncOperationCompletedHandler@P$AAVRadio@Radios@Devices@Windows@@@Foundation@Windows@@W3$AAGJPAPAUHSTRING__@@@Z 1003fc91 f i _nodert_generated.obj
 0001:0003ec9b       ?__abi_AddRef@?QObject@Platform@@?$CustomBox@F@Details@2@WBA@$AAGKXZ 1003fc9b f i _nodert_generated.obj
 0001:0003eca5       ?__abi_GetRuntimeClassName@?$AsyncOperationCompletedHandler@P$AAVBluetoothLEDevice@Bluetooth@Devices@Windows@@@Foundation@Windows@@W7$AAGJPAPAUHSTRING__@@@Z 1003fca5 f i _nodert_generated.obj
 0001:0003ecaf       ?__abi_QueryInterface@?$AsyncOperationCompletedHandler@P$AAVBluetoothAdapter@Bluetooth@Devices@Windows@@@Foundation@Windows@@W3$AAGJAAVGuid@Platform@@PAPAX@Z 1003fcaf f i _nodert_generated.obj
 0001:0003ecb9       ?__abi_GetTrustLevel@?QObject@Platform@@?$CustomBox@F@Details@2@WBE@$AAGJPAW4__abi_TrustLevel@@@Z 1003fcb9 f i _nodert_generated.obj
 0001:0003ecb9       ?__abi_GetTrustLevel@?QObject@Platform@@?$CustomBox@VTimeSpan@Foundation@Windows@@@Details@2@WBE@$AAGJPAW4__abi_TrustLevel@@@Z 1003fcb9 f i _nodert_generated.obj
 0001:0003ecc3       ?__abi_GetRuntimeClassName@?QObject@Platform@@?$CustomBox@VTimeSpan@Foundation@Windows@@@Details@2@WM@$AAGJPAPAUHSTRING__@@@Z 1003fcc3 f i _nodert_generated.obj
 0001:0003eccd       ?__abi_Release@?QObject@Platform@@?$CustomBox@VTimeSpan@Foundation@Windows@@@Details@2@W3$AAGKXZ 1003fccd f i _nodert_generated.obj
 0001:0003ecd7       ?__abi_Platform_Details_IWeakReferenceSource____abi_GetWeakReference@?QIWeakReferenceSource@Details@Platform@@?$CustomBox@F@23@WBA@$AAGJPAP$AAUIWeakReference@23@@Z 1003fcd7 f i _nodert_generated.obj
 0001:0003ece1       ?__abi_QueryInterface@?$AsyncOperationCompletedHandler@P$AAVRadio@Radios@Devices@Windows@@@Foundation@Windows@@W3$AAGJAAVGuid@Platform@@PAPAX@Z 1003fce1 f i _nodert_generated.obj
 0001:0003eceb       ?__abi_QueryInterface@?QObject@Platform@@?$CustomBox@VTimeSpan@Foundation@Windows@@@Details@2@W7$AAGJAAVGuid@2@PAPAX@Z 1003fceb f i _nodert_generated.obj
 0001:0003ecf5       ?__abi_GetIids@?QObject@Platform@@?$CustomBox@VTimeSpan@Foundation@Windows@@@Details@2@W3$AAGJPAKPAPAVGuid@2@@Z 1003fcf5 f i _nodert_generated.obj
 0001:0003ecff       ?__abi_Release@?QObject@Platform@@?$CustomBox@F@Details@2@WBE@$AAGKXZ 1003fcff f i _nodert_generated.obj
 0001:0003ed09       ?__abi_GetRuntimeClassName@?$AsyncOperationCompletedHandler@P$AAVGattDeviceServicesResult@GenericAttributeProfile@Bluetooth@Devices@Windows@@@Foundation@Windows@@W3$AAGJPAPAUHSTRING__@@@Z 1003fd09 f i _nodert_generated.obj
 0001:0003ed13       ?__abi_QueryInterface@?$TypedEventHandler@P$AAVBluetoothLEDevice@Bluetooth@Devices@Windows@@P$AAVObject@Platform@@@Foundation@Windows@@W3$AAGJAAVGuid@Platform@@PAPAX@Z 1003fd13 f i _nodert_generated.obj
 0001:0003ed1d       ?__abi_QueryInterface@?QObject@Platform@@?$CustomBox@F@Details@2@WBE@$AAGJAAVGuid@2@PAPAX@Z 1003fd1d f i _nodert_generated.obj
 0001:0003ed27       ?__abi_GetIids@?$TypedEventHandler@P$AAVBluetoothDevice@Bluetooth@Devices@Windows@@P$AAVObject@Platform@@@Foundation@Windows@@W3$AAGJPAKPAPAVGuid@Platform@@@Z 1003fd27 f i _nodert_generated.obj
 0001:0003ed27       ?__abi_GetIids@?$TypedEventHandler@P$AAVBluetoothLEDevice@Bluetooth@Devices@Windows@@P$AAVObject@Platform@@@Foundation@Windows@@W3$AAGJPAKPAPAVGuid@Platform@@@Z 1003fd27 f i _nodert_generated.obj
 0001:0003ed31       ?__abi_GetRuntimeClassName@?$AsyncOperationCompletedHandler@P$AAVRadio@Radios@Devices@Windows@@@Foundation@Windows@@W7$AAGJPAPAUHSTRING__@@@Z 1003fd31 f i _nodert_generated.obj
 0001:0003ed3b       ?__abi_AddRef@?QObject@Platform@@?$CustomBox@F@Details@2@WBE@$AAGKXZ 1003fd3b f i _nodert_generated.obj
 0001:0003ed45       ?ToString@?$CustomBox@VTimeSpan@Foundation@Windows@@@Details@Platform@@W7$AAAP$AAVString@3@XZ 1003fd45 f i _nodert_generated.obj
 0001:0003ed45       ?ToString@?$CustomBox@F@Details@Platform@@W7$AAAP$AAVString@3@XZ 1003fd45 f i _nodert_generated.obj
 0001:0003ed4f       ?__abi_QueryInterface@?$AsyncOperationCompletedHandler@P$AAVBluetoothAdapter@Bluetooth@Devices@Windows@@@Foundation@Windows@@W7$AAGJAAVGuid@Platform@@PAPAX@Z 1003fd4f f i _nodert_generated.obj
 0001:0003ed59       ?__abi_Release@?QObject@Platform@@?$CustomBox@VTimeSpan@Foundation@Windows@@@Details@2@W7$AAGKXZ 1003fd59 f i _nodert_generated.obj
 0001:0003ed63       ?__abi_AddRef@?QObject@Platform@@?$CustomBox@VTimeSpan@Foundation@Windows@@@Details@2@W3$AAGKXZ 1003fd63 f i _nodert_generated.obj
 0001:0003ed6d       ?__abi_QueryInterface@?$AsyncOperationCompletedHandler@P$AAVRadio@Radios@Devices@Windows@@@Foundation@Windows@@W7$AAGJAAVGuid@Platform@@PAPAX@Z 1003fd6d f i _nodert_generated.obj
 0001:0003ed77       ?__abi_QueryInterface@?QObject@Platform@@?$CustomBox@VTimeSpan@Foundation@Windows@@@Details@2@WM@$AAGJAAVGuid@2@PAPAX@Z 1003fd77 f i _nodert_generated.obj
 0001:0003ed81       ?__abi_GetIids@?QObject@Platform@@?$CustomBox@VTimeSpan@Foundation@Windows@@@Details@2@W7$AAGJPAKPAPAVGuid@2@@Z 1003fd81 f i _nodert_generated.obj
 0001:0003ed8b       ?__abi_GetRuntimeClassName@?$AsyncOperationCompletedHandler@P$AAVGattDeviceServicesResult@GenericAttributeProfile@Bluetooth@Devices@Windows@@@Foundation@Windows@@W7$AAGJPAPAUHSTRING__@@@Z 1003fd8b f i _nodert_generated.obj
 0001:0003ed95       ?__abi_QueryInterface@?$TypedEventHandler@P$AAVBluetoothLEDevice@Bluetooth@Devices@Windows@@P$AAVObject@Platform@@@Foundation@Windows@@W7$AAGJAAVGuid@Platform@@PAPAX@Z 1003fd95 f i _nodert_generated.obj
 0001:0003ed9f       ?__abi_QueryInterface@?$AsyncOperationCompletedHandler@P$AAVBluetoothDevice@Bluetooth@Devices@Windows@@@Foundation@Windows@@W3$AAGJAAVGuid@Platform@@PAPAX@Z 1003fd9f f i _nodert_generated.obj
 0001:0003eda9       ?__abi_GetIids@?QObject@Platform@@?$CustomBox@F@Details@2@W3$AAGJPAKPAPAVGuid@2@@Z 1003fda9 f i _nodert_generated.obj
 0001:0003edb3       ?__abi_GetRuntimeClassName@?QObject@Platform@@?$CustomBox@VTimeSpan@Foundation@Windows@@@Details@2@WBE@$AAGJPAPAUHSTRING__@@@Z 1003fdb3 f i _nodert_generated.obj
 0001:0003edbd       ?__abi_Release@?QObject@Platform@@?$CustomBox@VTimeSpan@Foundation@Windows@@@Details@2@WM@$AAGKXZ 1003fdbd f i _nodert_generated.obj
 0001:0003edc7       ?__abi_AddRef@?QObject@Platform@@?$CustomBox@VTimeSpan@Foundation@Windows@@@Details@2@W7$AAGKXZ 1003fdc7 f i _nodert_generated.obj
 0001:0003edd1       ?__abi_GetRuntimeClassName@?QObject@Platform@@?$CustomBox@F@Details@2@W3$AAGJPAPAUHSTRING__@@@Z 1003fdd1 f i _nodert_generated.obj
 0001:0003eddb       ?__abi_QueryInterface@?QObject@Platform@@?$CustomBox@VTimeSpan@Foundation@Windows@@@Details@2@WBA@$AAGJAAVGuid@2@PAPAX@Z 1003fddb f i _nodert_generated.obj
 0001:0003ede5       ?__abi_GetIids@?QObject@Platform@@?$CustomBox@VTimeSpan@Foundation@Windows@@@Details@2@WM@$AAGJPAKPAPAVGuid@2@@Z 1003fde5 f i _nodert_generated.obj
 0001:0003edef       ?GetWeakReference@?QIWeakReferenceSource@Details@Platform@@?$CustomBox@F@23@WBA@$AAAP$AAUIWeakReference@23@XZ 1003fdef f i _nodert_generated.obj
 0001:0003edf9       ?__abi_QueryInterface@?$AsyncOperationCompletedHandler@P$AAVBluetoothDevice@Bluetooth@Devices@Windows@@@Foundation@Windows@@W7$AAGJAAVGuid@Platform@@PAPAX@Z 1003fdf9 f i _nodert_generated.obj
 0001:0003ee03       ?__abi_QueryInterface@?$AsyncOperationCompletedHandler@P$AAVBluetoothLEDevice@Bluetooth@Devices@Windows@@@Foundation@Windows@@W3$AAGJAAVGuid@Platform@@PAPAX@Z 1003fe03 f i _nodert_generated.obj
 0001:0003ee0d       ?__abi_GetIids@?QObject@Platform@@?$CustomBox@F@Details@2@W7$AAGJPAKPAPAVGuid@2@@Z 1003fe0d f i _nodert_generated.obj
 0001:0003ee17       ?__abi_GetRuntimeClassName@?$TypedEventHandler@P$AAVBluetoothLEDevice@Bluetooth@Devices@Windows@@P$AAVObject@Platform@@@Foundation@Windows@@W3$AAGJPAPAUHSTRING__@@@Z 1003fe17 f i _nodert_generated.obj
 0001:0003ee21       ?__abi_Release@?QObject@Platform@@?$CustomBox@VTimeSpan@Foundation@Windows@@@Details@2@WBA@$AAGKXZ 1003fe21 f i _nodert_generated.obj
 0001:0003ee2b       ?__abi_AddRef@?QObject@Platform@@?$CustomBox@VTimeSpan@Foundation@Windows@@@Details@2@WM@$AAGKXZ 1003fe2b f i _nodert_generated.obj
 0001:0003ee35       ?__abi_GetRuntimeClassName@?QObject@Platform@@?$CustomBox@F@Details@2@W7$AAGJPAPAUHSTRING__@@@Z 1003fe35 f i _nodert_generated.obj
 0001:0003ee40       ?ForceSet@Nan@@YA?AV?$Maybe@_N@v8@@V?$Local@VObject@v8@@@3@V?$Local@VValue@v8@@@3@1W4PropertyAttribute@3@@Z 1003fe40 f i NodeRtUtils.obj
 0001:0003eed0       ?Has@Nan@@YA?AV?$Maybe@_N@v8@@V?$Local@VObject@v8@@@3@V?$Local@VString@v8@@@3@@Z 1003fed0 f i NodeRtUtils.obj
 0001:0003ef60       ?WinRtExceptionToJsError@Utils@NodeRT@@YA?AV?$Local@VValue@v8@@@v8@@P$AAVException@Platform@@@Z 1003ff60 f   NodeRtUtils.obj
 0001:0003f0f0       ?ThrowWinRtExceptionInJs@Utils@NodeRT@@YAXP$AAVException@Platform@@@Z 100400f0 f   NodeRtUtils.obj
 0001:0003f120       ?CreateCallbackObjectInDomain@Utils@NodeRT@@YA?AV?$Local@VObject@v8@@@v8@@V?$Local@VFunction@v8@@@4@@Z 10040120 f   NodeRtUtils.obj
 0001:0003f350       ?GetObjectInstance@Utils@NodeRT@@YAP$AAVObject@Platform@@V?$Local@VValue@v8@@@v8@@@Z 10040350 f   NodeRtUtils.obj
 0001:0003f3f0       ?NewString@Utils@NodeRT@@YA?AV?$Local@VString@v8@@@v8@@PB_W@Z 100403f0 f   NodeRtUtils.obj
 0001:0003f430       ?CaseInsenstiveEquals@Utils@NodeRT@@YA_NPB_WPBG@Z 10040430 f   NodeRtUtils.obj
 0001:0003f4b0       ?RegisterNameSpace@Utils@NodeRT@@YAXPBDV?$Local@VValue@v8@@@v8@@@Z 100404b0 f   NodeRtUtils.obj
 0001:0003f650       ?CreateExternalWinRTObject@Utils@NodeRT@@YA?AV?$Local@VValue@v8@@@v8@@PBD0P$AAVObject@Platform@@@Z 10040650 f   NodeRtUtils.obj
 0001:0003f900       ?IsWinRtWrapper@Utils@NodeRT@@YA_NV?$Local@VValue@v8@@@v8@@@Z 10040900 f   NodeRtUtils.obj
 0001:0003fa20       ?SetHiddenValueWithObject@Utils@NodeRT@@YAXV?$Local@VObject@v8@@@v8@@V?$Local@VString@v8@@@4@0@Z 10040a20 f   NodeRtUtils.obj
 0001:0003fa50       ?GetHiddenValue@Utils@NodeRT@@YA?AV?$Local@VValue@v8@@@v8@@V?$Local@VObject@v8@@@4@V?$Local@VString@v8@@@4@@Z 10040a50 f   NodeRtUtils.obj
 0001:0003fa90       ?StrToGuid@Utils@NodeRT@@YA_NV?$Local@VValue@v8@@@v8@@PAU_GUID@@@Z 10040a90 f   NodeRtUtils.obj
 0001:0003fbd0       ?IsGuid@Utils@NodeRT@@YA_NV?$Local@VValue@v8@@@v8@@@Z 10040bd0 f   NodeRtUtils.obj
 0001:0003fc10       ?GuidFromJs@Utils@NodeRT@@YA?AVGuid@Platform@@V?$Local@VValue@v8@@@v8@@@Z 10040c10 f   NodeRtUtils.obj
 0001:0003fcc0       ?GuidToJs@Utils@NodeRT@@YA?AV?$Local@VString@v8@@@v8@@VGuid@Platform@@@Z 10040cc0 f   NodeRtUtils.obj
 0001:0003fd20       ??1?$basic_string@_WU?$char_traits@_W@std@@V?$allocator@_W@2@@std@@QAE@XZ 10040d20 f i NodeRtUtils.obj
 0001:0003fd60       ?assign@?$basic_string@_WU?$char_traits@_W@std@@V?$allocator@_W@2@@std@@QAEAAV12@PB_WI@Z 10040d60 f i NodeRtUtils.obj
 0001:0003fe50       ?deallocate@?$_Wrap_alloc@V?$allocator@_W@std@@@std@@QAEXPA_WI@Z 10040e50 f i NodeRtUtils.obj
 0001:0003feb0       ?_Grow@?$basic_string@_WU?$char_traits@_W@std@@V?$allocator@_W@2@@std@@QAE_NI_N@Z 10040eb0 f i NodeRtUtils.obj
 0001:0003ff00       ?assign@?$basic_string@_WU?$char_traits@_W@std@@V?$allocator@_W@2@@std@@QAEAAV12@ABV12@II@Z 10040f00 f i NodeRtUtils.obj
 0001:00040010       ?append@?$basic_string@_WU?$char_traits@_W@std@@V?$allocator@_W@2@@std@@QAEAAV12@PB_WI@Z 10041010 f i NodeRtUtils.obj
 0001:000400f0       ?_Copy@?$basic_string@_WU?$char_traits@_W@std@@V?$allocator@_W@2@@std@@QAEXII@Z 100410f0 f i NodeRtUtils.obj
 0001:000401c0       ?erase@?$basic_string@_WU?$char_traits@_W@std@@V?$allocator@_W@2@@std@@QAEAAV12@II@Z 100411c0 f i NodeRtUtils.obj
 0001:00040250       ?append@?$basic_string@_WU?$char_traits@_W@std@@V?$allocator@_W@2@@std@@QAEAAV12@ABV12@II@Z 10041250 f i NodeRtUtils.obj
 0001:00040310       ?allocate@?$_Wrap_alloc@V?$allocator@_W@std@@@std@@QAEPA_WI@Z 10041310 f i NodeRtUtils.obj
 0001:00040370       ?New@OpaqueWrapper@NodeRT@@CAXABV?$FunctionCallbackInfo@VValue@v8@@@Nan@@@Z 10041370 f   OpaqueWrapper.obj
 0001:000403f0       ?Init@OpaqueWrapper@NodeRT@@CAXXZ 100413f0 f   OpaqueWrapper.obj
 0001:00040500       ?CreateOpaqueWrapper@NodeRT@@YA?AV?$Local@VValue@v8@@@v8@@P$AAVObject@Platform@@@Z 10041500 f   OpaqueWrapper.obj
 0001:00040636       ?Initialize@Details@Platform@@YAHXZ 10041636 f   vccorlib:init.obj
 0001:00040670       ??1?$Module@$00VInProcModule@Details@Platform@@@WRL@Microsoft@@UAE@XZ 10041670 f i vccorlib:init.obj
 0001:0004068b       ??1InProcModule@Details@Platform@@UAE@XZ 1004168b f i vccorlib:init.obj
 0001:000406a4       ??_G?$Module@$00VInProcModule@Details@Platform@@@WRL@Microsoft@@UAEPAXI@Z 100416a4 f i vccorlib:init.obj
 0001:000406a4       ??_E?$Module@$00VInProcModule@Details@Platform@@@WRL@Microsoft@@UAEPAXI@Z 100416a4 f i vccorlib:init.obj
 0001:000406c6       ??_GInProcModule@Details@Platform@@UAEPAXI@Z 100416c6 f i vccorlib:init.obj
 0001:000406c6       ??_EInProcModule@Details@Platform@@UAEPAXI@Z 100416c6 f i vccorlib:init.obj
 0001:000406e8       ?Cleanup@Details@Platform@@YAXXZ 100416e8 f   vccorlib:init.obj
 0001:000406f5       ?Create@?$Module@$00VInProcModule@Details@Platform@@@WRL@Microsoft@@SAAAVInProcModule@Details@Platform@@XZ 100416f5 f i vccorlib:init.obj
 0001:0004073f       ?DecrementObjectCount@?$Module@$00VInProcModule@Details@Platform@@@WRL@Microsoft@@UAGKXZ 1004173f f i vccorlib:init.obj
 0001:0004073f       ?__abi_DecrementObjectCount@InProcModule@Details@Platform@@UAGKXZ 1004173f f i vccorlib:init.obj
 0001:0004074e       ?GetFirstEntryPointer@ModuleBase@Details@WRL@Microsoft@@UBGPAPBUCreatorMap@234@XZ 1004174e f i vccorlib:init.obj
 0001:00040756       ?GetLastEntryPointer@ModuleBase@Details@WRL@Microsoft@@UBGPAPBUCreatorMap@234@XZ 10041756 f i vccorlib:init.obj
 0001:0004075e       ?GetLock@ModuleBase@Details@WRL@Microsoft@@UBGPAU_RTL_SRWLOCK@@XZ 1004175e f i vccorlib:init.obj
 0001:00040766       ?GetMidEntryPointer@ModuleBase@Details@WRL@Microsoft@@UBGPAPBUCreatorMap@234@XZ 10041766 f i vccorlib:init.obj
 0001:0004076e       ?GetObjectCount@ModuleBase@Details@WRL@Microsoft@@UBGKXZ 1004176e f i vccorlib:init.obj
 0001:00040776       ?IncrementObjectCount@?$Module@$00VInProcModule@Details@Platform@@@WRL@Microsoft@@UAGKXZ 10041776 f i vccorlib:init.obj
 0001:00040776       ?__abi_IncrementObjectCount@InProcModule@Details@Platform@@UAGKXZ 10041776 f i vccorlib:init.obj
 0001:00040785       ?IsServerNameEqual@Details@WRL@Microsoft@@YA_NPBUCreatorMap@123@PB_W@Z 10041785 f i vccorlib:init.obj
 0001:000407d5       ?LockExclusive@SRWLock@Wrappers@WRL@Microsoft@@SA?AV?$SyncLockT@USRWLockExclusiveTraits@HandleTraits@Wrappers@WRL@Microsoft@@@Details@234@PAU_RTL_SRWLOCK@@@Z 100417d5 f i vccorlib:init.obj
 0001:000407eb       ?RegisterCOMObject@?$Module@$00VInProcModule@Details@Platform@@@WRL@Microsoft@@UAGJPB_WPAU_GUID@@PAPAUIClassFactory@@PAKI@Z 100417eb f i vccorlib:init.obj
 0001:000407f3       ?RegisterWinRTObject@?$Module@$00VInProcModule@Details@Platform@@@WRL@Microsoft@@UAGJPB_WPAPB_WPAPAU<unnamed-type-RO_REGISTRATION_COOKIE>@@I@Z 100417f3 f i vccorlib:init.obj
 0001:000407fb       ?TerminateMap@Details@WRL@Microsoft@@YA_NPAVModuleBase@123@PB_W_N@Z 100417fb f i vccorlib:init.obj
 0001:00040908       ?UnregisterCOMObject@?$Module@$00VInProcModule@Details@Platform@@@WRL@Microsoft@@UAGJPB_WPAKI@Z 10041908 f i vccorlib:init.obj
 0001:00040910       ?UnregisterWinRTObject@?$Module@$00VInProcModule@Details@Platform@@@WRL@Microsoft@@UAGJPB_WPAU<unnamed-type-RO_REGISTRATION_COOKIE>@@@Z 10041910 f i vccorlib:init.obj
 0001:00040918       ?__getIids@__winRT@@YGJHPAKPBU__s_GUID@@PAPAVGuid@Platform@@@Z 10041918 f   vccorlib:compiler.obj
 0001:00040921       ?__windowsCreateString@__winRT@@YGJPB_WHPAPAUHSTRING__@@@Z 10041921 f   vccorlib:compiler.obj
 0001:0004092a       ?__getActivationFactoryByPCWSTR@__winRT@@YGJPAXAAVGuid@Platform@@PAPAX@Z 1004192a f   vccorlib:activation.obj
 0001:00040934       ?InitializeData@Details@Platform@@YAJH@Z 10041934 f   vccorlib:vccorlib140.DLL
 0001:0004093a       ?UninitializeData@Details@Platform@@YAXH@Z 1004193a f   vccorlib:vccorlib140.DLL
 0001:00040940       ?GetIidsFn@@YGJHPAKPBU__s_GUID@@PAPAVGuid@Platform@@@Z 10041940 f   vccorlib:vccorlib140.DLL
 0001:00040946       ?GetActivationFactoryByPCWSTR@@YGJPAXAAVGuid@Platform@@PAPAX@Z 10041946 f   vccorlib:vccorlib140.DLL
 0001:0004094c       @__security_check_cookie@4 1004194c f   MSVCRT:_secchk_.obj
 0001:0004095d       ??_V@YAXPAX@Z              1004195d f   MSVCRT:delete_array.obj
 0001:00040a22       ??$__crt_fast_encode_pointer@P6GHPAU_RTL_CONDITION_VARIABLE@@PAU_RTL_CRITICAL_SECTION@@K@Z@@YAP6GHPAU_RTL_CONDITION_VARIABLE@@PAU_RTL_CRITICAL_SECTION@@K@ZQ6GH01K@Z@Z 10041a22 f i MSVCRT:thread_safe_statics.obj
 0001:00040a22       ??$__crt_fast_encode_pointer@P6GXPAU_RTL_CONDITION_VARIABLE@@@Z@@YAP6GXPAU_RTL_CONDITION_VARIABLE@@@ZQ6GX0@Z@Z 10041a22 f i MSVCRT:thread_safe_statics.obj
 0001:00040a5b       __Init_thread_abort        10041a5b f   MSVCRT:thread_safe_statics.obj
 0001:00040a74       __Init_thread_footer       10041a74 f   MSVCRT:thread_safe_statics.obj
 0001:00040ab3       __Init_thread_header       10041ab3 f   MSVCRT:thread_safe_statics.obj
 0001:00040af9       __Init_thread_lock         10041af9 f   MSVCRT:thread_safe_statics.obj
 0001:00040b05       __Init_thread_notify       10041b05 f   MSVCRT:thread_safe_statics.obj
 0001:00040b46       __Init_thread_unlock       10041b46 f   MSVCRT:thread_safe_statics.obj
 0001:00040b52       __Init_thread_wait         10041b52 f   MSVCRT:thread_safe_statics.obj
 0001:00040bb7       ??2@YAPAXI@Z               10041bb7 f   MSVCRT:new_scalar.obj
 0001:00040c2e       ___scrt_acquire_startup_lock 10041c2e f   MSVCRT:utility.obj
 0001:00040c63       ___scrt_dllmain_after_initialize_c 10041c63 f   MSVCRT:utility.obj
 0001:00040c8e       ___scrt_dllmain_before_initialize_c 10041c8e f   MSVCRT:utility.obj
 0001:00040c9c       ___scrt_dllmain_crt_thread_attach 10041c9c f   MSVCRT:utility.obj
 0001:00040cbb       ___scrt_dllmain_crt_thread_detach 10041cbb f   MSVCRT:utility.obj
 0001:00040cc8       ___scrt_dllmain_exception_filter 10041cc8 f   MSVCRT:utility.obj
 0001:00040cfb       ___scrt_dllmain_uninitialize_c 10041cfb f   MSVCRT:utility.obj
 0001:00040d1e       ___scrt_dllmain_uninitialize_critical 10041d1e f   MSVCRT:utility.obj
 0001:00040d2b       ___scrt_initialize_crt     10041d2b f   MSVCRT:utility.obj
 0001:00040d64       ___scrt_initialize_onexit_tables 10041d64 f   MSVCRT:utility.obj
 0001:00040dfb       ___scrt_is_nonwritable_in_current_image 10041dfb f   MSVCRT:utility.obj
 0001:00040e85       ___scrt_release_startup_lock 10041e85 f   MSVCRT:utility.obj
 0001:00040ea2       ___scrt_uninitialize_crt   10041ea2 f   MSVCRT:utility.obj
 0001:00040eca       __onexit                   10041eca f   MSVCRT:utility.obj
 0001:00040f05       _atexit                    10041f05 f   MSVCRT:utility.obj
 0001:00040f1a       ??3@YAXPAX@Z               10041f1a f   MSVCRT:delete_scalar.obj
 0001:00040f1f       ??3@YAXPAXI@Z              10041f1f f   MSVCRT:delete_scalar_size.obj
 0001:00040f2d       ??_U@YAPAXI@Z              10041f2d f   MSVCRT:new_array.obj
 0001:00040f36       ??_Gtype_info@@UAEPAXI@Z   10041f36 f i MSVCRT:std_type_info_static.obj
 0001:00040f36       ??_Etype_info@@UAEPAXI@Z   10041f36 f i MSVCRT:std_type_info_static.obj
 0001:00040f59       ___raise_securityfailure   10041f59 f   MSVCRT:gs_report.obj
 0001:00040f81       ___report_gsfailure        10041f81 f   MSVCRT:gs_report.obj
 0001:00041384       __DllMainCRTStartup@12     10042384 f   MSVCRT:dll_dllmain.obj
 0001:000413a7       @_guard_check_icall@4      100423a7 f i MSVCRT:checkcfg.obj
 0001:000413ad       ___scrt_fastfail           100423ad f   MSVCRT:utility_desktop.obj
 0001:000414c8       ??0bad_alloc@std@@QAE@ABV01@@Z 100424c8 f i MSVCRT:throw_bad_alloc.obj
 0001:000414e3       ??0bad_alloc@std@@QAE@XZ   100424e3 f i MSVCRT:throw_bad_alloc.obj
 0001:000414fb       ??0bad_array_new_length@std@@QAE@ABV01@@Z 100424fb f i MSVCRT:throw_bad_alloc.obj
 0001:00041516       ??0bad_array_new_length@std@@QAE@XZ 10042516 f i MSVCRT:throw_bad_alloc.obj
 0001:0004152e       ??0exception@std@@QAE@ABV01@@Z 1004252e f i MSVCRT:throw_bad_alloc.obj
 0001:0004155a       ??1bad_alloc@std@@UAE@XZ   1004255a f i MSVCRT:throw_bad_alloc.obj
 0001:0004155a       ??1bad_array_new_length@std@@UAE@XZ 1004255a f i MSVCRT:throw_bad_alloc.obj
 0001:0004156b       ??_Gbad_alloc@std@@UAEPAXI@Z 1004256b f i MSVCRT:throw_bad_alloc.obj
 0001:0004156b       ??_Gexception@std@@UAEPAXI@Z 1004256b f i MSVCRT:throw_bad_alloc.obj
 0001:0004156b       ??_Ebad_alloc@std@@UAEPAXI@Z 1004256b f i MSVCRT:throw_bad_alloc.obj
 0001:0004156b       ??_Gbad_array_new_length@std@@UAEPAXI@Z 1004256b f i MSVCRT:throw_bad_alloc.obj
 0001:0004156b       ??_Ebad_array_new_length@std@@UAEPAXI@Z 1004256b f i MSVCRT:throw_bad_alloc.obj
 0001:0004156b       ??_Eexception@std@@UAEPAXI@Z 1004256b f i MSVCRT:throw_bad_alloc.obj
 0001:00041598       ?__scrt_throw_std_bad_alloc@@YAXXZ 10042598 f   MSVCRT:throw_bad_alloc.obj
 0001:000415b5       ?__scrt_throw_std_bad_array_new_length@@YAXXZ 100425b5 f   MSVCRT:throw_bad_alloc.obj
 0001:000415d2       ?what@exception@std@@UBEPBDXZ 100425d2 f i MSVCRT:throw_bad_alloc.obj
 0001:000415df       ___isa_available_init      100425df f   MSVCRT:_cpu_disp_.obj
 0001:00041779       __get_startup_argv_mode    10042779 f   MSVCRT:argv_mode.obj
 0001:0004177d       ___scrt_is_ucrt_dll_in_use 1004277d f   MSVCRT:ucrt_detection.obj
 0001:00041790       __SEH_prolog4              10042790 f   MSVCRT:_sehprolg4_.obj
 0001:000417d6       __SEH_epilog4              100427d6 f   MSVCRT:_sehprolg4_.obj
 0001:000417eb       __except_handler4          100427eb f   MSVCRT:_chandler4gs_.obj
 0001:0004180e       ___security_init_cookie    1004280e f   MSVCRT:gs_support.obj
 0001:000418aa       _DllMain@12                100428aa f   MSVCRT:dll_dllmain_stub.obj
 0001:000418cc       ?__scrt_initialize_type_info@@YAXXZ 100428cc f   MSVCRT:tncleanup.obj
 0001:000418d8       ?__scrt_uninitialize_type_info@@YAXXZ 100428d8 f   MSVCRT:tncleanup.obj
 0001:000418e4       ___local_stdio_printf_options 100428e4 f i MSVCRT:default_local_stdio_options.obj
 0001:000418ea       ___local_stdio_scanf_options 100428ea f i MSVCRT:default_local_stdio_options.obj
 0001:000418f0       ___scrt_initialize_default_local_stdio_options 100428f0 f   MSVCRT:default_local_stdio_options.obj
 0001:0004190d       ___scrt_get_dyn_tls_init_callback 1004290d f   MSVCRT:dyn_tls_init.obj
 0001:00041913       __RTC_Initialize           10042913 f   MSVCRT:_initsect_.obj
 0001:0004193e       __RTC_Terminate            1004293e f   MSVCRT:_initsect_.obj
 0001:0004196a       __purecall                 1004296a f   vcruntime:VCRUNTIME140.dll
 0001:00041970       _memset                    10042970 f   vcruntime:VCRUNTIME140.dll
 0001:00041970       ___Platform_memset         10042970 f   vcruntime:VCRUNTIME140.dll
 0001:00041976       ___vcrt_InitializeCriticalSectionEx 10042976 f   vcruntime:VCRUNTIME140.dll
 0001:0004197c       ___std_exception_copy      1004297c f   vcruntime:VCRUNTIME140.dll
 0001:00041982       ___std_exception_destroy   10042982 f   vcruntime:VCRUNTIME140.dll
 0001:00041988       __CxxThrowException@8      10042988 f   vcruntime:VCRUNTIME140.dll
 0001:0004198e       __except_handler4_common   1004298e f   vcruntime:VCRUNTIME140.dll
 0001:00041994       ___std_type_info_destroy_list 10042994 f   vcruntime:VCRUNTIME140.dll
 0001:0004199a       ___Platform_wcslen         1004299a f   ucrt:api-ms-win-crt-string-l1-1-0.dll
 0001:0004199a       _wcslen                    1004299a f   ucrt:api-ms-win-crt-string-l1-1-0.dll
 0001:000419a0       __callnewh                 100429a0 f   ucrt:api-ms-win-crt-heap-l1-1-0.dll
 0001:000419a6       _malloc                    100429a6 f   ucrt:api-ms-win-crt-heap-l1-1-0.dll
 0001:000419ac       __seh_filter_dll           100429ac f   ucrt:api-ms-win-crt-runtime-l1-1-0.dll
 0001:000419b2       __configure_narrow_argv    100429b2 f   ucrt:api-ms-win-crt-runtime-l1-1-0.dll
 0001:000419b8       __initialize_narrow_environment 100429b8 f   ucrt:api-ms-win-crt-runtime-l1-1-0.dll
 0001:000419be       __initialize_onexit_table  100429be f   ucrt:api-ms-win-crt-runtime-l1-1-0.dll
 0001:000419c4       __register_onexit_function 100429c4 f   ucrt:api-ms-win-crt-runtime-l1-1-0.dll
 0001:000419ca       __execute_onexit_table     100429ca f   ucrt:api-ms-win-crt-runtime-l1-1-0.dll
 0001:000419d0       __crt_atexit               100429d0 f   ucrt:api-ms-win-crt-runtime-l1-1-0.dll
 0001:000419d6       __cexit                    100429d6 f   ucrt:api-ms-win-crt-runtime-l1-1-0.dll
 0001:000419dc       _free                      100429dc f   ucrt:api-ms-win-crt-heap-l1-1-0.dll
 0001:000419e2       __initterm                 100429e2 f   ucrt:api-ms-win-crt-runtime-l1-1-0.dll
 0001:000419e8       __initterm_e               100429e8 f   ucrt:api-ms-win-crt-runtime-l1-1-0.dll
 0001:000419ee       _IsProcessorFeaturePresent@4 100429ee f   kernel32:KERNEL32.dll
 0001:000419f4       _CoCreateFreeThreadedMarshaler@8 100429f4 f   ole32:ole32.dll
 0001:000419f4       ___Platform_CoCreateFreeThreadedMarshaler@8 100429f4 f   ole32:ole32.dll
 0001:000419fa       _WindowsCreateString@12    100429fa f   runtimeobject:api-ms-win-core-winrt-string-l1-1-0.dll
 0001:000419fa       ___Platform_WindowsCreateString@12 100429fa f   runtimeobject:api-ms-win-core-winrt-string-l1-1-0.dll
 0001:00041a00       _WindowsDeleteString@4     10042a00 f   runtimeobject:api-ms-win-core-winrt-string-l1-1-0.dll
 0001:00041a00       ___Platform_WindowsDeleteString@4 10042a00 f   runtimeobject:api-ms-win-core-winrt-string-l1-1-0.dll
 0001:00041a06       _WindowsGetStringRawBuffer@8 10042a06 f   runtimeobject:api-ms-win-core-winrt-string-l1-1-0.dll
 0001:00041a06       ___Platform_WindowsGetStringRawBuffer@8 10042a06 f   runtimeobject:api-ms-win-core-winrt-string-l1-1-0.dll
 0001:00041a0c       _WindowsDuplicateString@8  10042a0c f   runtimeobject:api-ms-win-core-winrt-string-l1-1-0.dll
 0001:00041a0c       ___Platform_WindowsDuplicateString@8 10042a0c f   runtimeobject:api-ms-win-core-winrt-string-l1-1-0.dll
 0001:00041a12       _WindowsGetStringLen@4     10042a12 f   runtimeobject:api-ms-win-core-winrt-string-l1-1-0.dll
 0001:00041a12       ___Platform_WindowsGetStringLen@4 10042a12 f   runtimeobject:api-ms-win-core-winrt-string-l1-1-0.dll
 0001:00041a18       ___vcrt_uninitialize       10042a18 f   MSVCRT:ucrt_stubs.obj
 0001:00041a18       ___scrt_stub_for_acrt_thread_attach 10042a18 f   MSVCRT:ucrt_stubs.obj
 0001:00041a18       ___scrt_stub_for_acrt_initialize 10042a18 f   MSVCRT:ucrt_stubs.obj
 0001:00041a18       ___acrt_uninitialize       10042a18 f   MSVCRT:ucrt_stubs.obj
 0001:00041a18       ___acrt_thread_attach      10042a18 f   MSVCRT:ucrt_stubs.obj
 0001:00041a18       ___vcrt_uninitialize_critical 10042a18 f   MSVCRT:ucrt_stubs.obj
 0001:00041a18       ___vcrt_initialize         10042a18 f   MSVCRT:ucrt_stubs.obj
 0001:00041a18       ___scrt_stub_for_acrt_thread_detach 10042a18 f   MSVCRT:ucrt_stubs.obj
 0001:00041a18       ___acrt_thread_detach      10042a18 f   MSVCRT:ucrt_stubs.obj
 0001:00041a18       ___scrt_stub_for_acrt_uninitialize_critical 10042a18 f   MSVCRT:ucrt_stubs.obj
 0001:00041a18       ___scrt_stub_for_acrt_uninitialize 10042a18 f   MSVCRT:ucrt_stubs.obj
 0001:00041a18       ___acrt_initialize         10042a18 f   MSVCRT:ucrt_stubs.obj
 0001:00041a18       ___vcrt_thread_attach      10042a18 f   MSVCRT:ucrt_stubs.obj
 0001:00041a18       ___vcrt_thread_detach      10042a18 f   MSVCRT:ucrt_stubs.obj
 0001:00041a18       ___acrt_uninitialize_critical 10042a18 f   MSVCRT:ucrt_stubs.obj
 0001:00041a1b       ___scrt_stub_for_is_c_termination_complete 10042a1b f   MSVCRT:ucrt_stubs.obj
 0001:00041a1b       __is_c_termination_complete 10042a1b f   MSVCRT:ucrt_stubs.obj
 0001:00041a20       __allmul                   10042a20 f   MSVCRT:llmul.obj
 0001:00041a60       __ftoui3                   10042a60 f   MSVCRT:_ftol3_.obj
 0001:00041a6f       __ftoul3                   10042a6f f   MSVCRT:_ftol3_.obj
 0001:00041a7e       __ftol3                    10042a7e f   MSVCRT:_ftol3_.obj
 0001:00041a8b       __ftol3_NaN                10042a8b f   MSVCRT:_ftol3_.obj
 0001:00041aa3       __ftol3_work               10042aa3 f   MSVCRT:_ftol3_.obj
 0001:00041b29       __ftol3_common             10042b29 f   MSVCRT:_ftol3_.obj
 0001:00041beb       __ftol3_arg_error          10042beb f   MSVCRT:_ftol3_.obj
 0001:00041bfd       __ftol3_except             10042bfd f   MSVCRT:_ftol3_.obj
 0001:00041c41       __dtoui3                   10042c41 f   MSVCRT:_ftol3_.obj
 0001:00041c50       __dtoul3                   10042c50 f   MSVCRT:_ftol3_.obj
 0001:00041c5f       __dtol3                    10042c5f f   MSVCRT:_ftol3_.obj
 0001:00041c6c       __dtol3_NaN                10042c6c f   MSVCRT:_ftol3_.obj
 0001:00041c89       __dtol3_work               10042c89 f   MSVCRT:_ftol3_.obj
 0001:00041d70       __ultod3                   10042d70 f   MSVCRT:_ftol3_.obj
 0001:00041db0       __ltod3                    10042db0 f   MSVCRT:_ftol3_.obj
 0001:00041dd8       ___CxxFrameHandler3        10042dd8 f   vcruntime:VCRUNTIME140.dll
 0001:00041dde       _memcpy                    10042dde f   vcruntime:VCRUNTIME140.dll
 0001:00041de4       __except1                  10042de4 f   ucrt:api-ms-win-crt-math-l1-1-0.dll
 0001:00047d30       ??__F_S_scheduler@?1??_GetStaticAmbientSchedulerRef@details@Concurrency@@YAAAV?$shared_ptr@Uscheduler_interface@Concurrency@@@std@@XZ@YAXXZ 10048d30 f i _nodert_generated.obj
 0001:000480d1       ??__Fmodule@?1??Create@?$Module@$00VInProcModule@Details@Platform@@@WRL@Microsoft@@SAAAVInProcModule@Details@Platform@@XZ@YAXXZ 100490d1 f i vccorlib:init.obj
 0002:00000000       __imp__GetSecurityDescriptorOwner@12 1004a000     advapi32:ADVAPI32.dll
 0002:00000004       __imp__GetSecurityDescriptorSacl@16 1004a004     advapi32:ADVAPI32.dll
 0002:00000008       __imp__GetSecurityDescriptorDacl@16 1004a008     advapi32:ADVAPI32.dll
 0002:0000000c       __imp__MakeAbsoluteSD@44   1004a00c     advapi32:ADVAPI32.dll
 0002:00000010       __imp__GetLengthSid@4      1004a010     advapi32:ADVAPI32.dll
 0002:00000014       __imp__InitializeSecurityDescriptor@8 1004a014     advapi32:ADVAPI32.dll
 0002:00000018       __imp__ConvertStringSecurityDescriptorToSecurityDescriptorA@16 1004a018     advapi32:ADVAPI32.dll
 0002:0000001c       __imp__GetSecurityDescriptorGroup@12 1004a01c     advapi32:ADVAPI32.dll
 0002:00000020       \177ADVAPI32_NULL_THUNK_DATA 1004a020     advapi32:ADVAPI32.dll
 0002:00000024       __imp__GetLastError@0      1004a024     kernel32:KERNEL32.dll
 0002:00000028       __imp__ReleaseSRWLockExclusive@4 1004a028     kernel32:KERNEL32.dll
 0002:0000002c       __imp__AcquireSRWLockExclusive@4 1004a02c     kernel32:KERNEL32.dll
 0002:00000030       __imp__GetProcAddress@8    1004a030     kernel32:KERNEL32.dll
 0002:00000034       __imp__CloseHandle@4       1004a034     kernel32:KERNEL32.dll
 0002:00000038       __imp__EnterCriticalSection@4 1004a038     kernel32:KERNEL32.dll
 0002:0000003c       __imp__LeaveCriticalSection@4 1004a03c     kernel32:KERNEL32.dll
 0002:00000040       __imp__DeleteCriticalSection@4 1004a040     kernel32:KERNEL32.dll
 0002:00000044       __imp__SetEvent@4          1004a044     kernel32:KERNEL32.dll
 0002:00000048       __imp__ResetEvent@4        1004a048     kernel32:KERNEL32.dll
 0002:0000004c       __imp__WaitForSingleObjectEx@12 1004a04c     kernel32:KERNEL32.dll
 0002:00000050       __imp__CreateEventW@16     1004a050     kernel32:KERNEL32.dll
 0002:00000054       __imp__GetModuleHandleW@4  1004a054     kernel32:KERNEL32.dll
 0002:00000058       __imp__InitializeSListHead@4 1004a058     kernel32:KERNEL32.dll
 0002:0000005c       __imp__DisableThreadLibraryCalls@4 1004a05c     kernel32:KERNEL32.dll
 0002:00000060       __imp__GetSystemTimeAsFileTime@4 1004a060     kernel32:KERNEL32.dll
 0002:00000064       __imp__GetCurrentThreadId@0 1004a064     kernel32:KERNEL32.dll
 0002:00000068       __imp__GetCurrentProcessId@0 1004a068     kernel32:KERNEL32.dll
 0002:0000006c       __imp__QueryPerformanceCounter@4 1004a06c     kernel32:KERNEL32.dll
 0002:00000070       __imp__IsDebuggerPresent@0 1004a070     kernel32:KERNEL32.dll
 0002:00000074       __imp__IsProcessorFeaturePresent@4 1004a074     kernel32:KERNEL32.dll
 0002:00000078       __imp__TerminateProcess@8  1004a078     kernel32:KERNEL32.dll
 0002:0000007c       __imp__GetCurrentProcess@0 1004a07c     kernel32:KERNEL32.dll
 0002:00000080       __imp__SetUnhandledExceptionFilter@4 1004a080     kernel32:KERNEL32.dll
 0002:00000084       __imp__UnhandledExceptionFilter@4 1004a084     kernel32:KERNEL32.dll
 0002:00000088       __imp__DecodePointer@4     1004a088     kernel32:KERNEL32.dll
 0002:0000008c       \177KERNEL32_NULL_THUNK_DATA 1004a08c     kernel32:KERNEL32.dll
 0002:00000090       __imp_?_Capture@_ContextCallback@details@Concurrency@@AAEXXZ 1004a090     msvcprt:MSVCP140.dll
 0002:00000094       __imp_?ReportUnhandledError@_ExceptionHolder@details@Concurrency@@AAEXXZ 1004a094     msvcprt:MSVCP140.dll
 0002:00000098       __imp_?_Release_chore@details@Concurrency@@YAXPAU_Threadpool_chore@12@@Z 1004a098     msvcprt:MSVCP140.dll
 0002:0000009c       __imp_?_LogScheduleTask@_TaskEventLogger@details@Concurrency@@QAEX_N@Z 1004a09c     msvcprt:MSVCP140.dll
 0002:000000a0       __imp_?_LogCancelTask@_TaskEventLogger@details@Concurrency@@QAEXXZ 1004a0a0     msvcprt:MSVCP140.dll
 0002:000000a4       __imp_?_LogTaskCompleted@_TaskEventLogger@details@Concurrency@@QAEXXZ 1004a0a4     msvcprt:MSVCP140.dll
 0002:000000a8       __imp_?_LogTaskExecutionCompleted@_TaskEventLogger@details@Concurrency@@QAEXXZ 1004a0a8     msvcprt:MSVCP140.dll
 0002:000000ac       __imp_?_LogWorkItemStarted@_TaskEventLogger@details@Concurrency@@QAEXXZ 1004a0ac     msvcprt:MSVCP140.dll
 0002:000000b0       __imp_?_LogWorkItemCompleted@_TaskEventLogger@details@Concurrency@@QAEXXZ 1004a0b0     msvcprt:MSVCP140.dll
 0002:000000b4       __imp_?_IsNonBlockingThread@_Task_impl_base@details@Concurrency@@SA_NXZ 1004a0b4     msvcprt:MSVCP140.dll
 0002:000000b8       __imp_?_Schedule_chore@details@Concurrency@@YAHPAU_Threadpool_chore@12@@Z 1004a0b8     msvcprt:MSVCP140.dll
 0002:000000bc       __imp_?_ReportUnobservedException@details@Concurrency@@YAXXZ 1004a0bc     msvcprt:MSVCP140.dll
 0002:000000c0       __imp_?_IsCurrentOriginSTA@_ContextCallback@details@Concurrency@@CA_NXZ 1004a0c0     msvcprt:MSVCP140.dll
 0002:000000c4       __imp_?_Assign@_ContextCallback@details@Concurrency@@AAEXPAX@Z 1004a0c4     msvcprt:MSVCP140.dll
 0002:000000c8       __imp_?GetCurrentThreadId@platform@details@Concurrency@@YAJXZ 1004a0c8     msvcprt:MSVCP140.dll
 0002:000000cc       __imp_?_Reset@_ContextCallback@details@Concurrency@@AAEXXZ 1004a0cc     msvcprt:MSVCP140.dll
 0002:000000d0       __imp_?_CallInContext@_ContextCallback@details@Concurrency@@QBEXV?$function@$$A6AXXZ@std@@_N@Z 1004a0d0     msvcprt:MSVCP140.dll
 0002:000000d4       __imp_??0task_continuation_context@Concurrency@@AAE@XZ 1004a0d4     msvcprt:MSVCP140.dll
 0002:000000d8       __imp_?__ExceptionPtrCreate@@YAXPAX@Z 1004a0d8     msvcprt:MSVCP140.dll
 0002:000000dc       __imp___Cnd_init_in_situ   1004a0dc     msvcprt:MSVCP140.dll
 0002:000000e0       __imp_?__ExceptionPtrCopyException@@YAXPAXPBX1@Z 1004a0e0     msvcprt:MSVCP140.dll
 0002:000000e4       __imp_?__ExceptionPtrCopy@@YAXPAXPBX@Z 1004a0e4     msvcprt:MSVCP140.dll
 0002:000000e8       __imp_?_Xbad_alloc@std@@YAXXZ 1004a0e8     msvcprt:MSVCP140.dll
 0002:000000ec       __imp_?_Xbad_function_call@std@@YAXXZ 1004a0ec     msvcprt:MSVCP140.dll
 0002:000000f0       __imp_?_Raise_handler@std@@3P6AXABVexception@stdext@@@ZA 1004a0f0     msvcprt:MSVCP140.dll
 0002:000000f4       __imp_?_Throw_C_error@std@@YAXH@Z 1004a0f4     msvcprt:MSVCP140.dll
 0002:000000f8       __imp_?_Xlength_error@std@@YAXPBD@Z 1004a0f8     msvcprt:MSVCP140.dll
 0002:000000fc       __imp___Mtx_destroy_in_situ 1004a0fc     msvcprt:MSVCP140.dll
 0002:00000100       __imp_?__ExceptionPtrDestroy@@YAXPAX@Z 1004a100     msvcprt:MSVCP140.dll
 0002:00000104       __imp_?_Xout_of_range@std@@YAXPBD@Z 1004a104     msvcprt:MSVCP140.dll
 0002:00000108       __imp___Cnd_destroy_in_situ 1004a108     msvcprt:MSVCP140.dll
 0002:0000010c       __imp___Cnd_broadcast      1004a10c     msvcprt:MSVCP140.dll
 0002:00000110       __imp___Mtx_unlock         1004a110     msvcprt:MSVCP140.dll
 0002:00000114       __imp___Cnd_wait           1004a114     msvcprt:MSVCP140.dll
 0002:00000118       __imp___Mtx_init_in_situ   1004a118     msvcprt:MSVCP140.dll
 0002:0000011c       __imp_?__ExceptionPtrRethrow@@YAXPBX@Z 1004a11c     msvcprt:MSVCP140.dll
 0002:00000120       __imp_?__ExceptionPtrCurrentException@@YAXPAX@Z 1004a120     msvcprt:MSVCP140.dll
 0002:00000124       __imp___Mtx_lock           1004a124     msvcprt:MSVCP140.dll
 0002:00000128       \177MSVCP140_NULL_THUNK_DATA 1004a128     msvcprt:MSVCP140.dll
 0002:0000012c       __imp__memmove             1004a12c     vcruntime:VCRUNTIME140.dll
 0002:00000130       __imp____std_type_info_compare 1004a130     vcruntime:VCRUNTIME140.dll
 0002:00000134       __imp___purecall           1004a134     vcruntime:VCRUNTIME140.dll
 0002:00000138       __imp____std_terminate     1004a138     vcruntime:VCRUNTIME140.dll
 0002:0000013c       __imp__memset              1004a13c     vcruntime:VCRUNTIME140.dll
 0002:00000140       __imp____vcrt_InitializeCriticalSectionEx 1004a140     vcruntime:VCRUNTIME140.dll
 0002:00000144       __imp____std_exception_copy 1004a144     vcruntime:VCRUNTIME140.dll
 0002:00000148       __imp____std_exception_destroy 1004a148     vcruntime:VCRUNTIME140.dll
 0002:0000014c       __imp___CxxThrowException@8 1004a14c     vcruntime:VCRUNTIME140.dll
 0002:00000150       __imp___except_handler4_common 1004a150     vcruntime:VCRUNTIME140.dll
 0002:00000154       __imp____std_type_info_destroy_list 1004a154     vcruntime:VCRUNTIME140.dll
 0002:00000158       __imp____CxxFrameHandler3  1004a158     vcruntime:VCRUNTIME140.dll
 0002:0000015c       __imp__memcpy              1004a15c     vcruntime:VCRUNTIME140.dll
 0002:00000160       \177VCRUNTIME140_NULL_THUNK_DATA 1004a160     vcruntime:VCRUNTIME140.dll
 0002:00000164       __imp__WindowsDeleteString@4 1004a164     runtimeobject:api-ms-win-core-winrt-string-l1-1-0.dll
 0002:00000168       __imp__WindowsGetStringRawBuffer@8 1004a168     runtimeobject:api-ms-win-core-winrt-string-l1-1-0.dll
 0002:0000016c       __imp__WindowsCreateString@12 1004a16c     runtimeobject:api-ms-win-core-winrt-string-l1-1-0.dll
 0002:00000170       __imp__WindowsDuplicateString@8 1004a170     runtimeobject:api-ms-win-core-winrt-string-l1-1-0.dll
 0002:00000174       __imp__WindowsGetStringLen@4 1004a174     runtimeobject:api-ms-win-core-winrt-string-l1-1-0.dll
 0002:00000178       \177api-ms-win-core-winrt-string-l1-1-0_NULL_THUNK_DATA 1004a178     runtimeobject:api-ms-win-core-winrt-string-l1-1-0.dll
 0002:0000017c       __imp___callnewh           1004a17c     ucrt:api-ms-win-crt-heap-l1-1-0.dll
 0002:00000180       __imp__malloc              1004a180     ucrt:api-ms-win-crt-heap-l1-1-0.dll
 0002:00000184       __imp__free                1004a184     ucrt:api-ms-win-crt-heap-l1-1-0.dll
 0002:00000188       \177api-ms-win-crt-heap-l1-1-0_NULL_THUNK_DATA 1004a188     ucrt:api-ms-win-crt-heap-l1-1-0.dll
 0002:0000018c       __imp___except1            1004a18c     ucrt:api-ms-win-crt-math-l1-1-0.dll
 0002:00000190       \177api-ms-win-crt-math-l1-1-0_NULL_THUNK_DATA 1004a190     ucrt:api-ms-win-crt-math-l1-1-0.dll
 0002:00000194       __imp___cexit              1004a194     ucrt:api-ms-win-crt-runtime-l1-1-0.dll
 0002:00000198       __imp___crt_atexit         1004a198     ucrt:api-ms-win-crt-runtime-l1-1-0.dll
 0002:0000019c       __imp___execute_onexit_table 1004a19c     ucrt:api-ms-win-crt-runtime-l1-1-0.dll
 0002:000001a0       __imp___register_onexit_function 1004a1a0     ucrt:api-ms-win-crt-runtime-l1-1-0.dll
 0002:000001a4       __imp___initialize_onexit_table 1004a1a4     ucrt:api-ms-win-crt-runtime-l1-1-0.dll
 0002:000001a8       __imp___initialize_narrow_environment 1004a1a8     ucrt:api-ms-win-crt-runtime-l1-1-0.dll
 0002:000001ac       __imp___configure_narrow_argv 1004a1ac     ucrt:api-ms-win-crt-runtime-l1-1-0.dll
 0002:000001b0       __imp___seh_filter_dll     1004a1b0     ucrt:api-ms-win-crt-runtime-l1-1-0.dll
 0002:000001b4       __imp___invalid_parameter_noinfo_noreturn 1004a1b4     ucrt:api-ms-win-crt-runtime-l1-1-0.dll
 0002:000001b8       __imp___wassert            1004a1b8     ucrt:api-ms-win-crt-runtime-l1-1-0.dll
 0002:000001bc       __imp___invoke_watson      1004a1bc     ucrt:api-ms-win-crt-runtime-l1-1-0.dll
 0002:000001c0       __imp___initterm           1004a1c0     ucrt:api-ms-win-crt-runtime-l1-1-0.dll
 0002:000001c4       __imp___initterm_e         1004a1c4     ucrt:api-ms-win-crt-runtime-l1-1-0.dll
 0002:000001c8       \177api-ms-win-crt-runtime-l1-1-0_NULL_THUNK_DATA 1004a1c8     ucrt:api-ms-win-crt-runtime-l1-1-0.dll
 0002:000001cc       __imp__wcslen              1004a1cc     ucrt:api-ms-win-crt-string-l1-1-0.dll
 0002:000001d0       __imp___wcsnicmp           1004a1d0     ucrt:api-ms-win-crt-string-l1-1-0.dll
 0002:000001d4       \177api-ms-win-crt-string-l1-1-0_NULL_THUNK_DATA 1004a1d4     ucrt:api-ms-win-crt-string-l1-1-0.dll
 0002:000001d8       __imp_?GetCurrent@Isolate@v8@@SAPAV12@XZ 1004a1d8     iojs:node.dll
 0002:000001dc       __imp_?CreateHandle@HandleScope@v8@@KAPAPAVObject@internal@2@PAVIsolate@42@PAV342@@Z 1004a1dc     iojs:node.dll
 0002:000001e0       __imp_?CreateHandle@HandleScope@v8@@CAPAPAVObject@internal@2@PAVHeapObject@42@PAV342@@Z 1004a1e0     iojs:node.dll
 0002:000001e4       __imp_??1HandleScope@v8@@QAE@XZ 1004a1e4     iojs:node.dll
 0002:000001e8       __imp_??0HandleScope@v8@@QAE@PAVIsolate@1@@Z 1004a1e8     iojs:node.dll
 0002:000001ec       __imp_?Set@Template@v8@@QAEXV?$Local@VName@v8@@@2@V?$Local@VData@v8@@@2@W4PropertyAttribute@2@@Z 1004a1ec     iojs:node.dll
 0002:000001f0       __imp_?Error@Exception@v8@@SA?AV?$Local@VValue@v8@@@2@V?$Local@VString@v8@@@2@@Z 1004a1f0     iojs:node.dll
 0002:000001f4       __imp_?HasInstance@FunctionTemplate@v8@@QAE_NV?$Local@VValue@v8@@@2@@Z 1004a1f4     iojs:node.dll
 0002:000001f8       __imp_?SetClassName@FunctionTemplate@v8@@QAEXV?$Local@VString@v8@@@2@@Z 1004a1f8     iojs:node.dll
 0002:000001fc       __imp_?PrototypeTemplate@FunctionTemplate@v8@@QAE?AV?$Local@VObjectTemplate@v8@@@2@XZ 1004a1fc     iojs:node.dll
 0002:00000200       __imp_?InstanceTemplate@FunctionTemplate@v8@@QAE?AV?$Local@VObjectTemplate@v8@@@2@XZ 1004a200     iojs:node.dll
 0002:00000204       __imp_?GetFunction@FunctionTemplate@v8@@QAE?AV?$MaybeLocal@VFunction@v8@@@2@V?$Local@VContext@v8@@@2@@Z 1004a204     iojs:node.dll
 0002:00000208       __imp_?New@FunctionTemplate@v8@@SA?AV?$Local@VFunctionTemplate@v8@@@2@PAVIsolate@2@P6AXABV?$FunctionCallbackInfo@VValue@v8@@@2@@ZV?$Local@VValue@v8@@@2@V?$Local@VSignature@v8@@@2@HW4ConstructorBehavior@2@@Z 1004a208     iojs:node.dll
 0002:0000020c       __imp_?ToLocalEmpty@V8@v8@@CAXXZ 1004a20c     iojs:node.dll
 0002:00000210       __imp_?ClearWeak@V8@v8@@CAPAXPAPAVObject@internal@2@@Z 1004a210     iojs:node.dll
 0002:00000214       __imp_?MakeWeak@V8@v8@@CAXPAPAVObject@internal@2@PAXP6AXABV?$WeakCallbackInfo@X@2@@ZW4WeakCallbackType@2@@Z 1004a214     iojs:node.dll
 0002:00000218       __imp_?DisposeGlobal@V8@v8@@CAXPAPAVObject@internal@2@@Z 1004a218     iojs:node.dll
 0002:0000021c       __imp_?GlobalizeReference@V8@v8@@CAPAPAVObject@internal@2@PAVIsolate@42@PAPAV342@@Z 1004a21c     iojs:node.dll
 0002:00000220       __imp_?Equals@Value@v8@@QBE_NV?$Local@VValue@v8@@@2@@Z 1004a220     iojs:node.dll
 0002:00000224       __imp_?Equals@Value@v8@@QBE?AV?$Maybe@_N@2@V?$Local@VContext@v8@@@2@V?$Local@VValue@v8@@@2@@Z 1004a224     iojs:node.dll
 0002:00000228       __imp_?Int32Value@Value@v8@@QBE?AV?$Maybe@H@2@V?$Local@VContext@v8@@@2@@Z 1004a228     iojs:node.dll
 0002:0000022c       __imp_?Uint32Value@Value@v8@@QBE?AV?$Maybe@I@2@V?$Local@VContext@v8@@@2@@Z 1004a22c     iojs:node.dll
 0002:00000230       __imp_?Uint32Value@Value@v8@@QBEIXZ 1004a230     iojs:node.dll
 0002:00000234       __imp_?IntegerValue@Value@v8@@QBE?AV?$Maybe@_J@2@V?$Local@VContext@v8@@@2@@Z 1004a234     iojs:node.dll
 0002:00000238       __imp_?BooleanValue@Value@v8@@QBE?AV?$Maybe@_N@2@V?$Local@VContext@v8@@@2@@Z 1004a238     iojs:node.dll
 0002:0000023c       __imp_?ToInteger@Value@v8@@QBE?AV?$MaybeLocal@VInteger@v8@@@2@V?$Local@VContext@v8@@@2@@Z 1004a23c     iojs:node.dll
 0002:00000240       __imp_?ToObject@Value@v8@@QBE?AV?$MaybeLocal@VObject@v8@@@2@V?$Local@VContext@v8@@@2@@Z 1004a240     iojs:node.dll
 0002:00000244       __imp_?GetCurrentContext@Isolate@v8@@QAE?AV?$Local@VContext@v8@@@2@XZ 1004a244     iojs:node.dll
 0002:00000248       __imp_?NewFromUnsigned@Integer@v8@@SA?AV?$Local@VInteger@v8@@@2@PAVIsolate@2@I@Z 1004a248     iojs:node.dll
 0002:0000024c       __imp_?New@External@v8@@SA?AV?$Local@VExternal@v8@@@2@PAVIsolate@2@PAX@Z 1004a24c     iojs:node.dll
 0002:00000250       __imp_?Value@External@v8@@QBEPAXXZ 1004a250     iojs:node.dll
 0002:00000254       __imp_?Global@Context@v8@@QAE?AV?$Local@VObject@v8@@@2@XZ 1004a254     iojs:node.dll
 0002:00000258       __imp_?ThrowException@Isolate@v8@@QAE?AV?$Local@VValue@v8@@@2@V32@@Z 1004a258     iojs:node.dll
 0002:0000025c       __imp__uv_default_loop     1004a25c     iojs:node.dll
 0002:00000260       __imp__uv_async_init       1004a260     iojs:node.dll
 0002:00000264       __imp__uv_async_send       1004a264     iojs:node.dll
 0002:00000268       __imp_?MakeCallback@node@@YA?AV?$Local@VValue@v8@@@v8@@PAVIsolate@3@V?$Local@VObject@v8@@@3@V?$Local@VString@v8@@@3@HPAV23@@Z 1004a268     iojs:node.dll
 0002:0000026c       __imp__node_module_register 1004a26c     iojs:node.dll
 0002:00000270       __imp__uv_close            1004a270     iojs:node.dll
 0002:00000274       __imp_?New@ObjectTemplate@v8@@SA?AV?$Local@VObjectTemplate@v8@@@2@PAVIsolate@2@V?$Local@VFunctionTemplate@v8@@@2@@Z 1004a274     iojs:node.dll
 0002:00000278       __imp_?NewInstance@ObjectTemplate@v8@@QAE?AV?$MaybeLocal@VObject@v8@@@2@V?$Local@VContext@v8@@@2@@Z 1004a278     iojs:node.dll
 0002:0000027c       __imp_?SetAccessor@ObjectTemplate@v8@@QAEXV?$Local@VName@v8@@@2@P6AX0ABV?$PropertyCallbackInfo@VValue@v8@@@2@@ZP6AX0V?$Local@VValue@v8@@@2@ABV?$PropertyCallbackInfo@X@2@@Z3W4AccessControl@2@W4PropertyAttribute@2@V?$Local@VAccessorSignature@v8@@@2@@Z 1004a27c     iojs:node.dll
 0002:00000280       __imp_?SetHandler@ObjectTemplate@v8@@QAEXABUIndexedPropertyHandlerConfiguration@2@@Z 1004a280     iojs:node.dll
 0002:00000284       __imp_?SetInternalFieldCount@ObjectTemplate@v8@@QAEXH@Z 1004a284     iojs:node.dll
 0002:00000288       __imp_?NewInstance@Function@v8@@QBE?AV?$MaybeLocal@VObject@v8@@@2@V?$Local@VContext@v8@@@2@HQAV?$Local@VValue@v8@@@2@@Z 1004a288     iojs:node.dll
 0002:0000028c       __imp_?Set@Object@v8@@QAE?AV?$Maybe@_N@2@V?$Local@VContext@v8@@@2@V?$Local@VValue@v8@@@2@1@Z 1004a28c     iojs:node.dll
 0002:00000290       __imp_?Set@Object@v8@@QAE_NV?$Local@VValue@v8@@@2@0@Z 1004a290     iojs:node.dll
 0002:00000294       __imp_?Get@Object@v8@@QAE?AV?$MaybeLocal@VValue@v8@@@2@V?$Local@VContext@v8@@@2@V?$Local@VValue@v8@@@2@@Z 1004a294     iojs:node.dll
 0002:00000298       __imp_?Get@Object@v8@@QAE?AV?$Local@VValue@v8@@@2@V32@@Z 1004a298     iojs:node.dll
 0002:0000029c       __imp_?Delete@Object@v8@@QAE?AV?$Maybe@_N@2@V?$Local@VContext@v8@@@2@V?$Local@VValue@v8@@@2@@Z 1004a29c     iojs:node.dll
 0002:000002a0       __imp_?SetAccessor@Object@v8@@QAE?AV?$Maybe@_N@2@V?$Local@VContext@v8@@@2@V?$Local@VName@v8@@@2@P6AX1ABV?$PropertyCallbackInfo@VValue@v8@@@2@@ZP6AX1V?$Local@VValue@v8@@@2@ABV?$PropertyCallbackInfo@X@2@@ZV?$MaybeLocal@VValue@v8@@@2@W4AccessControl@2@W4PropertyAttribute@2@@Z 1004a2a0     iojs:node.dll
 0002:000002a4       __imp_?SetPrototype@Object@v8@@QAE?AV?$Maybe@_N@2@V?$Local@VContext@v8@@@2@V?$Local@VValue@v8@@@2@@Z 1004a2a4     iojs:node.dll
 0002:000002a8       __imp_?InternalFieldCount@Object@v8@@QAEHXZ 1004a2a8     iojs:node.dll
 0002:000002ac       __imp_?SetInternalField@Object@v8@@QAEXHV?$Local@VValue@v8@@@2@@Z 1004a2ac     iojs:node.dll
 0002:000002b0       __imp_?SetAlignedPointerInInternalField@Object@v8@@QAEXHPAX@Z 1004a2b0     iojs:node.dll
 0002:000002b4       __imp_?New@Object@v8@@SA?AV?$Local@VObject@v8@@@2@PAVIsolate@2@@Z 1004a2b4     iojs:node.dll
 0002:000002b8       __imp_?SlowGetInternalField@Object@v8@@AAE?AV?$Local@VValue@v8@@@2@H@Z 1004a2b8     iojs:node.dll
 0002:000002bc       __imp_?SlowGetAlignedPointerFromInternalField@Object@v8@@AAEPAXH@Z 1004a2bc     iojs:node.dll
 0002:000002c0       __imp_?New@Number@v8@@SA?AV?$Local@VNumber@v8@@@2@PAVIsolate@2@N@Z 1004a2c0     iojs:node.dll
 0002:000002c4       __imp_?NewFromUtf8@String@v8@@SA?AV?$MaybeLocal@VString@v8@@@2@PAVIsolate@2@PBDW4NewStringType@2@H@Z 1004a2c4     iojs:node.dll
 0002:000002c8       __imp_?Concat@String@v8@@SA?AV?$Local@VString@v8@@@2@V32@0@Z 1004a2c8     iojs:node.dll
 0002:000002cc       __imp_??0Value@String@v8@@QAE@V?$Local@VValue@v8@@@2@@Z 1004a2cc     iojs:node.dll
 0002:000002d0       __imp_??1Value@String@v8@@QAE@XZ 1004a2d0     iojs:node.dll
 0002:000002d4       __imp_??0EscapableHandleScope@v8@@QAE@PAVIsolate@1@@Z 1004a2d4     iojs:node.dll
 0002:000002d8       __imp_?Escape@EscapableHandleScope@v8@@AAEPAPAVObject@internal@2@PAPAV342@@Z 1004a2d8     iojs:node.dll
 0002:000002dc       __imp_??0TryCatch@v8@@QAE@PAVIsolate@1@@Z 1004a2dc     iojs:node.dll
 0002:000002e0       __imp_??1TryCatch@v8@@QAE@XZ 1004a2e0     iojs:node.dll
 0002:000002e4       __imp_?HasCaught@TryCatch@v8@@QBE_NXZ 1004a2e4     iojs:node.dll
 0002:000002e8       __imp_?Exception@TryCatch@v8@@QBE?AV?$Local@VValue@v8@@@2@XZ 1004a2e8     iojs:node.dll
 0002:000002ec       __imp_?IsFunction@Value@v8@@QBE_NXZ 1004a2ec     iojs:node.dll
 0002:000002f0       __imp_?IsObject@Value@v8@@QBE_NXZ 1004a2f0     iojs:node.dll
 0002:000002f4       __imp_?IsBoolean@Value@v8@@QBE_NXZ 1004a2f4     iojs:node.dll
 0002:000002f8       __imp_?IsNumber@Value@v8@@QBE_NXZ 1004a2f8     iojs:node.dll
 0002:000002fc       __imp_?ForceSet@Object@v8@@QAE?AV?$Maybe@_N@2@V?$Local@VContext@v8@@@2@V?$Local@VValue@v8@@@2@1W4PropertyAttribute@2@@Z 1004a2fc     iojs:node.dll
 0002:00000300       __imp_?Has@Object@v8@@QAE?AV?$Maybe@_N@2@V?$Local@VContext@v8@@@2@V?$Local@VValue@v8@@@2@@Z 1004a300     iojs:node.dll
 0002:00000304       __imp_?New@Signature@v8@@SA?AV?$Local@VSignature@v8@@@2@PAVIsolate@2@V?$Local@VFunctionTemplate@v8@@@2@@Z 1004a304     iojs:node.dll
 0002:00000308       __imp_?New@Integer@v8@@SA?AV?$Local@VInteger@v8@@@2@PAVIsolate@2@H@Z 1004a308     iojs:node.dll
 0002:0000030c       __imp_?IsInt32@Value@v8@@QBE_NXZ 1004a30c     iojs:node.dll
 0002:00000310       __imp_?IsUint32@Value@v8@@QBE_NXZ 1004a310     iojs:node.dll
 0002:00000314       __imp_?NewFromTwoByte@String@v8@@SA?AV?$MaybeLocal@VString@v8@@@2@PAVIsolate@2@PBGW4NewStringType@2@H@Z 1004a314     iojs:node.dll
 0002:00000318       __imp_?IsTrue@Value@v8@@QBE_NXZ 1004a318     iojs:node.dll
 0002:0000031c       __imp_??1EscapableHandleScope@v8@@QAE@XZ 1004a31c     iojs:node.dll
 0002:00000320       __imp_?ToString@Value@v8@@QBE?AV?$MaybeLocal@VString@v8@@@2@V?$Local@VContext@v8@@@2@@Z 1004a320     iojs:node.dll
 0002:00000324       \177node_NULL_THUNK_DATA   1004a324     iojs:node.dll
 0002:00000328       __imp__CoInitializeSecurity@36 1004a328     ole32:ole32.dll
 0002:0000032c       __imp__StringFromCLSID@8   1004a32c     ole32:ole32.dll
 0002:00000330       __imp__CoTaskMemFree@4     1004a330     ole32:ole32.dll
 0002:00000334       __imp__CLSIDFromString@8   1004a334     ole32:ole32.dll
 0002:00000338       __imp__CoCreateFreeThreadedMarshaler@8 1004a338     ole32:ole32.dll
 0002:0000033c       __imp__CoInitializeEx@8    1004a33c     ole32:ole32.dll
 0002:00000340       \177ole32_NULL_THUNK_DATA  1004a340     ole32:ole32.dll
 0002:00000344       __imp_?__abi_WinRTraiseObjectDisposedException@@YGXXZ 1004a344     vccorlib:vccorlib140.DLL
 0002:00000348       __imp_?__abi_WinRTraiseInvalidCastException@@YGXXZ 1004a348     vccorlib:vccorlib140.DLL
 0002:0000034c       __imp_?__abi_WinRTraiseNotImplementedException@@YGXXZ 1004a34c     vccorlib:vccorlib140.DLL
 0002:00000350       __imp_?__abi_make_type_id@@YGP$AAVType@Platform@@ABU__abi_type_descriptor@@@Z 1004a350     vccorlib:vccorlib140.DLL
 0002:00000354       __imp_??0Delegate@Platform@@Q$AAA@XZ 1004a354     vccorlib:vccorlib140.DLL
 0002:00000358       __imp_??0Object@Platform@@Q$AAA@XZ 1004a358     vccorlib:vccorlib140.DLL
 0002:0000035c       __imp_??0NullReferenceException@Platform@@Q$AAA@XZ 1004a35c     vccorlib:vccorlib140.DLL
 0002:00000360       __imp_?Allocate@Heap@Details@Platform@@SAPAXII@Z 1004a360     vccorlib:vccorlib140.DLL
 0002:00000364       __imp_?Free@Heap@Details@Platform@@SAXPAX@Z 1004a364     vccorlib:vccorlib140.DLL
 0002:00000368       __imp_?AlignedFree@Heap@Details@Platform@@SAXPAX@Z 1004a368     vccorlib:vccorlib140.DLL
 0002:0000036c       __imp_?ReleaseTarget@ControlBlock@Details@Platform@@AAEXXZ 1004a36c     vccorlib:vccorlib140.DLL
 0002:00000370       __imp_?GetIBoxVtable@Details@Platform@@YGPAXPAX@Z 1004a370     vccorlib:vccorlib140.DLL
 0002:00000374       __imp_?get@Message@Exception@Platform@@Q$AAAP$AAVString@3@XZ 1004a374     vccorlib:vccorlib140.DLL
 0002:00000378       __imp_?ReCreateException@Exception@Platform@@SAP$AAV12@H@Z 1004a378     vccorlib:vccorlib140.DLL
 0002:0000037c       __imp_?GetTypeCode@Type@Platform@@SA?AW4TypeCode@2@P$AAV12@@Z 1004a37c     vccorlib:vccorlib140.DLL
 0002:00000380       __imp_?__abi_WinRTraiseDisconnectedException@@YGXXZ 1004a380     vccorlib:vccorlib140.DLL
 0002:00000384       __imp_?__abi_WinRTraiseFailureException@@YGXXZ 1004a384     vccorlib:vccorlib140.DLL
 0002:00000388       __imp_?__abi_WinRTraiseOperationCanceledException@@YGXXZ 1004a388     vccorlib:vccorlib140.DLL
 0002:0000038c       __imp_?__abi_WinRTraiseAccessDeniedException@@YGXXZ 1004a38c     vccorlib:vccorlib140.DLL
 0002:00000390       __imp_?__abi_ObjectToString@__abi_details@@YGP$AAVString@Platform@@P$AAVObject@3@_N@Z 1004a390     vccorlib:vccorlib140.DLL
 0002:00000394       __imp_?__abi_WinRTraiseInvalidArgumentException@@YGXXZ 1004a394     vccorlib:vccorlib140.DLL
 0002:00000398       __imp_?__abi_WinRTraiseClassNotRegisteredException@@YGXXZ 1004a398     vccorlib:vccorlib140.DLL
 0002:0000039c       __imp_?InitializeData@Details@Platform@@YAJH@Z 1004a39c     vccorlib:vccorlib140.DLL
 0002:000003a0       __imp_?__abi_WinRTraiseCOMException@@YGXJ@Z 1004a3a0     vccorlib:vccorlib140.DLL
 0002:000003a4       __imp_?__abi_translateCurrentException@@YGJ_N@Z 1004a3a4     vccorlib:vccorlib140.DLL
 0002:000003a8       __imp_?__abi_WinRTraiseNullReferenceException@@YGXXZ 1004a3a8     vccorlib:vccorlib140.DLL
 0002:000003ac       __imp_?__abi_WinRTraiseChangedStateException@@YGXXZ 1004a3ac     vccorlib:vccorlib140.DLL
 0002:000003b0       __imp_?__abi_WinRTraiseOutOfBoundsException@@YGXXZ 1004a3b0     vccorlib:vccorlib140.DLL
 0002:000003b4       __imp_?__abi_WinRTraiseWrongThreadException@@YGXXZ 1004a3b4     vccorlib:vccorlib140.DLL
 0002:000003b8       __imp_?__abi_WinRTraiseOutOfMemoryException@@YGXXZ 1004a3b8     vccorlib:vccorlib140.DLL
