 binding

 Timestamp is 5ab50bef (Fri Mar 23 15:15:11 2018)

 Preferred load address is 0000000180000000

 Start         Length     Name                   Class
 0001:00000000 000000b0H .text$di                CODE
 0001:000000b0 00016e10H .text$mn                CODE
 0001:00016ec0 00000020H .text$mn$00             CODE
 0001:00016ee0 00001e70H .text$x                 CODE
 0001:00018d50 0000014aH .text$yd                CODE
 0002:00000000 000006f0H .idata$5                DATA
 0002:000006f0 00000010H .00cfg                  DATA
 0002:00000700 00000008H .CRT$XCA                DATA
 0002:00000708 00000008H .CRT$XCL                DATA
 0002:00000710 00000030H .CRT$XCU                DATA
 0002:00000740 00000008H .CRT$XCZ                DATA
 0002:00000748 00000008H .CRT$XIA                DATA
 0002:00000750 00000008H .CRT$XIC                DATA
 0002:00000758 00000008H .CRT$XIYB               DATA
 0002:00000760 00000008H .CRT$XIZ                DATA
 0002:00000768 00000008H .CRT$XLA                DATA
 0002:00000770 00000008H .CRT$XLZ                DATA
 0002:00000778 00000008H .CRT$XPA                DATA
 0002:00000780 00000008H .CRT$XPZ                DATA
 0002:00000788 00000008H .CRT$XTA                DATA
 0002:00000790 00000010H .CRT$XTZ                DATA
 0002:000007a0 00003c98H .rdata                  DATA
 0002:00004438 00000028H .rdata$T                DATA
 0002:00004460 0000045cH .rdata$r                DATA
 0002:000048bc 0000045cH .rdata$zzzdbg           DATA
 0002:00004d18 00000008H .rtc$IAA                DATA
 0002:00004d20 00000008H .rtc$IZZ                DATA
 0002:00004d28 00000008H .rtc$TAA                DATA
 0002:00004d30 00000010H .rtc$TZZ                DATA
 0002:00004d40 00006430H .xdata                  DATA
 0002:0000b170 000003a0H .xdata$x                DATA
 0002:0000b510 00000054H .edata                  DATA
 0002:0000b564 000000c8H .idata$2                DATA
 0002:0000b62c 00000014H .idata$3                DATA
 0002:0000b640 000006f0H .idata$4                DATA
 0002:0000bd30 00002862H .idata$6                DATA
 0003:00000000 00000f50H .data                   DATA
 0003:00000f50 00000bd0H .data$r                 DATA
 0003:00001b20 00000710H .bss                    DATA
 0004:00000000 00001c80H .pdata                  DATA
 0005:00000000 00000008H minATL$__a              DATA
 0005:00000008 00000008H minATL$__m              DATA
 0005:00000010 00000008H minATL$__z              DATA
 0006:00000000 000000acH .gfids$y                DATA
 0007:00000000 00000004H .tls                    DATA
 0007:00000004 00000004H .tls$                   DATA
 0007:00000008 00000001H .tls$ZZZ                DATA
 0008:00000000 00000060H .rsrc$01                DATA
 0008:00000060 00000180H .rsrc$02                DATA

  Address         Publics by Value              Rva+Base               Lib:Object

 0000:00000000       __guard_iat_table          0000000000000000     <absolute>
 0000:00000000       __guard_iat_count          0000000000000000     <absolute>
 0000:00000000       __guard_longjmp_table      0000000000000000     <absolute>
 0000:00000000       __guard_longjmp_count      0000000000000000     <absolute>
 0000:00000000       __dynamic_value_reloc_table 0000000000000000     <absolute>
 0000:00000000       __guard_fids_count         0000000000000000     <absolute>
 0000:00000000       ___safe_se_handler_table   0000000000000000     <absolute>
 0000:00000000       ___safe_se_handler_count   0000000000000000     <absolute>
 0000:00000000       __guard_fids_table         0000000000000000     <absolute>
 0000:00000100       __guard_flags              0000000000000100     <absolute>
 0000:00000000       __ImageBase                0000000180000000     <linker-defined>
 0001:000000b0       ??$__abi_winrt_ptrto_delegate_dtor@V?$TypedEventHandler@PE$AAVRadio@Radios@Devices@Windows@@PE$AAVObject@Platform@@@Foundation@Windows@@@@YAXPE$ADV?$TypedEventHandler@PE$AAVRadio@Radios@Devices@Windows@@PE$AAVObject@Platform@@@Foundation@Windows@@@Z 00000001800010b0 f i _nodert_generated.obj
 0001:000000b0       ??$__abi_winrt_ptrto_delegate_dtor@V?$AsyncOperationCompletedHandler@PE$AAVRadio@Radios@Devices@Windows@@@Foundation@Windows@@@@YAXPE$ADV?$AsyncOperationCompletedHandler@PE$AAVRadio@Radios@Devices@Windows@@@Foundation@Windows@@@Z 00000001800010b0 f i _nodert_generated.obj
 0001:000000b0       ??$__abi_winrt_ptrto_delegate_dtor@V?$AsyncOperationCompletedHandler@W4RadioAccessStatus@Radios@Devices@Windows@@@Foundation@Windows@@@@YAXPE$ADV?$AsyncOperationCompletedHandler@W4RadioAccessStatus@Radios@Devices@Windows@@@Foundation@Windows@@@Z 00000001800010b0 f i _nodert_generated.obj
 0001:000000b0       ?__abi_winrt_ptr_dtor@@YAXQE$ADVObject@Platform@@@Z 00000001800010b0 f i _nodert_generated.obj
 0001:000000b0       ??$__abi_winrt_ptrto_delegate_dtor@V?$AsyncOperationCompletedHandler@PE$AAU?$IVectorView@PE$AAVRadio@Radios@Devices@Windows@@@Collections@Foundation@Windows@@@Foundation@Windows@@@@YAXPE$ADV?$AsyncOperationCompletedHandler@PE$AAU?$IVectorView@PE$AAVRadio@Radios@Devices@Windows@@@Collections@Foundation@Windows@@@Foundation@Windows@@@Z 00000001800010b0 f i _nodert_generated.obj
 0001:000000c0       ?__abi_winrt_ptrto_string_dtor@@YAXQE$ADVString@Platform@@@Z 00000001800010c0 f i _nodert_generated.obj
 0001:000000d0       ?__abi_dtor@__abi_FTMWeakRefData@@QEAAXXZ 00000001800010d0 f i _nodert_generated.obj
 0001:00000170       ?Decrement@__abi_FTMWeakRefData@@QECAKXZ 0000000180001170 f i _nodert_generated.obj
 0001:00000200       ??_G__abi_CaptureBase@Details@Platform@@MEAAPEAXI@Z 0000000180001200 f i _nodert_generated.obj
 0001:00000200       ??_E__abi_CaptureBase@Details@Platform@@MEAAPEAXI@Z 0000000180001200 f i * CIL library *:* CIL module *
 0001:00000230       ??1__abi_CapturePtr@Details@Platform@@QEAA@XZ 0000000180001230 f i _nodert_generated.obj
 0001:00000280       ?__abi_WinRTraiseException@@YAXJ@Z 0000000180001280 f i _nodert_generated.obj
 0001:00000370       ?__abi_winrt_ptrto_string_ctor@@YAPEAXPE$ADVString@Platform@@@Z 0000000180001370 f i _nodert_generated.obj
 0001:000003a0       ?_Doraise@exception@stdext@@MEBAXXZ 00000001800013a0 f i _nodert_generated.obj
 0001:000003a0       ??3@YAXPEAX0@Z             00000001800013a0 f i _nodert_generated.obj
 0001:000003a0       _guard_check_icall_nop     00000001800013a0 f i MSVCRT:guard_support.obj
 0001:000003a0       ?PlacementFree@Heap@Details@Platform@@SAXPEAX0@Z 00000001800013a0 f i _nodert_generated.obj
 0001:000003b0       ?__abi_QueryInterface@__abi_FTMWeakRefData@@QEAAJAEAVGuid@Platform@@PEAPEAX@Z 00000001800013b0 f i _nodert_generated.obj
 0001:00000480       ??0String@Platform@@QE$AAA@PEB_W@Z 0000000180001480 f i _nodert_generated.obj
 0001:000004e0       ?what@exception@stdext@@UEBAPEBDXZ 00000001800014e0 f i _nodert_generated.obj
 0001:00000500       ?_Raise@exception@stdext@@QEBAXXZ 0000000180001500 f i _nodert_generated.obj
 0001:00000540       ??_Eruntime_error@std@@UEAAPEAXI@Z 0000000180001540 f i * CIL library *:* CIL module *
 0001:00000540       ??_Gruntime_error@std@@UEAAPEAXI@Z 0000000180001540 f i _nodert_generated.obj
 0001:00000540       ??_Gexception@stdext@@UEAAPEAXI@Z 0000000180001540 f i _nodert_generated.obj
 0001:00000540       ??_Etask_canceled@Concurrency@@UEAAPEAXI@Z 0000000180001540 f i * CIL library *:* CIL module *
 0001:00000540       ??_Ginvalid_operation@Concurrency@@UEAAPEAXI@Z 0000000180001540 f i _nodert_generated.obj
 0001:00000540       ??_Einvalid_operation@Concurrency@@UEAAPEAXI@Z 0000000180001540 f i * CIL library *:* CIL module *
 0001:00000540       ??_Eexception@stdext@@UEAAPEAXI@Z 0000000180001540 f i * CIL library *:* CIL module *
 0001:00000540       ??_Gtask_canceled@Concurrency@@UEAAPEAXI@Z 0000000180001540 f i _nodert_generated.obj
 0001:00000570       ??1exception_ptr@std@@QEAA@XZ 0000000180001570 f i _nodert_generated.obj
 0001:00000580       ?_Current_exception@exception_ptr@std@@SA?AV12@XZ 0000000180001580 f i _nodert_generated.obj
 0001:000005b0       ?_Copy_exception@exception_ptr@std@@SA?AV12@PEAXPEBX@Z 00000001800015b0 f i _nodert_generated.obj
 0001:00000620       ?current_exception@std@@YA?AVexception_ptr@1@XZ 0000000180001620 f i _nodert_generated.obj
 0001:00000640       ??1_Ref_count_base@std@@UEAA@XZ 0000000180001640 f i _nodert_generated.obj
 0001:00000650       __scrt_stub_for_is_c_termination_complete 0000000180001650 f i MSVCRT:ucrt_stubs.obj
 0001:00000650       ?_Get_deleter@_Ref_count_base@std@@UEBAPEAXAEBVtype_info@@@Z 0000000180001650 f i _nodert_generated.obj
 0001:00000650       _is_c_termination_complete 0000000180001650 f i MSVCRT:ucrt_stubs.obj
 0001:00000660       ??_E_Ref_count_base@std@@UEAAPEAXI@Z 0000000180001660 f i * CIL library *:* CIL module *
 0001:00000660       ??_G_Ref_count_base@std@@UEAAPEAXI@Z 0000000180001660 f i _nodert_generated.obj
 0001:00000690       ?_Doraise@runtime_error@std@@MEBAXXZ 0000000180001690 f i _nodert_generated.obj
 0001:000006b0       ??1task_canceled@Concurrency@@UEAA@XZ 00000001800016b0 f i _nodert_generated.obj
 0001:000006b0       ??1invalid_operation@Concurrency@@UEAA@XZ 00000001800016b0 f i _nodert_generated.obj
 0001:000006b0       ??1runtime_error@std@@UEAA@XZ 00000001800016b0 f i _nodert_generated.obj
 0001:00000930       ?Equals@Nan@@YA?AV?$Maybe@_N@v8@@V?$Local@VValue@v8@@@3@0@Z 0000000180001930 f i _nodert_generated.obj
 0001:000009b0       ?NewInstance@Nan@@YA?AV?$MaybeLocal@VObject@v8@@@v8@@V?$Local@VFunction@v8@@@3@HQEAV?$Local@VValue@v8@@@3@@Z 00000001800019b0 f i _nodert_generated.obj
 0001:00000a60       ?NewInstance@Nan@@YA?AV?$MaybeLocal@VObject@v8@@@v8@@V?$Local@VObjectTemplate@v8@@@3@@Z 0000000180001a60 f i _nodert_generated.obj
 0001:00000ae0       ?GetFunction@Nan@@YA?AV?$MaybeLocal@VFunction@v8@@@v8@@V?$Local@VFunctionTemplate@v8@@@3@@Z 0000000180001ae0 f i _nodert_generated.obj
 0001:00000b60       ?Set@Nan@@YA?AV?$Maybe@_N@v8@@V?$Local@VObject@v8@@@3@V?$Local@VValue@v8@@@3@1@Z 0000000180001b60 f i _nodert_generated.obj
 0001:00000bf0       ?Get@Nan@@YA?AV?$MaybeLocal@VValue@v8@@@v8@@V?$Local@VObject@v8@@@3@V?$Local@VValue@v8@@@3@@Z 0000000180001bf0 f i _nodert_generated.obj
 0001:00000c80       ?Delete@Nan@@YA?AV?$Maybe@_N@v8@@V?$Local@VObject@v8@@@3@V?$Local@VString@v8@@@3@@Z 0000000180001c80 f i _nodert_generated.obj
 0001:00000d00       ?SetPrototype@Nan@@YA?AV?$Maybe@_N@v8@@V?$Local@VObject@v8@@@3@V?$Local@VValue@v8@@@3@@Z 0000000180001d00 f i _nodert_generated.obj
 0001:00000d80       ?convert@?$ToFactory@VString@v8@@@imp@Nan@@SA?AV?$MaybeLocal@VString@v8@@@v8@@V?$Local@VValue@v8@@@5@@Z 0000000180001d80 f i _nodert_generated.obj
 0001:00000e10       ?convert@?$ToFactory@VObject@v8@@@imp@Nan@@SA?AV?$MaybeLocal@VObject@v8@@@v8@@V?$Local@VValue@v8@@@5@@Z 0000000180001e10 f i _nodert_generated.obj
 0001:00000ea0       ?convert@?$ToFactory@VInteger@v8@@@imp@Nan@@SA?AV?$MaybeLocal@VInteger@v8@@@v8@@V?$Local@VValue@v8@@@5@@Z 0000000180001ea0 f i _nodert_generated.obj
 0001:00000f30       ?convert@?$ToFactory@H@imp@Nan@@SA?AV?$Maybe@H@v8@@V?$Local@VValue@v8@@@5@@Z 0000000180001f30 f i _nodert_generated.obj
 0001:00000fb0       ?New@?$Factory@VFunctionTemplate@v8@@@imp@Nan@@SA?AV?$Local@VFunctionTemplate@v8@@@v8@@P6AXAEBV?$FunctionCallbackInfo@VValue@v8@@@3@@ZV?$Local@VValue@v8@@@5@V?$Local@VSignature@v8@@@5@@Z 0000000180001fb0 f i _nodert_generated.obj
 0001:00001130       ??1EscapableHandleScope@Nan@@QEAA@XZ 0000000180002130 f i _nodert_generated.obj
 0001:00001130       ??1HandleScope@Nan@@QEAA@XZ 0000000180002130 f i _nodert_generated.obj
 0001:00001140       ?ThrowError@Nan@@YAXV?$Local@VValue@v8@@@v8@@@Z 0000000180002140 f i _nodert_generated.obj
 0001:00001170       ?SetPrototypeMethod@Nan@@YAXV?$Local@VFunctionTemplate@v8@@@v8@@PEBDP6AXAEBV?$FunctionCallbackInfo@VValue@v8@@@1@@Z@Z 0000000180002170 f i _nodert_generated.obj
 0001:00001280       ?SetAccessor@Nan@@YAXV?$Local@VObjectTemplate@v8@@@v8@@V?$Local@VString@v8@@@3@P6AX1AEBV?$PropertyCallbackInfo@VValue@v8@@@1@@ZP6AX1V?$Local@VValue@v8@@@3@AEBV?$PropertyCallbackInfo@X@1@@Z4W4AccessControl@3@W4PropertyAttribute@3@V?$Local@VAccessorSignature@v8@@@3@@Z 0000000180002280 f i _nodert_generated.obj
 0001:000013b0       ?SetIndexedPropertyHandler@Nan@@YAXV?$Local@VObjectTemplate@v8@@@v8@@P6AXIAEBV?$PropertyCallbackInfo@VValue@v8@@@1@@ZP6AXIV?$Local@VValue@v8@@@3@1@ZP6AXIAEBV?$PropertyCallbackInfo@VInteger@v8@@@1@@ZP6AXIAEBV?$PropertyCallbackInfo@VBoolean@v8@@@1@@ZP6AXAEBV?$PropertyCallbackInfo@VArray@v8@@@1@@Z3@Z 00000001800023b0 f i _nodert_generated.obj
 0001:000014f0       ??1ObjectWrap@Nan@@UEAA@XZ 00000001800024f0 f i _nodert_generated.obj
 0001:00001570       ?Wrap@ObjectWrap@Nan@@IEAAXV?$Local@VObject@v8@@@v8@@@Z 0000000180002570 f i _nodert_generated.obj
 0001:00001650       ?Ref@ObjectWrap@Nan@@MEAAXXZ 0000000180002650 f i _nodert_generated.obj
 0001:00001690       ?Unref@ObjectWrap@Nan@@MEAAXXZ 0000000180002690 f i _nodert_generated.obj
 0001:00001740       ?WeakCallback@ObjectWrap@Nan@@CAXAEBV?$WeakCallbackInfo@VObjectWrap@Nan@@@v8@@@Z 0000000180002740 f i _nodert_generated.obj
 0001:000017d0       ??_GObjectWrap@Nan@@UEAAPEAXI@Z 00000001800027d0 f i _nodert_generated.obj
 0001:000017d0       ??_EObjectWrap@Nan@@UEAAPEAXI@Z 00000001800027d0 f i * CIL library *:* CIL module *
 0001:00001810       ??0scheduler_ptr@Concurrency@@QEAA@V?$shared_ptr@Uscheduler_interface@Concurrency@@@std@@@Z 0000000180002810 f i _nodert_generated.obj
 0001:000018a0       ?_Callback@_PPLTaskChore@_DefaultPPLTaskScheduler@details@Concurrency@@CAXPEAX@Z 00000001800028a0 f i _nodert_generated.obj
 0001:000018e0       ?schedule@_DefaultPPLTaskScheduler@details@Concurrency@@UEAAXP6AXPEAX@Z0@Z 00000001800028e0 f i _nodert_generated.obj
 0001:00001990       ?get_ambient_scheduler@Concurrency@@YAAEBV?$shared_ptr@Uscheduler_interface@Concurrency@@@std@@XZ 0000000180002990 f i _nodert_generated.obj
 0001:00001a00       ?_Destroy@_RefCounter@details@Concurrency@@MEAAXXZ 0000000180002a00 f i _nodert_generated.obj
 0001:00001a20       ??_G_RefCounter@details@Concurrency@@UEAAPEAXI@Z 0000000180002a20 f i _nodert_generated.obj
 0001:00001a20       ??_E_RefCounter@details@Concurrency@@UEAAPEAXI@Z 0000000180002a20 f i * CIL library *:* CIL module *
 0001:00001a50       ?_Invoke@_CancellationTokenRegistration@details@Concurrency@@AEAAXXZ 0000000180002a50 f i _nodert_generated.obj
 0001:00001b40       ??_G_CancellationTokenRegistration@details@Concurrency@@MEAAPEAXI@Z 0000000180002b40 f i _nodert_generated.obj
 0001:00001b40       ??_E_CancellationTokenRegistration@details@Concurrency@@MEAAPEAXI@Z 0000000180002b40 f i * CIL library *:* CIL module *
 0001:00001ba0       ?_RegisterCallback@_CancellationTokenState@details@Concurrency@@QEAAXPEAV_CancellationTokenRegistration@23@@Z 0000000180002ba0 f i _nodert_generated.obj
 0001:00001c70       ?_DeregisterCallback@_CancellationTokenState@details@Concurrency@@QEAAXPEAV_CancellationTokenRegistration@23@@Z 0000000180002c70 f i _nodert_generated.obj
 0001:00001e10       ?none@cancellation_token@Concurrency@@SA?AV12@XZ 0000000180002e10 f i _nodert_generated.obj
 0001:00001e20       ??1cancellation_token@Concurrency@@QEAA@XZ 0000000180002e20 f i _nodert_generated.obj
 0001:00001e80       ??1_TaskProcHandle@details@Concurrency@@UEAA@XZ 0000000180002e80 f i _nodert_generated.obj
 0001:00001e90       ?_RunChoreBridge@_TaskProcHandle@details@Concurrency@@SAXPEAX@Z 0000000180002e90 f i _nodert_generated.obj
 0001:00001ed0       ??_G_TaskProcHandle@details@Concurrency@@UEAAPEAXI@Z 0000000180002ed0 f i _nodert_generated.obj
 0001:00001ed0       ??_E_TaskProcHandle@details@Concurrency@@UEAAPEAXI@Z 0000000180002ed0 f i * CIL library *:* CIL module *
 0001:00001f00       ?WaitUntilStateChangedTo@_TaskCollectionBaseImpl@details@Concurrency@@IEAAXW4_TaskCollectionState@123@@Z 0000000180002f00 f i _nodert_generated.obj
 0001:00001f90       ??0_TaskCollectionBaseImpl@details@Concurrency@@QEAA@Uscheduler_ptr@2@@Z 0000000180002f90 f i _nodert_generated.obj
 0001:00002050       ?_Complete@_TaskCollectionBaseImpl@details@Concurrency@@QEAAXXZ 0000000180003050 f i _nodert_generated.obj
 0001:000020c0       ?_GetScheduler@_TaskCollectionBaseImpl@details@Concurrency@@QEBA?AUscheduler_ptr@3@XZ 00000001800030c0 f i _nodert_generated.obj
 0001:00002120       ?_RunTask@_TaskCollectionBaseImpl@details@Concurrency@@SAXP6AXPEAX@Z0W4_TaskInliningMode@23@@Z 0000000180003120 f i _nodert_generated.obj
 0001:000021f0       ??1?$task@W4RadioAccessStatus@Radios@Devices@Windows@@@Concurrency@@QEAA@XZ 00000001800031f0 f i _nodert_generated.obj
 0001:000021f0       ??1?$task@PE$AAU?$IVectorView@PE$AAVRadio@Radios@Devices@Windows@@@Collections@Foundation@Windows@@@Concurrency@@QEAA@XZ 00000001800031f0 f i _nodert_generated.obj
 0001:000021f0       ??1scheduler_ptr@Concurrency@@QEAA@XZ 00000001800031f0 f i _nodert_generated.obj
 0001:000021f0       ??1?$task@X@Concurrency@@QEAA@XZ 00000001800031f0 f i _nodert_generated.obj
 0001:000021f0       ??1?$task@PE$AAVRadio@Radios@Devices@Windows@@@Concurrency@@QEAA@XZ 00000001800031f0 f i _nodert_generated.obj
 0001:00002250       ?_NoCallOnDefaultTask_ErrorImpl@_DefaultTaskHelper@details@Concurrency@@SAXXZ 0000000180003250 f i _nodert_generated.obj
 0001:00002280       ?_CaptureSingleFrameCallstack@_TaskCreationCallstack@details@Concurrency@@SA?AV123@PEAX@Z 0000000180003280 f i _nodert_generated.obj
 0001:000022a0       ??1_TaskCreationCallstack@details@Concurrency@@QEAA@XZ 00000001800032a0 f i _nodert_generated.obj
 0001:000022e0       ?_Bridge@_TaskProcThunk@details@Concurrency@@SAXPEAX@Z 00000001800032e0 f i _nodert_generated.obj
 0001:00002340       ??1_Holder@_TaskProcThunk@details@Concurrency@@QEAA@XZ 0000000180003340 f i _nodert_generated.obj
 0001:00002390       ?_CaptureCurrent@_ContextCallback@details@Concurrency@@SA?AV123@XZ 0000000180003390 f i _nodert_generated.obj
 0001:000023d0       ??1_ContextCallback@details@Concurrency@@QEAA@XZ 00000001800033d0 f i _nodert_generated.obj
 0001:000023f0       ?_CallInContext@_ContextCallback@details@Concurrency@@QEBAXV?$function@$$A6AXXZ@std@@@Z 00000001800033f0 f i _nodert_generated.obj
 0001:00002480       ??1_ExceptionHolder@details@Concurrency@@QEAA@XZ 0000000180003480 f i _nodert_generated.obj
 0001:000024e0       ?_RethrowUserException@_ExceptionHolder@details@Concurrency@@QEAAXXZ 00000001800034e0 f i _nodert_generated.obj
 0001:00002520       ??0_TaskCreationCallstack@details@Concurrency@@QEAA@AEBV012@@Z 0000000180003520 f i _nodert_generated.obj
 0001:000025b0       ?use_default@task_continuation_context@Concurrency@@SA?AV12@XZ 00000001800035b0 f i _nodert_generated.obj
 0001:000025d0       ??1task_continuation_context@Concurrency@@QEAA@XZ 00000001800035d0 f i _nodert_generated.obj
 0001:000025f0       ??0task_options@Concurrency@@QEAA@XZ 00000001800035f0 f i _nodert_generated.obj
 0001:00002680       ?get_cancellation_token@task_options@Concurrency@@QEBA?AVcancellation_token@2@XZ 0000000180003680 f i _nodert_generated.obj
 0001:000026a0       ?get_continuation_context@task_options@Concurrency@@QEBA?AVtask_continuation_context@2@XZ 00000001800036a0 f i _nodert_generated.obj
 0001:000026e0       ?get_scheduler@task_options@Concurrency@@QEBA?AUscheduler_ptr@2@XZ 00000001800036e0 f i _nodert_generated.obj
 0001:00002730       ??1_Internal_task_options@details@Concurrency@@QEAA@XZ 0000000180003730 f i _nodert_generated.obj
 0001:00002770       ??0_ThenImplOptions@details@Concurrency@@QEAA@PEAV_CancellationTokenState@12@PEBVtask_continuation_context@2@Uscheduler_ptr@2@V_TaskCreationCallstack@12@W4_TaskInliningMode@12@@Z 0000000180003770 f i _nodert_generated.obj
 0001:00002860       ?_CreateOptions@_ThenImplOptions@details@Concurrency@@SA?AU123@AEBVtask_options@3@AEBVtask_continuation_context@3@AEBUscheduler_ptr@3@@Z 0000000180003860 f i _nodert_generated.obj
 0001:00002c80       ??1_ThenImplOptions@details@Concurrency@@QEAA@XZ 0000000180003c80 f i _nodert_generated.obj
 0001:00002d00       ??_G_ContinuationTaskHandleBase@details@Concurrency@@UEAAPEAXI@Z 0000000180003d00 f i _nodert_generated.obj
 0001:00002d00       ??_E_ContinuationTaskHandleBase@details@Concurrency@@UEAAPEAXI@Z 0000000180003d00 f i * CIL library *:* CIL module *
 0001:00002d60       ??1_TaskWorkItemRAIILogger@details@Concurrency@@QEAA@XZ 0000000180003d60 f i _nodert_generated.obj
 0001:00002d80       ??0_Task_impl_base@details@Concurrency@@QEAA@PEAV_CancellationTokenState@12@Uscheduler_ptr@2@@Z 0000000180003d80 f i _nodert_generated.obj
 0001:00002ea0       ??1_Task_impl_base@details@Concurrency@@UEAA@XZ 0000000180003ea0 f i _nodert_generated.obj
 0001:00002f90       ?_Wait@_Task_impl_base@details@Concurrency@@QEAA?AW4task_group_status@3@XZ 0000000180003f90 f i _nodert_generated.obj
 0001:00003030       ?_CancelWithException@_Task_impl_base@details@Concurrency@@QEAA_NAEBVexception_ptr@std@@@Z 0000000180004030 f i _nodert_generated.obj
 0001:000030f0       ?_RegisterCancellation@_Task_impl_base@details@Concurrency@@QEAAXV?$weak_ptr@U_Task_impl_base@details@Concurrency@@@std@@@Z 00000001800040f0 f i _nodert_generated.obj
 0001:00003240       ?_DeregisterCancellation@_Task_impl_base@details@Concurrency@@QEAAXXZ 0000000180004240 f i _nodert_generated.obj
 0001:000032c0       ?_GetTaskCreationCallstack@_Task_impl_base@details@Concurrency@@QEAA?AV_TaskCreationCallstack@23@XZ 00000001800042c0 f i _nodert_generated.obj
 0001:000032f0       ?_ScheduleTask@_Task_impl_base@details@Concurrency@@QEAAXPEAU_TaskProcHandle@23@W4_TaskInliningMode@23@@Z 00000001800042f0 f i _nodert_generated.obj
 0001:00003360       ?_ScheduleContinuationTask@_Task_impl_base@details@Concurrency@@QEAAXPEAU_ContinuationTaskHandleBase@23@@Z 0000000180004360 f i _nodert_generated.obj
 0001:00003590       ?_ScheduleContinuation@_Task_impl_base@details@Concurrency@@QEAAXPEAU_ContinuationTaskHandleBase@23@@Z 0000000180004590 f i _nodert_generated.obj
 0001:00003780       ?_RunTaskContinuations@_Task_impl_base@details@Concurrency@@QEAAXXZ 0000000180004780 f i _nodert_generated.obj
 0001:00003880       ?_GetScheduler@_Task_impl_base@details@Concurrency@@QEBA?AUscheduler_ptr@3@XZ 0000000180004880 f i _nodert_generated.obj
 0001:000038a0       ??_G_Task_impl_base@details@Concurrency@@UEAAPEAXI@Z 00000001800048a0 f i _nodert_generated.obj
 0001:000038a0       ??_E_Task_impl_base@details@Concurrency@@UEAAPEAXI@Z 00000001800048a0 f i * CIL library *:* CIL module *
 0001:000038e0       ??1_TaskCollectionBaseImpl@details@Concurrency@@QEAA@XZ 00000001800048e0 f i _nodert_generated.obj
 0001:00003990       ?_CreateImpl@?$task@X@Concurrency@@QEAAXPEAV_CancellationTokenState@details@2@Uscheduler_ptr@2@@Z 0000000180004990 f i _nodert_generated.obj
 0001:00003a40       ??1task_options@Concurrency@@QEAA@XZ 0000000180004a40 f i _nodert_generated.obj
 0001:00003b10       ?IsOpaqueWrapper@OpaqueWrapper@NodeRT@@SA_NV?$Local@VValue@v8@@@v8@@@Z 0000000180004b10 f i _nodert_generated.obj
 0001:00003be0       ??1WrapperBase@NodeRT@@UEAA@XZ 0000000180004be0 f i _nodert_generated.obj
 0001:00003bf0       ?NewAsyncToken@TokenData@Async@NodeUtils@@SAPEAUuv_async_s@@V?$Local@VFunction@v8@@@v8@@V?$Local@VValue@v8@@@6@@Z 0000000180004bf0 f i _nodert_generated.obj
 0001:00003cc0       ?RunOnMain@Async@NodeUtils@@SAXV?$function@$$A6AXXZ@std@@@Z 0000000180004cc0 f i _nodert_generated.obj
 0001:00003dd0       ?RunCallbackOnMain@Async@NodeUtils@@SAXPEAUuv_async_s@@V?$function@$$A6AXV?$function@$$A6AXHPEAV?$Local@VValue@v8@@@v8@@@Z@std@@@Z@std@@@Z 0000000180004dd0 f i _nodert_generated.obj
 0001:00004160       ?CreateCallbackData@Async@NodeUtils@@CA?AV?$Local@VObject@v8@@@v8@@V?$Local@VFunction@v8@@@4@V?$Local@VValue@v8@@@4@@Z 0000000180005160 f i _nodert_generated.obj
 0001:000043b0       ?AyncCloseCb@Async@NodeUtils@@CAXPEAUuv_handle_s@@@Z 00000001800053b0 f i _nodert_generated.obj
 0001:000043c0       ?AsyncCb@Async@NodeUtils@@CAXPEAUuv_async_s@@@Z 00000001800053c0 f i _nodert_generated.obj
 0001:00004420       ??_ETokenData@Async@NodeUtils@@UEAAPEAXI@Z 0000000180005420 f i * CIL library *:* CIL module *
 0001:00004420       ??_GTokenData@Async@NodeUtils@@UEAAPEAXI@Z 0000000180005420 f i _nodert_generated.obj
 0001:00004d50       ?Init@Radio@Radios@Devices@Windows@NodeRT@@SAXV?$Local@VObject@v8@@@v8@@@Z 0000000180005d50 f i _nodert_generated.obj
 0001:00005200       ?GetObjectInstance@Radio@Radios@Devices@Windows@NodeRT@@UEBAPE$AAVObject@Platform@@XZ 0000000180006200 f i _nodert_generated.obj
 0001:00005200       ?GetObjectInstance@?$IteratorWrapper@PE$AAVRadio@Radios@Devices@Windows@@@Collections@NodeRT@@UEBAPE$AAVObject@Platform@@XZ 0000000180006200 f i _nodert_generated.obj
 0001:00005200       ?GetObjectInstance@OpaqueWrapper@NodeRT@@UEBAPE$AAVObject@Platform@@XZ 0000000180006200 f i OpaqueWrapper.obj
 0001:00005200       ?GetObjectInstance@?$VectorViewWrapper@PE$AAVRadio@Radios@Devices@Windows@@@Collections@NodeRT@@UEBAPE$AAVObject@Platform@@XZ 0000000180006200 f i _nodert_generated.obj
 0001:00005230       ?New@Radio@Radios@Devices@Windows@NodeRT@@CAXAEBV?$FunctionCallbackInfo@VValue@v8@@@Nan@@@Z 0000000180006230 f i _nodert_generated.obj
 0001:000056c0       ?CastFrom@Radio@Radios@Devices@Windows@NodeRT@@CAXAEBV?$FunctionCallbackInfo@VValue@v8@@@Nan@@@Z 00000001800066c0 f i _nodert_generated.obj
 0001:000058b0       ?SetStateAsync@Radio@Radios@Devices@Windows@NodeRT@@CAXAEBV?$FunctionCallbackInfo@VValue@v8@@@Nan@@@Z 00000001800068b0 f i _nodert_generated.obj
 0001:00005ed0       ?GetRadiosAsync@Radio@Radios@Devices@Windows@NodeRT@@CAXAEBV?$FunctionCallbackInfo@VValue@v8@@@Nan@@@Z 0000000180006ed0 f i _nodert_generated.obj
 0001:000064d0       ?FromIdAsync@Radio@Radios@Devices@Windows@NodeRT@@CAXAEBV?$FunctionCallbackInfo@VValue@v8@@@Nan@@@Z 00000001800074d0 f i _nodert_generated.obj
 0001:00006a90       ?RequestAccessAsync@Radio@Radios@Devices@Windows@NodeRT@@CAXAEBV?$FunctionCallbackInfo@VValue@v8@@@Nan@@@Z 0000000180007a90 f i _nodert_generated.obj
 0001:00006e60       ?GetDeviceSelector@Radio@Radios@Devices@Windows@NodeRT@@CAXAEBV?$FunctionCallbackInfo@VValue@v8@@@Nan@@@Z 0000000180007e60 f i _nodert_generated.obj
 0001:00007000       ?KindGetter@Radio@Radios@Devices@Windows@NodeRT@@CAXV?$Local@VString@v8@@@v8@@AEBV?$PropertyCallbackInfo@VValue@v8@@@Nan@@@Z 0000000180008000 f i _nodert_generated.obj
 0001:000070f0       ?NameGetter@Radio@Radios@Devices@Windows@NodeRT@@CAXV?$Local@VString@v8@@@v8@@AEBV?$PropertyCallbackInfo@VValue@v8@@@Nan@@@Z 00000001800080f0 f i _nodert_generated.obj
 0001:00007230       ?StateGetter@Radio@Radios@Devices@Windows@NodeRT@@CAXV?$Local@VString@v8@@@v8@@AEBV?$PropertyCallbackInfo@VValue@v8@@@Nan@@@Z 0000000180008230 f i _nodert_generated.obj
 0001:00007320       ?AddListener@Radio@Radios@Devices@Windows@NodeRT@@CAXAEBV?$FunctionCallbackInfo@VValue@v8@@@Nan@@@Z 0000000180008320 f i _nodert_generated.obj
 0001:00007b60       ?RemoveListener@Radio@Radios@Devices@Windows@NodeRT@@CAXAEBV?$FunctionCallbackInfo@VValue@v8@@@Nan@@@Z 0000000180008b60 f i _nodert_generated.obj
 0001:000080e0       ??_ERadio@Radios@Devices@Windows@NodeRT@@UEAAPEAXI@Z 00000001800090e0 f i * CIL library *:* CIL module *
 0001:000080e0       ??_GRadio@Radios@Devices@Windows@NodeRT@@UEAAPEAXI@Z 00000001800090e0 f i _nodert_generated.obj
 0001:000080e0       ??_GOpaqueWrapper@NodeRT@@UEAAPEAXI@Z 00000001800090e0 f i OpaqueWrapper.obj
 0001:000080e0       ??_EOpaqueWrapper@NodeRT@@UEAAPEAXI@Z 00000001800090e0 f i * CIL library *:* CIL module *
 0001:00008140       ??1TryCatch@Nan@@QEAA@XZ   0000000180009140 f i _nodert_generated.obj
 0001:00008230       ?WrapRadio@Radios@Devices@Windows@NodeRT@@YA?AV?$Local@VValue@v8@@@v8@@PE$AAVRadio@123@@Z 0000000180009230 f   _nodert_generated.obj
 0001:00008320       ?init@@YAXV?$Local@VObject@v8@@@v8@@@Z 0000000180009320 f   _nodert_generated.obj
 0001:00008380       ?__abi_Windows_Foundation_?$TypedEventHandler@PE$AAVRadio@Radios@Devices@Windows@@PE$AAVObject@Platform@@___abi_IDelegate____abi_Invoke@?Q__abi_IDelegate@?$TypedEventHandler@PE$AAVRadio@Radios@Devices@Windows@@PE$AAVObject@Platform@@@Foundation@Windows@@234@UE$AAAJPE$AAVRadio@Radios@Devices@4@PE$AAVObject@Platform@@@Z 0000000180009380 f i _nodert_generated.obj
 0001:000083d0       ?__abi_QueryInterface@?$TypedEventHandler@PE$AAVRadio@Radios@Devices@Windows@@PE$AAVObject@Platform@@@Foundation@Windows@@UE$AAAJAEAVGuid@Platform@@PEAPEAX@Z 00000001800093d0 f i _nodert_generated.obj
 0001:00008500       ?__abi_AddRef@?$AsyncOperationCompletedHandler@PE$AAU?$IVectorView@PE$AAVRadio@Radios@Devices@Windows@@@Collections@Foundation@Windows@@@Foundation@Windows@@UE$AAAKXZ 0000000180009500 f i _nodert_generated.obj
 0001:00008500       ?__abi_AddRef@?$TypedEventHandler@PE$AAVRadio@Radios@Devices@Windows@@PE$AAVObject@Platform@@@Foundation@Windows@@UE$AAAKXZ 0000000180009500 f i _nodert_generated.obj
 0001:00008500       ?__abi_AddRef@?$AsyncOperationCompletedHandler@W4RadioAccessStatus@Radios@Devices@Windows@@@Foundation@Windows@@UE$AAAKXZ 0000000180009500 f i _nodert_generated.obj
 0001:00008500       ?__abi_AddRef@?$AsyncOperationCompletedHandler@PE$AAVRadio@Radios@Devices@Windows@@@Foundation@Windows@@UE$AAAKXZ 0000000180009500 f i _nodert_generated.obj
 0001:00008530       ?__abi_Release@?$AsyncOperationCompletedHandler@W4RadioAccessStatus@Radios@Devices@Windows@@@Foundation@Windows@@UE$AAAKXZ 0000000180009530 f i _nodert_generated.obj
 0001:00008530       ?__abi_Release@?$TypedEventHandler@PE$AAVRadio@Radios@Devices@Windows@@PE$AAVObject@Platform@@@Foundation@Windows@@UE$AAAKXZ 0000000180009530 f i _nodert_generated.obj
 0001:00008530       ?__abi_Release@?$AsyncOperationCompletedHandler@PE$AAU?$IVectorView@PE$AAVRadio@Radios@Devices@Windows@@@Collections@Foundation@Windows@@@Foundation@Windows@@UE$AAAKXZ 0000000180009530 f i _nodert_generated.obj
 0001:00008530       ?__abi_Release@?$AsyncOperationCompletedHandler@PE$AAVRadio@Radios@Devices@Windows@@@Foundation@Windows@@UE$AAAKXZ 0000000180009530 f i _nodert_generated.obj
 0001:000085d0       ?__abi_GetIids@?$TypedEventHandler@PE$AAVRadio@Radios@Devices@Windows@@PE$AAVObject@Platform@@@Foundation@Windows@@UE$AAAJPEAKPEAPEAVGuid@Platform@@@Z 00000001800095d0 f i _nodert_generated.obj
 0001:00008630       ?__abi_GetRuntimeClassName@?$TypedEventHandler@PE$AAVRadio@Radios@Devices@Windows@@PE$AAVObject@Platform@@@Foundation@Windows@@UE$AAAJPEAPEAUHSTRING__@@@Z 0000000180009630 f i _nodert_generated.obj
 0001:00008650       ?__abi_GetTrustLevel@?$AsyncOperationCompletedHandler@W4RadioAccessStatus@Radios@Devices@Windows@@@Foundation@Windows@@UE$AAAJPEAW4__abi_TrustLevel@@@Z 0000000180009650 f i _nodert_generated.obj
 0001:00008650       ?__abi_GetTrustLevel@?$AsyncOperationCompletedHandler@PE$AAU?$IVectorView@PE$AAVRadio@Radios@Devices@Windows@@@Collections@Foundation@Windows@@@Foundation@Windows@@UE$AAAJPEAW4__abi_TrustLevel@@@Z 0000000180009650 f i _nodert_generated.obj
 0001:00008650       ?__abi_GetTrustLevel@?$TypedEventHandler@PE$AAVRadio@Radios@Devices@Windows@@PE$AAVObject@Platform@@@Foundation@Windows@@UE$AAAJPEAW4__abi_TrustLevel@@@Z 0000000180009650 f i _nodert_generated.obj
 0001:00008650       ?__abi_GetTrustLevel@?$AsyncOperationCompletedHandler@PE$AAVRadio@Radios@Devices@Windows@@@Foundation@Windows@@UE$AAAJPEAW4__abi_TrustLevel@@@Z 0000000180009650 f i _nodert_generated.obj
 0001:00008660       ?Invoke@?$TypedEventHandler@PE$AAVRadio@Radios@Devices@Windows@@PE$AAVObject@Platform@@@Foundation@Windows@@UE$AAAXPE$AAVRadio@Radios@Devices@3@PE$AAVObject@Platform@@@Z 0000000180009660 f i _nodert_generated.obj
 0001:000086a0       ?GetRadiosAsync@Radio@Radios@Devices@Windows@@SAPE$AAU?$IAsyncOperation@PE$AAU?$IVectorView@PE$AAVRadio@Radios@Devices@Windows@@@Collections@Foundation@Windows@@@Foundation@4@XZ 00000001800096a0 f i _nodert_generated.obj
 0001:00008770       ?GetDeviceSelector@Radio@Radios@Devices@Windows@@SAPE$AAVString@Platform@@XZ 0000000180009770 f i _nodert_generated.obj
 0001:00008850       ?FromIdAsync@Radio@Radios@Devices@Windows@@SAPE$AAU?$IAsyncOperation@PE$AAVRadio@Radios@Devices@Windows@@@Foundation@4@PE$AAVString@Platform@@@Z 0000000180009850 f i _nodert_generated.obj
 0001:00008930       ?RequestAccessAsync@Radio@Radios@Devices@Windows@@SAPE$AAU?$IAsyncOperation@W4RadioAccessStatus@Radios@Devices@Windows@@@Foundation@4@XZ 0000000180009930 f i _nodert_generated.obj
 0001:00008a00       ?CreateInt64@PropertyValue@Foundation@Windows@@SAPE$AAVObject@Platform@@_J@Z 0000000180009a00 f i _nodert_generated.obj
 0001:00008ae0       ??1?$shared_ptr@Uscheduler_interface@Concurrency@@@std@@QEAA@XZ 0000000180009ae0 f i _nodert_generated.obj
 0001:00008ae0       ??1?$shared_ptr@U_Task_impl_base@details@Concurrency@@@std@@QEAA@XZ 0000000180009ae0 f i _nodert_generated.obj
 0001:00008ae0       ??1?$shared_ptr@U?$_Task_impl@E@details@Concurrency@@@std@@QEAA@XZ 0000000180009ae0 f i _nodert_generated.obj
 0001:00008ae0       ??1?$shared_ptr@U?$_Task_impl@PE$AAVRadio@Radios@Devices@Windows@@@details@Concurrency@@@std@@QEAA@XZ 0000000180009ae0 f i _nodert_generated.obj
 0001:00008ae0       ??1?$shared_ptr@U_ExceptionHolder@details@Concurrency@@@std@@QEAA@XZ 0000000180009ae0 f i _nodert_generated.obj
 0001:00008ae0       ??1?$shared_ptr@U?$_Task_impl@W4RadioAccessStatus@Radios@Devices@Windows@@@details@Concurrency@@@std@@QEAA@XZ 0000000180009ae0 f i _nodert_generated.obj
 0001:00008ae0       ??1?$shared_ptr@U?$_Task_impl@PE$AAU?$IVectorView@PE$AAVRadio@Radios@Devices@Windows@@@Collections@Foundation@Windows@@@details@Concurrency@@@std@@QEAA@XZ 0000000180009ae0 f i _nodert_generated.obj
 0001:00008ae0       ??1?$shared_ptr@V?$Persistent@VObject@v8@@V?$NonCopyablePersistentTraits@VObject@v8@@@2@@Nan@@@std@@QEAA@XZ 0000000180009ae0 f i _nodert_generated.obj
 0001:00008b30       ?get@?$task@PE$AAVRadio@Radios@Devices@Windows@@@Concurrency@@QEBAPE$AAVRadio@Radios@Devices@Windows@@XZ 0000000180009b30 f i _nodert_generated.obj
 0001:00008bc0       ??1?$_Func_class@PE$AAVRadio@Radios@Devices@Windows@@V?$Local@VValue@v8@@@v8@@@std@@QEAA@XZ 0000000180009bc0 f i _nodert_generated.obj
 0001:00008bc0       ??1?$function@$$A6APE$AAVRadio@Radios@Devices@Windows@@V?$Local@VValue@v8@@@v8@@@Z@std@@QEAA@XZ 0000000180009bc0 f i _nodert_generated.obj
 0001:00008c20       ??1?$_Func_class@V?$Local@VValue@v8@@@v8@@PE$AAVRadio@Radios@Devices@Windows@@@std@@QEAA@XZ 0000000180009c20 f i _nodert_generated.obj
 0001:00008c20       ??1?$function@$$A6A?AV?$Local@VValue@v8@@@v8@@PE$AAVRadio@Radios@Devices@Windows@@@Z@std@@QEAA@XZ 0000000180009c20 f i _nodert_generated.obj
 0001:00008c80       ?CreateVectorViewWrapper@?$VectorViewWrapper@PE$AAVRadio@Radios@Devices@Windows@@@Collections@NodeRT@@SA?AV?$Local@VValue@v8@@@v8@@PE$AAU?$IVectorView@PE$AAVRadio@Radios@Devices@Windows@@@2Foundation@Windows@@AEBV?$function@$$A6A?AV?$Local@VValue@v8@@@v8@@PE$AAVRadio@Radios@Devices@Windows@@@Z@std@@AEBV?$function@$$A6A_NV?$Local@VValue@v8@@@v8@@@Z@std@@AEBV?$function@$$A6APE$AAVRadio@Radios@Devices@Windows@@V?$Local@VValue@v8@@@v8@@@Z@std@@@Z 0000000180009c80 f i _nodert_generated.obj
 0001:00008e20       ?get@?$task@PE$AAU?$IVectorView@PE$AAVRadio@Radios@Devices@Windows@@@Collections@Foundation@Windows@@@Concurrency@@QEBAPE$AAU?$IVectorView@PE$AAVRadio@Radios@Devices@Windows@@@Collections@Foundation@Windows@@XZ 0000000180009e20 f i _nodert_generated.obj
 0001:00008eb0       ??1?$unique_ptr@$$BY0A@V?$Local@VValue@v8@@@v8@@U?$default_delete@$$BY0A@V?$Local@VValue@v8@@@v8@@@std@@@std@@QEAA@XZ 0000000180009eb0 f i _nodert_generated.obj
 0001:00008ec0       ??1?$function@$$A6A_NV?$Local@VValue@v8@@@v8@@@Z@std@@QEAA@XZ 0000000180009ec0 f i _nodert_generated.obj
 0001:00008ec0       ??1?$_Func_class@X$$V@std@@QEAA@XZ 0000000180009ec0 f i _nodert_generated.obj
 0001:00008ec0       ??1?$_Func_class@XV?$function@$$A6AXHPEAV?$Local@VValue@v8@@@v8@@@Z@std@@@std@@QEAA@XZ 0000000180009ec0 f i _nodert_generated.obj
 0001:00008ec0       ??1?$function@$$A6AXV?$task@W4RadioAccessStatus@Radios@Devices@Windows@@@Concurrency@@@Z@std@@QEAA@XZ 0000000180009ec0 f i _nodert_generated.obj
 0001:00008ec0       ??1?$_Func_class@XV?$task@W4RadioAccessStatus@Radios@Devices@Windows@@@Concurrency@@@std@@QEAA@XZ 0000000180009ec0 f i _nodert_generated.obj
 0001:00008ec0       ??1?$function@$$A6AXV?$function@$$A6AXHPEAV?$Local@VValue@v8@@@v8@@@Z@std@@@Z@std@@QEAA@XZ 0000000180009ec0 f i _nodert_generated.obj
 0001:00008ec0       ??1?$_Func_class@_NV?$Local@VValue@v8@@@v8@@@std@@QEAA@XZ 0000000180009ec0 f i _nodert_generated.obj
 0001:00008ec0       ??1?$function@$$A6AXXZ@std@@QEAA@XZ 0000000180009ec0 f i _nodert_generated.obj
 0001:00008ef0       ??1?$function@$$A6AXHPEAV?$Local@VValue@v8@@@v8@@@Z@std@@QEAA@XZ 0000000180009ef0 f i _nodert_generated.obj
 0001:00008f30       ?_CreateImpl@?$task@E@Concurrency@@QEAAXPEAV_CancellationTokenState@details@2@Uscheduler_ptr@2@@Z 0000000180009f30 f i _nodert_generated.obj
 0001:00009070       ?_CancelAndRunContinuations@?$_Task_impl@E@details@Concurrency@@UEAA_N_N00AEBV?$shared_ptr@U_ExceptionHolder@details@Concurrency@@@std@@@Z 000000018000a070 f i _nodert_generated.obj
 0001:000092f0       ?_Exec@?$_CancellationTokenCallback@V<lambda_be3e5d9dce35d2c8dbfa8485373731d5>@@@details@Concurrency@@MEAAXXZ 000000018000a2f0 f i _nodert_generated.obj
 0001:00009300       ??0?$_CancellationTokenCallback@V<lambda_be3e5d9dce35d2c8dbfa8485373731d5>@@@details@Concurrency@@QEAA@AEBV<lambda_be3e5d9dce35d2c8dbfa8485373731d5>@@@Z 000000018000a300 f i _nodert_generated.obj
 0001:000093d0       ?lock@?$weak_ptr@U_Task_impl_base@details@Concurrency@@@std@@QEBA?AV?$shared_ptr@U_Task_impl_base@details@Concurrency@@@2@XZ 000000018000a3d0 f i _nodert_generated.obj
 0001:00009430       ??1?$weak_ptr@U_Task_impl_base@details@Concurrency@@@std@@QEAA@XZ 000000018000a430 f i _nodert_generated.obj
 0001:00009450       ??R?$_Func_class@X$$V@std@@QEBAXXZ 000000018000a450 f i _nodert_generated.obj
 0001:00009470       ??4?$vector@PEAXV?$allocator@PEAX@std@@@std@@QEAAAEAV01@AEBV01@@Z 000000018000a470 f i _nodert_generated.obj
 0001:000095b0       ??1?$unique_ptr@U_TaskProcHandle@details@Concurrency@@U?$default_delete@U_TaskProcHandle@details@Concurrency@@@std@@@std@@QEAA@XZ 000000018000a5b0 f i _nodert_generated.obj
 0001:000095d0       ??1?$unique_ptr@V_PPLTaskChore@_DefaultPPLTaskScheduler@details@Concurrency@@U?$default_delete@V_PPLTaskChore@_DefaultPPLTaskScheduler@details@Concurrency@@@std@@@std@@QEAA@XZ 000000018000a5d0 f i _nodert_generated.obj
 0001:00009610       ??1?$lock_guard@Vmutex@std@@@std@@QEAA@XZ 000000018000a610 f i _nodert_generated.obj
 0001:00009640       ??1?$unique_lock@Vmutex@std@@@std@@QEAA@XZ 000000018000a640 f i _nodert_generated.obj
 0001:00009670       ??_G?$_Task_impl@E@details@Concurrency@@UEAAPEAXI@Z 000000018000a670 f i _nodert_generated.obj
 0001:00009670       ??_E?$_Task_impl@E@details@Concurrency@@UEAAPEAXI@Z 000000018000a670 f i * CIL library *:* CIL module *
 0001:00009700       ??_G?$_CancellationTokenCallback@V<lambda_be3e5d9dce35d2c8dbfa8485373731d5>@@@details@Concurrency@@UEAAPEAXI@Z 000000018000a700 f i _nodert_generated.obj
 0001:00009700       ??_E?$_CancellationTokenCallback@V<lambda_be3e5d9dce35d2c8dbfa8485373731d5>@@@details@Concurrency@@UEAAPEAXI@Z 000000018000a700 f i * CIL library *:* CIL module *
 0001:00009790       ??1?$ComPtr@UIAgileObject@@@WRL@Microsoft@@QEAA@XZ 000000018000a790 f i _nodert_generated.obj
 0001:000097b0       ?_CancelAndRunContinuations@?$_Task_impl@PE$AAVRadio@Radios@Devices@Windows@@@details@Concurrency@@UEAA_N_N00AEBV?$shared_ptr@U_ExceptionHolder@details@Concurrency@@@std@@@Z 000000018000a7b0 f i _nodert_generated.obj
 0001:00009a30       ??1?$_Task_impl@PE$AAVRadio@Radios@Devices@Windows@@@details@Concurrency@@UEAA@XZ 000000018000aa30 f i _nodert_generated.obj
 0001:00009ac0       ??0?$VectorViewWrapper@PE$AAVRadio@Radios@Devices@Windows@@@Collections@NodeRT@@AEAA@PE$AAU?$IVectorView@PE$AAVRadio@Radios@Devices@Windows@@@1Foundation@Windows@@AEBV?$function@$$A6A?AV?$Local@VValue@v8@@@v8@@PE$AAVRadio@Radios@Devices@Windows@@@Z@std@@AEBV?$function@$$A6A_NV?$Local@VValue@v8@@@v8@@@Z@7@AEBV?$function@$$A6APE$AAVRadio@Radios@Devices@Windows@@V?$Local@VValue@v8@@@v8@@@Z@7@@Z 000000018000aac0 f i _nodert_generated.obj
 0001:00009bd0       ?Init@?$VectorViewWrapper@PE$AAVRadio@Radios@Devices@Windows@@@Collections@NodeRT@@SAXXZ 000000018000abd0 f i _nodert_generated.obj
 0001:00009e00       ?_CancelAndRunContinuations@?$_Task_impl@PE$AAU?$IVectorView@PE$AAVRadio@Radios@Devices@Windows@@@Collections@Foundation@Windows@@@details@Concurrency@@UEAA_N_N00AEBV?$shared_ptr@U_ExceptionHolder@details@Concurrency@@@std@@@Z 000000018000ae00 f i _nodert_generated.obj
 0001:0000a080       ??1?$_Task_impl@PE$AAU?$IVectorView@PE$AAVRadio@Radios@Devices@Windows@@@Collections@Foundation@Windows@@@details@Concurrency@@UEAA@XZ 000000018000b080 f i _nodert_generated.obj
 0001:0000a120       ?_CancelAndRunContinuations@?$_Task_impl@W4RadioAccessStatus@Radios@Devices@Windows@@@details@Concurrency@@UEAA_N_N00AEBV?$shared_ptr@U_ExceptionHolder@details@Concurrency@@@std@@@Z 000000018000b120 f i _nodert_generated.obj
 0001:0000a3a0       ??4?$shared_ptr@U?$_Task_impl@PE$AAU?$IVectorView@PE$AAVRadio@Radios@Devices@Windows@@@Collections@Foundation@Windows@@@details@Concurrency@@@std@@QEAAAEAV01@$$QEAV01@@Z 000000018000b3a0 f i _nodert_generated.obj
 0001:0000a3a0       ??4?$shared_ptr@U?$_Task_impl@PE$AAVRadio@Radios@Devices@Windows@@@details@Concurrency@@@std@@QEAAAEAV01@$$QEAV01@@Z 000000018000b3a0 f i _nodert_generated.obj
 0001:0000a3a0       ??4?$shared_ptr@U?$_Task_impl@E@details@Concurrency@@@std@@QEAAAEAV01@$$QEAV01@@Z 000000018000b3a0 f i _nodert_generated.obj
 0001:0000a3a0       ??4?$shared_ptr@U?$_Task_impl@W4RadioAccessStatus@Radios@Devices@Windows@@@details@Concurrency@@@std@@QEAAAEAV01@$$QEAV01@@Z 000000018000b3a0 f i _nodert_generated.obj
 0001:0000a430       ?_FinalizeAndRunContinuations@?$_Task_impl@E@details@Concurrency@@QEAAXE@Z 000000018000b430 f i _nodert_generated.obj
 0001:0000a4c0       ?_Make@?$_Task_ptr@E@details@Concurrency@@SA?AV?$shared_ptr@U?$_Task_impl@E@details@Concurrency@@@std@@PEAV_CancellationTokenState@23@Uscheduler_ptr@3@@Z 000000018000b4c0 f i _nodert_generated.obj
 0001:0000a550       ??4?$shared_ptr@U?$_Task_impl@PE$AAU?$IVectorView@PE$AAVRadio@Radios@Devices@Windows@@@Collections@Foundation@Windows@@@details@Concurrency@@@std@@QEAAAEAV01@AEBV01@@Z 000000018000b550 f i _nodert_generated.obj
 0001:0000a550       ??4?$shared_ptr@U_ExceptionHolder@details@Concurrency@@@std@@QEAAAEAV01@AEBV01@@Z 000000018000b550 f i _nodert_generated.obj
 0001:0000a550       ??4?$shared_ptr@U?$_Task_impl@W4RadioAccessStatus@Radios@Devices@Windows@@@details@Concurrency@@@std@@QEAAAEAV01@AEBV01@@Z 000000018000b550 f i _nodert_generated.obj
 0001:0000a550       ??4?$shared_ptr@U?$_Task_impl@PE$AAVRadio@Radios@Devices@Windows@@@details@Concurrency@@@std@@QEAAAEAV01@AEBV01@@Z 000000018000b550 f i _nodert_generated.obj
 0001:0000a5e0       ?deallocate@?$_Wrap_alloc@V?$allocator@PEAX@std@@@std@@QEAAXPEAPEAX_K@Z 000000018000b5e0 f i _nodert_generated.obj
 0001:0000a660       ?_Buy@?$vector@PEAXV?$allocator@PEAX@std@@@std@@IEAA_N_K@Z 000000018000b660 f i _nodert_generated.obj
 0001:0000a700       ??_G?$_Task_impl@PE$AAVRadio@Radios@Devices@Windows@@@details@Concurrency@@UEAAPEAXI@Z 000000018000b700 f i _nodert_generated.obj
 0001:0000a700       ??_E?$_Task_impl@PE$AAVRadio@Radios@Devices@Windows@@@details@Concurrency@@UEAAPEAXI@Z 000000018000b700 f i * CIL library *:* CIL module *
 0001:0000a740       ??_E?$VectorViewWrapper@PE$AAVRadio@Radios@Devices@Windows@@@Collections@NodeRT@@UEAAPEAXI@Z 000000018000b740 f i * CIL library *:* CIL module *
 0001:0000a740       ??_G?$VectorViewWrapper@PE$AAVRadio@Radios@Devices@Windows@@@Collections@NodeRT@@UEAAPEAXI@Z 000000018000b740 f i _nodert_generated.obj
 0001:0000a780       ??1?$VectorViewWrapper@PE$AAVRadio@Radios@Devices@Windows@@@Collections@NodeRT@@UEAA@XZ 000000018000b780 f i _nodert_generated.obj
 0001:0000a870       ??_E?$_Task_impl@PE$AAU?$IVectorView@PE$AAVRadio@Radios@Devices@Windows@@@Collections@Foundation@Windows@@@details@Concurrency@@UEAAPEAXI@Z 000000018000b870 f i * CIL library *:* CIL module *
 0001:0000a870       ??_G?$_Task_impl@PE$AAU?$IVectorView@PE$AAVRadio@Radios@Devices@Windows@@@Collections@Foundation@Windows@@@details@Concurrency@@UEAAPEAXI@Z 000000018000b870 f i _nodert_generated.obj
 0001:0000a8b0       ??_E?$_Task_impl@W4RadioAccessStatus@Radios@Devices@Windows@@@details@Concurrency@@UEAAPEAXI@Z 000000018000b8b0 f i * CIL library *:* CIL module *
 0001:0000a8b0       ??_G?$_Task_impl@W4RadioAccessStatus@Radios@Devices@Windows@@@details@Concurrency@@UEAAPEAXI@Z 000000018000b8b0 f i _nodert_generated.obj
 0001:0000a940       ?SizeGetter@?$VectorViewWrapper@PE$AAVRadio@Radios@Devices@Windows@@@Collections@NodeRT@@CAXV?$Local@VString@v8@@@v8@@AEBV?$PropertyCallbackInfo@VValue@v8@@@Nan@@@Z 000000018000b940 f i _nodert_generated.obj
 0001:0000aa10       ?IndexOf@?$VectorViewWrapper@PE$AAVRadio@Radios@Devices@Windows@@@Collections@NodeRT@@CAXAEBV?$FunctionCallbackInfo@VValue@v8@@@Nan@@@Z 000000018000ba10 f i _nodert_generated.obj
 0001:0000ad50       ?First@?$VectorViewWrapper@PE$AAVRadio@Radios@Devices@Windows@@@Collections@NodeRT@@CAXAEBV?$FunctionCallbackInfo@VValue@v8@@@Nan@@@Z 000000018000bd50 f i _nodert_generated.obj
 0001:0000aef0       ?GetMany@?$VectorViewWrapper@PE$AAVRadio@Radios@Devices@Windows@@@Collections@NodeRT@@CAXAEBV?$FunctionCallbackInfo@VValue@v8@@@Nan@@@Z 000000018000bef0 f i _nodert_generated.obj
 0001:0000aef0       ?GetMany@?$IteratorWrapper@PE$AAVRadio@Radios@Devices@Windows@@@Collections@NodeRT@@CAXAEBV?$FunctionCallbackInfo@VValue@v8@@@Nan@@@Z 000000018000bef0 f i _nodert_generated.obj
 0001:0000af90       ?GetAt@?$VectorViewWrapper@PE$AAVRadio@Radios@Devices@Windows@@@Collections@NodeRT@@CAXAEBV?$FunctionCallbackInfo@VValue@v8@@@Nan@@@Z 000000018000bf90 f i _nodert_generated.obj
 0001:0000b1a0       ?Get@?$VectorViewWrapper@PE$AAVRadio@Radios@Devices@Windows@@@Collections@NodeRT@@CAXIAEBV?$PropertyCallbackInfo@VValue@v8@@@Nan@@@Z 000000018000c1a0 f i _nodert_generated.obj
 0001:0000b2d0       ?New@?$IteratorWrapper@PE$AAVRadio@Radios@Devices@Windows@@@Collections@NodeRT@@CAXAEBV?$FunctionCallbackInfo@VValue@v8@@@Nan@@@Z 000000018000c2d0 f i _nodert_generated.obj
 0001:0000b2d0       ?New@?$VectorViewWrapper@PE$AAVRadio@Radios@Devices@Windows@@@Collections@NodeRT@@CAXAEBV?$FunctionCallbackInfo@VValue@v8@@@Nan@@@Z 000000018000c2d0 f i _nodert_generated.obj
 0001:0000b380       ?CreateIteratorWrapper@?$IteratorWrapper@PE$AAVRadio@Radios@Devices@Windows@@@Collections@NodeRT@@SA?AV?$Local@VValue@v8@@@v8@@PE$AAU?$IIterator@PE$AAVRadio@Radios@Devices@Windows@@@2Foundation@Windows@@AEBV?$function@$$A6A?AV?$Local@VValue@v8@@@v8@@PE$AAVRadio@Radios@Devices@Windows@@@Z@std@@@Z 000000018000c380 f i _nodert_generated.obj
 0001:0000b4c0       ?Release@?$Agile@PE$AAU?$IVectorView@PE$AAVRadio@Radios@Devices@Windows@@@Collections@Foundation@Windows@@$00@Platform@@QEAAXXZ 000000018000c4c0 f i _nodert_generated.obj
 0001:0000b560       ?Get@?$Agile@PE$AAU?$IVectorView@PE$AAVRadio@Radios@Devices@Windows@@@Collections@Foundation@Windows@@$00@Platform@@QEBAPE$AAU?$IVectorView@PE$AAVRadio@Radios@Devices@Windows@@@Collections@Foundation@Windows@@XZ 000000018000c560 f i _nodert_generated.obj
 0001:0000b6c0       ??R?$_Func_class@PE$AAVRadio@Radios@Devices@Windows@@V?$Local@VValue@v8@@@v8@@@std@@QEBAPE$AAVRadio@Radios@Devices@Windows@@V?$Local@VValue@v8@@@v8@@@Z 000000018000c6c0 f i _nodert_generated.obj
 0001:0000b760       ??R?$_Func_class@V?$Local@VValue@v8@@@v8@@PE$AAVRadio@Radios@Devices@Windows@@@std@@QEBA?AV?$Local@VValue@v8@@@v8@@PE$AAVRadio@Radios@Devices@Windows@@@Z 000000018000c760 f i _nodert_generated.obj
 0001:0000b800       ??0?$IteratorWrapper@PE$AAVRadio@Radios@Devices@Windows@@@Collections@NodeRT@@AEAA@PE$AAU?$IIterator@PE$AAVRadio@Radios@Devices@Windows@@@1Foundation@Windows@@AEBV?$function@$$A6A?AV?$Local@VValue@v8@@@v8@@PE$AAVRadio@Radios@Devices@Windows@@@Z@std@@@Z 000000018000c800 f i _nodert_generated.obj
 0001:0000b8b0       ?Init@?$IteratorWrapper@PE$AAVRadio@Radios@Devices@Windows@@@Collections@NodeRT@@SAXXZ 000000018000c8b0 f i _nodert_generated.obj
 0001:0000bac0       ??_E?$IteratorWrapper@PE$AAVRadio@Radios@Devices@Windows@@@Collections@NodeRT@@UEAAPEAXI@Z 000000018000cac0 f i * CIL library *:* CIL module *
 0001:0000bac0       ??_G?$IteratorWrapper@PE$AAVRadio@Radios@Devices@Windows@@@Collections@NodeRT@@UEAAPEAXI@Z 000000018000cac0 f i _nodert_generated.obj
 0001:0000bb00       ??1?$IteratorWrapper@PE$AAVRadio@Radios@Devices@Windows@@@Collections@NodeRT@@UEAA@XZ 000000018000cb00 f i _nodert_generated.obj
 0001:0000bb90       ?HasCurrentGetter@?$IteratorWrapper@PE$AAVRadio@Radios@Devices@Windows@@@Collections@NodeRT@@CAXV?$Local@VString@v8@@@v8@@AEBV?$PropertyCallbackInfo@VValue@v8@@@Nan@@@Z 000000018000cb90 f i _nodert_generated.obj
 0001:0000bc40       ?CurrentGetter@?$IteratorWrapper@PE$AAVRadio@Radios@Devices@Windows@@@Collections@NodeRT@@CAXV?$Local@VString@v8@@@v8@@AEBV?$PropertyCallbackInfo@VValue@v8@@@Nan@@@Z 000000018000cc40 f i _nodert_generated.obj
 0001:0000bd80       ?MoveNext@?$IteratorWrapper@PE$AAVRadio@Radios@Devices@Windows@@@Collections@NodeRT@@CAXAEBV?$FunctionCallbackInfo@VValue@v8@@@Nan@@@Z 000000018000cd80 f i _nodert_generated.obj
 0001:0000beb0       ?get@Name@IRadio@Radios@Devices@Windows@@UE$AAAPE$AAVString@Platform@@XZ 000000018000ceb0 f i _nodert_generated.obj
 0001:0000bf20       ?GetAt@?$IVectorView@PE$AAVRadio@Radios@Devices@Windows@@@Collections@Foundation@Windows@@UE$AAAPE$AAVRadio@Radios@Devices@4@I@Z 000000018000cf20 f i _nodert_generated.obj
 0001:0000bf20       ?SetStateAsync@IRadio@Radios@Devices@Windows@@UE$AAAPE$AAU?$IAsyncOperation@W4RadioAccessStatus@Radios@Devices@Windows@@@Foundation@4@W4RadioState@234@@Z 000000018000cf20 f i _nodert_generated.obj
 0001:0000bf80       ?First@?$IIterable@PE$AAVRadio@Radios@Devices@Windows@@@Collections@Foundation@Windows@@UE$AAAPE$AAU?$IIterator@PE$AAVRadio@Radios@Devices@Windows@@@234@XZ 000000018000cf80 f i _nodert_generated.obj
 0001:0000bfe0       ??$Reset@VObject@v8@@@?$Persistent@VObject@v8@@V?$NonCopyablePersistentTraits@VObject@v8@@@2@@Nan@@QEAAXAEBV?$Local@VObject@v8@@@v8@@@Z 000000018000cfe0 f i _nodert_generated.obj
 0001:0000c040       ??$make_shared@U_ExceptionHolder@details@Concurrency@@AEBVexception_ptr@std@@V_TaskCreationCallstack@23@@std@@YA?AV?$shared_ptr@U_ExceptionHolder@details@Concurrency@@@0@AEBVexception_ptr@0@$$QEAV_TaskCreationCallstack@details@Concurrency@@@Z 000000018000d040 f i _nodert_generated.obj
 0001:0000c100       ??$?0V<lambda_f25c37099038263181b5186a3fa41b37>@@XX@?$function@$$A6AXXZ@std@@QEAA@V<lambda_f25c37099038263181b5186a3fa41b37>@@@Z 000000018000d100 f i _nodert_generated.obj
 0001:0000c1a0       ??$?4AEAV?$function@$$A6AXXZ@std@@XX@?$function@$$A6AXXZ@std@@QEAAAEAV01@AEAV01@@Z 000000018000d1a0 f i _nodert_generated.obj
 0001:0000c230       ??$SetMethod@VObject@v8@@VLocal@2@@Nan@@YAXV?$Local@VObject@v8@@@v8@@PEBDP6AXAEBV?$FunctionCallbackInfo@VValue@v8@@@0@@Z@Z 000000018000d230 f i _nodert_generated.obj
 0001:0000c2f0       ??$IsWinRtWrapperOf@PE$AAVRadio@Radios@Devices@Windows@@@Utils@NodeRT@@YA_NV?$Local@VValue@v8@@@v8@@@Z 000000018000d2f0 f i _nodert_generated.obj
 0001:0000c410       ??$Unwrap@VOpaqueWrapper@NodeRT@@@ObjectWrap@Nan@@SAPEAVOpaqueWrapper@NodeRT@@V?$Local@VObject@v8@@@v8@@@Z 000000018000d410 f i _nodert_generated.obj
 0001:0000c410       ??$Unwrap@VRadio@Radios@Devices@Windows@NodeRT@@@ObjectWrap@Nan@@SAPEAVRadio@Radios@Devices@Windows@NodeRT@@V?$Local@VObject@v8@@@v8@@@Z 000000018000d410 f i _nodert_generated.obj
 0001:0000c410       ??$Unwrap@V?$IteratorWrapper@PE$AAVRadio@Radios@Devices@Windows@@@Collections@NodeRT@@@ObjectWrap@Nan@@SAPEAV?$IteratorWrapper@PE$AAVRadio@Radios@Devices@Windows@@@Collections@NodeRT@@V?$Local@VObject@v8@@@v8@@@Z 000000018000d410 f i _nodert_generated.obj
 0001:0000c410       ??$Unwrap@VWrapperBase@NodeRT@@@ObjectWrap@Nan@@SAPEAVWrapperBase@NodeRT@@V?$Local@VObject@v8@@@v8@@@Z 000000018000d410 f i _nodert_generated.obj
 0001:0000c410       ??$Unwrap@V?$VectorViewWrapper@PE$AAVRadio@Radios@Devices@Windows@@@Collections@NodeRT@@@ObjectWrap@Nan@@SAPEAV?$VectorViewWrapper@PE$AAVRadio@Radios@Devices@Windows@@@Collections@NodeRT@@V?$Local@VObject@v8@@@v8@@@Z 000000018000d410 f i _nodert_generated.obj
 0001:0000c4a0       ??$create_task@PE$AAU?$IAsyncOperation@W4RadioAccessStatus@Radios@Devices@Windows@@@Foundation@Windows@@@Concurrency@@YA?AV?$task@W4RadioAccessStatus@Radios@Devices@Windows@@@0@PE$AAU?$IAsyncOperation@W4RadioAccessStatus@Radios@Devices@Windows@@@Foundation@Windows@@Vtask_options@0@@Z 000000018000d4a0 f i _nodert_generated.obj
 0001:0000c540       ??$then@V<lambda_f62ce569bcbb190725394d954e43b37a>@@@?$task@W4RadioAccessStatus@Radios@Devices@Windows@@@Concurrency@@QEBA?AV?$task@X@1@AEBV<lambda_f62ce569bcbb190725394d954e43b37a>@@@Z 000000018000d540 f i _nodert_generated.obj
 0001:0000c7a0       ??$create_task@PE$AAU?$IAsyncOperation@PE$AAU?$IVectorView@PE$AAVRadio@Radios@Devices@Windows@@@Collections@Foundation@Windows@@@Foundation@Windows@@@Concurrency@@YA?AV?$task@PE$AAU?$IVectorView@PE$AAVRadio@Radios@Devices@Windows@@@Collections@Foundation@Windows@@@0@PE$AAU?$IAsyncOperation@PE$AAU?$IVectorView@PE$AAVRadio@Radios@Devices@Windows@@@Collections@Foundation@Windows@@@Foundation@Windows@@Vtask_options@0@@Z 000000018000d7a0 f i _nodert_generated.obj
 0001:0000c840       ??$then@V<lambda_6b3d546cb33cb2be9b0a401ff7fba40f>@@@?$task@PE$AAU?$IVectorView@PE$AAVRadio@Radios@Devices@Windows@@@Collections@Foundation@Windows@@@Concurrency@@QEBA?AV?$task@X@1@AEBV<lambda_6b3d546cb33cb2be9b0a401ff7fba40f>@@@Z 000000018000d840 f i _nodert_generated.obj
 0001:0000cac0       ??$create_task@PE$AAU?$IAsyncOperation@PE$AAVRadio@Radios@Devices@Windows@@@Foundation@Windows@@@Concurrency@@YA?AV?$task@PE$AAVRadio@Radios@Devices@Windows@@@0@PE$AAU?$IAsyncOperation@PE$AAVRadio@Radios@Devices@Windows@@@Foundation@Windows@@Vtask_options@0@@Z 000000018000dac0 f i _nodert_generated.obj
 0001:0000cb60       ??$then@V<lambda_ae69dad4f0eec31d1194edef18f14e48>@@@?$task@PE$AAVRadio@Radios@Devices@Windows@@@Concurrency@@QEBA?AV?$task@X@1@AEBV<lambda_ae69dad4f0eec31d1194edef18f14e48>@@@Z 000000018000db60 f i _nodert_generated.obj
 0001:0000cde0       ??$then@V<lambda_84fe49f24ae8de4bd96cfe7e2e397527>@@@?$task@W4RadioAccessStatus@Radios@Devices@Windows@@@Concurrency@@QEBA?AV?$task@X@1@AEBV<lambda_84fe49f24ae8de4bd96cfe7e2e397527>@@@Z 000000018000dde0 f i _nodert_generated.obj
 0001:0000d040       ??$?0V<lambda_fa493edce1d787976b8ef791772f712d>@@@?$TypedEventHandler@PE$AAVRadio@Radios@Devices@Windows@@PE$AAVObject@Platform@@@Foundation@Windows@@QE$AAA@V<lambda_fa493edce1d787976b8ef791772f712d>@@W4CallbackContext@Platform@@_N@Z 000000018000e040 f i _nodert_generated.obj
 0001:0000d140       ??$make_shared@U?$_Task_impl@E@details@Concurrency@@AEAPEAV_CancellationTokenState@23@AEAUscheduler_ptr@3@@std@@YA?AV?$shared_ptr@U?$_Task_impl@E@details@Concurrency@@@0@AEAPEAV_CancellationTokenState@details@Concurrency@@AEAUscheduler_ptr@4@@Z 000000018000e140 f i _nodert_generated.obj
 0001:0000d230       ??$IsWinRtWrapperOf@PE$AAU?$IVectorView@PE$AAVRadio@Radios@Devices@Windows@@@Collections@Foundation@Windows@@@Utils@NodeRT@@YA_NV?$Local@VValue@v8@@@v8@@@Z 000000018000e230 f i _nodert_generated.obj
 0001:0000d350       ??$IsWinRtWrapperOf@PE$AAU?$IIterator@PE$AAVRadio@Radios@Devices@Windows@@@Collections@Foundation@Windows@@@Utils@NodeRT@@YA_NV?$Local@VValue@v8@@@v8@@@Z 000000018000e350 f i _nodert_generated.obj
 0001:0000d470       ?_Delete_this@?$_Ref_count_obj@U?$_Task_impl@E@details@Concurrency@@@std@@EEAAXXZ 000000018000e470 f i _nodert_generated.obj
 0001:0000d470       ?_Delete_this@?$_Ref_count_obj@U?$_Task_impl@PE$AAVRadio@Radios@Devices@Windows@@@details@Concurrency@@@std@@EEAAXXZ 000000018000e470 f i _nodert_generated.obj
 0001:0000d470       ?_Delete_this@?$_Ref_count_obj@U?$_Task_impl@PE$AAU?$IVectorView@PE$AAVRadio@Radios@Devices@Windows@@@Collections@Foundation@Windows@@@details@Concurrency@@@std@@EEAAXXZ 000000018000e470 f i _nodert_generated.obj
 0001:0000d470       ?_Delete_this@?$_Ref_count_obj@U_ExceptionHolder@details@Concurrency@@@std@@EEAAXXZ 000000018000e470 f i _nodert_generated.obj
 0001:0000d470       ?_Delete_this@?$_Ref_count_del@V?$Persistent@VObject@v8@@V?$NonCopyablePersistentTraits@VObject@v8@@@2@@Nan@@V<lambda_7ce441e15ae9de863eea1ca9a10cae26>@@@std@@EEAAXXZ 000000018000e470 f i _nodert_generated.obj
 0001:0000d470       ?_Delete_this@?$_Ref_count_obj@U?$_Task_impl@W4RadioAccessStatus@Radios@Devices@Windows@@@details@Concurrency@@@std@@EEAAXXZ 000000018000e470 f i _nodert_generated.obj
 0001:0000d490       ?_Destroy@?$_Ref_count_obj@U?$_Task_impl@PE$AAVRadio@Radios@Devices@Windows@@@details@Concurrency@@@std@@EEAAXXZ 000000018000e490 f i _nodert_generated.obj
 0001:0000d490       ?_Destroy@?$_Ref_count_obj@U?$_Task_impl@PE$AAU?$IVectorView@PE$AAVRadio@Radios@Devices@Windows@@@Collections@Foundation@Windows@@@details@Concurrency@@@std@@EEAAXXZ 000000018000e490 f i _nodert_generated.obj
 0001:0000d490       ?_Destroy@?$_Ref_count_obj@U?$_Task_impl@E@details@Concurrency@@@std@@EEAAXXZ 000000018000e490 f i _nodert_generated.obj
 0001:0000d490       ?_Destroy@?$_Ref_count_obj@U?$_Task_impl@W4RadioAccessStatus@Radios@Devices@Windows@@@details@Concurrency@@@std@@EEAAXXZ 000000018000e490 f i _nodert_generated.obj
 0001:0000d4a0       ??B?$Box@_J@Platform@@QE$AAA_JXZ 000000018000e4a0 f i _nodert_generated.obj
 0001:0000d560       ?Invoke@?$__abi_FunctorCapture@V<lambda_fa493edce1d787976b8ef791772f712d>@@XPE$AAVRadio@Radios@Devices@Windows@@PE$AAVObject@Platform@@@Details@Platform@@UEAAXPE$AAVRadio@Radios@Devices@Windows@@PE$AAVObject@3@@Z 000000018000e560 f i _nodert_generated.obj
 0001:0000d570       ??0?$__abi_FunctorCapture@V<lambda_fa493edce1d787976b8ef791772f712d>@@XPE$AAVRadio@Radios@Devices@Windows@@PE$AAVObject@Platform@@@Details@Platform@@QEAA@V<lambda_fa493edce1d787976b8ef791772f712d>@@@Z 000000018000e570 f i _nodert_generated.obj
 0001:0000d610       ?_Destroy@?$_Ref_count_obj@U_ExceptionHolder@details@Concurrency@@@std@@EEAAXXZ 000000018000e610 f i _nodert_generated.obj
 0001:0000d620       ??1?$function@$$A6AXV?$task@PE$AAVRadio@Radios@Devices@Windows@@@Concurrency@@@Z@std@@QEAA@XZ 000000018000e620 f i _nodert_generated.obj
 0001:0000d620       ??1?$_Func_class@XV?$task@PE$AAVRadio@Radios@Devices@Windows@@@Concurrency@@@std@@QEAA@XZ 000000018000e620 f i _nodert_generated.obj
 0001:0000d680       ??1?$function@$$A6AXV?$task@PE$AAU?$IVectorView@PE$AAVRadio@Radios@Devices@Windows@@@Collections@Foundation@Windows@@@Concurrency@@@Z@std@@QEAA@XZ 000000018000e680 f i _nodert_generated.obj
 0001:0000d680       ??1?$_Func_class@XV?$task@PE$AAU?$IVectorView@PE$AAVRadio@Radios@Devices@Windows@@@Collections@Foundation@Windows@@@Concurrency@@@std@@QEAA@XZ 000000018000e680 f i _nodert_generated.obj
 0001:0000d6e0       ??_G?$__abi_FunctorCapture@V<lambda_4826e3b284b53b5a99fdf233406a9e9a>@@XPE$AAU?$IAsyncOperation@PE$AAVRadio@Radios@Devices@Windows@@@Foundation@Windows@@W4AsyncStatus@34@@Details@Platform@@UEAAPEAXI@Z 000000018000e6e0 f i _nodert_generated.obj
 0001:0000d6e0       ??_E?$__abi_FunctorCapture@V<lambda_fa493edce1d787976b8ef791772f712d>@@XPE$AAVRadio@Radios@Devices@Windows@@PE$AAVObject@Platform@@@Details@Platform@@UEAAPEAXI@Z 000000018000e6e0 f i * CIL library *:* CIL module *
 0001:0000d6e0       ??_G?$__abi_FunctorCapture@V<lambda_74b109aa04c410395ed1b84aaba96129>@@XPE$AAU?$IAsyncOperation@PE$AAU?$IVectorView@PE$AAVRadio@Radios@Devices@Windows@@@Collections@Foundation@Windows@@@Foundation@Windows@@W4AsyncStatus@34@@Details@Platform@@UEAAPEAXI@Z 000000018000e6e0 f i _nodert_generated.obj
 0001:0000d6e0       ??_G?$__abi_FunctorCapture@V<lambda_fa493edce1d787976b8ef791772f712d>@@XPE$AAVRadio@Radios@Devices@Windows@@PE$AAVObject@Platform@@@Details@Platform@@UEAAPEAXI@Z 000000018000e6e0 f i _nodert_generated.obj
 0001:0000d6e0       ??_E?$__abi_FunctorCapture@V<lambda_76b0dc5acfdd88e398543629657656f2>@@XPE$AAU?$IAsyncOperation@W4RadioAccessStatus@Radios@Devices@Windows@@@Foundation@Windows@@W4AsyncStatus@34@@Details@Platform@@UEAAPEAXI@Z 000000018000e6e0 f i * CIL library *:* CIL module *
 0001:0000d6e0       ??_E?$__abi_FunctorCapture@V<lambda_74b109aa04c410395ed1b84aaba96129>@@XPE$AAU?$IAsyncOperation@PE$AAU?$IVectorView@PE$AAVRadio@Radios@Devices@Windows@@@Collections@Foundation@Windows@@@Foundation@Windows@@W4AsyncStatus@34@@Details@Platform@@UEAAPEAXI@Z 000000018000e6e0 f i * CIL library *:* CIL module *
 0001:0000d6e0       ??_E?$__abi_FunctorCapture@V<lambda_4826e3b284b53b5a99fdf233406a9e9a>@@XPE$AAU?$IAsyncOperation@PE$AAVRadio@Radios@Devices@Windows@@@Foundation@Windows@@W4AsyncStatus@34@@Details@Platform@@UEAAPEAXI@Z 000000018000e6e0 f i * CIL library *:* CIL module *
 0001:0000d6e0       ??_G?$__abi_FunctorCapture@V<lambda_76b0dc5acfdd88e398543629657656f2>@@XPE$AAU?$IAsyncOperation@W4RadioAccessStatus@Radios@Devices@Windows@@@Foundation@Windows@@W4AsyncStatus@34@@Details@Platform@@UEAAPEAXI@Z 000000018000e6e0 f i _nodert_generated.obj
 0001:0000d720       ??1?$__abi_FunctorCapture@V<lambda_76b0dc5acfdd88e398543629657656f2>@@XPE$AAU?$IAsyncOperation@W4RadioAccessStatus@Radios@Devices@Windows@@@Foundation@Windows@@W4AsyncStatus@34@@Details@Platform@@UEAA@XZ 000000018000e720 f i _nodert_generated.obj
 0001:0000d720       ??1?$__abi_FunctorCapture@V<lambda_74b109aa04c410395ed1b84aaba96129>@@XPE$AAU?$IAsyncOperation@PE$AAU?$IVectorView@PE$AAVRadio@Radios@Devices@Windows@@@Collections@Foundation@Windows@@@Foundation@Windows@@W4AsyncStatus@34@@Details@Platform@@UEAA@XZ 000000018000e720 f i _nodert_generated.obj
 0001:0000d720       ??1?$__abi_FunctorCapture@V<lambda_fa493edce1d787976b8ef791772f712d>@@XPE$AAVRadio@Radios@Devices@Windows@@PE$AAVObject@Platform@@@Details@Platform@@UEAA@XZ 000000018000e720 f i _nodert_generated.obj
 0001:0000d720       ??1?$__abi_FunctorCapture@V<lambda_4826e3b284b53b5a99fdf233406a9e9a>@@XPE$AAU?$IAsyncOperation@PE$AAVRadio@Radios@Devices@Windows@@@Foundation@Windows@@W4AsyncStatus@34@@Details@Platform@@UEAA@XZ 000000018000e720 f i _nodert_generated.obj
 0001:0000d7a0       ?_Reset0@?$_Ptr_base@U?$_Task_impl@W4RadioAccessStatus@Radios@Devices@Windows@@@details@Concurrency@@@std@@QEAAXPEAU?$_Task_impl@W4RadioAccessStatus@Radios@Devices@Windows@@@details@Concurrency@@PEAV_Ref_count_base@2@@Z 000000018000e7a0 f i _nodert_generated.obj
 0001:0000d7a0       ?_Reset0@?$_Ptr_base@V?$Persistent@VObject@v8@@V?$NonCopyablePersistentTraits@VObject@v8@@@2@@Nan@@@std@@QEAAXPEAV?$Persistent@VObject@v8@@V?$NonCopyablePersistentTraits@VObject@v8@@@2@@Nan@@PEAV_Ref_count_base@2@@Z 000000018000e7a0 f i _nodert_generated.obj
 0001:0000d7a0       ?_Reset0@?$_Ptr_base@U?$_Task_impl@PE$AAVRadio@Radios@Devices@Windows@@@details@Concurrency@@@std@@QEAAXPEAU?$_Task_impl@PE$AAVRadio@Radios@Devices@Windows@@@details@Concurrency@@PEAV_Ref_count_base@2@@Z 000000018000e7a0 f i _nodert_generated.obj
 0001:0000d7a0       ?_Reset0@?$_Ptr_base@Uscheduler_interface@Concurrency@@@std@@QEAAXPEAUscheduler_interface@Concurrency@@PEAV_Ref_count_base@2@@Z 000000018000e7a0 f i _nodert_generated.obj
 0001:0000d7a0       ?_Reset0@?$_Ptr_base@U_Task_impl_base@details@Concurrency@@@std@@QEAAXPEAU_Task_impl_base@details@Concurrency@@PEAV_Ref_count_base@2@@Z 000000018000e7a0 f i _nodert_generated.obj
 0001:0000d7a0       ?_Reset0@?$_Ptr_base@U?$_Task_impl@PE$AAU?$IVectorView@PE$AAVRadio@Radios@Devices@Windows@@@Collections@Foundation@Windows@@@details@Concurrency@@@std@@QEAAXPEAU?$_Task_impl@PE$AAU?$IVectorView@PE$AAVRadio@Radios@Devices@Windows@@@Collections@Foundation@Windows@@@details@Concurrency@@PEAV_Ref_count_base@2@@Z 000000018000e7a0 f i _nodert_generated.obj
 0001:0000d7a0       ?_Reset0@?$_Ptr_base@U_ExceptionHolder@details@Concurrency@@@std@@QEAAXPEAU_ExceptionHolder@details@Concurrency@@PEAV_Ref_count_base@2@@Z 000000018000e7a0 f i _nodert_generated.obj
 0001:0000d7a0       ?_Reset0@?$_Ptr_base@U?$_Task_impl@E@details@Concurrency@@@std@@QEAAXPEAU?$_Task_impl@E@details@Concurrency@@PEAV_Ref_count_base@2@@Z 000000018000e7a0 f i _nodert_generated.obj
 0001:0000d830       ?_Swap@?$_Func_class@X$$V@std@@IEAAXAEAV12@@Z 000000018000e830 f i _nodert_generated.obj
 0001:0000d970       ??$SetMethodAux@V?$Local@VObject@v8@@@v8@@@imp@Nan@@YAXV?$Local@VObject@v8@@@v8@@V?$Local@VString@v8@@@3@V?$Local@VFunctionTemplate@v8@@@3@ZZ 000000018000e970 f i _nodert_generated.obj
 0001:0000d9c0       ??$?0PE$AAU?$IAsyncOperation@W4RadioAccessStatus@Radios@Devices@Windows@@@Foundation@Windows@@@?$task@W4RadioAccessStatus@Radios@Devices@Windows@@@Concurrency@@QEAA@PE$AAU?$IAsyncOperation@W4RadioAccessStatus@Radios@Devices@Windows@@@Foundation@Windows@@AEBVtask_options@1@@Z 000000018000e9c0 f i _nodert_generated.obj
 0001:0000db90       ??$_ThenImpl@W4RadioAccessStatus@Radios@Devices@Windows@@V?$function@$$A6AXV?$task@W4RadioAccessStatus@Radios@Devices@Windows@@@Concurrency@@@Z@std@@@?$task@W4RadioAccessStatus@Radios@Devices@Windows@@@Concurrency@@AEBA?AV?$task@X@1@AEBV?$function@$$A6AXV?$task@W4RadioAccessStatus@Radios@Devices@Windows@@@Concurrency@@@Z@std@@AEAU_ThenImplOptions@details@1@@Z 000000018000eb90 f i _nodert_generated.obj
 0001:0000dcb0       ??$?0PE$AAU?$IAsyncOperation@PE$AAU?$IVectorView@PE$AAVRadio@Radios@Devices@Windows@@@Collections@Foundation@Windows@@@Foundation@Windows@@@?$task@PE$AAU?$IVectorView@PE$AAVRadio@Radios@Devices@Windows@@@Collections@Foundation@Windows@@@Concurrency@@QEAA@PE$AAU?$IAsyncOperation@PE$AAU?$IVectorView@PE$AAVRadio@Radios@Devices@Windows@@@Collections@Foundation@Windows@@@Foundation@Windows@@AEBVtask_options@1@@Z 000000018000ecb0 f i _nodert_generated.obj
 0001:0000de80       ??$_ThenImpl@PE$AAU?$IVectorView@PE$AAVRadio@Radios@Devices@Windows@@@Collections@Foundation@Windows@@V?$function@$$A6AXV?$task@PE$AAU?$IVectorView@PE$AAVRadio@Radios@Devices@Windows@@@Collections@Foundation@Windows@@@Concurrency@@@Z@std@@@?$task@PE$AAU?$IVectorView@PE$AAVRadio@Radios@Devices@Windows@@@Collections@Foundation@Windows@@@Concurrency@@AEBA?AV?$task@X@1@AEBV?$function@$$A6AXV?$task@PE$AAU?$IVectorView@PE$AAVRadio@Radios@Devices@Windows@@@Collections@Foundation@Windows@@@Concurrency@@@Z@std@@AEAU_ThenImplOptions@details@1@@Z 000000018000ee80 f i _nodert_generated.obj
 0001:0000dfa0       ??$?0PE$AAU?$IAsyncOperation@PE$AAVRadio@Radios@Devices@Windows@@@Foundation@Windows@@@?$task@PE$AAVRadio@Radios@Devices@Windows@@@Concurrency@@QEAA@PE$AAU?$IAsyncOperation@PE$AAVRadio@Radios@Devices@Windows@@@Foundation@Windows@@AEBVtask_options@1@@Z 000000018000efa0 f i _nodert_generated.obj
 0001:0000e170       ??$_ThenImpl@PE$AAVRadio@Radios@Devices@Windows@@V?$function@$$A6AXV?$task@PE$AAVRadio@Radios@Devices@Windows@@@Concurrency@@@Z@std@@@?$task@PE$AAVRadio@Radios@Devices@Windows@@@Concurrency@@AEBA?AV?$task@X@1@AEBV?$function@$$A6AXV?$task@PE$AAVRadio@Radios@Devices@Windows@@@Concurrency@@@Z@std@@AEAU_ThenImplOptions@details@1@@Z 000000018000f170 f i _nodert_generated.obj
 0001:0000e290       ??$make_exception_ptr@PE$AAVException@Platform@@@std@@YA?AVexception_ptr@0@PE$AAVException@Platform@@@Z 000000018000f290 f i _nodert_generated.obj
 0001:0000e2f0       ??_G?$_Ref_count_obj@U_ExceptionHolder@details@Concurrency@@@std@@UEAAPEAXI@Z 000000018000f2f0 f i _nodert_generated.obj
 0001:0000e2f0       ??_E?$_Ref_count_obj@U_ExceptionHolder@details@Concurrency@@@std@@UEAAPEAXI@Z 000000018000f2f0 f i * CIL library *:* CIL module *
 0001:0000e320       ??_G?$_Ref_count_obj@U?$_Task_impl@PE$AAVRadio@Radios@Devices@Windows@@@details@Concurrency@@@std@@UEAAPEAXI@Z 000000018000f320 f i _nodert_generated.obj
 0001:0000e320       ??_E?$_Ref_count_obj@U?$_Task_impl@W4RadioAccessStatus@Radios@Devices@Windows@@@details@Concurrency@@@std@@UEAAPEAXI@Z 000000018000f320 f i * CIL library *:* CIL module *
 0001:0000e320       ??_E?$_Ref_count_obj@U?$_Task_impl@E@details@Concurrency@@@std@@UEAAPEAXI@Z 000000018000f320 f i * CIL library *:* CIL module *
 0001:0000e320       ??_G?$_Ref_count_obj@U?$_Task_impl@W4RadioAccessStatus@Radios@Devices@Windows@@@details@Concurrency@@@std@@UEAAPEAXI@Z 000000018000f320 f i _nodert_generated.obj
 0001:0000e320       ??_E?$_Ref_count_obj@U?$_Task_impl@PE$AAVRadio@Radios@Devices@Windows@@@details@Concurrency@@@std@@UEAAPEAXI@Z 000000018000f320 f i * CIL library *:* CIL module *
 0001:0000e320       ??_G?$_Ref_count_obj@U?$_Task_impl@E@details@Concurrency@@@std@@UEAAPEAXI@Z 000000018000f320 f i _nodert_generated.obj
 0001:0000e350       ?_Destroy@?$_Ref_count_del@V?$Persistent@VObject@v8@@V?$NonCopyablePersistentTraits@VObject@v8@@@2@@Nan@@V<lambda_7ce441e15ae9de863eea1ca9a10cae26>@@@std@@EEAAXXZ 000000018000f350 f i _nodert_generated.obj
 0001:0000e390       ?_Get_deleter@?$_Ref_count_del@V?$Persistent@VObject@v8@@V?$NonCopyablePersistentTraits@VObject@v8@@@2@@Nan@@V<lambda_7ce441e15ae9de863eea1ca9a10cae26>@@@std@@UEBAPEAXAEBVtype_info@@@Z 000000018000f390 f i _nodert_generated.obj
 0001:0000e3c0       ?_GetTaskImplBase@?$_PPLTaskHandle@EU?$_ContinuationTaskHandle@W4RadioAccessStatus@Radios@Devices@Windows@@XV?$function@$$A6AXV?$task@W4RadioAccessStatus@Radios@Devices@Windows@@@Concurrency@@@Z@std@@U?$integral_constant@_N$00@6@U_TypeSelectorNoAsync@details@Concurrency@@@?$task@W4RadioAccessStatus@Radios@Devices@Windows@@@Concurrency@@U_ContinuationTaskHandleBase@details@3@@details@Concurrency@@UEBA?AV?$shared_ptr@U_Task_impl_base@details@Concurrency@@@std@@XZ 000000018000f3c0 f i _nodert_generated.obj
 0001:0000e3c0       ?_GetTaskImplBase@?$_PPLTaskHandle@EU?$_ContinuationTaskHandle@PE$AAU?$IVectorView@PE$AAVRadio@Radios@Devices@Windows@@@Collections@Foundation@Windows@@XV?$function@$$A6AXV?$task@PE$AAU?$IVectorView@PE$AAVRadio@Radios@Devices@Windows@@@Collections@Foundation@Windows@@@Concurrency@@@Z@std@@U?$integral_constant@_N$00@6@U_TypeSelectorNoAsync@details@Concurrency@@@?$task@PE$AAU?$IVectorView@PE$AAVRadio@Radios@Devices@Windows@@@Collections@Foundation@Windows@@@Concurrency@@U_ContinuationTaskHandleBase@details@3@@details@Concurrency@@UEBA?AV?$shared_ptr@U_Task_impl_base@details@Concurrency@@@std@@XZ 000000018000f3c0 f i _nodert_generated.obj
 0001:0000e3c0       ?_GetTaskImplBase@?$_PPLTaskHandle@EU?$_ContinuationTaskHandle@PE$AAVRadio@Radios@Devices@Windows@@XV?$function@$$A6AXV?$task@PE$AAVRadio@Radios@Devices@Windows@@@Concurrency@@@Z@std@@U?$integral_constant@_N$00@6@U_TypeSelectorNoAsync@details@Concurrency@@@?$task@PE$AAVRadio@Radios@Devices@Windows@@@Concurrency@@U_ContinuationTaskHandleBase@details@3@@details@Concurrency@@UEBA?AV?$shared_ptr@U_Task_impl_base@details@Concurrency@@@std@@XZ 000000018000f3c0 f i _nodert_generated.obj
 0001:0000e400       ?invoke@?$_PPLTaskHandle@EU?$_ContinuationTaskHandle@PE$AAVRadio@Radios@Devices@Windows@@XV?$function@$$A6AXV?$task@PE$AAVRadio@Radios@Devices@Windows@@@Concurrency@@@Z@std@@U?$integral_constant@_N$00@6@U_TypeSelectorNoAsync@details@Concurrency@@@?$task@PE$AAVRadio@Radios@Devices@Windows@@@Concurrency@@U_ContinuationTaskHandleBase@details@3@@details@Concurrency@@UEBAXXZ 000000018000f400 f i _nodert_generated.obj
 0001:0000e4f0       ??1?$_PPLTaskHandle@EU?$_ContinuationTaskHandle@PE$AAVRadio@Radios@Devices@Windows@@XV?$function@$$A6AXV?$task@PE$AAVRadio@Radios@Devices@Windows@@@Concurrency@@@Z@std@@U?$integral_constant@_N$00@6@U_TypeSelectorNoAsync@details@Concurrency@@@?$task@PE$AAVRadio@Radios@Devices@Windows@@@Concurrency@@U_ContinuationTaskHandleBase@details@3@@details@Concurrency@@UEAA@XZ 000000018000f4f0 f i _nodert_generated.obj
 0001:0000e590       ??1?$_ContinuationTaskHandle@PE$AAVRadio@Radios@Devices@Windows@@XV?$function@$$A6AXV?$task@PE$AAVRadio@Radios@Devices@Windows@@@Concurrency@@@Z@std@@U?$integral_constant@_N$00@6@U_TypeSelectorNoAsync@details@Concurrency@@@?$task@PE$AAVRadio@Radios@Devices@Windows@@@Concurrency@@UEAA@XZ 000000018000f590 f i _nodert_generated.obj
 0001:0000e650       ??0?$_ContinuationTaskHandle@PE$AAVRadio@Radios@Devices@Windows@@XV?$function@$$A6AXV?$task@PE$AAVRadio@Radios@Devices@Windows@@@Concurrency@@@Z@std@@U?$integral_constant@_N$00@6@U_TypeSelectorNoAsync@details@Concurrency@@@?$task@PE$AAVRadio@Radios@Devices@Windows@@@Concurrency@@QEAA@AEBV?$shared_ptr@U?$_Task_impl@PE$AAVRadio@Radios@Devices@Windows@@@details@Concurrency@@@std@@AEBV?$shared_ptr@U?$_Task_impl@E@details@Concurrency@@@4@AEBV?$function@$$A6AXV?$task@PE$AAVRadio@Radios@Devices@Windows@@@Concurrency@@@Z@4@AEBVtask_continuation_context@2@W4_TaskInliningMode@details@2@@Z 000000018000f650 f i _nodert_generated.obj
 0001:0000e770       ?invoke@?$_PPLTaskHandle@EU?$_ContinuationTaskHandle@PE$AAU?$IVectorView@PE$AAVRadio@Radios@Devices@Windows@@@Collections@Foundation@Windows@@XV?$function@$$A6AXV?$task@PE$AAU?$IVectorView@PE$AAVRadio@Radios@Devices@Windows@@@Collections@Foundation@Windows@@@Concurrency@@@Z@std@@U?$integral_constant@_N$00@6@U_TypeSelectorNoAsync@details@Concurrency@@@?$task@PE$AAU?$IVectorView@PE$AAVRadio@Radios@Devices@Windows@@@Collections@Foundation@Windows@@@Concurrency@@U_ContinuationTaskHandleBase@details@3@@details@Concurrency@@UEBAXXZ 000000018000f770 f i _nodert_generated.obj
 0001:0000e860       ??1?$_PPLTaskHandle@EU?$_ContinuationTaskHandle@PE$AAU?$IVectorView@PE$AAVRadio@Radios@Devices@Windows@@@Collections@Foundation@Windows@@XV?$function@$$A6AXV?$task@PE$AAU?$IVectorView@PE$AAVRadio@Radios@Devices@Windows@@@Collections@Foundation@Windows@@@Concurrency@@@Z@std@@U?$integral_constant@_N$00@6@U_TypeSelectorNoAsync@details@Concurrency@@@?$task@PE$AAU?$IVectorView@PE$AAVRadio@Radios@Devices@Windows@@@Collections@Foundation@Windows@@@Concurrency@@U_ContinuationTaskHandleBase@details@3@@details@Concurrency@@UEAA@XZ 000000018000f860 f i _nodert_generated.obj
 0001:0000e900       ??1?$_ContinuationTaskHandle@PE$AAU?$IVectorView@PE$AAVRadio@Radios@Devices@Windows@@@Collections@Foundation@Windows@@XV?$function@$$A6AXV?$task@PE$AAU?$IVectorView@PE$AAVRadio@Radios@Devices@Windows@@@Collections@Foundation@Windows@@@Concurrency@@@Z@std@@U?$integral_constant@_N$00@6@U_TypeSelectorNoAsync@details@Concurrency@@@?$task@PE$AAU?$IVectorView@PE$AAVRadio@Radios@Devices@Windows@@@Collections@Foundation@Windows@@@Concurrency@@UEAA@XZ 000000018000f900 f i _nodert_generated.obj
 0001:0000e9c0       ??0?$_ContinuationTaskHandle@PE$AAU?$IVectorView@PE$AAVRadio@Radios@Devices@Windows@@@Collections@Foundation@Windows@@XV?$function@$$A6AXV?$task@PE$AAU?$IVectorView@PE$AAVRadio@Radios@Devices@Windows@@@Collections@Foundation@Windows@@@Concurrency@@@Z@std@@U?$integral_constant@_N$00@6@U_TypeSelectorNoAsync@details@Concurrency@@@?$task@PE$AAU?$IVectorView@PE$AAVRadio@Radios@Devices@Windows@@@Collections@Foundation@Windows@@@Concurrency@@QEAA@AEBV?$shared_ptr@U?$_Task_impl@PE$AAU?$IVectorView@PE$AAVRadio@Radios@Devices@Windows@@@Collections@Foundation@Windows@@@details@Concurrency@@@std@@AEBV?$shared_ptr@U?$_Task_impl@E@details@Concurrency@@@4@AEBV?$function@$$A6AXV?$task@PE$AAU?$IVectorView@PE$AAVRadio@Radios@Devices@Windows@@@Collections@Foundation@Windows@@@Concurrency@@@Z@4@AEBVtask_continuation_context@2@W4_TaskInliningMode@details@2@@Z 000000018000f9c0 f i _nodert_generated.obj
 0001:0000eae0       ?invoke@?$_PPLTaskHandle@EU?$_ContinuationTaskHandle@W4RadioAccessStatus@Radios@Devices@Windows@@XV?$function@$$A6AXV?$task@W4RadioAccessStatus@Radios@Devices@Windows@@@Concurrency@@@Z@std@@U?$integral_constant@_N$00@6@U_TypeSelectorNoAsync@details@Concurrency@@@?$task@W4RadioAccessStatus@Radios@Devices@Windows@@@Concurrency@@U_ContinuationTaskHandleBase@details@3@@details@Concurrency@@UEBAXXZ 000000018000fae0 f i _nodert_generated.obj
 0001:0000ebd0       ??1?$_PPLTaskHandle@EU?$_ContinuationTaskHandle@W4RadioAccessStatus@Radios@Devices@Windows@@XV?$function@$$A6AXV?$task@W4RadioAccessStatus@Radios@Devices@Windows@@@Concurrency@@@Z@std@@U?$integral_constant@_N$00@6@U_TypeSelectorNoAsync@details@Concurrency@@@?$task@W4RadioAccessStatus@Radios@Devices@Windows@@@Concurrency@@U_ContinuationTaskHandleBase@details@3@@details@Concurrency@@UEAA@XZ 000000018000fbd0 f i _nodert_generated.obj
 0001:0000ec70       ??1?$_ContinuationTaskHandle@W4RadioAccessStatus@Radios@Devices@Windows@@XV?$function@$$A6AXV?$task@W4RadioAccessStatus@Radios@Devices@Windows@@@Concurrency@@@Z@std@@U?$integral_constant@_N$00@6@U_TypeSelectorNoAsync@details@Concurrency@@@?$task@W4RadioAccessStatus@Radios@Devices@Windows@@@Concurrency@@UEAA@XZ 000000018000fc70 f i _nodert_generated.obj
 0001:0000ed10       ??0?$_ContinuationTaskHandle@W4RadioAccessStatus@Radios@Devices@Windows@@XV?$function@$$A6AXV?$task@W4RadioAccessStatus@Radios@Devices@Windows@@@Concurrency@@@Z@std@@U?$integral_constant@_N$00@6@U_TypeSelectorNoAsync@details@Concurrency@@@?$task@W4RadioAccessStatus@Radios@Devices@Windows@@@Concurrency@@QEAA@AEBV?$shared_ptr@U?$_Task_impl@W4RadioAccessStatus@Radios@Devices@Windows@@@details@Concurrency@@@std@@AEBV?$shared_ptr@U?$_Task_impl@E@details@Concurrency@@@4@AEBV?$function@$$A6AXV?$task@W4RadioAccessStatus@Radios@Devices@Windows@@@Concurrency@@@Z@4@AEBVtask_continuation_context@2@W4_TaskInliningMode@details@2@@Z 000000018000fd10 f i _nodert_generated.obj
 0001:0000ee10       ?_CreateImpl@?$task@PE$AAVRadio@Radios@Devices@Windows@@@Concurrency@@QEAAXPEAV_CancellationTokenState@details@2@Uscheduler_ptr@2@@Z 000000018000fe10 f i _nodert_generated.obj
 0001:0000ef50       ?_CreateImpl@?$task@PE$AAU?$IVectorView@PE$AAVRadio@Radios@Devices@Windows@@@Collections@Foundation@Windows@@@Concurrency@@QEAAXPEAV_CancellationTokenState@details@2@Uscheduler_ptr@2@@Z 000000018000ff50 f i _nodert_generated.obj
 0001:0000f090       ?_CreateImpl@?$task@W4RadioAccessStatus@Radios@Devices@Windows@@@Concurrency@@QEAAXPEAV_CancellationTokenState@details@2@Uscheduler_ptr@2@@Z 0000000180010090 f i _nodert_generated.obj
 0001:0000f1d0       ??0?$_Task_impl@E@details@Concurrency@@QEAA@PEAV_CancellationTokenState@12@Uscheduler_ptr@2@@Z 00000001800101d0 f i _nodert_generated.obj
 0001:0000f280       ??_G?$_Ref_count_del@V?$Persistent@VObject@v8@@V?$NonCopyablePersistentTraits@VObject@v8@@@2@@Nan@@V<lambda_7ce441e15ae9de863eea1ca9a10cae26>@@@std@@UEAAPEAXI@Z 0000000180010280 f i _nodert_generated.obj
 0001:0000f280       ??_E?$_Ref_count_del@V?$Persistent@VObject@v8@@V?$NonCopyablePersistentTraits@VObject@v8@@@2@@Nan@@V<lambda_7ce441e15ae9de863eea1ca9a10cae26>@@@std@@UEAAPEAXI@Z 0000000180010280 f i * CIL library *:* CIL module *
 0001:0000f2b0       ??_G?$_PPLTaskHandle@EU?$_ContinuationTaskHandle@PE$AAVRadio@Radios@Devices@Windows@@XV?$function@$$A6AXV?$task@PE$AAVRadio@Radios@Devices@Windows@@@Concurrency@@@Z@std@@U?$integral_constant@_N$00@6@U_TypeSelectorNoAsync@details@Concurrency@@@?$task@PE$AAVRadio@Radios@Devices@Windows@@@Concurrency@@U_ContinuationTaskHandleBase@details@3@@details@Concurrency@@UEAAPEAXI@Z 00000001800102b0 f i _nodert_generated.obj
 0001:0000f2b0       ??_E?$_PPLTaskHandle@EU?$_ContinuationTaskHandle@PE$AAVRadio@Radios@Devices@Windows@@XV?$function@$$A6AXV?$task@PE$AAVRadio@Radios@Devices@Windows@@@Concurrency@@@Z@std@@U?$integral_constant@_N$00@6@U_TypeSelectorNoAsync@details@Concurrency@@@?$task@PE$AAVRadio@Radios@Devices@Windows@@@Concurrency@@U_ContinuationTaskHandleBase@details@3@@details@Concurrency@@UEAAPEAXI@Z 00000001800102b0 f i * CIL library *:* CIL module *
 0001:0000f2f0       ??_G?$_ContinuationTaskHandle@PE$AAVRadio@Radios@Devices@Windows@@XV?$function@$$A6AXV?$task@PE$AAVRadio@Radios@Devices@Windows@@@Concurrency@@@Z@std@@U?$integral_constant@_N$00@6@U_TypeSelectorNoAsync@details@Concurrency@@@?$task@PE$AAVRadio@Radios@Devices@Windows@@@Concurrency@@UEAAPEAXI@Z 00000001800102f0 f i _nodert_generated.obj
 0001:0000f2f0       ??_E?$_ContinuationTaskHandle@PE$AAVRadio@Radios@Devices@Windows@@XV?$function@$$A6AXV?$task@PE$AAVRadio@Radios@Devices@Windows@@@Concurrency@@@Z@std@@U?$integral_constant@_N$00@6@U_TypeSelectorNoAsync@details@Concurrency@@@?$task@PE$AAVRadio@Radios@Devices@Windows@@@Concurrency@@UEAAPEAXI@Z 00000001800102f0 f i * CIL library *:* CIL module *
 0001:0000f330       ??_E?$_PPLTaskHandle@EU?$_ContinuationTaskHandle@PE$AAU?$IVectorView@PE$AAVRadio@Radios@Devices@Windows@@@Collections@Foundation@Windows@@XV?$function@$$A6AXV?$task@PE$AAU?$IVectorView@PE$AAVRadio@Radios@Devices@Windows@@@Collections@Foundation@Windows@@@Concurrency@@@Z@std@@U?$integral_constant@_N$00@6@U_TypeSelectorNoAsync@details@Concurrency@@@?$task@PE$AAU?$IVectorView@PE$AAVRadio@Radios@Devices@Windows@@@Collections@Foundation@Windows@@@Concurrency@@U_ContinuationTaskHandleBase@details@3@@details@Concurrency@@UEAAPEAXI@Z 0000000180010330 f i * CIL library *:* CIL module *
 0001:0000f330       ??_G?$_PPLTaskHandle@EU?$_ContinuationTaskHandle@PE$AAU?$IVectorView@PE$AAVRadio@Radios@Devices@Windows@@@Collections@Foundation@Windows@@XV?$function@$$A6AXV?$task@PE$AAU?$IVectorView@PE$AAVRadio@Radios@Devices@Windows@@@Collections@Foundation@Windows@@@Concurrency@@@Z@std@@U?$integral_constant@_N$00@6@U_TypeSelectorNoAsync@details@Concurrency@@@?$task@PE$AAU?$IVectorView@PE$AAVRadio@Radios@Devices@Windows@@@Collections@Foundation@Windows@@@Concurrency@@U_ContinuationTaskHandleBase@details@3@@details@Concurrency@@UEAAPEAXI@Z 0000000180010330 f i _nodert_generated.obj
 0001:0000f370       ??_G?$_ContinuationTaskHandle@PE$AAU?$IVectorView@PE$AAVRadio@Radios@Devices@Windows@@@Collections@Foundation@Windows@@XV?$function@$$A6AXV?$task@PE$AAU?$IVectorView@PE$AAVRadio@Radios@Devices@Windows@@@Collections@Foundation@Windows@@@Concurrency@@@Z@std@@U?$integral_constant@_N$00@6@U_TypeSelectorNoAsync@details@Concurrency@@@?$task@PE$AAU?$IVectorView@PE$AAVRadio@Radios@Devices@Windows@@@Collections@Foundation@Windows@@@Concurrency@@UEAAPEAXI@Z 0000000180010370 f i _nodert_generated.obj
 0001:0000f370       ??_E?$_ContinuationTaskHandle@PE$AAU?$IVectorView@PE$AAVRadio@Radios@Devices@Windows@@@Collections@Foundation@Windows@@XV?$function@$$A6AXV?$task@PE$AAU?$IVectorView@PE$AAVRadio@Radios@Devices@Windows@@@Collections@Foundation@Windows@@@Concurrency@@@Z@std@@U?$integral_constant@_N$00@6@U_TypeSelectorNoAsync@details@Concurrency@@@?$task@PE$AAU?$IVectorView@PE$AAVRadio@Radios@Devices@Windows@@@Collections@Foundation@Windows@@@Concurrency@@UEAAPEAXI@Z 0000000180010370 f i * CIL library *:* CIL module *
 0001:0000f3b0       ??_G?$_PPLTaskHandle@EU?$_ContinuationTaskHandle@W4RadioAccessStatus@Radios@Devices@Windows@@XV?$function@$$A6AXV?$task@W4RadioAccessStatus@Radios@Devices@Windows@@@Concurrency@@@Z@std@@U?$integral_constant@_N$00@6@U_TypeSelectorNoAsync@details@Concurrency@@@?$task@W4RadioAccessStatus@Radios@Devices@Windows@@@Concurrency@@U_ContinuationTaskHandleBase@details@3@@details@Concurrency@@UEAAPEAXI@Z 00000001800103b0 f i _nodert_generated.obj
 0001:0000f3b0       ??_E?$_PPLTaskHandle@EU?$_ContinuationTaskHandle@W4RadioAccessStatus@Radios@Devices@Windows@@XV?$function@$$A6AXV?$task@W4RadioAccessStatus@Radios@Devices@Windows@@@Concurrency@@@Z@std@@U?$integral_constant@_N$00@6@U_TypeSelectorNoAsync@details@Concurrency@@@?$task@W4RadioAccessStatus@Radios@Devices@Windows@@@Concurrency@@U_ContinuationTaskHandleBase@details@3@@details@Concurrency@@UEAAPEAXI@Z 00000001800103b0 f i * CIL library *:* CIL module *
 0001:0000f3f0       ??_G?$_ContinuationTaskHandle@W4RadioAccessStatus@Radios@Devices@Windows@@XV?$function@$$A6AXV?$task@W4RadioAccessStatus@Radios@Devices@Windows@@@Concurrency@@@Z@std@@U?$integral_constant@_N$00@6@U_TypeSelectorNoAsync@details@Concurrency@@@?$task@W4RadioAccessStatus@Radios@Devices@Windows@@@Concurrency@@UEAAPEAXI@Z 00000001800103f0 f i _nodert_generated.obj
 0001:0000f3f0       ??_E?$_ContinuationTaskHandle@W4RadioAccessStatus@Radios@Devices@Windows@@XV?$function@$$A6AXV?$task@W4RadioAccessStatus@Radios@Devices@Windows@@@Concurrency@@@Z@std@@U?$integral_constant@_N$00@6@U_TypeSelectorNoAsync@details@Concurrency@@@?$task@W4RadioAccessStatus@Radios@Devices@Windows@@@Concurrency@@UEAAPEAXI@Z 00000001800103f0 f i * CIL library *:* CIL module *
 0001:0000f430       ??0?$_PPLTaskHandle@EU?$_ContinuationTaskHandle@PE$AAVRadio@Radios@Devices@Windows@@XV?$function@$$A6AXV?$task@PE$AAVRadio@Radios@Devices@Windows@@@Concurrency@@@Z@std@@U?$integral_constant@_N$00@6@U_TypeSelectorNoAsync@details@Concurrency@@@?$task@PE$AAVRadio@Radios@Devices@Windows@@@Concurrency@@U_ContinuationTaskHandleBase@details@3@@details@Concurrency@@QEAA@AEBV?$shared_ptr@U?$_Task_impl@E@details@Concurrency@@@std@@@Z 0000000180010430 f i _nodert_generated.obj
 0001:0000f4c0       ??0?$_PPLTaskHandle@EU?$_ContinuationTaskHandle@PE$AAU?$IVectorView@PE$AAVRadio@Radios@Devices@Windows@@@Collections@Foundation@Windows@@XV?$function@$$A6AXV?$task@PE$AAU?$IVectorView@PE$AAVRadio@Radios@Devices@Windows@@@Collections@Foundation@Windows@@@Concurrency@@@Z@std@@U?$integral_constant@_N$00@6@U_TypeSelectorNoAsync@details@Concurrency@@@?$task@PE$AAU?$IVectorView@PE$AAVRadio@Radios@Devices@Windows@@@Collections@Foundation@Windows@@@Concurrency@@U_ContinuationTaskHandleBase@details@3@@details@Concurrency@@QEAA@AEBV?$shared_ptr@U?$_Task_impl@E@details@Concurrency@@@std@@@Z 00000001800104c0 f i _nodert_generated.obj
 0001:0000f550       ??0?$_PPLTaskHandle@EU?$_ContinuationTaskHandle@W4RadioAccessStatus@Radios@Devices@Windows@@XV?$function@$$A6AXV?$task@W4RadioAccessStatus@Radios@Devices@Windows@@@Concurrency@@@Z@std@@U?$integral_constant@_N$00@6@U_TypeSelectorNoAsync@details@Concurrency@@@?$task@W4RadioAccessStatus@Radios@Devices@Windows@@@Concurrency@@U_ContinuationTaskHandleBase@details@3@@details@Concurrency@@QEAA@AEBV?$shared_ptr@U?$_Task_impl@E@details@Concurrency@@@std@@@Z 0000000180010550 f i _nodert_generated.obj
 0001:0000f5e0       ?_Make@?$_Task_ptr@PE$AAVRadio@Radios@Devices@Windows@@@details@Concurrency@@SA?AV?$shared_ptr@U?$_Task_impl@PE$AAVRadio@Radios@Devices@Windows@@@details@Concurrency@@@std@@PEAV_CancellationTokenState@23@Uscheduler_ptr@3@@Z 00000001800105e0 f i _nodert_generated.obj
 0001:0000f670       ?_Make@?$_Task_ptr@PE$AAU?$IVectorView@PE$AAVRadio@Radios@Devices@Windows@@@Collections@Foundation@Windows@@@details@Concurrency@@SA?AV?$shared_ptr@U?$_Task_impl@PE$AAU?$IVectorView@PE$AAVRadio@Radios@Devices@Windows@@@Collections@Foundation@Windows@@@details@Concurrency@@@std@@PEAV_CancellationTokenState@23@Uscheduler_ptr@3@@Z 0000000180010670 f i _nodert_generated.obj
 0001:0000f700       ?_Make@?$_Task_ptr@W4RadioAccessStatus@Radios@Devices@Windows@@@details@Concurrency@@SA?AV?$shared_ptr@U?$_Task_impl@W4RadioAccessStatus@Radios@Devices@Windows@@@details@Concurrency@@@std@@PEAV_CancellationTokenState@23@Uscheduler_ptr@3@@Z 0000000180010700 f i _nodert_generated.obj
 0001:0000f790       ?_Continue@?$_ContinuationTaskHandle@PE$AAVRadio@Radios@Devices@Windows@@XV?$function@$$A6AXV?$task@PE$AAVRadio@Radios@Devices@Windows@@@Concurrency@@@Z@std@@U?$integral_constant@_N$00@6@U_TypeSelectorNoAsync@details@Concurrency@@@?$task@PE$AAVRadio@Radios@Devices@Windows@@@Concurrency@@QEBAXU?$integral_constant@_N$00@std@@U_TypeSelectorNoAsync@details@3@@Z 0000000180010790 f i _nodert_generated.obj
 0001:0000f8f0       ?_Continue@?$_ContinuationTaskHandle@PE$AAU?$IVectorView@PE$AAVRadio@Radios@Devices@Windows@@@Collections@Foundation@Windows@@XV?$function@$$A6AXV?$task@PE$AAU?$IVectorView@PE$AAVRadio@Radios@Devices@Windows@@@Collections@Foundation@Windows@@@Concurrency@@@Z@std@@U?$integral_constant@_N$00@6@U_TypeSelectorNoAsync@details@Concurrency@@@?$task@PE$AAU?$IVectorView@PE$AAVRadio@Radios@Devices@Windows@@@Collections@Foundation@Windows@@@Concurrency@@QEBAXU?$integral_constant@_N$00@std@@U_TypeSelectorNoAsync@details@3@@Z 00000001800108f0 f i _nodert_generated.obj
 0001:0000fa50       ?_Continue@?$_ContinuationTaskHandle@W4RadioAccessStatus@Radios@Devices@Windows@@XV?$function@$$A6AXV?$task@W4RadioAccessStatus@Radios@Devices@Windows@@@Concurrency@@@Z@std@@U?$integral_constant@_N$00@6@U_TypeSelectorNoAsync@details@Concurrency@@@?$task@W4RadioAccessStatus@Radios@Devices@Windows@@@Concurrency@@QEBAXU?$integral_constant@_N$00@std@@U_TypeSelectorNoAsync@details@3@@Z 0000000180010a50 f i _nodert_generated.obj
 0001:0000fbc0       ??1?$_Func_class@EV?$task@W4RadioAccessStatus@Radios@Devices@Windows@@@Concurrency@@@std@@QEAA@XZ 0000000180010bc0 f i _nodert_generated.obj
 0001:0000fbc0       ??1?$function@$$A6AEV?$task@W4RadioAccessStatus@Radios@Devices@Windows@@@Concurrency@@@Z@std@@QEAA@XZ 0000000180010bc0 f i _nodert_generated.obj
 0001:0000fbd0       ?_Perform@?$_Continuation_func_transformer@V?$task@W4RadioAccessStatus@Radios@Devices@Windows@@@Concurrency@@X@Concurrency@@SA?AV?$function@$$A6AEV?$task@W4RadioAccessStatus@Radios@Devices@Windows@@@Concurrency@@@Z@std@@V?$function@$$A6AXV?$task@W4RadioAccessStatus@Radios@Devices@Windows@@@Concurrency@@@Z@4@@Z 0000000180010bd0 f i _nodert_generated.obj
 0001:0000fc30       ??1?$function@$$A6AEV?$task@PE$AAU?$IVectorView@PE$AAVRadio@Radios@Devices@Windows@@@Collections@Foundation@Windows@@@Concurrency@@@Z@std@@QEAA@XZ 0000000180010c30 f i _nodert_generated.obj
 0001:0000fc30       ??1?$_Func_class@EV?$task@PE$AAU?$IVectorView@PE$AAVRadio@Radios@Devices@Windows@@@Collections@Foundation@Windows@@@Concurrency@@@std@@QEAA@XZ 0000000180010c30 f i _nodert_generated.obj
 0001:0000fc70       ?_Perform@?$_Continuation_func_transformer@V?$task@PE$AAU?$IVectorView@PE$AAVRadio@Radios@Devices@Windows@@@Collections@Foundation@Windows@@@Concurrency@@X@Concurrency@@SA?AV?$function@$$A6AEV?$task@PE$AAU?$IVectorView@PE$AAVRadio@Radios@Devices@Windows@@@Collections@Foundation@Windows@@@Concurrency@@@Z@std@@V?$function@$$A6AXV?$task@PE$AAU?$IVectorView@PE$AAVRadio@Radios@Devices@Windows@@@Collections@Foundation@Windows@@@Concurrency@@@Z@4@@Z 0000000180010c70 f i _nodert_generated.obj
 0001:0000fcf0       ??1?$_Func_class@EV?$task@PE$AAVRadio@Radios@Devices@Windows@@@Concurrency@@@std@@QEAA@XZ 0000000180010cf0 f i _nodert_generated.obj
 0001:0000fcf0       ??1?$function@$$A6AEV?$task@PE$AAVRadio@Radios@Devices@Windows@@@Concurrency@@@Z@std@@QEAA@XZ 0000000180010cf0 f i _nodert_generated.obj
 0001:0000fd30       ?_Perform@?$_Continuation_func_transformer@V?$task@PE$AAVRadio@Radios@Devices@Windows@@@Concurrency@@X@Concurrency@@SA?AV?$function@$$A6AEV?$task@PE$AAVRadio@Radios@Devices@Windows@@@Concurrency@@@Z@std@@V?$function@$$A6AXV?$task@PE$AAVRadio@Radios@Devices@Windows@@@Concurrency@@@Z@4@@Z 0000000180010d30 f i _nodert_generated.obj
 0001:0000fdb0       ?_Tidy@?$_Func_class@EV?$task@W4RadioAccessStatus@Radios@Devices@Windows@@@Concurrency@@@std@@IEAAXXZ 0000000180010db0 f i _nodert_generated.obj
 0001:0000fe30       ??$make_shared@U?$_Task_impl@PE$AAVRadio@Radios@Devices@Windows@@@details@Concurrency@@AEAPEAV_CancellationTokenState@23@AEAUscheduler_ptr@3@@std@@YA?AV?$shared_ptr@U?$_Task_impl@PE$AAVRadio@Radios@Devices@Windows@@@details@Concurrency@@@0@AEAPEAV_CancellationTokenState@details@Concurrency@@AEAUscheduler_ptr@4@@Z 0000000180010e30 f i _nodert_generated.obj
 0001:0000ff20       ??$make_shared@U?$_Task_impl@PE$AAU?$IVectorView@PE$AAVRadio@Radios@Devices@Windows@@@Collections@Foundation@Windows@@@details@Concurrency@@AEAPEAV_CancellationTokenState@23@AEAUscheduler_ptr@3@@std@@YA?AV?$shared_ptr@U?$_Task_impl@PE$AAU?$IVectorView@PE$AAVRadio@Radios@Devices@Windows@@@Collections@Foundation@Windows@@@details@Concurrency@@@0@AEAPEAV_CancellationTokenState@details@Concurrency@@AEAUscheduler_ptr@4@@Z 0000000180010f20 f i _nodert_generated.obj
 0001:00010010       ??$make_shared@U?$_Task_impl@W4RadioAccessStatus@Radios@Devices@Windows@@@details@Concurrency@@AEAPEAV_CancellationTokenState@23@AEAUscheduler_ptr@3@@std@@YA?AV?$shared_ptr@U?$_Task_impl@W4RadioAccessStatus@Radios@Devices@Windows@@@details@Concurrency@@@0@AEAPEAV_CancellationTokenState@details@Concurrency@@AEAUscheduler_ptr@4@@Z 0000000180011010 f i _nodert_generated.obj
 0001:00010100       ??$_MakeTToUnitFunc@V?$task@PE$AAVRadio@Radios@Devices@Windows@@@Concurrency@@@details@Concurrency@@YA?AV?$function@$$A6AEV?$task@PE$AAVRadio@Radios@Devices@Windows@@@Concurrency@@@Z@std@@AEBV?$function@$$A6AXV?$task@PE$AAVRadio@Radios@Devices@Windows@@@Concurrency@@@Z@3@@Z 0000000180011100 f i _nodert_generated.obj
 0001:00010220       ??$_MakeTToUnitFunc@V?$task@PE$AAU?$IVectorView@PE$AAVRadio@Radios@Devices@Windows@@@Collections@Foundation@Windows@@@Concurrency@@@details@Concurrency@@YA?AV?$function@$$A6AEV?$task@PE$AAU?$IVectorView@PE$AAVRadio@Radios@Devices@Windows@@@Collections@Foundation@Windows@@@Concurrency@@@Z@std@@AEBV?$function@$$A6AXV?$task@PE$AAU?$IVectorView@PE$AAVRadio@Radios@Devices@Windows@@@Collections@Foundation@Windows@@@Concurrency@@@Z@3@@Z 0000000180011220 f i _nodert_generated.obj
 0001:00010340       ??$_MakeTToUnitFunc@V?$task@W4RadioAccessStatus@Radios@Devices@Windows@@@Concurrency@@@details@Concurrency@@YA?AV?$function@$$A6AEV?$task@W4RadioAccessStatus@Radios@Devices@Windows@@@Concurrency@@@Z@std@@AEBV?$function@$$A6AXV?$task@W4RadioAccessStatus@Radios@Devices@Windows@@@Concurrency@@@Z@3@@Z 0000000180011340 f i _nodert_generated.obj
 0001:000105c0       ?_Delete_this@?$_Func_impl@V<lambda_ccd993006fa69c8498fa84abf616a650>@@V?$allocator@H@std@@X$$V@std@@EEAAX_N@Z 00000001800115c0 f i _nodert_generated.obj
 0001:000105c0       ?_Delete_this@?$_Func_impl@V<lambda_763529b0c7473cbc215a52d189ac9b18>@@V?$allocator@H@std@@X$$V@std@@EEAAX_N@Z 00000001800115c0 f i _nodert_generated.obj
 0001:000105c0       ?_Delete_this@?$_Func_impl@V<lambda_fa74f712429373a3f78dc33742231903>@@V?$allocator@H@std@@X$$V@std@@EEAAX_N@Z 00000001800115c0 f i _nodert_generated.obj
 0001:000105c0       ?_Delete_this@?$_Func_impl@V<lambda_f65fe7dd5d5c7d6beb441784825294a0>@@V?$allocator@H@std@@X$$V@std@@EEAAX_N@Z 00000001800115c0 f i _nodert_generated.obj
 0001:000105c0       ?_Delete_this@?$_Func_impl@V<lambda_ee2800ccd2b011420c5de0c63356449b>@@V?$allocator@H@std@@X$$V@std@@EEAAX_N@Z 00000001800115c0 f i _nodert_generated.obj
 0001:000105c0       ?_Delete_this@?$_Func_impl@V<lambda_e9d83560961a0709c8983a5a76f54321>@@V?$allocator@H@std@@X$$V@std@@EEAAX_N@Z 00000001800115c0 f i _nodert_generated.obj
 0001:000105e0       ?_Get@?$_Func_impl@V<lambda_bf7f2b711a6b55b30dfb35db79500e56>@@V?$allocator@H@std@@_NV?$Local@VValue@v8@@@v8@@@std@@EEBAPEBXXZ 00000001800115e0 f i _nodert_generated.obj
 0001:000105e0       ?_Get@?$_Func_impl@V<lambda_f65fe7dd5d5c7d6beb441784825294a0>@@V?$allocator@H@std@@X$$V@std@@EEBAPEBXXZ 00000001800115e0 f i _nodert_generated.obj
 0001:000105e0       ?_Get@?$_Func_impl@V<lambda_9054500f7a0d601079f2287918e4d694>@@V?$allocator@H@std@@_NV?$Local@VValue@v8@@@v8@@@std@@EEBAPEBXXZ 00000001800115e0 f i _nodert_generated.obj
 0001:000105e0       ?_Get@?$_Func_impl@V<lambda_332ba2b9435369ab76e287351a81320b>@@V?$allocator@H@std@@XV?$function@$$A6AXHPEAV?$Local@VValue@v8@@@v8@@@Z@3@@std@@EEBAPEBXXZ 00000001800115e0 f i _nodert_generated.obj
 0001:000105e0       ?_Get@?$_Func_impl@V<lambda_c806722195bf1298f17615890da7d503>@@V?$allocator@H@std@@PE$AAVRadio@Radios@Devices@Windows@@V?$Local@VValue@v8@@@v8@@@std@@EEBAPEBXXZ 00000001800115e0 f i _nodert_generated.obj
 0001:000105e0       ?_Get@?$_Func_impl@V<lambda_6b3d546cb33cb2be9b0a401ff7fba40f>@@V?$allocator@H@std@@XV?$task@PE$AAU?$IVectorView@PE$AAVRadio@Radios@Devices@Windows@@@Collections@Foundation@Windows@@@Concurrency@@@std@@EEBAPEBXXZ 00000001800115e0 f i _nodert_generated.obj
 0001:000105e0       ?_Get@?$_Func_impl@V<lambda_e648a951913df07dc2c48aa4b13c28ad>@@V?$allocator@H@std@@X$$V@std@@EEBAPEBXXZ 00000001800115e0 f i _nodert_generated.obj
 0001:000105e0       ?_Get@?$_Func_impl@V<lambda_fa74f712429373a3f78dc33742231903>@@V?$allocator@H@std@@X$$V@std@@EEBAPEBXXZ 00000001800115e0 f i _nodert_generated.obj
 0001:000105e0       ?_Get@?$_Func_impl@V<lambda_ee2800ccd2b011420c5de0c63356449b>@@V?$allocator@H@std@@X$$V@std@@EEBAPEBXXZ 00000001800115e0 f i _nodert_generated.obj
 0001:000105e0       ?_Get@?$_Func_impl@V<lambda_937a019cbae5299c9ee089aacd8953b7>@@V?$allocator@H@std@@XV?$function@$$A6AXHPEAV?$Local@VValue@v8@@@v8@@@Z@3@@std@@EEBAPEBXXZ 00000001800115e0 f i _nodert_generated.obj
 0001:000105e0       ?_Get@?$_Func_impl@V<lambda_f25c37099038263181b5186a3fa41b37>@@V?$allocator@H@std@@X$$V@std@@EEBAPEBXXZ 00000001800115e0 f i _nodert_generated.obj
 0001:000105e0       ?_Get@?$_Func_impl@V<lambda_e9d83560961a0709c8983a5a76f54321>@@V?$allocator@H@std@@X$$V@std@@EEBAPEBXXZ 00000001800115e0 f i _nodert_generated.obj
 0001:000105e0       ?_Get@?$_Func_impl@V<lambda_be5e2ae45d9afcdad4d6af170ce6b1a9>@@V?$allocator@H@std@@XV?$function@$$A6AXHPEAV?$Local@VValue@v8@@@v8@@@Z@3@@std@@EEBAPEBXXZ 00000001800115e0 f i _nodert_generated.obj
 0001:000105e0       ?_Get@?$_Func_impl@V<lambda_ccd993006fa69c8498fa84abf616a650>@@V?$allocator@H@std@@X$$V@std@@EEBAPEBXXZ 00000001800115e0 f i _nodert_generated.obj
 0001:000105e0       ?_Get@?$_Func_impl@V<lambda_6e721a9cc44c44771ffaa71ba9f88df1>@@V?$allocator@H@std@@XV?$function@$$A6AXHPEAV?$Local@VValue@v8@@@v8@@@Z@3@@std@@EEBAPEBXXZ 00000001800115e0 f i _nodert_generated.obj
 0001:000105e0       ?_Get@?$_Func_impl@V<lambda_f62ce569bcbb190725394d954e43b37a>@@V?$allocator@H@std@@XV?$task@W4RadioAccessStatus@Radios@Devices@Windows@@@Concurrency@@@std@@EEBAPEBXXZ 00000001800115e0 f i _nodert_generated.obj
 0001:000105e0       ?_Get@?$_Func_impl@V<lambda_73163a669fe347e5c4e2d28c36c6f8ca>@@V?$allocator@H@std@@EV?$task@PE$AAVRadio@Radios@Devices@Windows@@@Concurrency@@@std@@EEBAPEBXXZ 00000001800115e0 f i _nodert_generated.obj
 0001:000105e0       ?_Get@?$_Func_impl@V<lambda_b053cd760f99e9a3b5b0a75bc506816c>@@V?$allocator@H@std@@V?$Local@VValue@v8@@@v8@@PE$AAVRadio@Radios@Devices@Windows@@@std@@EEBAPEBXXZ 00000001800115e0 f i _nodert_generated.obj
 0001:000105e0       ?_Get@?$_Func_impl@V<lambda_86719af9e59bcf010981affea63e2ba5>@@V?$allocator@H@std@@X$$V@std@@EEBAPEBXXZ 00000001800115e0 f i _nodert_generated.obj
 0001:000105e0       ?_Get@?$_Func_impl@V<lambda_1410bf25c1f3e34acba1e87129c0b837>@@V?$allocator@H@std@@XV?$function@$$A6AXHPEAV?$Local@VValue@v8@@@v8@@@Z@3@@std@@EEBAPEBXXZ 00000001800115e0 f i _nodert_generated.obj
 0001:000105e0       ?_Get@?$_Func_impl@V<lambda_fc55a96778b695da9907353a9fdacbca>@@V?$allocator@H@std@@X$$V@std@@EEBAPEBXXZ 00000001800115e0 f i _nodert_generated.obj
 0001:000105e0       ?_Get@?$_Func_impl@V<lambda_bd8db8e132653ed2b09381d83d27b969>@@V?$allocator@H@std@@XV?$function@$$A6AXHPEAV?$Local@VValue@v8@@@v8@@@Z@3@@std@@EEBAPEBXXZ 00000001800115e0 f i _nodert_generated.obj
 0001:000105e0       ?_Get@?$_Func_impl@V<lambda_34c7f220960deee2386c1fdeeca0be56>@@V?$allocator@H@std@@X$$V@std@@EEBAPEBXXZ 00000001800115e0 f i _nodert_generated.obj
 0001:000105e0       ?_Get@?$_Func_impl@V<lambda_923cdb2d6b6e10951a75b3af8d001269>@@V?$allocator@H@std@@XV?$function@$$A6AXHPEAV?$Local@VValue@v8@@@v8@@@Z@3@@std@@EEBAPEBXXZ 00000001800115e0 f i _nodert_generated.obj
 0001:000105e0       ?_Get@?$_Func_impl@V<lambda_763529b0c7473cbc215a52d189ac9b18>@@V?$allocator@H@std@@X$$V@std@@EEBAPEBXXZ 00000001800115e0 f i _nodert_generated.obj
 0001:000105e0       ?_Get@?$_Func_impl@V<lambda_13c093ceb3cb7088042cb26732856e67>@@V?$allocator@H@std@@XV?$function@$$A6AXHPEAV?$Local@VValue@v8@@@v8@@@Z@3@@std@@EEBAPEBXXZ 00000001800115e0 f i _nodert_generated.obj
 0001:000105e0       ?_Get@?$_Func_impl@V<lambda_84fe49f24ae8de4bd96cfe7e2e397527>@@V?$allocator@H@std@@XV?$task@W4RadioAccessStatus@Radios@Devices@Windows@@@Concurrency@@@std@@EEBAPEBXXZ 00000001800115e0 f i _nodert_generated.obj
 0001:000105e0       ?_Get@?$_Func_impl@V<lambda_367e91ba48007cd85cfc48a94120f671>@@V?$allocator@H@std@@X$$V@std@@EEBAPEBXXZ 00000001800115e0 f i _nodert_generated.obj
 0001:000105e0       ?_Get@?$_Func_impl@V<lambda_199453e3251722af17cbed06cee0aa25>@@V?$allocator@H@std@@EV?$task@W4RadioAccessStatus@Radios@Devices@Windows@@@Concurrency@@@std@@EEBAPEBXXZ 00000001800115e0 f i _nodert_generated.obj
 0001:000105e0       ?_Get@?$_Func_impl@V<lambda_1af583cf6945007177c61d87505abd8e>@@V?$allocator@H@std@@XHPEAV?$Local@VValue@v8@@@v8@@@std@@EEBAPEBXXZ 00000001800115e0 f i _nodert_generated.obj
 0001:000105e0       ?_Get@?$_Func_impl@V<lambda_ae69dad4f0eec31d1194edef18f14e48>@@V?$allocator@H@std@@XV?$task@PE$AAVRadio@Radios@Devices@Windows@@@Concurrency@@@std@@EEBAPEBXXZ 00000001800115e0 f i _nodert_generated.obj
 0001:000105e0       ?_Get@?$_Func_impl@V<lambda_83ab8abb741bf007d1b5942dba04bfdd>@@V?$allocator@H@std@@EV?$task@PE$AAU?$IVectorView@PE$AAVRadio@Radios@Devices@Windows@@@Collections@Foundation@Windows@@@Concurrency@@@std@@EEBAPEBXXZ 00000001800115e0 f i _nodert_generated.obj
 0001:000105f0       ?_Target_type@?$_Func_impl@V<lambda_f65fe7dd5d5c7d6beb441784825294a0>@@V?$allocator@H@std@@X$$V@std@@EEBAAEBVtype_info@@XZ 00000001800115f0 f i _nodert_generated.obj
 0001:00010600       ?_Do_call@?$_Func_impl@V<lambda_f65fe7dd5d5c7d6beb441784825294a0>@@V?$allocator@H@std@@X$$V@std@@EEAAXXZ 0000000180011600 f i _nodert_generated.obj
 0001:00010600       ?_Do_call@?$_Func_impl@V<lambda_e9d83560961a0709c8983a5a76f54321>@@V?$allocator@H@std@@X$$V@std@@EEAAXXZ 0000000180011600 f i _nodert_generated.obj
 0001:00010600       ?_Do_call@?$_Func_impl@V<lambda_763529b0c7473cbc215a52d189ac9b18>@@V?$allocator@H@std@@X$$V@std@@EEAAXXZ 0000000180011600 f i _nodert_generated.obj
 0001:00010600       ?_Do_call@?$_Func_impl@V<lambda_ccd993006fa69c8498fa84abf616a650>@@V?$allocator@H@std@@X$$V@std@@EEAAXXZ 0000000180011600 f i _nodert_generated.obj
 0001:00010610       ?_Move@?$_Func_impl@V<lambda_f65fe7dd5d5c7d6beb441784825294a0>@@V?$allocator@H@std@@X$$V@std@@EEAAPEAV?$_Func_base@X$$V@2@PEAX@Z 0000000180011610 f i _nodert_generated.obj
 0001:00010610       ?_Copy@?$_Func_impl@V<lambda_f65fe7dd5d5c7d6beb441784825294a0>@@V?$allocator@H@std@@X$$V@std@@EEBAPEAV?$_Func_base@X$$V@2@PEAX@Z 0000000180011610 f i _nodert_generated.obj
 0001:00010630       ?_Target_type@?$_Func_impl@V<lambda_e9d83560961a0709c8983a5a76f54321>@@V?$allocator@H@std@@X$$V@std@@EEBAAEBVtype_info@@XZ 0000000180011630 f i _nodert_generated.obj
 0001:00010640       ?_Copy@?$_Func_impl@V<lambda_e9d83560961a0709c8983a5a76f54321>@@V?$allocator@H@std@@X$$V@std@@EEBAPEAV?$_Func_base@X$$V@2@PEAX@Z 0000000180011640 f i _nodert_generated.obj
 0001:00010640       ?_Move@?$_Func_impl@V<lambda_e9d83560961a0709c8983a5a76f54321>@@V?$allocator@H@std@@X$$V@std@@EEAAPEAV?$_Func_base@X$$V@2@PEAX@Z 0000000180011640 f i _nodert_generated.obj
 0001:00010660       ?_Target_type@?$_Func_impl@V<lambda_ccd993006fa69c8498fa84abf616a650>@@V?$allocator@H@std@@X$$V@std@@EEBAAEBVtype_info@@XZ 0000000180011660 f i _nodert_generated.obj
 0001:00010670       ?_Copy@?$_Func_impl@V<lambda_ccd993006fa69c8498fa84abf616a650>@@V?$allocator@H@std@@X$$V@std@@EEBAPEAV?$_Func_base@X$$V@2@PEAX@Z 0000000180011670 f i _nodert_generated.obj
 0001:00010670       ?_Move@?$_Func_impl@V<lambda_ccd993006fa69c8498fa84abf616a650>@@V?$allocator@H@std@@X$$V@std@@EEAAPEAV?$_Func_base@X$$V@2@PEAX@Z 0000000180011670 f i _nodert_generated.obj
 0001:00010690       ?_Target_type@?$_Func_impl@V<lambda_763529b0c7473cbc215a52d189ac9b18>@@V?$allocator@H@std@@X$$V@std@@EEBAAEBVtype_info@@XZ 0000000180011690 f i _nodert_generated.obj
 0001:000106a0       ?_Move@?$_Func_impl@V<lambda_763529b0c7473cbc215a52d189ac9b18>@@V?$allocator@H@std@@X$$V@std@@EEAAPEAV?$_Func_base@X$$V@2@PEAX@Z 00000001800116a0 f i _nodert_generated.obj
 0001:000106a0       ?_Copy@?$_Func_impl@V<lambda_763529b0c7473cbc215a52d189ac9b18>@@V?$allocator@H@std@@X$$V@std@@EEBAPEAV?$_Func_base@X$$V@2@PEAX@Z 00000001800116a0 f i _nodert_generated.obj
 0001:000106c0       ?_Delete_this@?$_Func_impl@V<lambda_86719af9e59bcf010981affea63e2ba5>@@V?$allocator@H@std@@X$$V@std@@EEAAX_N@Z 00000001800116c0 f i _nodert_generated.obj
 0001:00010710       ?_Target_type@?$_Func_impl@V<lambda_86719af9e59bcf010981affea63e2ba5>@@V?$allocator@H@std@@X$$V@std@@EEBAAEBVtype_info@@XZ 0000000180011710 f i _nodert_generated.obj
 0001:00010720       ?_Do_call@?$_Func_impl@V<lambda_86719af9e59bcf010981affea63e2ba5>@@V?$allocator@H@std@@X$$V@std@@EEAAXXZ 0000000180011720 f i _nodert_generated.obj
 0001:00010730       ?_Move@?$_Func_impl@V<lambda_86719af9e59bcf010981affea63e2ba5>@@V?$allocator@H@std@@X$$V@std@@EEAAPEAV?$_Func_base@X$$V@2@PEAX@Z 0000000180011730 f i _nodert_generated.obj
 0001:00010760       ?_Copy@?$_Func_impl@V<lambda_86719af9e59bcf010981affea63e2ba5>@@V?$allocator@H@std@@X$$V@std@@EEBAPEAV?$_Func_base@X$$V@2@PEAX@Z 0000000180011760 f i _nodert_generated.obj
 0001:00010790       ?_Target_type@?$_Func_impl@V<lambda_fa74f712429373a3f78dc33742231903>@@V?$allocator@H@std@@X$$V@std@@EEBAAEBVtype_info@@XZ 0000000180011790 f i _nodert_generated.obj
 0001:000107a0       ?_Do_call@?$_Func_impl@V<lambda_fa74f712429373a3f78dc33742231903>@@V?$allocator@H@std@@X$$V@std@@EEAAXXZ 00000001800117a0 f i _nodert_generated.obj
 0001:000107f0       ?_Move@?$_Func_impl@V<lambda_fa74f712429373a3f78dc33742231903>@@V?$allocator@H@std@@X$$V@std@@EEAAPEAV?$_Func_base@X$$V@2@PEAX@Z 00000001800117f0 f i _nodert_generated.obj
 0001:000107f0       ?_Copy@?$_Func_impl@V<lambda_fa74f712429373a3f78dc33742231903>@@V?$allocator@H@std@@X$$V@std@@EEBAPEAV?$_Func_base@X$$V@2@PEAX@Z 00000001800117f0 f i _nodert_generated.obj
 0001:00010810       ?_Delete_this@?$_Func_impl@V<lambda_be5e2ae45d9afcdad4d6af170ce6b1a9>@@V?$allocator@H@std@@XV?$function@$$A6AXHPEAV?$Local@VValue@v8@@@v8@@@Z@3@@std@@EEAAX_N@Z 0000000180011810 f i _nodert_generated.obj
 0001:00010870       ?_Target_type@?$_Func_impl@V<lambda_be5e2ae45d9afcdad4d6af170ce6b1a9>@@V?$allocator@H@std@@XV?$function@$$A6AXHPEAV?$Local@VValue@v8@@@v8@@@Z@3@@std@@EEBAAEBVtype_info@@XZ 0000000180011870 f i _nodert_generated.obj
 0001:00010880       ?_Do_call@?$_Func_impl@V<lambda_923cdb2d6b6e10951a75b3af8d001269>@@V?$allocator@H@std@@XV?$function@$$A6AXHPEAV?$Local@VValue@v8@@@v8@@@Z@3@@std@@EEAAX$$QEAV?$function@$$A6AXHPEAV?$Local@VValue@v8@@@v8@@@Z@2@@Z 0000000180011880 f i _nodert_generated.obj
 0001:00010880       ?_Do_call@?$_Func_impl@V<lambda_6e721a9cc44c44771ffaa71ba9f88df1>@@V?$allocator@H@std@@XV?$function@$$A6AXHPEAV?$Local@VValue@v8@@@v8@@@Z@3@@std@@EEAAX$$QEAV?$function@$$A6AXHPEAV?$Local@VValue@v8@@@v8@@@Z@2@@Z 0000000180011880 f i _nodert_generated.obj
 0001:00010880       ?_Do_call@?$_Func_impl@V<lambda_1410bf25c1f3e34acba1e87129c0b837>@@V?$allocator@H@std@@XV?$function@$$A6AXHPEAV?$Local@VValue@v8@@@v8@@@Z@3@@std@@EEAAX$$QEAV?$function@$$A6AXHPEAV?$Local@VValue@v8@@@v8@@@Z@2@@Z 0000000180011880 f i _nodert_generated.obj
 0001:00010880       ?_Do_call@?$_Func_impl@V<lambda_be5e2ae45d9afcdad4d6af170ce6b1a9>@@V?$allocator@H@std@@XV?$function@$$A6AXHPEAV?$Local@VValue@v8@@@v8@@@Z@3@@std@@EEAAX$$QEAV?$function@$$A6AXHPEAV?$Local@VValue@v8@@@v8@@@Z@2@@Z 0000000180011880 f i _nodert_generated.obj
 0001:000108b0       ?_Copy@?$_Func_impl@V<lambda_be5e2ae45d9afcdad4d6af170ce6b1a9>@@V?$allocator@H@std@@XV?$function@$$A6AXHPEAV?$Local@VValue@v8@@@v8@@@Z@3@@std@@EEBAPEAV?$_Func_base@XV?$function@$$A6AXHPEAV?$Local@VValue@v8@@@v8@@@Z@std@@@2@PEAX@Z 00000001800118b0 f i _nodert_generated.obj
 0001:000108b0       ?_Move@?$_Func_impl@V<lambda_be5e2ae45d9afcdad4d6af170ce6b1a9>@@V?$allocator@H@std@@XV?$function@$$A6AXHPEAV?$Local@VValue@v8@@@v8@@@Z@3@@std@@EEAAPEAV?$_Func_base@XV?$function@$$A6AXHPEAV?$Local@VValue@v8@@@v8@@@Z@std@@@2@PEAX@Z 00000001800118b0 f i _nodert_generated.obj
 0001:00010900       ?_Delete_this@?$_Func_impl@V<lambda_13c093ceb3cb7088042cb26732856e67>@@V?$allocator@H@std@@XV?$function@$$A6AXHPEAV?$Local@VValue@v8@@@v8@@@Z@3@@std@@EEAAX_N@Z 0000000180011900 f i _nodert_generated.obj
 0001:00010900       ?_Delete_this@?$_Func_impl@V<lambda_bd8db8e132653ed2b09381d83d27b969>@@V?$allocator@H@std@@XV?$function@$$A6AXHPEAV?$Local@VValue@v8@@@v8@@@Z@3@@std@@EEAAX_N@Z 0000000180011900 f i _nodert_generated.obj
 0001:00010920       ?_Target_type@?$_Func_impl@V<lambda_13c093ceb3cb7088042cb26732856e67>@@V?$allocator@H@std@@XV?$function@$$A6AXHPEAV?$Local@VValue@v8@@@v8@@@Z@3@@std@@EEBAAEBVtype_info@@XZ 0000000180011920 f i _nodert_generated.obj
 0001:00010930       ?_Do_call@?$_Func_impl@V<lambda_13c093ceb3cb7088042cb26732856e67>@@V?$allocator@H@std@@XV?$function@$$A6AXHPEAV?$Local@VValue@v8@@@v8@@@Z@3@@std@@EEAAX$$QEAV?$function@$$A6AXHPEAV?$Local@VValue@v8@@@v8@@@Z@2@@Z 0000000180011930 f i _nodert_generated.obj
 0001:00010930       ?_Do_call@?$_Func_impl@V<lambda_bd8db8e132653ed2b09381d83d27b969>@@V?$allocator@H@std@@XV?$function@$$A6AXHPEAV?$Local@VValue@v8@@@v8@@@Z@3@@std@@EEAAX$$QEAV?$function@$$A6AXHPEAV?$Local@VValue@v8@@@v8@@@Z@2@@Z 0000000180011930 f i _nodert_generated.obj
 0001:00010960       ?_Copy@?$_Func_impl@V<lambda_13c093ceb3cb7088042cb26732856e67>@@V?$allocator@H@std@@XV?$function@$$A6AXHPEAV?$Local@VValue@v8@@@v8@@@Z@3@@std@@EEBAPEAV?$_Func_base@XV?$function@$$A6AXHPEAV?$Local@VValue@v8@@@v8@@@Z@std@@@2@PEAX@Z 0000000180011960 f i _nodert_generated.obj
 0001:00010960       ?_Move@?$_Func_impl@V<lambda_13c093ceb3cb7088042cb26732856e67>@@V?$allocator@H@std@@XV?$function@$$A6AXHPEAV?$Local@VValue@v8@@@v8@@@Z@3@@std@@EEAAPEAV?$_Func_base@XV?$function@$$A6AXHPEAV?$Local@VValue@v8@@@v8@@@Z@std@@@2@PEAX@Z 0000000180011960 f i _nodert_generated.obj
 0001:00010980       ?_Delete_this@?$_Func_impl@V<lambda_1410bf25c1f3e34acba1e87129c0b837>@@V?$allocator@H@std@@XV?$function@$$A6AXHPEAV?$Local@VValue@v8@@@v8@@@Z@3@@std@@EEAAX_N@Z 0000000180011980 f i _nodert_generated.obj
 0001:000109e0       ?_Target_type@?$_Func_impl@V<lambda_1410bf25c1f3e34acba1e87129c0b837>@@V?$allocator@H@std@@XV?$function@$$A6AXHPEAV?$Local@VValue@v8@@@v8@@@Z@3@@std@@EEBAAEBVtype_info@@XZ 00000001800119e0 f i _nodert_generated.obj
 0001:000109f0       ?_Move@?$_Func_impl@V<lambda_1410bf25c1f3e34acba1e87129c0b837>@@V?$allocator@H@std@@XV?$function@$$A6AXHPEAV?$Local@VValue@v8@@@v8@@@Z@3@@std@@EEAAPEAV?$_Func_base@XV?$function@$$A6AXHPEAV?$Local@VValue@v8@@@v8@@@Z@std@@@2@PEAX@Z 00000001800119f0 f i _nodert_generated.obj
 0001:000109f0       ?_Copy@?$_Func_impl@V<lambda_1410bf25c1f3e34acba1e87129c0b837>@@V?$allocator@H@std@@XV?$function@$$A6AXHPEAV?$Local@VValue@v8@@@v8@@@Z@3@@std@@EEBAPEAV?$_Func_base@XV?$function@$$A6AXHPEAV?$Local@VValue@v8@@@v8@@@Z@std@@@2@PEAX@Z 00000001800119f0 f i _nodert_generated.obj
 0001:00010a40       ?_Delete_this@?$_Func_impl@V<lambda_937a019cbae5299c9ee089aacd8953b7>@@V?$allocator@H@std@@XV?$function@$$A6AXHPEAV?$Local@VValue@v8@@@v8@@@Z@3@@std@@EEAAX_N@Z 0000000180011a40 f i _nodert_generated.obj
 0001:00010aa0       ?_Target_type@?$_Func_impl@V<lambda_937a019cbae5299c9ee089aacd8953b7>@@V?$allocator@H@std@@XV?$function@$$A6AXHPEAV?$Local@VValue@v8@@@v8@@@Z@3@@std@@EEBAAEBVtype_info@@XZ 0000000180011aa0 f i _nodert_generated.obj
 0001:00010ab0       ?_Do_call@?$_Func_impl@V<lambda_937a019cbae5299c9ee089aacd8953b7>@@V?$allocator@H@std@@XV?$function@$$A6AXHPEAV?$Local@VValue@v8@@@v8@@@Z@3@@std@@EEAAX$$QEAV?$function@$$A6AXHPEAV?$Local@VValue@v8@@@v8@@@Z@2@@Z 0000000180011ab0 f i _nodert_generated.obj
 0001:00010ae0       ?_Move@?$_Func_impl@V<lambda_937a019cbae5299c9ee089aacd8953b7>@@V?$allocator@H@std@@XV?$function@$$A6AXHPEAV?$Local@VValue@v8@@@v8@@@Z@3@@std@@EEAAPEAV?$_Func_base@XV?$function@$$A6AXHPEAV?$Local@VValue@v8@@@v8@@@Z@std@@@2@PEAX@Z 0000000180011ae0 f i _nodert_generated.obj
 0001:00010ae0       ?_Copy@?$_Func_impl@V<lambda_937a019cbae5299c9ee089aacd8953b7>@@V?$allocator@H@std@@XV?$function@$$A6AXHPEAV?$Local@VValue@v8@@@v8@@@Z@3@@std@@EEBAPEAV?$_Func_base@XV?$function@$$A6AXHPEAV?$Local@VValue@v8@@@v8@@@Z@std@@@2@PEAX@Z 0000000180011ae0 f i _nodert_generated.obj
 0001:00010b30       ?_Delete_this@?$_Func_impl@V<lambda_6e721a9cc44c44771ffaa71ba9f88df1>@@V?$allocator@H@std@@XV?$function@$$A6AXHPEAV?$Local@VValue@v8@@@v8@@@Z@3@@std@@EEAAX_N@Z 0000000180011b30 f i _nodert_generated.obj
 0001:00010b90       ?_Target_type@?$_Func_impl@V<lambda_6e721a9cc44c44771ffaa71ba9f88df1>@@V?$allocator@H@std@@XV?$function@$$A6AXHPEAV?$Local@VValue@v8@@@v8@@@Z@3@@std@@EEBAAEBVtype_info@@XZ 0000000180011b90 f i _nodert_generated.obj
 0001:00010ba0       ?_Move@?$_Func_impl@V<lambda_6e721a9cc44c44771ffaa71ba9f88df1>@@V?$allocator@H@std@@XV?$function@$$A6AXHPEAV?$Local@VValue@v8@@@v8@@@Z@3@@std@@EEAAPEAV?$_Func_base@XV?$function@$$A6AXHPEAV?$Local@VValue@v8@@@v8@@@Z@std@@@2@PEAX@Z 0000000180011ba0 f i _nodert_generated.obj
 0001:00010ba0       ?_Copy@?$_Func_impl@V<lambda_6e721a9cc44c44771ffaa71ba9f88df1>@@V?$allocator@H@std@@XV?$function@$$A6AXHPEAV?$Local@VValue@v8@@@v8@@@Z@3@@std@@EEBAPEAV?$_Func_base@XV?$function@$$A6AXHPEAV?$Local@VValue@v8@@@v8@@@Z@std@@@2@PEAX@Z 0000000180011ba0 f i _nodert_generated.obj
 0001:00010bf0       ?_Delete_this@?$_Func_impl@V<lambda_332ba2b9435369ab76e287351a81320b>@@V?$allocator@H@std@@XV?$function@$$A6AXHPEAV?$Local@VValue@v8@@@v8@@@Z@3@@std@@EEAAX_N@Z 0000000180011bf0 f i _nodert_generated.obj
 0001:00010c50       ?_Target_type@?$_Func_impl@V<lambda_332ba2b9435369ab76e287351a81320b>@@V?$allocator@H@std@@XV?$function@$$A6AXHPEAV?$Local@VValue@v8@@@v8@@@Z@3@@std@@EEBAAEBVtype_info@@XZ 0000000180011c50 f i _nodert_generated.obj
 0001:00010c60       ?_Do_call@?$_Func_impl@V<lambda_332ba2b9435369ab76e287351a81320b>@@V?$allocator@H@std@@XV?$function@$$A6AXHPEAV?$Local@VValue@v8@@@v8@@@Z@3@@std@@EEAAX$$QEAV?$function@$$A6AXHPEAV?$Local@VValue@v8@@@v8@@@Z@2@@Z 0000000180011c60 f i _nodert_generated.obj
 0001:00010c90       ?_Copy@?$_Func_impl@V<lambda_332ba2b9435369ab76e287351a81320b>@@V?$allocator@H@std@@XV?$function@$$A6AXHPEAV?$Local@VValue@v8@@@v8@@@Z@3@@std@@EEBAPEAV?$_Func_base@XV?$function@$$A6AXHPEAV?$Local@VValue@v8@@@v8@@@Z@std@@@2@PEAX@Z 0000000180011c90 f i _nodert_generated.obj
 0001:00010c90       ?_Move@?$_Func_impl@V<lambda_332ba2b9435369ab76e287351a81320b>@@V?$allocator@H@std@@XV?$function@$$A6AXHPEAV?$Local@VValue@v8@@@v8@@@Z@3@@std@@EEAAPEAV?$_Func_base@XV?$function@$$A6AXHPEAV?$Local@VValue@v8@@@v8@@@Z@std@@@2@PEAX@Z 0000000180011c90 f i _nodert_generated.obj
 0001:00010ce0       ?_Delete_this@?$_Func_impl@V<lambda_c806722195bf1298f17615890da7d503>@@V?$allocator@H@std@@PE$AAVRadio@Radios@Devices@Windows@@V?$Local@VValue@v8@@@v8@@@std@@EEAAX_N@Z 0000000180011ce0 f i _nodert_generated.obj
 0001:00010d00       ?_Target_type@?$_Func_impl@V<lambda_c806722195bf1298f17615890da7d503>@@V?$allocator@H@std@@PE$AAVRadio@Radios@Devices@Windows@@V?$Local@VValue@v8@@@v8@@@std@@EEBAAEBVtype_info@@XZ 0000000180011d00 f i _nodert_generated.obj
 0001:00010d10       ?_Do_call@?$_Func_impl@V<lambda_c806722195bf1298f17615890da7d503>@@V?$allocator@H@std@@PE$AAVRadio@Radios@Devices@Windows@@V?$Local@VValue@v8@@@v8@@@std@@EEAAPE$AAVRadio@Radios@Devices@Windows@@$$QEAV?$Local@VValue@v8@@@v8@@@Z 0000000180011d10 f i _nodert_generated.obj
 0001:00010d40       ?_Copy@?$_Func_impl@V<lambda_c806722195bf1298f17615890da7d503>@@V?$allocator@H@std@@PE$AAVRadio@Radios@Devices@Windows@@V?$Local@VValue@v8@@@v8@@@std@@EEBAPEAV?$_Func_base@PE$AAVRadio@Radios@Devices@Windows@@V?$Local@VValue@v8@@@v8@@@2@PEAX@Z 0000000180011d40 f i _nodert_generated.obj
 0001:00010d40       ?_Move@?$_Func_impl@V<lambda_c806722195bf1298f17615890da7d503>@@V?$allocator@H@std@@PE$AAVRadio@Radios@Devices@Windows@@V?$Local@VValue@v8@@@v8@@@std@@EEAAPEAV?$_Func_base@PE$AAVRadio@Radios@Devices@Windows@@V?$Local@VValue@v8@@@v8@@@2@PEAX@Z 0000000180011d40 f i _nodert_generated.obj
 0001:00010d60       ?_Delete_this@?$_Func_impl@V<lambda_bf7f2b711a6b55b30dfb35db79500e56>@@V?$allocator@H@std@@_NV?$Local@VValue@v8@@@v8@@@std@@EEAAX_N@Z 0000000180011d60 f i _nodert_generated.obj
 0001:00010d60       ?_Delete_this@?$_Func_impl@V<lambda_9054500f7a0d601079f2287918e4d694>@@V?$allocator@H@std@@_NV?$Local@VValue@v8@@@v8@@@std@@EEAAX_N@Z 0000000180011d60 f i _nodert_generated.obj
 0001:00010d80       ?_Target_type@?$_Func_impl@V<lambda_9054500f7a0d601079f2287918e4d694>@@V?$allocator@H@std@@_NV?$Local@VValue@v8@@@v8@@@std@@EEBAAEBVtype_info@@XZ 0000000180011d80 f i _nodert_generated.obj
 0001:00010d90       ?_Do_call@?$_Func_impl@V<lambda_9054500f7a0d601079f2287918e4d694>@@V?$allocator@H@std@@_NV?$Local@VValue@v8@@@v8@@@std@@EEAA_N$$QEAV?$Local@VValue@v8@@@v8@@@Z 0000000180011d90 f i _nodert_generated.obj
 0001:00010da0       ?_Move@?$_Func_impl@V<lambda_9054500f7a0d601079f2287918e4d694>@@V?$allocator@H@std@@_NV?$Local@VValue@v8@@@v8@@@std@@EEAAPEAV?$_Func_base@_NV?$Local@VValue@v8@@@v8@@@2@PEAX@Z 0000000180011da0 f i _nodert_generated.obj
 0001:00010da0       ?_Copy@?$_Func_impl@V<lambda_9054500f7a0d601079f2287918e4d694>@@V?$allocator@H@std@@_NV?$Local@VValue@v8@@@v8@@@std@@EEBAPEAV?$_Func_base@_NV?$Local@VValue@v8@@@v8@@@2@PEAX@Z 0000000180011da0 f i _nodert_generated.obj
 0001:00010dc0       ?_Delete_this@?$_Func_impl@V<lambda_b053cd760f99e9a3b5b0a75bc506816c>@@V?$allocator@H@std@@V?$Local@VValue@v8@@@v8@@PE$AAVRadio@Radios@Devices@Windows@@@std@@EEAAX_N@Z 0000000180011dc0 f i _nodert_generated.obj
 0001:00010de0       ?_Target_type@?$_Func_impl@V<lambda_b053cd760f99e9a3b5b0a75bc506816c>@@V?$allocator@H@std@@V?$Local@VValue@v8@@@v8@@PE$AAVRadio@Radios@Devices@Windows@@@std@@EEBAAEBVtype_info@@XZ 0000000180011de0 f i _nodert_generated.obj
 0001:00010df0       ?_Do_call@?$_Func_impl@V<lambda_b053cd760f99e9a3b5b0a75bc506816c>@@V?$allocator@H@std@@V?$Local@VValue@v8@@@v8@@PE$AAVRadio@Radios@Devices@Windows@@@std@@EEAA?AV?$Local@VValue@v8@@@v8@@$$QEAPE$AAVRadio@Radios@Devices@Windows@@@Z 0000000180011df0 f i _nodert_generated.obj
 0001:00010e10       ?_Move@?$_Func_impl@V<lambda_b053cd760f99e9a3b5b0a75bc506816c>@@V?$allocator@H@std@@V?$Local@VValue@v8@@@v8@@PE$AAVRadio@Radios@Devices@Windows@@@std@@EEAAPEAV?$_Func_base@V?$Local@VValue@v8@@@v8@@PE$AAVRadio@Radios@Devices@Windows@@@2@PEAX@Z 0000000180011e10 f i _nodert_generated.obj
 0001:00010e10       ?_Copy@?$_Func_impl@V<lambda_b053cd760f99e9a3b5b0a75bc506816c>@@V?$allocator@H@std@@V?$Local@VValue@v8@@@v8@@PE$AAVRadio@Radios@Devices@Windows@@@std@@EEBAPEAV?$_Func_base@V?$Local@VValue@v8@@@v8@@PE$AAVRadio@Radios@Devices@Windows@@@2@PEAX@Z 0000000180011e10 f i _nodert_generated.obj
 0001:00010e30       ?_Delete_this@?$_Func_impl@V<lambda_923cdb2d6b6e10951a75b3af8d001269>@@V?$allocator@H@std@@XV?$function@$$A6AXHPEAV?$Local@VValue@v8@@@v8@@@Z@3@@std@@EEAAX_N@Z 0000000180011e30 f i _nodert_generated.obj
 0001:00010e90       ?_Target_type@?$_Func_impl@V<lambda_923cdb2d6b6e10951a75b3af8d001269>@@V?$allocator@H@std@@XV?$function@$$A6AXHPEAV?$Local@VValue@v8@@@v8@@@Z@3@@std@@EEBAAEBVtype_info@@XZ 0000000180011e90 f i _nodert_generated.obj
 0001:00010ea0       ?_Move@?$_Func_impl@V<lambda_923cdb2d6b6e10951a75b3af8d001269>@@V?$allocator@H@std@@XV?$function@$$A6AXHPEAV?$Local@VValue@v8@@@v8@@@Z@3@@std@@EEAAPEAV?$_Func_base@XV?$function@$$A6AXHPEAV?$Local@VValue@v8@@@v8@@@Z@std@@@2@PEAX@Z 0000000180011ea0 f i _nodert_generated.obj
 0001:00010ea0       ?_Copy@?$_Func_impl@V<lambda_923cdb2d6b6e10951a75b3af8d001269>@@V?$allocator@H@std@@XV?$function@$$A6AXHPEAV?$Local@VValue@v8@@@v8@@@Z@3@@std@@EEBAPEAV?$_Func_base@XV?$function@$$A6AXHPEAV?$Local@VValue@v8@@@v8@@@Z@std@@@2@PEAX@Z 0000000180011ea0 f i _nodert_generated.obj
 0001:00010ef0       ?_Target_type@?$_Func_impl@V<lambda_bd8db8e132653ed2b09381d83d27b969>@@V?$allocator@H@std@@XV?$function@$$A6AXHPEAV?$Local@VValue@v8@@@v8@@@Z@3@@std@@EEBAAEBVtype_info@@XZ 0000000180011ef0 f i _nodert_generated.obj
 0001:00010f00       ?_Copy@?$_Func_impl@V<lambda_bd8db8e132653ed2b09381d83d27b969>@@V?$allocator@H@std@@XV?$function@$$A6AXHPEAV?$Local@VValue@v8@@@v8@@@Z@3@@std@@EEBAPEAV?$_Func_base@XV?$function@$$A6AXHPEAV?$Local@VValue@v8@@@v8@@@Z@std@@@2@PEAX@Z 0000000180011f00 f i _nodert_generated.obj
 0001:00010f00       ?_Move@?$_Func_impl@V<lambda_bd8db8e132653ed2b09381d83d27b969>@@V?$allocator@H@std@@XV?$function@$$A6AXHPEAV?$Local@VValue@v8@@@v8@@@Z@3@@std@@EEAAPEAV?$_Func_base@XV?$function@$$A6AXHPEAV?$Local@VValue@v8@@@v8@@@Z@std@@@2@PEAX@Z 0000000180011f00 f i _nodert_generated.obj
 0001:00010f20       ?_Delete_this@?$_Func_impl@V<lambda_fc55a96778b695da9907353a9fdacbca>@@V?$allocator@H@std@@X$$V@std@@EEAAX_N@Z 0000000180011f20 f i _nodert_generated.obj
 0001:00010f70       ?_Target_type@?$_Func_impl@V<lambda_fc55a96778b695da9907353a9fdacbca>@@V?$allocator@H@std@@X$$V@std@@EEBAAEBVtype_info@@XZ 0000000180011f70 f i _nodert_generated.obj
 0001:00010f80       ?_Do_call@?$_Func_impl@V<lambda_fc55a96778b695da9907353a9fdacbca>@@V?$allocator@H@std@@X$$V@std@@EEAAXXZ 0000000180011f80 f i _nodert_generated.obj
 0001:00010f90       ?_Move@?$_Func_impl@V<lambda_fc55a96778b695da9907353a9fdacbca>@@V?$allocator@H@std@@X$$V@std@@EEAAPEAV?$_Func_base@X$$V@2@PEAX@Z 0000000180011f90 f i _nodert_generated.obj
 0001:00010ff0       ?_Copy@?$_Func_impl@V<lambda_fc55a96778b695da9907353a9fdacbca>@@V?$allocator@H@std@@X$$V@std@@EEBAPEAV?$_Func_base@X$$V@2@PEAX@Z 0000000180011ff0 f i _nodert_generated.obj
 0001:00011050       ?_Delete_this@?$_Func_impl@V<lambda_1af583cf6945007177c61d87505abd8e>@@V?$allocator@H@std@@XHPEAV?$Local@VValue@v8@@@v8@@@std@@EEAAX_N@Z 0000000180012050 f i _nodert_generated.obj
 0001:00011070       ?_Target_type@?$_Func_impl@V<lambda_1af583cf6945007177c61d87505abd8e>@@V?$allocator@H@std@@XHPEAV?$Local@VValue@v8@@@v8@@@std@@EEBAAEBVtype_info@@XZ 0000000180012070 f i _nodert_generated.obj
 0001:00011080       ?_Do_call@?$_Func_impl@V<lambda_1af583cf6945007177c61d87505abd8e>@@V?$allocator@H@std@@XHPEAV?$Local@VValue@v8@@@v8@@@std@@EEAAX$$QEAH$$QEAPEAV?$Local@VValue@v8@@@v8@@@Z 0000000180012080 f i _nodert_generated.obj
 0001:00011090       ?_Move@?$_Func_impl@V<lambda_1af583cf6945007177c61d87505abd8e>@@V?$allocator@H@std@@XHPEAV?$Local@VValue@v8@@@v8@@@std@@EEAAPEAV?$_Func_base@XHPEAV?$Local@VValue@v8@@@v8@@@2@PEAX@Z 0000000180012090 f i _nodert_generated.obj
 0001:00011090       ?_Copy@?$_Func_impl@V<lambda_1af583cf6945007177c61d87505abd8e>@@V?$allocator@H@std@@XHPEAV?$Local@VValue@v8@@@v8@@@std@@EEBAPEAV?$_Func_base@XHPEAV?$Local@VValue@v8@@@v8@@@2@PEAX@Z 0000000180012090 f i _nodert_generated.obj
 0001:000110b0       ?_Target_type@?$_Func_impl@V<lambda_bf7f2b711a6b55b30dfb35db79500e56>@@V?$allocator@H@std@@_NV?$Local@VValue@v8@@@v8@@@std@@EEBAAEBVtype_info@@XZ 00000001800120b0 f i _nodert_generated.obj
 0001:000110c0       ?_Do_call@?$_Func_impl@V<lambda_bf7f2b711a6b55b30dfb35db79500e56>@@V?$allocator@H@std@@_NV?$Local@VValue@v8@@@v8@@@std@@EEAA_N$$QEAV?$Local@VValue@v8@@@v8@@@Z 00000001800120c0 f i _nodert_generated.obj
 0001:000110f0       ?_Copy@?$_Func_impl@V<lambda_bf7f2b711a6b55b30dfb35db79500e56>@@V?$allocator@H@std@@_NV?$Local@VValue@v8@@@v8@@@std@@EEBAPEAV?$_Func_base@_NV?$Local@VValue@v8@@@v8@@@2@PEAX@Z 00000001800120f0 f i _nodert_generated.obj
 0001:000110f0       ?_Move@?$_Func_impl@V<lambda_bf7f2b711a6b55b30dfb35db79500e56>@@V?$allocator@H@std@@_NV?$Local@VValue@v8@@@v8@@@std@@EEAAPEAV?$_Func_base@_NV?$Local@VValue@v8@@@v8@@@2@PEAX@Z 00000001800120f0 f i _nodert_generated.obj
 0001:00011110       ?_Target_type@?$_Func_impl@V<lambda_ee2800ccd2b011420c5de0c63356449b>@@V?$allocator@H@std@@X$$V@std@@EEBAAEBVtype_info@@XZ 0000000180012110 f i _nodert_generated.obj
 0001:00011120       ?_Do_call@?$_Func_impl@V<lambda_ee2800ccd2b011420c5de0c63356449b>@@V?$allocator@H@std@@X$$V@std@@EEAAXXZ 0000000180012120 f i _nodert_generated.obj
 0001:00011130       ?_Move@?$_Func_impl@V<lambda_ee2800ccd2b011420c5de0c63356449b>@@V?$allocator@H@std@@X$$V@std@@EEAAPEAV?$_Func_base@X$$V@2@PEAX@Z 0000000180012130 f i _nodert_generated.obj
 0001:00011130       ?_Copy@?$_Func_impl@V<lambda_ee2800ccd2b011420c5de0c63356449b>@@V?$allocator@H@std@@X$$V@std@@EEBAPEAV?$_Func_base@X$$V@2@PEAX@Z 0000000180012130 f i _nodert_generated.obj
 0001:00011150       ?_Delete_this@?$_Func_impl@V<lambda_f25c37099038263181b5186a3fa41b37>@@V?$allocator@H@std@@X$$V@std@@EEAAX_N@Z 0000000180012150 f i _nodert_generated.obj
 0001:00011180       ?_Target_type@?$_Func_impl@V<lambda_f25c37099038263181b5186a3fa41b37>@@V?$allocator@H@std@@X$$V@std@@EEBAAEBVtype_info@@XZ 0000000180012180 f i _nodert_generated.obj
 0001:00011190       ?_Do_call@?$_Func_impl@V<lambda_f25c37099038263181b5186a3fa41b37>@@V?$allocator@H@std@@X$$V@std@@EEAAXXZ 0000000180012190 f i _nodert_generated.obj
 0001:000111d0       ?_Move@?$_Func_impl@V<lambda_f25c37099038263181b5186a3fa41b37>@@V?$allocator@H@std@@X$$V@std@@EEAAPEAV?$_Func_base@X$$V@2@PEAX@Z 00000001800121d0 f i _nodert_generated.obj
 0001:00011210       ?_Copy@?$_Func_impl@V<lambda_f25c37099038263181b5186a3fa41b37>@@V?$allocator@H@std@@X$$V@std@@EEBAPEAV?$_Func_base@X$$V@2@PEAX@Z 0000000180012210 f i _nodert_generated.obj
 0001:00011260       ??R?$_Func_class@EV?$task@W4RadioAccessStatus@Radios@Devices@Windows@@@Concurrency@@@std@@QEBAEV?$task@W4RadioAccessStatus@Radios@Devices@Windows@@@Concurrency@@@Z 0000000180012260 f i _nodert_generated.obj
 0001:00011310       ??R?$_Func_class@EV?$task@PE$AAU?$IVectorView@PE$AAVRadio@Radios@Devices@Windows@@@Collections@Foundation@Windows@@@Concurrency@@@std@@QEBAEV?$task@PE$AAU?$IVectorView@PE$AAVRadio@Radios@Devices@Windows@@@Collections@Foundation@Windows@@@Concurrency@@@Z 0000000180012310 f i _nodert_generated.obj
 0001:000113c0       ??R?$_Func_class@EV?$task@PE$AAVRadio@Radios@Devices@Windows@@@Concurrency@@@std@@QEBAEV?$task@PE$AAVRadio@Radios@Devices@Windows@@@Concurrency@@@Z 00000001800123c0 f i _nodert_generated.obj
 0001:00011470       ??R?$_Func_class@XV?$task@PE$AAVRadio@Radios@Devices@Windows@@@Concurrency@@@std@@QEBAXV?$task@PE$AAVRadio@Radios@Devices@Windows@@@Concurrency@@@Z 0000000180012470 f i _nodert_generated.obj
 0001:00011520       ??R?$_Func_class@XV?$task@PE$AAU?$IVectorView@PE$AAVRadio@Radios@Devices@Windows@@@Collections@Foundation@Windows@@@Concurrency@@@std@@QEBAXV?$task@PE$AAU?$IVectorView@PE$AAVRadio@Radios@Devices@Windows@@@Collections@Foundation@Windows@@@Concurrency@@@Z 0000000180012520 f i _nodert_generated.obj
 0001:000115d0       ?_TaskInitAsyncOp@?$task@PE$AAVRadio@Radios@Devices@Windows@@@Concurrency@@AEAAXPE$AAU?$IAsyncOperation@PE$AAVRadio@Radios@Devices@Windows@@@Foundation@Windows@@@Z 00000001800125d0 f i _nodert_generated.obj
 0001:00011690       ?_TaskInitAsyncOp@?$task@PE$AAU?$IVectorView@PE$AAVRadio@Radios@Devices@Windows@@@Collections@Foundation@Windows@@@Concurrency@@AEAAXPE$AAU?$IAsyncOperation@PE$AAU?$IVectorView@PE$AAVRadio@Radios@Devices@Windows@@@Collections@Foundation@Windows@@@Foundation@Windows@@@Z 0000000180012690 f i _nodert_generated.obj
 0001:00011750       ?_TaskInitAsyncOp@?$task@W4RadioAccessStatus@Radios@Devices@Windows@@@Concurrency@@AEAAXPE$AAU?$IAsyncOperation@W4RadioAccessStatus@Radios@Devices@Windows@@@Foundation@Windows@@@Z 0000000180012750 f i _nodert_generated.obj
 0001:00011810       ??$?0AEBV?$allocator@H@std@@@?$_Wrap_alloc@V?$allocator@V?$_Func_impl@V<lambda_bf7f2b711a6b55b30dfb35db79500e56>@@V?$allocator@H@std@@_NV?$Local@VValue@v8@@@v8@@@std@@@std@@@std@@QEAA@AEBV?$allocator@H@1@@Z 0000000180012810 f i _nodert_generated.obj
 0001:00011810       ??$?0AEBV?$allocator@H@std@@V<lambda_bf7f2b711a6b55b30dfb35db79500e56>@@@?$_Compressed_pair@V?$allocator@H@std@@V<lambda_bf7f2b711a6b55b30dfb35db79500e56>@@$00@std@@QEAA@U_One_then_variadic_args_t@1@AEBV?$allocator@H@1@$$QEAV<lambda_bf7f2b711a6b55b30dfb35db79500e56>@@@Z 0000000180012810 f i _nodert_generated.obj
 0001:00011820       ??$?0V<lambda_73163a669fe347e5c4e2d28c36c6f8ca>@@EX@?$function@$$A6AEV?$task@PE$AAVRadio@Radios@Devices@Windows@@@Concurrency@@@Z@std@@QEAA@V<lambda_73163a669fe347e5c4e2d28c36c6f8ca>@@@Z 0000000180012820 f i _nodert_generated.obj
 0001:000118b0       ??$?0V<lambda_83ab8abb741bf007d1b5942dba04bfdd>@@EX@?$function@$$A6AEV?$task@PE$AAU?$IVectorView@PE$AAVRadio@Radios@Devices@Windows@@@Collections@Foundation@Windows@@@Concurrency@@@Z@std@@QEAA@V<lambda_83ab8abb741bf007d1b5942dba04bfdd>@@@Z 00000001800128b0 f i _nodert_generated.obj
 0001:00011940       ??$_Invoke_ret@PE$AAVRadio@Radios@Devices@Windows@@AEAV<lambda_c806722195bf1298f17615890da7d503>@@V?$Local@VValue@v8@@@v8@@@std@@YAPE$AAVRadio@Radios@Devices@Windows@@U?$_Forced@PE$AAVRadio@Radios@Devices@Windows@@$0A@@0@AEAV<lambda_c806722195bf1298f17615890da7d503>@@$$QEAV?$Local@VValue@v8@@@v8@@@Z 0000000180012940 f i _nodert_generated.obj
 0001:00011b60       ?__abi_Windows_Foundation_?$AsyncOperationCompletedHandler@PE$AAVRadio@Radios@Devices@Windows@@___abi_IDelegate____abi_Invoke@?Q__abi_IDelegate@?$AsyncOperationCompletedHandler@PE$AAVRadio@Radios@Devices@Windows@@@Foundation@Windows@@234@UE$AAAJPE$AAU?$IAsyncOperation@PE$AAVRadio@Radios@Devices@Windows@@@34@W4AsyncStatus@34@@Z 0000000180012b60 f i _nodert_generated.obj
 0001:00011bb0       ?__abi_QueryInterface@?$AsyncOperationCompletedHandler@PE$AAVRadio@Radios@Devices@Windows@@@Foundation@Windows@@UE$AAAJAEAVGuid@Platform@@PEAPEAX@Z 0000000180012bb0 f i _nodert_generated.obj
 0001:00011ce0       ?__abi_GetIids@?$AsyncOperationCompletedHandler@W4RadioAccessStatus@Radios@Devices@Windows@@@Foundation@Windows@@UE$AAAJPEAKPEAPEAVGuid@Platform@@@Z 0000000180012ce0 f i _nodert_generated.obj
 0001:00011ce0       ?__abi_GetIids@?$AsyncOperationCompletedHandler@PE$AAU?$IVectorView@PE$AAVRadio@Radios@Devices@Windows@@@Collections@Foundation@Windows@@@Foundation@Windows@@UE$AAAJPEAKPEAPEAVGuid@Platform@@@Z 0000000180012ce0 f i _nodert_generated.obj
 0001:00011ce0       ?__abi_GetIids@?$AsyncOperationCompletedHandler@PE$AAVRadio@Radios@Devices@Windows@@@Foundation@Windows@@UE$AAAJPEAKPEAPEAVGuid@Platform@@@Z 0000000180012ce0 f i _nodert_generated.obj
 0001:00011d40       ?__abi_GetRuntimeClassName@?$AsyncOperationCompletedHandler@PE$AAVRadio@Radios@Devices@Windows@@@Foundation@Windows@@UE$AAAJPEAPEAUHSTRING__@@@Z 0000000180012d40 f i _nodert_generated.obj
 0001:00011d60       ?Invoke@?$AsyncOperationCompletedHandler@PE$AAVRadio@Radios@Devices@Windows@@@Foundation@Windows@@UE$AAAXPE$AAU?$IAsyncOperation@PE$AAVRadio@Radios@Devices@Windows@@@23@W4AsyncStatus@23@@Z 0000000180012d60 f i _nodert_generated.obj
 0001:00011f40       ?__abi_Windows_Foundation_?$AsyncOperationCompletedHandler@PE$AAU?$IVectorView@PE$AAVRadio@Radios@Devices@Windows@@@Collections@Foundation@Windows@@___abi_IDelegate____abi_Invoke@?Q__abi_IDelegate@?$AsyncOperationCompletedHandler@PE$AAU?$IVectorView@PE$AAVRadio@Radios@Devices@Windows@@@Collections@Foundation@Windows@@@Foundation@Windows@@234@UE$AAAJPE$AAU?$IAsyncOperation@PE$AAU?$IVectorView@PE$AAVRadio@Radios@Devices@Windows@@@Collections@Foundation@Windows@@@34@W4AsyncStatus@34@@Z 0000000180012f40 f i _nodert_generated.obj
 0001:00011f90       ?__abi_QueryInterface@?$AsyncOperationCompletedHandler@PE$AAU?$IVectorView@PE$AAVRadio@Radios@Devices@Windows@@@Collections@Foundation@Windows@@@Foundation@Windows@@UE$AAAJAEAVGuid@Platform@@PEAPEAX@Z 0000000180012f90 f i _nodert_generated.obj
 0001:000120c0       ?__abi_GetRuntimeClassName@?$AsyncOperationCompletedHandler@PE$AAU?$IVectorView@PE$AAVRadio@Radios@Devices@Windows@@@Collections@Foundation@Windows@@@Foundation@Windows@@UE$AAAJPEAPEAUHSTRING__@@@Z 00000001800130c0 f i _nodert_generated.obj
 0001:000120e0       ?Invoke@?$AsyncOperationCompletedHandler@PE$AAU?$IVectorView@PE$AAVRadio@Radios@Devices@Windows@@@Collections@Foundation@Windows@@@Foundation@Windows@@UE$AAAXPE$AAU?$IAsyncOperation@PE$AAU?$IVectorView@PE$AAVRadio@Radios@Devices@Windows@@@Collections@Foundation@Windows@@@23@W4AsyncStatus@23@@Z 00000001800130e0 f i _nodert_generated.obj
 0001:000122c0       ?__abi_Windows_Foundation_?$AsyncOperationCompletedHandler@W4RadioAccessStatus@Radios@Devices@Windows@@___abi_IDelegate____abi_Invoke@?Q__abi_IDelegate@?$AsyncOperationCompletedHandler@W4RadioAccessStatus@Radios@Devices@Windows@@@Foundation@Windows@@234@UE$AAAJPE$AAU?$IAsyncOperation@W4RadioAccessStatus@Radios@Devices@Windows@@@34@W4AsyncStatus@34@@Z 00000001800132c0 f i _nodert_generated.obj
 0001:00012310       ?__abi_QueryInterface@?$AsyncOperationCompletedHandler@W4RadioAccessStatus@Radios@Devices@Windows@@@Foundation@Windows@@UE$AAAJAEAVGuid@Platform@@PEAPEAX@Z 0000000180013310 f i _nodert_generated.obj
 0001:00012440       ?__abi_GetRuntimeClassName@?$AsyncOperationCompletedHandler@W4RadioAccessStatus@Radios@Devices@Windows@@@Foundation@Windows@@UE$AAAJPEAPEAUHSTRING__@@@Z 0000000180013440 f i _nodert_generated.obj
 0001:00012460       ?Invoke@?$AsyncOperationCompletedHandler@W4RadioAccessStatus@Radios@Devices@Windows@@@Foundation@Windows@@UE$AAAXPE$AAU?$IAsyncOperation@W4RadioAccessStatus@Radios@Devices@Windows@@@23@W4AsyncStatus@23@@Z 0000000180013460 f i _nodert_generated.obj
 0001:000124a0       ??_G?$_Ref_count_obj@U?$_Task_impl@PE$AAU?$IVectorView@PE$AAVRadio@Radios@Devices@Windows@@@Collections@Foundation@Windows@@@details@Concurrency@@@std@@UEAAPEAXI@Z 00000001800134a0 f i _nodert_generated.obj
 0001:000124a0       ??_E?$_Ref_count_obj@U?$_Task_impl@PE$AAU?$IVectorView@PE$AAVRadio@Radios@Devices@Windows@@@Collections@Foundation@Windows@@@details@Concurrency@@@std@@UEAAPEAXI@Z 00000001800134a0 f i * CIL library *:* CIL module *
 0001:000124d0       ?_Delete_this@?$_Func_impl@V<lambda_f62ce569bcbb190725394d954e43b37a>@@V?$allocator@H@std@@XV?$task@W4RadioAccessStatus@Radios@Devices@Windows@@@Concurrency@@@std@@EEAAX_N@Z 00000001800134d0 f i _nodert_generated.obj
 0001:000124d0       ?_Delete_this@?$_Func_impl@V<lambda_84fe49f24ae8de4bd96cfe7e2e397527>@@V?$allocator@H@std@@XV?$task@W4RadioAccessStatus@Radios@Devices@Windows@@@Concurrency@@@std@@EEAAX_N@Z 00000001800134d0 f i _nodert_generated.obj
 0001:000124f0       ?_Target_type@?$_Func_impl@V<lambda_84fe49f24ae8de4bd96cfe7e2e397527>@@V?$allocator@H@std@@XV?$task@W4RadioAccessStatus@Radios@Devices@Windows@@@Concurrency@@@std@@EEBAAEBVtype_info@@XZ 00000001800134f0 f i _nodert_generated.obj
 0001:00012500       ?_Do_call@?$_Func_impl@V<lambda_84fe49f24ae8de4bd96cfe7e2e397527>@@V?$allocator@H@std@@XV?$task@W4RadioAccessStatus@Radios@Devices@Windows@@@Concurrency@@@std@@EEAAX$$QEAV?$task@W4RadioAccessStatus@Radios@Devices@Windows@@@Concurrency@@@Z 0000000180013500 f i _nodert_generated.obj
 0001:00012540       ?_Move@?$_Func_impl@V<lambda_84fe49f24ae8de4bd96cfe7e2e397527>@@V?$allocator@H@std@@XV?$task@W4RadioAccessStatus@Radios@Devices@Windows@@@Concurrency@@@std@@EEAAPEAV?$_Func_base@XV?$task@W4RadioAccessStatus@Radios@Devices@Windows@@@Concurrency@@@2@PEAX@Z 0000000180013540 f i _nodert_generated.obj
 0001:00012540       ?_Copy@?$_Func_impl@V<lambda_84fe49f24ae8de4bd96cfe7e2e397527>@@V?$allocator@H@std@@XV?$task@W4RadioAccessStatus@Radios@Devices@Windows@@@Concurrency@@@std@@EEBAPEAV?$_Func_base@XV?$task@W4RadioAccessStatus@Radios@Devices@Windows@@@Concurrency@@@2@PEAX@Z 0000000180013540 f i _nodert_generated.obj
 0001:00012560       ?_Delete_this@?$_Func_impl@V<lambda_ae69dad4f0eec31d1194edef18f14e48>@@V?$allocator@H@std@@XV?$task@PE$AAVRadio@Radios@Devices@Windows@@@Concurrency@@@std@@EEAAX_N@Z 0000000180013560 f i _nodert_generated.obj
 0001:00012580       ?_Target_type@?$_Func_impl@V<lambda_ae69dad4f0eec31d1194edef18f14e48>@@V?$allocator@H@std@@XV?$task@PE$AAVRadio@Radios@Devices@Windows@@@Concurrency@@@std@@EEBAAEBVtype_info@@XZ 0000000180013580 f i _nodert_generated.obj
 0001:00012590       ?_Do_call@?$_Func_impl@V<lambda_ae69dad4f0eec31d1194edef18f14e48>@@V?$allocator@H@std@@XV?$task@PE$AAVRadio@Radios@Devices@Windows@@@Concurrency@@@std@@EEAAX$$QEAV?$task@PE$AAVRadio@Radios@Devices@Windows@@@Concurrency@@@Z 0000000180013590 f i _nodert_generated.obj
 0001:000125d0       ?_Copy@?$_Func_impl@V<lambda_ae69dad4f0eec31d1194edef18f14e48>@@V?$allocator@H@std@@XV?$task@PE$AAVRadio@Radios@Devices@Windows@@@Concurrency@@@std@@EEBAPEAV?$_Func_base@XV?$task@PE$AAVRadio@Radios@Devices@Windows@@@Concurrency@@@2@PEAX@Z 00000001800135d0 f i _nodert_generated.obj
 0001:000125d0       ?_Move@?$_Func_impl@V<lambda_ae69dad4f0eec31d1194edef18f14e48>@@V?$allocator@H@std@@XV?$task@PE$AAVRadio@Radios@Devices@Windows@@@Concurrency@@@std@@EEAAPEAV?$_Func_base@XV?$task@PE$AAVRadio@Radios@Devices@Windows@@@Concurrency@@@2@PEAX@Z 00000001800135d0 f i _nodert_generated.obj
 0001:000125f0       ?_Delete_this@?$_Func_impl@V<lambda_6b3d546cb33cb2be9b0a401ff7fba40f>@@V?$allocator@H@std@@XV?$task@PE$AAU?$IVectorView@PE$AAVRadio@Radios@Devices@Windows@@@Collections@Foundation@Windows@@@Concurrency@@@std@@EEAAX_N@Z 00000001800135f0 f i _nodert_generated.obj
 0001:00012610       ?_Target_type@?$_Func_impl@V<lambda_6b3d546cb33cb2be9b0a401ff7fba40f>@@V?$allocator@H@std@@XV?$task@PE$AAU?$IVectorView@PE$AAVRadio@Radios@Devices@Windows@@@Collections@Foundation@Windows@@@Concurrency@@@std@@EEBAAEBVtype_info@@XZ 0000000180013610 f i _nodert_generated.obj
 0001:00012620       ?_Do_call@?$_Func_impl@V<lambda_6b3d546cb33cb2be9b0a401ff7fba40f>@@V?$allocator@H@std@@XV?$task@PE$AAU?$IVectorView@PE$AAVRadio@Radios@Devices@Windows@@@Collections@Foundation@Windows@@@Concurrency@@@std@@EEAAX$$QEAV?$task@PE$AAU?$IVectorView@PE$AAVRadio@Radios@Devices@Windows@@@Collections@Foundation@Windows@@@Concurrency@@@Z 0000000180013620 f i _nodert_generated.obj
 0001:00012660       ?_Move@?$_Func_impl@V<lambda_6b3d546cb33cb2be9b0a401ff7fba40f>@@V?$allocator@H@std@@XV?$task@PE$AAU?$IVectorView@PE$AAVRadio@Radios@Devices@Windows@@@Collections@Foundation@Windows@@@Concurrency@@@std@@EEAAPEAV?$_Func_base@XV?$task@PE$AAU?$IVectorView@PE$AAVRadio@Radios@Devices@Windows@@@Collections@Foundation@Windows@@@Concurrency@@@2@PEAX@Z 0000000180013660 f i _nodert_generated.obj
 0001:00012660       ?_Copy@?$_Func_impl@V<lambda_6b3d546cb33cb2be9b0a401ff7fba40f>@@V?$allocator@H@std@@XV?$task@PE$AAU?$IVectorView@PE$AAVRadio@Radios@Devices@Windows@@@Collections@Foundation@Windows@@@Concurrency@@@std@@EEBAPEAV?$_Func_base@XV?$task@PE$AAU?$IVectorView@PE$AAVRadio@Radios@Devices@Windows@@@Collections@Foundation@Windows@@@Concurrency@@@2@PEAX@Z 0000000180013660 f i _nodert_generated.obj
 0001:00012680       ?_Target_type@?$_Func_impl@V<lambda_f62ce569bcbb190725394d954e43b37a>@@V?$allocator@H@std@@XV?$task@W4RadioAccessStatus@Radios@Devices@Windows@@@Concurrency@@@std@@EEBAAEBVtype_info@@XZ 0000000180013680 f i _nodert_generated.obj
 0001:00012690       ?_Do_call@?$_Func_impl@V<lambda_f62ce569bcbb190725394d954e43b37a>@@V?$allocator@H@std@@XV?$task@W4RadioAccessStatus@Radios@Devices@Windows@@@Concurrency@@@std@@EEAAX$$QEAV?$task@W4RadioAccessStatus@Radios@Devices@Windows@@@Concurrency@@@Z 0000000180013690 f i _nodert_generated.obj
 0001:000126d0       ?_Move@?$_Func_impl@V<lambda_f62ce569bcbb190725394d954e43b37a>@@V?$allocator@H@std@@XV?$task@W4RadioAccessStatus@Radios@Devices@Windows@@@Concurrency@@@std@@EEAAPEAV?$_Func_base@XV?$task@W4RadioAccessStatus@Radios@Devices@Windows@@@Concurrency@@@2@PEAX@Z 00000001800136d0 f i _nodert_generated.obj
 0001:000126d0       ?_Copy@?$_Func_impl@V<lambda_f62ce569bcbb190725394d954e43b37a>@@V?$allocator@H@std@@XV?$task@W4RadioAccessStatus@Radios@Devices@Windows@@@Concurrency@@@std@@EEBAPEAV?$_Func_base@XV?$task@W4RadioAccessStatus@Radios@Devices@Windows@@@Concurrency@@@2@PEAX@Z 00000001800136d0 f i _nodert_generated.obj
 0001:000126f0       ?_SetUnwrappedAsyncOp@?$_Task_impl@PE$AAVRadio@Radios@Devices@Windows@@@details@Concurrency@@QEAAXPE$AAU?$IAsyncOperation@PE$AAVRadio@Radios@Devices@Windows@@@Foundation@Windows@@@Z 00000001800136f0 f i _nodert_generated.obj
 0001:00012820       ?_FinalizeAndRunContinuations@?$_Task_impl@PE$AAVRadio@Radios@Devices@Windows@@@details@Concurrency@@QEAAXPE$AAVRadio@Radios@Devices@Windows@@@Z 0000000180013820 f i _nodert_generated.obj
 0001:00012910       ??0?$_Task_impl@PE$AAVRadio@Radios@Devices@Windows@@@details@Concurrency@@QEAA@PEAV_CancellationTokenState@12@Uscheduler_ptr@2@@Z 0000000180013910 f i _nodert_generated.obj
 0001:000129d0       ?_SetUnwrappedAsyncOp@?$_Task_impl@PE$AAU?$IVectorView@PE$AAVRadio@Radios@Devices@Windows@@@Collections@Foundation@Windows@@@details@Concurrency@@QEAAXPE$AAU?$IAsyncOperation@PE$AAU?$IVectorView@PE$AAVRadio@Radios@Devices@Windows@@@Collections@Foundation@Windows@@@Foundation@Windows@@@Z 00000001800139d0 f i _nodert_generated.obj
 0001:00012b00       ?_FinalizeAndRunContinuations@?$_Task_impl@PE$AAU?$IVectorView@PE$AAVRadio@Radios@Devices@Windows@@@Collections@Foundation@Windows@@@details@Concurrency@@QEAAXPE$AAU?$IVectorView@PE$AAVRadio@Radios@Devices@Windows@@@Collections@Foundation@Windows@@@Z 0000000180013b00 f i _nodert_generated.obj
 0001:00012bd0       ??0?$_Task_impl@PE$AAU?$IVectorView@PE$AAVRadio@Radios@Devices@Windows@@@Collections@Foundation@Windows@@@details@Concurrency@@QEAA@PEAV_CancellationTokenState@12@Uscheduler_ptr@2@@Z 0000000180013bd0 f i _nodert_generated.obj
 0001:00012ca0       ?_SetUnwrappedAsyncOp@?$_Task_impl@W4RadioAccessStatus@Radios@Devices@Windows@@@details@Concurrency@@QEAAXPE$AAU?$IAsyncOperation@W4RadioAccessStatus@Radios@Devices@Windows@@@Foundation@Windows@@@Z 0000000180013ca0 f i _nodert_generated.obj
 0001:00012dd0       ?_FinalizeAndRunContinuations@?$_Task_impl@W4RadioAccessStatus@Radios@Devices@Windows@@@details@Concurrency@@QEAAXW4RadioAccessStatus@Radios@Devices@Windows@@@Z 0000000180013dd0 f i _nodert_generated.obj
 0001:00012e60       ??0?$_Task_impl@W4RadioAccessStatus@Radios@Devices@Windows@@@details@Concurrency@@QEAA@PEAV_CancellationTokenState@12@Uscheduler_ptr@2@@Z 0000000180013e60 f i _nodert_generated.obj
 0001:00012f10       ??4?$Agile@PE$AAU?$IVectorView@PE$AAVRadio@Radios@Devices@Windows@@@Collections@Foundation@Windows@@$00@Platform@@QEAAAEAV01@PE$AAU?$IVectorView@PE$AAVRadio@Radios@Devices@Windows@@@Collections@Foundation@Windows@@@Z 0000000180013f10 f i _nodert_generated.obj
 0001:00013060       ?SetObject@?$Agile@PE$AAU?$IVectorView@PE$AAVRadio@Radios@Devices@Windows@@@Collections@Foundation@Windows@@$00@Platform@@AEAAXPE$AAU?$IVectorView@PE$AAVRadio@Radios@Devices@Windows@@@Collections@Foundation@Windows@@@Z 0000000180014060 f i _nodert_generated.obj
 0001:00013150       ?GetResults@?$IAsyncOperation@PE$AAU?$IVectorView@PE$AAVRadio@Radios@Devices@Windows@@@Collections@Foundation@Windows@@@Foundation@Windows@@UE$AAAPE$AAU?$IVectorView@PE$AAVRadio@Radios@Devices@Windows@@@Collections@23@XZ 0000000180014150 f i _nodert_generated.obj
 0001:00013150       ?GetResults@?$IAsyncOperation@PE$AAVRadio@Radios@Devices@Windows@@@Foundation@Windows@@UE$AAAPE$AAVRadio@Radios@Devices@3@XZ 0000000180014150 f i _nodert_generated.obj
 0001:000131b0       ??$_Reset@V<lambda_73163a669fe347e5c4e2d28c36c6f8ca>@@@?$_Func_class@EV?$task@PE$AAVRadio@Radios@Devices@Windows@@@Concurrency@@@std@@IEAAX$$QEAV<lambda_73163a669fe347e5c4e2d28c36c6f8ca>@@@Z 00000001800141b0 f i _nodert_generated.obj
 0001:00013260       ??$_Reset@V<lambda_83ab8abb741bf007d1b5942dba04bfdd>@@@?$_Func_class@EV?$task@PE$AAU?$IVectorView@PE$AAVRadio@Radios@Devices@Windows@@@Collections@Foundation@Windows@@@Concurrency@@@std@@IEAAX$$QEAV<lambda_83ab8abb741bf007d1b5942dba04bfdd>@@@Z 0000000180014260 f i _nodert_generated.obj
 0001:00013310       ??$_Reset@V<lambda_199453e3251722af17cbed06cee0aa25>@@@?$_Func_class@EV?$task@W4RadioAccessStatus@Radios@Devices@Windows@@@Concurrency@@@std@@IEAAX$$QEAV<lambda_199453e3251722af17cbed06cee0aa25>@@@Z 0000000180014310 f i _nodert_generated.obj
 0001:00013390       ??$?0V<lambda_4826e3b284b53b5a99fdf233406a9e9a>@@@?$AsyncOperationCompletedHandler@PE$AAVRadio@Radios@Devices@Windows@@@Foundation@Windows@@QE$AAA@V<lambda_4826e3b284b53b5a99fdf233406a9e9a>@@W4CallbackContext@Platform@@_N@Z 0000000180014390 f i _nodert_generated.obj
 0001:00013490       ??$?0V<lambda_74b109aa04c410395ed1b84aaba96129>@@@?$AsyncOperationCompletedHandler@PE$AAU?$IVectorView@PE$AAVRadio@Radios@Devices@Windows@@@Collections@Foundation@Windows@@@Foundation@Windows@@QE$AAA@V<lambda_74b109aa04c410395ed1b84aaba96129>@@W4CallbackContext@Platform@@_N@Z 0000000180014490 f i _nodert_generated.obj
 0001:00013590       ??$?0V<lambda_76b0dc5acfdd88e398543629657656f2>@@@?$AsyncOperationCompletedHandler@W4RadioAccessStatus@Radios@Devices@Windows@@@Foundation@Windows@@QE$AAA@V<lambda_76b0dc5acfdd88e398543629657656f2>@@W4CallbackContext@Platform@@_N@Z 0000000180014590 f i _nodert_generated.obj
 0001:00013690       ??$?4V<lambda_34c7f220960deee2386c1fdeeca0be56>@@XX@?$function@$$A6AXXZ@std@@QEAAAEAV01@$$QEAV<lambda_34c7f220960deee2386c1fdeeca0be56>@@@Z 0000000180014690 f i _nodert_generated.obj
 0001:00013760       ??$?4V<lambda_e648a951913df07dc2c48aa4b13c28ad>@@XX@?$function@$$A6AXXZ@std@@QEAAAEAV01@$$QEAV<lambda_e648a951913df07dc2c48aa4b13c28ad>@@@Z 0000000180014760 f i _nodert_generated.obj
 0001:00013830       ??$?4V<lambda_367e91ba48007cd85cfc48a94120f671>@@XX@?$function@$$A6AXXZ@std@@QEAAAEAV01@$$QEAV<lambda_367e91ba48007cd85cfc48a94120f671>@@@Z 0000000180014830 f i _nodert_generated.obj
 0001:00013900       ??$swap@PE$AAU?$IVectorView@PE$AAVRadio@Radios@Devices@Windows@@@Collections@Foundation@Windows@@X@std@@YAXAEAPE$AAU?$IVectorView@PE$AAVRadio@Radios@Devices@Windows@@@Collections@Foundation@Windows@@0@Z 0000000180014900 f i _nodert_generated.obj
 0001:000139b0       ?Invoke@?$__abi_FunctorCapture@V<lambda_76b0dc5acfdd88e398543629657656f2>@@XPE$AAU?$IAsyncOperation@W4RadioAccessStatus@Radios@Devices@Windows@@@Foundation@Windows@@W4AsyncStatus@34@@Details@Platform@@UEAAXPE$AAU?$IAsyncOperation@W4RadioAccessStatus@Radios@Devices@Windows@@@Foundation@Windows@@W4AsyncStatus@56@@Z 00000001800149b0 f i _nodert_generated.obj
 0001:000139c0       ??0?$__abi_FunctorCapture@V<lambda_76b0dc5acfdd88e398543629657656f2>@@XPE$AAU?$IAsyncOperation@W4RadioAccessStatus@Radios@Devices@Windows@@@Foundation@Windows@@W4AsyncStatus@34@@Details@Platform@@QEAA@V<lambda_76b0dc5acfdd88e398543629657656f2>@@@Z 00000001800149c0 f i _nodert_generated.obj
 0001:00013a60       ?Invoke@?$__abi_FunctorCapture@V<lambda_74b109aa04c410395ed1b84aaba96129>@@XPE$AAU?$IAsyncOperation@PE$AAU?$IVectorView@PE$AAVRadio@Radios@Devices@Windows@@@Collections@Foundation@Windows@@@Foundation@Windows@@W4AsyncStatus@34@@Details@Platform@@UEAAXPE$AAU?$IAsyncOperation@PE$AAU?$IVectorView@PE$AAVRadio@Radios@Devices@Windows@@@Collections@Foundation@Windows@@@Foundation@Windows@@W4AsyncStatus@56@@Z 0000000180014a60 f i _nodert_generated.obj
 0001:00013a70       ??0?$__abi_FunctorCapture@V<lambda_74b109aa04c410395ed1b84aaba96129>@@XPE$AAU?$IAsyncOperation@PE$AAU?$IVectorView@PE$AAVRadio@Radios@Devices@Windows@@@Collections@Foundation@Windows@@@Foundation@Windows@@W4AsyncStatus@34@@Details@Platform@@QEAA@V<lambda_74b109aa04c410395ed1b84aaba96129>@@@Z 0000000180014a70 f i _nodert_generated.obj
 0001:00013b10       ?Invoke@?$__abi_FunctorCapture@V<lambda_4826e3b284b53b5a99fdf233406a9e9a>@@XPE$AAU?$IAsyncOperation@PE$AAVRadio@Radios@Devices@Windows@@@Foundation@Windows@@W4AsyncStatus@34@@Details@Platform@@UEAAXPE$AAU?$IAsyncOperation@PE$AAVRadio@Radios@Devices@Windows@@@Foundation@Windows@@W4AsyncStatus@56@@Z 0000000180014b10 f i _nodert_generated.obj
 0001:00013b20       ??0?$__abi_FunctorCapture@V<lambda_4826e3b284b53b5a99fdf233406a9e9a>@@XPE$AAU?$IAsyncOperation@PE$AAVRadio@Radios@Devices@Windows@@@Foundation@Windows@@W4AsyncStatus@34@@Details@Platform@@QEAA@V<lambda_4826e3b284b53b5a99fdf233406a9e9a>@@@Z 0000000180014b20 f i _nodert_generated.obj
 0001:00013bc0       ?_Delete_this@?$_Func_impl@V<lambda_199453e3251722af17cbed06cee0aa25>@@V?$allocator@H@std@@EV?$task@W4RadioAccessStatus@Radios@Devices@Windows@@@Concurrency@@@std@@EEAAX_N@Z 0000000180014bc0 f i _nodert_generated.obj
 0001:00013c30       ?_Target_type@?$_Func_impl@V<lambda_199453e3251722af17cbed06cee0aa25>@@V?$allocator@H@std@@EV?$task@W4RadioAccessStatus@Radios@Devices@Windows@@@Concurrency@@@std@@EEBAAEBVtype_info@@XZ 0000000180014c30 f i _nodert_generated.obj
 0001:00013c40       ?_Do_call@?$_Func_impl@V<lambda_199453e3251722af17cbed06cee0aa25>@@V?$allocator@H@std@@EV?$task@W4RadioAccessStatus@Radios@Devices@Windows@@@Concurrency@@@std@@EEAAE$$QEAV?$task@W4RadioAccessStatus@Radios@Devices@Windows@@@Concurrency@@@Z 0000000180014c40 f i _nodert_generated.obj
 0001:00013c80       ?_Move@?$_Func_impl@V<lambda_199453e3251722af17cbed06cee0aa25>@@V?$allocator@H@std@@EV?$task@W4RadioAccessStatus@Radios@Devices@Windows@@@Concurrency@@@std@@EEAAPEAV?$_Func_base@EV?$task@W4RadioAccessStatus@Radios@Devices@Windows@@@Concurrency@@@2@PEAX@Z 0000000180014c80 f i _nodert_generated.obj
 0001:00013cf0       ?_Copy@?$_Func_impl@V<lambda_199453e3251722af17cbed06cee0aa25>@@V?$allocator@H@std@@EV?$task@W4RadioAccessStatus@Radios@Devices@Windows@@@Concurrency@@@std@@EEBAPEAV?$_Func_base@EV?$task@W4RadioAccessStatus@Radios@Devices@Windows@@@Concurrency@@@2@PEAX@Z 0000000180014cf0 f i _nodert_generated.obj
 0001:00013d00       ?_Delete_this@?$_Func_impl@V<lambda_83ab8abb741bf007d1b5942dba04bfdd>@@V?$allocator@H@std@@EV?$task@PE$AAU?$IVectorView@PE$AAVRadio@Radios@Devices@Windows@@@Collections@Foundation@Windows@@@Concurrency@@@std@@EEAAX_N@Z 0000000180014d00 f i _nodert_generated.obj
 0001:00013d30       ?_Target_type@?$_Func_impl@V<lambda_83ab8abb741bf007d1b5942dba04bfdd>@@V?$allocator@H@std@@EV?$task@PE$AAU?$IVectorView@PE$AAVRadio@Radios@Devices@Windows@@@Collections@Foundation@Windows@@@Concurrency@@@std@@EEBAAEBVtype_info@@XZ 0000000180014d30 f i _nodert_generated.obj
 0001:00013d40       ?_Do_call@?$_Func_impl@V<lambda_83ab8abb741bf007d1b5942dba04bfdd>@@V?$allocator@H@std@@EV?$task@PE$AAU?$IVectorView@PE$AAVRadio@Radios@Devices@Windows@@@Collections@Foundation@Windows@@@Concurrency@@@std@@EEAAE$$QEAV?$task@PE$AAU?$IVectorView@PE$AAVRadio@Radios@Devices@Windows@@@Collections@Foundation@Windows@@@Concurrency@@@Z 0000000180014d40 f i _nodert_generated.obj
 0001:00013d80       ?_Move@?$_Func_impl@V<lambda_83ab8abb741bf007d1b5942dba04bfdd>@@V?$allocator@H@std@@EV?$task@PE$AAU?$IVectorView@PE$AAVRadio@Radios@Devices@Windows@@@Collections@Foundation@Windows@@@Concurrency@@@std@@EEAAPEAV?$_Func_base@EV?$task@PE$AAU?$IVectorView@PE$AAVRadio@Radios@Devices@Windows@@@Collections@Foundation@Windows@@@Concurrency@@@2@PEAX@Z 0000000180014d80 f i _nodert_generated.obj
 0001:00013e10       ?_Copy@?$_Func_impl@V<lambda_83ab8abb741bf007d1b5942dba04bfdd>@@V?$allocator@H@std@@EV?$task@PE$AAU?$IVectorView@PE$AAVRadio@Radios@Devices@Windows@@@Collections@Foundation@Windows@@@Concurrency@@@std@@EEBAPEAV?$_Func_base@EV?$task@PE$AAU?$IVectorView@PE$AAVRadio@Radios@Devices@Windows@@@Collections@Foundation@Windows@@@Concurrency@@@2@PEAX@Z 0000000180014e10 f i _nodert_generated.obj
 0001:00013e20       ?_Delete_this@?$_Func_impl@V<lambda_73163a669fe347e5c4e2d28c36c6f8ca>@@V?$allocator@H@std@@EV?$task@PE$AAVRadio@Radios@Devices@Windows@@@Concurrency@@@std@@EEAAX_N@Z 0000000180014e20 f i _nodert_generated.obj
 0001:00013e50       ?_Target_type@?$_Func_impl@V<lambda_73163a669fe347e5c4e2d28c36c6f8ca>@@V?$allocator@H@std@@EV?$task@PE$AAVRadio@Radios@Devices@Windows@@@Concurrency@@@std@@EEBAAEBVtype_info@@XZ 0000000180014e50 f i _nodert_generated.obj
 0001:00013e60       ?_Do_call@?$_Func_impl@V<lambda_73163a669fe347e5c4e2d28c36c6f8ca>@@V?$allocator@H@std@@EV?$task@PE$AAVRadio@Radios@Devices@Windows@@@Concurrency@@@std@@EEAAE$$QEAV?$task@PE$AAVRadio@Radios@Devices@Windows@@@Concurrency@@@Z 0000000180014e60 f i _nodert_generated.obj
 0001:00013ea0       ?_Move@?$_Func_impl@V<lambda_73163a669fe347e5c4e2d28c36c6f8ca>@@V?$allocator@H@std@@EV?$task@PE$AAVRadio@Radios@Devices@Windows@@@Concurrency@@@std@@EEAAPEAV?$_Func_base@EV?$task@PE$AAVRadio@Radios@Devices@Windows@@@Concurrency@@@2@PEAX@Z 0000000180014ea0 f i _nodert_generated.obj
 0001:00013f30       ?_Copy@?$_Func_impl@V<lambda_73163a669fe347e5c4e2d28c36c6f8ca>@@V?$allocator@H@std@@EV?$task@PE$AAVRadio@Radios@Devices@Windows@@@Concurrency@@@std@@EEBAPEAV?$_Func_base@EV?$task@PE$AAVRadio@Radios@Devices@Windows@@@Concurrency@@@2@PEAX@Z 0000000180014f30 f i _nodert_generated.obj
 0001:00013f40       ??1?$_Func_impl@V<lambda_f25c37099038263181b5186a3fa41b37>@@V?$allocator@H@std@@X$$V@std@@QEAA@XZ 0000000180014f40 f i _nodert_generated.obj
 0001:00013fe0       ??0?$function@$$A6AXHPEAV?$Local@VValue@v8@@@v8@@@Z@std@@QEAA@$$QEAV01@@Z 0000000180014fe0 f i _nodert_generated.obj
 0001:00014070       ??1?$_Func_base@X$$V@std@@QEAA@XZ 0000000180015070 f i _nodert_generated.obj
 0001:00014080       ??$_Clone@X@?$_Func_impl@V<lambda_199453e3251722af17cbed06cee0aa25>@@V?$allocator@H@std@@EV?$task@W4RadioAccessStatus@Radios@Devices@Windows@@@Concurrency@@@std@@AEBAPEAV?$_Func_base@EV?$task@W4RadioAccessStatus@Radios@Devices@Windows@@@Concurrency@@@1@PEAXU?$integral_constant@_N$00@1@@Z 0000000180015080 f i _nodert_generated.obj
 0001:00014110       ??$_Clone@X@?$_Func_impl@V<lambda_83ab8abb741bf007d1b5942dba04bfdd>@@V?$allocator@H@std@@EV?$task@PE$AAU?$IVectorView@PE$AAVRadio@Radios@Devices@Windows@@@Collections@Foundation@Windows@@@Concurrency@@@std@@AEBAPEAV?$_Func_base@EV?$task@PE$AAU?$IVectorView@PE$AAVRadio@Radios@Devices@Windows@@@Collections@Foundation@Windows@@@Concurrency@@@1@PEAXU?$integral_constant@_N$00@1@@Z 0000000180015110 f i _nodert_generated.obj
 0001:000141c0       ??$_Clone@X@?$_Func_impl@V<lambda_73163a669fe347e5c4e2d28c36c6f8ca>@@V?$allocator@H@std@@EV?$task@PE$AAVRadio@Radios@Devices@Windows@@@Concurrency@@@std@@AEBAPEAV?$_Func_base@EV?$task@PE$AAVRadio@Radios@Devices@Windows@@@Concurrency@@@1@PEAXU?$integral_constant@_N$00@1@@Z 00000001800151c0 f i _nodert_generated.obj
 0001:000142f0       ?_Delete_this@?$_Func_impl@V<lambda_367e91ba48007cd85cfc48a94120f671>@@V?$allocator@H@std@@X$$V@std@@EEAAX_N@Z 00000001800152f0 f i _nodert_generated.obj
 0001:00014350       ?_Target_type@?$_Func_impl@V<lambda_367e91ba48007cd85cfc48a94120f671>@@V?$allocator@H@std@@X$$V@std@@EEBAAEBVtype_info@@XZ 0000000180015350 f i _nodert_generated.obj
 0001:00014360       ?_Do_call@?$_Func_impl@V<lambda_34c7f220960deee2386c1fdeeca0be56>@@V?$allocator@H@std@@X$$V@std@@EEAAXXZ 0000000180015360 f i _nodert_generated.obj
 0001:00014360       ?_Do_call@?$_Func_impl@V<lambda_e648a951913df07dc2c48aa4b13c28ad>@@V?$allocator@H@std@@X$$V@std@@EEAAXXZ 0000000180015360 f i _nodert_generated.obj
 0001:00014360       ?_Do_call@?$_Func_impl@V<lambda_367e91ba48007cd85cfc48a94120f671>@@V?$allocator@H@std@@X$$V@std@@EEAAXXZ 0000000180015360 f i _nodert_generated.obj
 0001:000143d0       ?_Move@?$_Func_impl@V<lambda_367e91ba48007cd85cfc48a94120f671>@@V?$allocator@H@std@@X$$V@std@@EEAAPEAV?$_Func_base@X$$V@2@PEAX@Z 00000001800153d0 f i _nodert_generated.obj
 0001:000143d0       ?_Copy@?$_Func_impl@V<lambda_367e91ba48007cd85cfc48a94120f671>@@V?$allocator@H@std@@X$$V@std@@EEBAPEAV?$_Func_base@X$$V@2@PEAX@Z 00000001800153d0 f i _nodert_generated.obj
 0001:00014420       ?_Delete_this@?$_Func_impl@V<lambda_e648a951913df07dc2c48aa4b13c28ad>@@V?$allocator@H@std@@X$$V@std@@EEAAX_N@Z 0000000180015420 f i _nodert_generated.obj
 0001:00014480       ?_Target_type@?$_Func_impl@V<lambda_e648a951913df07dc2c48aa4b13c28ad>@@V?$allocator@H@std@@X$$V@std@@EEBAAEBVtype_info@@XZ 0000000180015480 f i _nodert_generated.obj
 0001:00014490       ?_Move@?$_Func_impl@V<lambda_e648a951913df07dc2c48aa4b13c28ad>@@V?$allocator@H@std@@X$$V@std@@EEAAPEAV?$_Func_base@X$$V@2@PEAX@Z 0000000180015490 f i _nodert_generated.obj
 0001:00014490       ?_Copy@?$_Func_impl@V<lambda_e648a951913df07dc2c48aa4b13c28ad>@@V?$allocator@H@std@@X$$V@std@@EEBAPEAV?$_Func_base@X$$V@2@PEAX@Z 0000000180015490 f i _nodert_generated.obj
 0001:000144e0       ?_Delete_this@?$_Func_impl@V<lambda_34c7f220960deee2386c1fdeeca0be56>@@V?$allocator@H@std@@X$$V@std@@EEAAX_N@Z 00000001800154e0 f i _nodert_generated.obj
 0001:00014540       ?_Target_type@?$_Func_impl@V<lambda_34c7f220960deee2386c1fdeeca0be56>@@V?$allocator@H@std@@X$$V@std@@EEBAAEBVtype_info@@XZ 0000000180015540 f i _nodert_generated.obj
 0001:00014550       ?_Move@?$_Func_impl@V<lambda_34c7f220960deee2386c1fdeeca0be56>@@V?$allocator@H@std@@X$$V@std@@EEAAPEAV?$_Func_base@X$$V@2@PEAX@Z 0000000180015550 f i _nodert_generated.obj
 0001:00014550       ?_Copy@?$_Func_impl@V<lambda_34c7f220960deee2386c1fdeeca0be56>@@V?$allocator@H@std@@X$$V@std@@EEBAPEAV?$_Func_base@X$$V@2@PEAX@Z 0000000180015550 f i _nodert_generated.obj
 0001:000145a0       ??0?$function@$$A6AXV?$function@$$A6AXHPEAV?$Local@VValue@v8@@@v8@@@Z@std@@@Z@std@@QEAA@$$QEAV01@@Z 00000001800155a0 f i _nodert_generated.obj
 0001:00014720       ??1?$_Func_impl@V<lambda_83ab8abb741bf007d1b5942dba04bfdd>@@V?$allocator@H@std@@EV?$task@PE$AAU?$IVectorView@PE$AAVRadio@Radios@Devices@Windows@@@Collections@Foundation@Windows@@@Concurrency@@@std@@QEAA@XZ 0000000180015720 f i _nodert_generated.obj
 0001:000147a0       ??1?$_Func_impl@V<lambda_73163a669fe347e5c4e2d28c36c6f8ca>@@V?$allocator@H@std@@EV?$task@PE$AAVRadio@Radios@Devices@Windows@@@Concurrency@@@std@@QEAA@XZ 00000001800157a0 f i _nodert_generated.obj
 0001:00014820       ??1?$_Func_base@EV?$task@W4RadioAccessStatus@Radios@Devices@Windows@@@Concurrency@@@std@@QEAA@XZ 0000000180015820 f i _nodert_generated.obj
 0001:00014830       ??1?$_Func_base@EV?$task@PE$AAU?$IVectorView@PE$AAVRadio@Radios@Devices@Windows@@@Collections@Foundation@Windows@@@Concurrency@@@std@@QEAA@XZ 0000000180015830 f i _nodert_generated.obj
 0001:00014840       ??1?$_Func_base@EV?$task@PE$AAVRadio@Radios@Devices@Windows@@@Concurrency@@@std@@QEAA@XZ 0000000180015840 f i _nodert_generated.obj
 0001:0001484c       ?__abi_GetRuntimeClassName@?$AsyncOperationCompletedHandler@PE$AAU?$IVectorView@PE$AAVRadio@Radios@Devices@Windows@@@Collections@Foundation@Windows@@@Foundation@Windows@@WBA@E$AAAJPEAPEAUHSTRING__@@@Z 000000018001584c f i _nodert_generated.obj
 0001:00014858       ?__abi_QueryInterface@?$AsyncOperationCompletedHandler@W4RadioAccessStatus@Radios@Devices@Windows@@@Foundation@Windows@@WBA@E$AAAJAEAVGuid@Platform@@PEAPEAX@Z 0000000180015858 f i _nodert_generated.obj
 0001:00014864       ?__abi_GetRuntimeClassName@?$AsyncOperationCompletedHandler@W4RadioAccessStatus@Radios@Devices@Windows@@@Foundation@Windows@@WBA@E$AAAJPEAPEAUHSTRING__@@@Z 0000000180015864 f i _nodert_generated.obj
 0001:00014870       ?__abi_GetTrustLevel@?$AsyncOperationCompletedHandler@PE$AAU?$IVectorView@PE$AAVRadio@Radios@Devices@Windows@@@Collections@Foundation@Windows@@@Foundation@Windows@@WBA@E$AAAJPEAW4__abi_TrustLevel@@@Z 0000000180015870 f i _nodert_generated.obj
 0001:00014870       ?__abi_GetTrustLevel@?$TypedEventHandler@PE$AAVRadio@Radios@Devices@Windows@@PE$AAVObject@Platform@@@Foundation@Windows@@WBA@E$AAAJPEAW4__abi_TrustLevel@@@Z 0000000180015870 f i _nodert_generated.obj
 0001:00014870       ?__abi_GetTrustLevel@?$AsyncOperationCompletedHandler@W4RadioAccessStatus@Radios@Devices@Windows@@@Foundation@Windows@@WBA@E$AAAJPEAW4__abi_TrustLevel@@@Z 0000000180015870 f i _nodert_generated.obj
 0001:00014870       ?__abi_GetTrustLevel@?$AsyncOperationCompletedHandler@PE$AAVRadio@Radios@Devices@Windows@@@Foundation@Windows@@WBA@E$AAAJPEAW4__abi_TrustLevel@@@Z 0000000180015870 f i _nodert_generated.obj
 0001:0001487c       ?__abi_AddRef@?$AsyncOperationCompletedHandler@PE$AAVRadio@Radios@Devices@Windows@@@Foundation@Windows@@WBA@E$AAAKXZ 000000018001587c f i _nodert_generated.obj
 0001:0001487c       ?__abi_AddRef@?$AsyncOperationCompletedHandler@W4RadioAccessStatus@Radios@Devices@Windows@@@Foundation@Windows@@WBA@E$AAAKXZ 000000018001587c f i _nodert_generated.obj
 0001:0001487c       ?__abi_AddRef@?$TypedEventHandler@PE$AAVRadio@Radios@Devices@Windows@@PE$AAVObject@Platform@@@Foundation@Windows@@WBA@E$AAAKXZ 000000018001587c f i _nodert_generated.obj
 0001:0001487c       ?__abi_AddRef@?$AsyncOperationCompletedHandler@PE$AAU?$IVectorView@PE$AAVRadio@Radios@Devices@Windows@@@Collections@Foundation@Windows@@@Foundation@Windows@@WBA@E$AAAKXZ 000000018001587c f i _nodert_generated.obj
 0001:00014888       ?__abi_Release@?$TypedEventHandler@PE$AAVRadio@Radios@Devices@Windows@@PE$AAVObject@Platform@@@Foundation@Windows@@W7E$AAAKXZ 0000000180015888 f i _nodert_generated.obj
 0001:00014888       ?__abi_Release@?$AsyncOperationCompletedHandler@W4RadioAccessStatus@Radios@Devices@Windows@@@Foundation@Windows@@W7E$AAAKXZ 0000000180015888 f i _nodert_generated.obj
 0001:00014888       ?__abi_Release@?$AsyncOperationCompletedHandler@PE$AAVRadio@Radios@Devices@Windows@@@Foundation@Windows@@W7E$AAAKXZ 0000000180015888 f i _nodert_generated.obj
 0001:00014888       ?__abi_Release@?$AsyncOperationCompletedHandler@PE$AAU?$IVectorView@PE$AAVRadio@Radios@Devices@Windows@@@Collections@Foundation@Windows@@@Foundation@Windows@@W7E$AAAKXZ 0000000180015888 f i _nodert_generated.obj
 0001:00014894       ?__abi_AddRef@?$AsyncOperationCompletedHandler@W4RadioAccessStatus@Radios@Devices@Windows@@@Foundation@Windows@@W7E$AAAKXZ 0000000180015894 f i _nodert_generated.obj
 0001:00014894       ?__abi_AddRef@?$AsyncOperationCompletedHandler@PE$AAVRadio@Radios@Devices@Windows@@@Foundation@Windows@@W7E$AAAKXZ 0000000180015894 f i _nodert_generated.obj
 0001:00014894       ?__abi_AddRef@?$TypedEventHandler@PE$AAVRadio@Radios@Devices@Windows@@PE$AAVObject@Platform@@@Foundation@Windows@@W7E$AAAKXZ 0000000180015894 f i _nodert_generated.obj
 0001:00014894       ?__abi_AddRef@?$AsyncOperationCompletedHandler@PE$AAU?$IVectorView@PE$AAVRadio@Radios@Devices@Windows@@@Collections@Foundation@Windows@@@Foundation@Windows@@W7E$AAAKXZ 0000000180015894 f i _nodert_generated.obj
 0001:000148a0       ?__abi_Release@?$AsyncOperationCompletedHandler@PE$AAVRadio@Radios@Devices@Windows@@@Foundation@Windows@@WBA@E$AAAKXZ 00000001800158a0 f i _nodert_generated.obj
 0001:000148a0       ?__abi_Release@?$AsyncOperationCompletedHandler@PE$AAU?$IVectorView@PE$AAVRadio@Radios@Devices@Windows@@@Collections@Foundation@Windows@@@Foundation@Windows@@WBA@E$AAAKXZ 00000001800158a0 f i _nodert_generated.obj
 0001:000148a0       ?__abi_Release@?$TypedEventHandler@PE$AAVRadio@Radios@Devices@Windows@@PE$AAVObject@Platform@@@Foundation@Windows@@WBA@E$AAAKXZ 00000001800158a0 f i _nodert_generated.obj
 0001:000148a0       ?__abi_Release@?$AsyncOperationCompletedHandler@W4RadioAccessStatus@Radios@Devices@Windows@@@Foundation@Windows@@WBA@E$AAAKXZ 00000001800158a0 f i _nodert_generated.obj
 0001:000148ac       ?__abi_QueryInterface@?$AsyncOperationCompletedHandler@PE$AAVRadio@Radios@Devices@Windows@@@Foundation@Windows@@W7E$AAAJAEAVGuid@Platform@@PEAPEAX@Z 00000001800158ac f i _nodert_generated.obj
 0001:000148b8       ?__abi_GetIids@?$AsyncOperationCompletedHandler@PE$AAVRadio@Radios@Devices@Windows@@@Foundation@Windows@@W7E$AAAJPEAKPEAPEAVGuid@Platform@@@Z 00000001800158b8 f i _nodert_generated.obj
 0001:000148b8       ?__abi_GetIids@?$AsyncOperationCompletedHandler@PE$AAU?$IVectorView@PE$AAVRadio@Radios@Devices@Windows@@@Collections@Foundation@Windows@@@Foundation@Windows@@W7E$AAAJPEAKPEAPEAVGuid@Platform@@@Z 00000001800158b8 f i _nodert_generated.obj
 0001:000148b8       ?__abi_GetIids@?$AsyncOperationCompletedHandler@W4RadioAccessStatus@Radios@Devices@Windows@@@Foundation@Windows@@W7E$AAAJPEAKPEAPEAVGuid@Platform@@@Z 00000001800158b8 f i _nodert_generated.obj
 0001:000148c4       ?__abi_GetRuntimeClassName@?$AsyncOperationCompletedHandler@PE$AAVRadio@Radios@Devices@Windows@@@Foundation@Windows@@W7E$AAAJPEAPEAUHSTRING__@@@Z 00000001800158c4 f i _nodert_generated.obj
 0001:000148d0       ?__abi_QueryInterface@?$AsyncOperationCompletedHandler@PE$AAVRadio@Radios@Devices@Windows@@@Foundation@Windows@@WBA@E$AAAJAEAVGuid@Platform@@PEAPEAX@Z 00000001800158d0 f i _nodert_generated.obj
 0001:000148dc       ?__abi_QueryInterface@?$TypedEventHandler@PE$AAVRadio@Radios@Devices@Windows@@PE$AAVObject@Platform@@@Foundation@Windows@@W7E$AAAJAEAVGuid@Platform@@PEAPEAX@Z 00000001800158dc f i _nodert_generated.obj
 0001:000148e8       ?__abi_GetRuntimeClassName@?$TypedEventHandler@PE$AAVRadio@Radios@Devices@Windows@@PE$AAVObject@Platform@@@Foundation@Windows@@W7E$AAAJPEAPEAUHSTRING__@@@Z 00000001800158e8 f i _nodert_generated.obj
 0001:000148f4       ?__abi_QueryInterface@?$AsyncOperationCompletedHandler@PE$AAU?$IVectorView@PE$AAVRadio@Radios@Devices@Windows@@@Collections@Foundation@Windows@@@Foundation@Windows@@W7E$AAAJAEAVGuid@Platform@@PEAPEAX@Z 00000001800158f4 f i _nodert_generated.obj
 0001:00014900       ?__abi_GetTrustLevel@?$AsyncOperationCompletedHandler@PE$AAVRadio@Radios@Devices@Windows@@@Foundation@Windows@@W7E$AAAJPEAW4__abi_TrustLevel@@@Z 0000000180015900 f i _nodert_generated.obj
 0001:00014900       ?__abi_GetTrustLevel@?$AsyncOperationCompletedHandler@W4RadioAccessStatus@Radios@Devices@Windows@@@Foundation@Windows@@W7E$AAAJPEAW4__abi_TrustLevel@@@Z 0000000180015900 f i _nodert_generated.obj
 0001:00014900       ?__abi_GetTrustLevel@?$TypedEventHandler@PE$AAVRadio@Radios@Devices@Windows@@PE$AAVObject@Platform@@@Foundation@Windows@@W7E$AAAJPEAW4__abi_TrustLevel@@@Z 0000000180015900 f i _nodert_generated.obj
 0001:00014900       ?__abi_GetTrustLevel@?$AsyncOperationCompletedHandler@PE$AAU?$IVectorView@PE$AAVRadio@Radios@Devices@Windows@@@Collections@Foundation@Windows@@@Foundation@Windows@@W7E$AAAJPEAW4__abi_TrustLevel@@@Z 0000000180015900 f i _nodert_generated.obj
 0001:0001490c       ?__abi_GetIids@?$AsyncOperationCompletedHandler@PE$AAVRadio@Radios@Devices@Windows@@@Foundation@Windows@@WBA@E$AAAJPEAKPEAPEAVGuid@Platform@@@Z 000000018001590c f i _nodert_generated.obj
 0001:0001490c       ?__abi_GetIids@?$AsyncOperationCompletedHandler@W4RadioAccessStatus@Radios@Devices@Windows@@@Foundation@Windows@@WBA@E$AAAJPEAKPEAPEAVGuid@Platform@@@Z 000000018001590c f i _nodert_generated.obj
 0001:0001490c       ?__abi_GetIids@?$AsyncOperationCompletedHandler@PE$AAU?$IVectorView@PE$AAVRadio@Radios@Devices@Windows@@@Collections@Foundation@Windows@@@Foundation@Windows@@WBA@E$AAAJPEAKPEAPEAVGuid@Platform@@@Z 000000018001590c f i _nodert_generated.obj
 0001:00014918       ?__abi_GetIids@?$TypedEventHandler@PE$AAVRadio@Radios@Devices@Windows@@PE$AAVObject@Platform@@@Foundation@Windows@@W7E$AAAJPEAKPEAPEAVGuid@Platform@@@Z 0000000180015918 f i _nodert_generated.obj
 0001:00014924       ?__abi_GetRuntimeClassName@?$AsyncOperationCompletedHandler@PE$AAVRadio@Radios@Devices@Windows@@@Foundation@Windows@@WBA@E$AAAJPEAPEAUHSTRING__@@@Z 0000000180015924 f i _nodert_generated.obj
 0001:00014930       ?__abi_GetRuntimeClassName@?$AsyncOperationCompletedHandler@PE$AAU?$IVectorView@PE$AAVRadio@Radios@Devices@Windows@@@Collections@Foundation@Windows@@@Foundation@Windows@@W7E$AAAJPEAPEAUHSTRING__@@@Z 0000000180015930 f i _nodert_generated.obj
 0001:0001493c       ?__abi_QueryInterface@?$AsyncOperationCompletedHandler@W4RadioAccessStatus@Radios@Devices@Windows@@@Foundation@Windows@@W7E$AAAJAEAVGuid@Platform@@PEAPEAX@Z 000000018001593c f i _nodert_generated.obj
 0001:00014948       ?__abi_GetRuntimeClassName@?$AsyncOperationCompletedHandler@W4RadioAccessStatus@Radios@Devices@Windows@@@Foundation@Windows@@W7E$AAAJPEAPEAUHSTRING__@@@Z 0000000180015948 f i _nodert_generated.obj
 0001:00014954       ?__abi_QueryInterface@?$TypedEventHandler@PE$AAVRadio@Radios@Devices@Windows@@PE$AAVObject@Platform@@@Foundation@Windows@@WBA@E$AAAJAEAVGuid@Platform@@PEAPEAX@Z 0000000180015954 f i _nodert_generated.obj
 0001:00014960       ?__abi_GetRuntimeClassName@?$TypedEventHandler@PE$AAVRadio@Radios@Devices@Windows@@PE$AAVObject@Platform@@@Foundation@Windows@@WBA@E$AAAJPEAPEAUHSTRING__@@@Z 0000000180015960 f i _nodert_generated.obj
 0001:0001496c       ?__abi_QueryInterface@?$AsyncOperationCompletedHandler@PE$AAU?$IVectorView@PE$AAVRadio@Radios@Devices@Windows@@@Collections@Foundation@Windows@@@Foundation@Windows@@WBA@E$AAAJAEAVGuid@Platform@@PEAPEAX@Z 000000018001596c f i _nodert_generated.obj
 0001:00014978       ?__abi_GetIids@?$TypedEventHandler@PE$AAVRadio@Radios@Devices@Windows@@PE$AAVObject@Platform@@@Foundation@Windows@@WBA@E$AAAJPEAKPEAPEAVGuid@Platform@@@Z 0000000180015978 f i _nodert_generated.obj
 0001:00014990       ?ForceSet@Nan@@YA?AV?$Maybe@_N@v8@@V?$Local@VObject@v8@@@3@V?$Local@VValue@v8@@@3@1W4PropertyAttribute@3@@Z 0000000180015990 f i NodeRtUtils.obj
 0001:00014a20       ?Has@Nan@@YA?AV?$Maybe@_N@v8@@V?$Local@VObject@v8@@@3@V?$Local@VString@v8@@@3@@Z 0000000180015a20 f i NodeRtUtils.obj
 0001:00014aa0       ?WinRtExceptionToJsError@Utils@NodeRT@@YA?AV?$Local@VValue@v8@@@v8@@PE$AAVException@Platform@@@Z 0000000180015aa0 f   NodeRtUtils.obj
 0001:00014c70       ?ThrowWinRtExceptionInJs@Utils@NodeRT@@YAXPE$AAVException@Platform@@@Z 0000000180015c70 f   NodeRtUtils.obj
 0001:00014cb0       ?CreateCallbackObjectInDomain@Utils@NodeRT@@YA?AV?$Local@VObject@v8@@@v8@@V?$Local@VFunction@v8@@@4@@Z 0000000180015cb0 f   NodeRtUtils.obj
 0001:00014f10       ?GetObjectInstance@Utils@NodeRT@@YAPE$AAVObject@Platform@@V?$Local@VValue@v8@@@v8@@@Z 0000000180015f10 f   NodeRtUtils.obj
 0001:00014f90       ?CaseInsenstiveEquals@Utils@NodeRT@@YA_NPEB_WPEBG@Z 0000000180015f90 f   NodeRtUtils.obj
 0001:00014ff0       ?RegisterNameSpace@Utils@NodeRT@@YAXPEBDV?$Local@VValue@v8@@@v8@@@Z 0000000180015ff0 f   NodeRtUtils.obj
 0001:000151c0       ?IsWinRtWrapper@Utils@NodeRT@@YA_NV?$Local@VValue@v8@@@v8@@@Z 00000001800161c0 f   NodeRtUtils.obj
 0001:00015300       ?New@OpaqueWrapper@NodeRT@@CAXAEBV?$FunctionCallbackInfo@VValue@v8@@@Nan@@@Z 0000000180016300 f   OpaqueWrapper.obj
 0001:000153b0       ?Init@OpaqueWrapper@NodeRT@@CAXXZ 00000001800163b0 f   OpaqueWrapper.obj
 0001:000154d0       ?CreateOpaqueWrapper@NodeRT@@YA?AV?$Local@VValue@v8@@@v8@@PE$AAVObject@Platform@@@Z 00000001800164d0 f   OpaqueWrapper.obj
 0001:00015618       ?Initialize@Details@Platform@@YAHXZ 0000000180016618 f   vccorlib:init.obj
 0001:0001566c       ??_G?$Module@$00VInProcModule@Details@Platform@@@WRL@Microsoft@@UEAAPEAXI@Z 000000018001666c f i vccorlib:init.obj
 0001:0001566c       ??_E?$Module@$00VInProcModule@Details@Platform@@@WRL@Microsoft@@UEAAPEAXI@Z 000000018001666c f i vccorlib:init.obj
 0001:000156b8       ??_GInProcModule@Details@Platform@@UEAAPEAXI@Z 00000001800166b8 f i vccorlib:init.obj
 0001:000156b8       ??_EInProcModule@Details@Platform@@UEAAPEAXI@Z 00000001800166b8 f i vccorlib:init.obj
 0001:00015718       ?Cleanup@Details@Platform@@YAXXZ 0000000180016718 f   vccorlib:init.obj
 0001:00015724       ?Create@?$Module@$00VInProcModule@Details@Platform@@@WRL@Microsoft@@SAAEAVInProcModule@Details@Platform@@XZ 0000000180016724 f i vccorlib:init.obj
 0001:0001578c       ?__abi_DecrementObjectCount@InProcModule@Details@Platform@@UEAAKXZ 000000018001678c f i vccorlib:init.obj
 0001:0001578c       ?DecrementObjectCount@?$Module@$00VInProcModule@Details@Platform@@@WRL@Microsoft@@UEAAKXZ 000000018001678c f i vccorlib:init.obj
 0001:0001579c       ?GetFirstEntryPointer@ModuleBase@Details@WRL@Microsoft@@UEBAPEAPEBUCreatorMap@234@XZ 000000018001679c f i vccorlib:init.obj
 0001:000157a4       ?GetLastEntryPointer@ModuleBase@Details@WRL@Microsoft@@UEBAPEAPEBUCreatorMap@234@XZ 00000001800167a4 f i vccorlib:init.obj
 0001:000157ac       ?GetLock@ModuleBase@Details@WRL@Microsoft@@UEBAPEAU_RTL_SRWLOCK@@XZ 00000001800167ac f i vccorlib:init.obj
 0001:000157b4       ?GetMidEntryPointer@ModuleBase@Details@WRL@Microsoft@@UEBAPEAPEBUCreatorMap@234@XZ 00000001800167b4 f i vccorlib:init.obj
 0001:000157bc       ?GetObjectCount@ModuleBase@Details@WRL@Microsoft@@UEBAKXZ 00000001800167bc f i vccorlib:init.obj
 0001:000157c4       ?LockExclusive@SRWLock@Wrappers@WRL@Microsoft@@SA?AV?$SyncLockT@USRWLockExclusiveTraits@HandleTraits@Wrappers@WRL@Microsoft@@@Details@234@PEAU_RTL_SRWLOCK@@@Z 00000001800167c4 f i vccorlib:init.obj
 0001:000157f0       ?TerminateMap@Details@WRL@Microsoft@@YA_NPEAVModuleBase@123@PEB_W_N@Z 00000001800167f0 f i vccorlib:init.obj
 0001:0001597c       ?RegisterWinRTObject@?$Module@$00VInProcModule@Details@Platform@@@WRL@Microsoft@@UEAAJPEB_WPEAPEB_WPEAPEAU<unnamed-type-RO_REGISTRATION_COOKIE>@@I@Z 000000018001697c f i vccorlib:init.obj
 0001:0001597c       ?UnregisterCOMObject@?$Module@$00VInProcModule@Details@Platform@@@WRL@Microsoft@@UEAAJPEB_WPEAKI@Z 000000018001697c f i vccorlib:init.obj
 0001:0001597c       ?UnregisterWinRTObject@?$Module@$00VInProcModule@Details@Platform@@@WRL@Microsoft@@UEAAJPEB_WPEAU<unnamed-type-RO_REGISTRATION_COOKIE>@@@Z 000000018001697c f i vccorlib:init.obj
 0001:0001597c       ?RegisterCOMObject@?$Module@$00VInProcModule@Details@Platform@@@WRL@Microsoft@@UEAAJPEB_WPEAU_GUID@@PEAPEAUIClassFactory@@PEAKI@Z 000000018001697c f i vccorlib:init.obj
 0001:00015984       ?__abi_IncrementObjectCount@InProcModule@Details@Platform@@UEAAKXZ 0000000180016984 f i vccorlib:init.obj
 0001:00015984       ?IncrementObjectCount@?$Module@$00VInProcModule@Details@Platform@@@WRL@Microsoft@@UEAAKXZ 0000000180016984 f i vccorlib:init.obj
 0001:00015994       ?__getIids@__winRT@@YAJHPEAKPEBU__s_GUID@@PEAPEAVGuid@Platform@@@Z 0000000180016994 f   vccorlib:compiler.obj
 0001:0001599c       ?__windowsCreateString@__winRT@@YAJPEB_WHPEAPEAUHSTRING__@@@Z 000000018001699c f   vccorlib:compiler.obj
 0001:000159a4       ?__getActivationFactoryByPCWSTR@__winRT@@YAJPEAXAEAVGuid@Platform@@PEAPEAX@Z 00000001800169a4 f   vccorlib:activation.obj
 0001:000159aa       ?InitializeData@Details@Platform@@YAJH@Z 00000001800169aa f   vccorlib:vccorlib140.DLL
 0001:000159b0       ?UninitializeData@Details@Platform@@YAXH@Z 00000001800169b0 f   vccorlib:vccorlib140.DLL
 0001:000159b6       ?GetIidsFn@@YAJHPEAKPEBU__s_GUID@@PEAPEAVGuid@Platform@@@Z 00000001800169b6 f   vccorlib:vccorlib140.DLL
 0001:000159bc       ?GetActivationFactoryByPCWSTR@@YAJPEAXAEAVGuid@Platform@@PEAPEAX@Z 00000001800169bc f   vccorlib:vccorlib140.DLL
 0001:000159e0       __security_check_cookie    00000001800169e0 f   MSVCRT:_amdsecgs_.obj
 0001:00015b4c       _Init_thread_footer        0000000180016b4c f   MSVCRT:thread_safe_statics.obj
 0001:00015bac       _Init_thread_header        0000000180016bac f   MSVCRT:thread_safe_statics.obj
 0001:00015c14       _Init_thread_notify        0000000180016c14 f   MSVCRT:thread_safe_statics.obj
 0001:00015c70       _Init_thread_wait          0000000180016c70 f   MSVCRT:thread_safe_statics.obj
 0001:00015d08       ??2@YAPEAX_K@Z             0000000180016d08 f   MSVCRT:new_scalar.obj
 0001:00015d44       __scrt_acquire_startup_lock 0000000180016d44 f   MSVCRT:utility.obj
 0001:00015d80       __scrt_dllmain_after_initialize_c 0000000180016d80 f   MSVCRT:utility.obj
 0001:00015db4       __scrt_dllmain_before_initialize_c 0000000180016db4 f   MSVCRT:utility.obj
 0001:00015dcc       __scrt_dllmain_crt_thread_attach 0000000180016dcc f   MSVCRT:utility.obj
 0001:00015df4       __scrt_dllmain_crt_thread_detach 0000000180016df4 f   MSVCRT:utility.obj
 0001:00015e0c       __scrt_dllmain_exception_filter 0000000180016e0c f   MSVCRT:utility.obj
 0001:00015e70       __scrt_dllmain_uninitialize_c 0000000180016e70 f   MSVCRT:utility.obj
 0001:00015ea0       __scrt_dllmain_uninitialize_critical 0000000180016ea0 f   MSVCRT:utility.obj
 0001:00015eb4       __scrt_initialize_crt      0000000180016eb4 f   MSVCRT:utility.obj
 0001:00015f00       __scrt_initialize_onexit_tables 0000000180016f00 f   MSVCRT:utility.obj
 0001:00015fcc       __scrt_is_nonwritable_in_current_image 0000000180016fcc f   MSVCRT:utility.obj
 0001:00016068       __scrt_release_startup_lock 0000000180017068 f   MSVCRT:utility.obj
 0001:0001608c       __scrt_uninitialize_crt    000000018001708c f   MSVCRT:utility.obj
 0001:000160b8       _onexit                    00000001800170b8 f   MSVCRT:utility.obj
 0001:00016108       atexit                     0000000180017108 f   MSVCRT:utility.obj
 0001:00016120       ??3@YAXPEAX@Z              0000000180017120 f   MSVCRT:delete_scalar.obj
 0001:00016128       ??_V@YAXPEAX@Z             0000000180017128 f   MSVCRT:delete_array.obj
 0001:00016128       ??3@YAXPEAX_K@Z            0000000180017128 f   MSVCRT:delete_scalar_size.obj
 0001:00016130       ??_U@YAPEAX_K@Z            0000000180017130 f   MSVCRT:new_array.obj
 0001:00016138       ??_Etype_info@@UEAAPEAXI@Z 0000000180017138 f i MSVCRT:std_type_info_static.obj
 0001:00016138       ??_Gtype_info@@UEAAPEAXI@Z 0000000180017138 f i MSVCRT:std_type_info_static.obj
 0001:00016164       __raise_securityfailure    0000000180017164 f   MSVCRT:gs_report.obj
 0001:00016198       __report_gsfailure         0000000180017198 f   MSVCRT:gs_report.obj
 0001:0001662c       _DllMainCRTStartup         000000018001762c f   MSVCRT:dll_dllmain.obj
 0001:0001666c       _guard_check_icall         000000018001766c f i MSVCRT:checkcfg.obj
 0001:00016674       __scrt_fastfail            0000000180017674 f   MSVCRT:utility_desktop.obj
 0001:000167bc       ??0bad_alloc@std@@QEAA@AEBV01@@Z 00000001800177bc f i MSVCRT:throw_bad_alloc.obj
 0001:000167fc       ??0bad_alloc@std@@QEAA@XZ  00000001800177fc f i MSVCRT:throw_bad_alloc.obj
 0001:0001681c       ??0bad_array_new_length@std@@QEAA@AEBV01@@Z 000000018001781c f i MSVCRT:throw_bad_alloc.obj
 0001:0001685c       ??0bad_array_new_length@std@@QEAA@XZ 000000018001785c f i MSVCRT:throw_bad_alloc.obj
 0001:0001687c       ??0exception@std@@QEAA@AEBV01@@Z 000000018001787c f i MSVCRT:throw_bad_alloc.obj
 0001:000168b4       ??1bad_alloc@std@@UEAA@XZ  00000001800178b4 f i MSVCRT:throw_bad_alloc.obj
 0001:000168b4       ??1bad_array_new_length@std@@UEAA@XZ 00000001800178b4 f i MSVCRT:throw_bad_alloc.obj
 0001:000168c8       ??_Gbad_alloc@std@@UEAAPEAXI@Z 00000001800178c8 f i MSVCRT:throw_bad_alloc.obj
 0001:000168c8       ??_Eexception@std@@UEAAPEAXI@Z 00000001800178c8 f i MSVCRT:throw_bad_alloc.obj
 0001:000168c8       ??_Ebad_alloc@std@@UEAAPEAXI@Z 00000001800178c8 f i MSVCRT:throw_bad_alloc.obj
 0001:000168c8       ??_Gbad_array_new_length@std@@UEAAPEAXI@Z 00000001800178c8 f i MSVCRT:throw_bad_alloc.obj
 0001:000168c8       ??_Ebad_array_new_length@std@@UEAAPEAXI@Z 00000001800178c8 f i MSVCRT:throw_bad_alloc.obj
 0001:000168c8       ??_Gexception@std@@UEAAPEAXI@Z 00000001800178c8 f i MSVCRT:throw_bad_alloc.obj
 0001:0001690c       ?__scrt_throw_std_bad_alloc@@YAXXZ 000000018001790c f   MSVCRT:throw_bad_alloc.obj
 0001:0001692c       ?__scrt_throw_std_bad_array_new_length@@YAXXZ 000000018001792c f   MSVCRT:throw_bad_alloc.obj
 0001:0001694c       ?what@exception@std@@UEBAPEBDXZ 000000018001794c f i MSVCRT:throw_bad_alloc.obj
 0001:00016960       __isa_available_init       0000000180017960 f   MSVCRT:_cpu_disp_.obj
 0001:00016b28       _get_startup_argv_mode     0000000180017b28 f   MSVCRT:argv_mode.obj
 0001:00016b30       __scrt_is_ucrt_dll_in_use  0000000180017b30 f   MSVCRT:ucrt_detection.obj
 0001:00016b3c       __security_init_cookie     0000000180017b3c f   MSVCRT:gs_support.obj
 0001:00016be8       DllMain                    0000000180017be8 f   MSVCRT:dll_dllmain_stub.obj
 0001:00016c0c       ?__scrt_initialize_type_info@@YAXXZ 0000000180017c0c f   MSVCRT:tncleanup.obj
 0001:00016c1c       ?__scrt_uninitialize_type_info@@YAXXZ 0000000180017c1c f   MSVCRT:tncleanup.obj
 0001:00016c28       __local_stdio_printf_options 0000000180017c28 f i MSVCRT:default_local_stdio_options.obj
 0001:00016c30       __local_stdio_scanf_options 0000000180017c30 f i MSVCRT:default_local_stdio_options.obj
 0001:00016c38       __scrt_initialize_default_local_stdio_options 0000000180017c38 f   MSVCRT:default_local_stdio_options.obj
 0001:00016c54       __scrt_get_dyn_tls_init_callback 0000000180017c54 f   MSVCRT:dyn_tls_init.obj
 0001:00016c5c       _RTC_Initialize            0000000180017c5c f   MSVCRT:_initsect_.obj
 0001:00016ca8       _RTC_Terminate             0000000180017ca8 f   MSVCRT:_initsect_.obj
 0001:00016d00       _purecall                  0000000180017d00 f   vcruntime:VCRUNTIME140.dll
 0001:00016d06       __std_terminate            0000000180017d06 f   vcruntime:VCRUNTIME140.dll
 0001:00016d0c       __vcrt_InitializeCriticalSectionEx 0000000180017d0c f   vcruntime:VCRUNTIME140.dll
 0001:00016d12       __C_specific_handler       0000000180017d12 f   vcruntime:VCRUNTIME140.dll
 0001:00016d18       memset                     0000000180017d18 f   vcruntime:VCRUNTIME140.dll
 0001:00016d1e       __std_exception_copy       0000000180017d1e f   vcruntime:VCRUNTIME140.dll
 0001:00016d24       __std_exception_destroy    0000000180017d24 f   vcruntime:VCRUNTIME140.dll
 0001:00016d2a       _CxxThrowException         0000000180017d2a f   vcruntime:VCRUNTIME140.dll
 0001:00016d30       __std_type_info_destroy_list 0000000180017d30 f   vcruntime:VCRUNTIME140.dll
 0001:00016d36       wcslen                     0000000180017d36 f   ucrt:api-ms-win-crt-string-l1-1-0.dll
 0001:00016d36       __Platform_wcslen          0000000180017d36 f   ucrt:api-ms-win-crt-string-l1-1-0.dll
 0001:00016d3c       _callnewh                  0000000180017d3c f   ucrt:api-ms-win-crt-heap-l1-1-0.dll
 0001:00016d42       malloc                     0000000180017d42 f   ucrt:api-ms-win-crt-heap-l1-1-0.dll
 0001:00016d48       _seh_filter_dll            0000000180017d48 f   ucrt:api-ms-win-crt-runtime-l1-1-0.dll
 0001:00016d4e       _configure_narrow_argv     0000000180017d4e f   ucrt:api-ms-win-crt-runtime-l1-1-0.dll
 0001:00016d54       _initialize_narrow_environment 0000000180017d54 f   ucrt:api-ms-win-crt-runtime-l1-1-0.dll
 0001:00016d5a       _initialize_onexit_table   0000000180017d5a f   ucrt:api-ms-win-crt-runtime-l1-1-0.dll
 0001:00016d60       _register_onexit_function  0000000180017d60 f   ucrt:api-ms-win-crt-runtime-l1-1-0.dll
 0001:00016d66       _execute_onexit_table      0000000180017d66 f   ucrt:api-ms-win-crt-runtime-l1-1-0.dll
 0001:00016d6c       _crt_atexit                0000000180017d6c f   ucrt:api-ms-win-crt-runtime-l1-1-0.dll
 0001:00016d72       _cexit                     0000000180017d72 f   ucrt:api-ms-win-crt-runtime-l1-1-0.dll
 0001:00016d78       free                       0000000180017d78 f   ucrt:api-ms-win-crt-heap-l1-1-0.dll
 0001:00016d7e       _initterm                  0000000180017d7e f   ucrt:api-ms-win-crt-runtime-l1-1-0.dll
 0001:00016d84       _initterm_e                0000000180017d84 f   ucrt:api-ms-win-crt-runtime-l1-1-0.dll
 0001:00016d8a       IsProcessorFeaturePresent  0000000180017d8a f   kernel32:KERNEL32.dll
 0001:00016d90       CoCreateFreeThreadedMarshaler 0000000180017d90 f   ole32:ole32.dll
 0001:00016d90       __Platform_CoCreateFreeThreadedMarshaler 0000000180017d90 f   ole32:ole32.dll
 0001:00016d96       __Platform_WindowsCreateString 0000000180017d96 f   runtimeobject:api-ms-win-core-winrt-string-l1-1-0.dll
 0001:00016d96       WindowsCreateString        0000000180017d96 f   runtimeobject:api-ms-win-core-winrt-string-l1-1-0.dll
 0001:00016d9c       __Platform_WindowsDeleteString 0000000180017d9c f   runtimeobject:api-ms-win-core-winrt-string-l1-1-0.dll
 0001:00016d9c       WindowsDeleteString        0000000180017d9c f   runtimeobject:api-ms-win-core-winrt-string-l1-1-0.dll
 0001:00016da2       __Platform_WindowsGetStringRawBuffer 0000000180017da2 f   runtimeobject:api-ms-win-core-winrt-string-l1-1-0.dll
 0001:00016da2       WindowsGetStringRawBuffer  0000000180017da2 f   runtimeobject:api-ms-win-core-winrt-string-l1-1-0.dll
 0001:00016da8       WindowsDuplicateString     0000000180017da8 f   runtimeobject:api-ms-win-core-winrt-string-l1-1-0.dll
 0001:00016da8       __Platform_WindowsDuplicateString 0000000180017da8 f   runtimeobject:api-ms-win-core-winrt-string-l1-1-0.dll
 0001:00016dae       WindowsGetStringLen        0000000180017dae f   runtimeobject:api-ms-win-core-winrt-string-l1-1-0.dll
 0001:00016dae       __Platform_WindowsGetStringLen 0000000180017dae f   runtimeobject:api-ms-win-core-winrt-string-l1-1-0.dll
 0001:00016db4       __vcrt_thread_attach       0000000180017db4 f   MSVCRT:ucrt_stubs.obj
 0001:00016db4       __scrt_stub_for_acrt_thread_attach 0000000180017db4 f   MSVCRT:ucrt_stubs.obj
 0001:00016db4       __scrt_stub_for_acrt_uninitialize 0000000180017db4 f   MSVCRT:ucrt_stubs.obj
 0001:00016db4       __acrt_uninitialize        0000000180017db4 f   MSVCRT:ucrt_stubs.obj
 0001:00016db4       __acrt_thread_detach       0000000180017db4 f   MSVCRT:ucrt_stubs.obj
 0001:00016db4       __vcrt_thread_detach       0000000180017db4 f   MSVCRT:ucrt_stubs.obj
 0001:00016db4       __scrt_stub_for_acrt_uninitialize_critical 0000000180017db4 f   MSVCRT:ucrt_stubs.obj
 0001:00016db4       __scrt_stub_for_acrt_thread_detach 0000000180017db4 f   MSVCRT:ucrt_stubs.obj
 0001:00016db4       __acrt_uninitialize_critical 0000000180017db4 f   MSVCRT:ucrt_stubs.obj
 0001:00016db4       __vcrt_uninitialize_critical 0000000180017db4 f   MSVCRT:ucrt_stubs.obj
 0001:00016db4       __acrt_initialize          0000000180017db4 f   MSVCRT:ucrt_stubs.obj
 0001:00016db4       __vcrt_uninitialize        0000000180017db4 f   MSVCRT:ucrt_stubs.obj
 0001:00016db4       __vcrt_initialize          0000000180017db4 f   MSVCRT:ucrt_stubs.obj
 0001:00016db4       __scrt_stub_for_acrt_initialize 0000000180017db4 f   MSVCRT:ucrt_stubs.obj
 0001:00016db4       __acrt_thread_attach       0000000180017db4 f   MSVCRT:ucrt_stubs.obj
 0001:00016db8       __GSHandlerCheck           0000000180017db8 f   MSVCRT:_gshandler_.obj
 0001:00016dd8       __GSHandlerCheckCommon     0000000180017dd8 f   MSVCRT:_gshandler_.obj
 0001:00016e34       __GSHandlerCheck_EH        0000000180017e34 f   MSVCRT:gshandlereh.obj
 0001:00016eb4       __CxxFrameHandler3         0000000180017eb4 f   vcruntime:VCRUNTIME140.dll
 0001:00016ed0       _guard_dispatch_icall_nop  0000000180017ed0 f   MSVCRT:_guard_dispatch_.obj
 0001:00018d50       ??__F_S_scheduler@?1??_GetStaticAmbientSchedulerRef@details@Concurrency@@YAAEAV?$shared_ptr@Uscheduler_interface@Concurrency@@@std@@XZ@YAXXZ 0000000180019d50 f i _nodert_generated.obj
 0001:00018e54       ??__Fmodule@?1??Create@?$Module@$00VInProcModule@Details@Platform@@@WRL@Microsoft@@SAAEAVInProcModule@Details@Platform@@XZ@YAXXZ 0000000180019e54 f i vccorlib:init.obj
 0002:00000000       __imp_InitializeSListHead  000000018001a000     kernel32:KERNEL32.dll
 0002:00000008       __imp_DisableThreadLibraryCalls 000000018001a008     kernel32:KERNEL32.dll
 0002:00000010       __imp_GetSystemTimeAsFileTime 000000018001a010     kernel32:KERNEL32.dll
 0002:00000018       __imp_GetCurrentThreadId   000000018001a018     kernel32:KERNEL32.dll
 0002:00000020       __imp_GetCurrentProcessId  000000018001a020     kernel32:KERNEL32.dll
 0002:00000028       __imp_QueryPerformanceCounter 000000018001a028     kernel32:KERNEL32.dll
 0002:00000030       __imp_IsDebuggerPresent    000000018001a030     kernel32:KERNEL32.dll
 0002:00000038       __imp_IsProcessorFeaturePresent 000000018001a038     kernel32:KERNEL32.dll
 0002:00000040       __imp_TerminateProcess     000000018001a040     kernel32:KERNEL32.dll
 0002:00000048       __imp_GetCurrentProcess    000000018001a048     kernel32:KERNEL32.dll
 0002:00000050       __imp_SetUnhandledExceptionFilter 000000018001a050     kernel32:KERNEL32.dll
 0002:00000058       __imp_UnhandledExceptionFilter 000000018001a058     kernel32:KERNEL32.dll
 0002:00000060       __imp_RtlVirtualUnwind     000000018001a060     kernel32:KERNEL32.dll
 0002:00000068       __imp_RtlLookupFunctionEntry 000000018001a068     kernel32:KERNEL32.dll
 0002:00000070       __imp_RtlCaptureContext    000000018001a070     kernel32:KERNEL32.dll
 0002:00000078       __imp_GetModuleHandleW     000000018001a078     kernel32:KERNEL32.dll
 0002:00000080       __imp_CreateEventW         000000018001a080     kernel32:KERNEL32.dll
 0002:00000088       __imp_WaitForSingleObjectEx 000000018001a088     kernel32:KERNEL32.dll
 0002:00000090       __imp_ResetEvent           000000018001a090     kernel32:KERNEL32.dll
 0002:00000098       __imp_SetEvent             000000018001a098     kernel32:KERNEL32.dll
 0002:000000a0       __imp_DeleteCriticalSection 000000018001a0a0     kernel32:KERNEL32.dll
 0002:000000a8       __imp_LeaveCriticalSection 000000018001a0a8     kernel32:KERNEL32.dll
 0002:000000b0       __imp_EnterCriticalSection 000000018001a0b0     kernel32:KERNEL32.dll
 0002:000000b8       __imp_CloseHandle          000000018001a0b8     kernel32:KERNEL32.dll
 0002:000000c0       __imp_GetProcAddress       000000018001a0c0     kernel32:KERNEL32.dll
 0002:000000c8       __imp_AcquireSRWLockExclusive 000000018001a0c8     kernel32:KERNEL32.dll
 0002:000000d0       __imp_ReleaseSRWLockExclusive 000000018001a0d0     kernel32:KERNEL32.dll
 0002:000000d8       __imp_DecodePointer        000000018001a0d8     kernel32:KERNEL32.dll
 0002:000000e0       \177KERNEL32_NULL_THUNK_DATA 000000018001a0e0     kernel32:KERNEL32.dll
 0002:000000e8       __imp_?_ReportUnobservedException@details@Concurrency@@YAXXZ 000000018001a0e8     msvcprt:MSVCP140.dll
 0002:000000f0       __imp_?_Schedule_chore@details@Concurrency@@YAHPEAU_Threadpool_chore@12@@Z 000000018001a0f0     msvcprt:MSVCP140.dll
 0002:000000f8       __imp_?_IsNonBlockingThread@_Task_impl_base@details@Concurrency@@SA_NXZ 000000018001a0f8     msvcprt:MSVCP140.dll
 0002:00000100       __imp_?_LogWorkItemCompleted@_TaskEventLogger@details@Concurrency@@QEAAXXZ 000000018001a100     msvcprt:MSVCP140.dll
 0002:00000108       __imp_?_LogWorkItemStarted@_TaskEventLogger@details@Concurrency@@QEAAXXZ 000000018001a108     msvcprt:MSVCP140.dll
 0002:00000110       __imp_?_LogTaskExecutionCompleted@_TaskEventLogger@details@Concurrency@@QEAAXXZ 000000018001a110     msvcprt:MSVCP140.dll
 0002:00000118       __imp_?_LogTaskCompleted@_TaskEventLogger@details@Concurrency@@QEAAXXZ 000000018001a118     msvcprt:MSVCP140.dll
 0002:00000120       __imp_?_LogCancelTask@_TaskEventLogger@details@Concurrency@@QEAAXXZ 000000018001a120     msvcprt:MSVCP140.dll
 0002:00000128       __imp_?_LogScheduleTask@_TaskEventLogger@details@Concurrency@@QEAAX_N@Z 000000018001a128     msvcprt:MSVCP140.dll
 0002:00000130       __imp_?GetCurrentThreadId@platform@details@Concurrency@@YAJXZ 000000018001a130     msvcprt:MSVCP140.dll
 0002:00000138       __imp_?_Release_chore@details@Concurrency@@YAXPEAU_Threadpool_chore@12@@Z 000000018001a138     msvcprt:MSVCP140.dll
 0002:00000140       __imp_?ReportUnhandledError@_ExceptionHolder@details@Concurrency@@AEAAXXZ 000000018001a140     msvcprt:MSVCP140.dll
 0002:00000148       __imp__Cnd_destroy_in_situ 000000018001a148     msvcprt:MSVCP140.dll
 0002:00000150       __imp__Cnd_broadcast       000000018001a150     msvcprt:MSVCP140.dll
 0002:00000158       __imp__Mtx_unlock          000000018001a158     msvcprt:MSVCP140.dll
 0002:00000160       __imp__Cnd_wait            000000018001a160     msvcprt:MSVCP140.dll
 0002:00000168       __imp__Mtx_init_in_situ    000000018001a168     msvcprt:MSVCP140.dll
 0002:00000170       __imp_?__ExceptionPtrRethrow@@YAXPEBX@Z 000000018001a170     msvcprt:MSVCP140.dll
 0002:00000178       __imp_?__ExceptionPtrCurrentException@@YAXPEAX@Z 000000018001a178     msvcprt:MSVCP140.dll
 0002:00000180       __imp__Mtx_lock            000000018001a180     msvcprt:MSVCP140.dll
 0002:00000188       __imp_?__ExceptionPtrDestroy@@YAXPEAX@Z 000000018001a188     msvcprt:MSVCP140.dll
 0002:00000190       __imp__Mtx_destroy_in_situ 000000018001a190     msvcprt:MSVCP140.dll
 0002:00000198       __imp_?_Xlength_error@std@@YAXPEBD@Z 000000018001a198     msvcprt:MSVCP140.dll
 0002:000001a0       __imp_?_Throw_C_error@std@@YAXH@Z 000000018001a1a0     msvcprt:MSVCP140.dll
 0002:000001a8       __imp_?_Raise_handler@std@@3P6AXAEBVexception@stdext@@@ZEA 000000018001a1a8     msvcprt:MSVCP140.dll
 0002:000001b0       __imp_?_Xbad_function_call@std@@YAXXZ 000000018001a1b0     msvcprt:MSVCP140.dll
 0002:000001b8       __imp_?_Xbad_alloc@std@@YAXXZ 000000018001a1b8     msvcprt:MSVCP140.dll
 0002:000001c0       __imp_?__ExceptionPtrCopy@@YAXPEAXPEBX@Z 000000018001a1c0     msvcprt:MSVCP140.dll
 0002:000001c8       __imp_?__ExceptionPtrCopyException@@YAXPEAXPEBX1@Z 000000018001a1c8     msvcprt:MSVCP140.dll
 0002:000001d0       __imp__Cnd_init_in_situ    000000018001a1d0     msvcprt:MSVCP140.dll
 0002:000001d8       __imp_?__ExceptionPtrCreate@@YAXPEAX@Z 000000018001a1d8     msvcprt:MSVCP140.dll
 0002:000001e0       __imp_??0task_continuation_context@Concurrency@@AEAA@XZ 000000018001a1e0     msvcprt:MSVCP140.dll
 0002:000001e8       __imp_?_CallInContext@_ContextCallback@details@Concurrency@@QEBAXV?$function@$$A6AXXZ@std@@_N@Z 000000018001a1e8     msvcprt:MSVCP140.dll
 0002:000001f0       __imp_?_Reset@_ContextCallback@details@Concurrency@@AEAAXXZ 000000018001a1f0     msvcprt:MSVCP140.dll
 0002:000001f8       __imp_?_Assign@_ContextCallback@details@Concurrency@@AEAAXPEAX@Z 000000018001a1f8     msvcprt:MSVCP140.dll
 0002:00000200       __imp_?_IsCurrentOriginSTA@_ContextCallback@details@Concurrency@@CA_NXZ 000000018001a200     msvcprt:MSVCP140.dll
 0002:00000208       __imp_?_Capture@_ContextCallback@details@Concurrency@@AEAAXXZ 000000018001a208     msvcprt:MSVCP140.dll
 0002:00000210       \177MSVCP140_NULL_THUNK_DATA 000000018001a210     msvcprt:MSVCP140.dll
 0002:00000218       __imp_memmove              000000018001a218     vcruntime:VCRUNTIME140.dll
 0002:00000220       __imp___std_type_info_compare 000000018001a220     vcruntime:VCRUNTIME140.dll
 0002:00000228       __imp___std_terminate      000000018001a228     vcruntime:VCRUNTIME140.dll
 0002:00000230       __imp___vcrt_InitializeCriticalSectionEx 000000018001a230     vcruntime:VCRUNTIME140.dll
 0002:00000238       __imp___C_specific_handler 000000018001a238     vcruntime:VCRUNTIME140.dll
 0002:00000240       __imp_memset               000000018001a240     vcruntime:VCRUNTIME140.dll
 0002:00000248       __imp___std_exception_copy 000000018001a248     vcruntime:VCRUNTIME140.dll
 0002:00000250       __imp___std_exception_destroy 000000018001a250     vcruntime:VCRUNTIME140.dll
 0002:00000258       __imp__CxxThrowException   000000018001a258     vcruntime:VCRUNTIME140.dll
 0002:00000260       __imp___std_type_info_destroy_list 000000018001a260     vcruntime:VCRUNTIME140.dll
 0002:00000268       __imp__purecall            000000018001a268     vcruntime:VCRUNTIME140.dll
 0002:00000270       __imp___CxxFrameHandler3   000000018001a270     vcruntime:VCRUNTIME140.dll
 0002:00000278       \177VCRUNTIME140_NULL_THUNK_DATA 000000018001a278     vcruntime:VCRUNTIME140.dll
 0002:00000280       __imp_WindowsGetStringLen  000000018001a280     runtimeobject:api-ms-win-core-winrt-string-l1-1-0.dll
 0002:00000288       __imp_WindowsDuplicateString 000000018001a288     runtimeobject:api-ms-win-core-winrt-string-l1-1-0.dll
 0002:00000290       __imp_WindowsGetStringRawBuffer 000000018001a290     runtimeobject:api-ms-win-core-winrt-string-l1-1-0.dll
 0002:00000298       __imp_WindowsCreateString  000000018001a298     runtimeobject:api-ms-win-core-winrt-string-l1-1-0.dll
 0002:000002a0       __imp_WindowsDeleteString  000000018001a2a0     runtimeobject:api-ms-win-core-winrt-string-l1-1-0.dll
 0002:000002a8       \177api-ms-win-core-winrt-string-l1-1-0_NULL_THUNK_DATA 000000018001a2a8     runtimeobject:api-ms-win-core-winrt-string-l1-1-0.dll
 0002:000002b0       __imp_free                 000000018001a2b0     ucrt:api-ms-win-crt-heap-l1-1-0.dll
 0002:000002b8       __imp_malloc               000000018001a2b8     ucrt:api-ms-win-crt-heap-l1-1-0.dll
 0002:000002c0       __imp__callnewh            000000018001a2c0     ucrt:api-ms-win-crt-heap-l1-1-0.dll
 0002:000002c8       \177api-ms-win-crt-heap-l1-1-0_NULL_THUNK_DATA 000000018001a2c8     ucrt:api-ms-win-crt-heap-l1-1-0.dll
 0002:000002d0       __imp__initialize_narrow_environment 000000018001a2d0     ucrt:api-ms-win-crt-runtime-l1-1-0.dll
 0002:000002d8       __imp__wassert             000000018001a2d8     ucrt:api-ms-win-crt-runtime-l1-1-0.dll
 0002:000002e0       __imp__invoke_watson       000000018001a2e0     ucrt:api-ms-win-crt-runtime-l1-1-0.dll
 0002:000002e8       __imp__initterm_e          000000018001a2e8     ucrt:api-ms-win-crt-runtime-l1-1-0.dll
 0002:000002f0       __imp__seh_filter_dll      000000018001a2f0     ucrt:api-ms-win-crt-runtime-l1-1-0.dll
 0002:000002f8       __imp__configure_narrow_argv 000000018001a2f8     ucrt:api-ms-win-crt-runtime-l1-1-0.dll
 0002:00000300       __imp__initialize_onexit_table 000000018001a300     ucrt:api-ms-win-crt-runtime-l1-1-0.dll
 0002:00000308       __imp__register_onexit_function 000000018001a308     ucrt:api-ms-win-crt-runtime-l1-1-0.dll
 0002:00000310       __imp__execute_onexit_table 000000018001a310     ucrt:api-ms-win-crt-runtime-l1-1-0.dll
 0002:00000318       __imp__crt_atexit          000000018001a318     ucrt:api-ms-win-crt-runtime-l1-1-0.dll
 0002:00000320       __imp__cexit               000000018001a320     ucrt:api-ms-win-crt-runtime-l1-1-0.dll
 0002:00000328       __imp__initterm            000000018001a328     ucrt:api-ms-win-crt-runtime-l1-1-0.dll
 0002:00000330       __imp__invalid_parameter_noinfo_noreturn 000000018001a330     ucrt:api-ms-win-crt-runtime-l1-1-0.dll
 0002:00000338       \177api-ms-win-crt-runtime-l1-1-0_NULL_THUNK_DATA 000000018001a338     ucrt:api-ms-win-crt-runtime-l1-1-0.dll
 0002:00000340       __imp_wcslen               000000018001a340     ucrt:api-ms-win-crt-string-l1-1-0.dll
 0002:00000348       __imp__wcsnicmp            000000018001a348     ucrt:api-ms-win-crt-string-l1-1-0.dll
 0002:00000350       \177api-ms-win-crt-string-l1-1-0_NULL_THUNK_DATA 000000018001a350     ucrt:api-ms-win-crt-string-l1-1-0.dll
 0002:00000358       __imp_?New@External@v8@@SA?AV?$Local@VExternal@v8@@@2@PEAVIsolate@2@PEAX@Z 000000018001a358     iojs:node.dll
 0002:00000360       __imp_?NewFromUnsigned@Integer@v8@@SA?AV?$Local@VInteger@v8@@@2@PEAVIsolate@2@I@Z 000000018001a360     iojs:node.dll
 0002:00000368       __imp_?New@Integer@v8@@SA?AV?$Local@VInteger@v8@@@2@PEAVIsolate@2@H@Z 000000018001a368     iojs:node.dll
 0002:00000370       __imp_?New@Signature@v8@@SA?AV?$Local@VSignature@v8@@@2@PEAVIsolate@2@V?$Local@VFunctionTemplate@v8@@@2@@Z 000000018001a370     iojs:node.dll
 0002:00000378       __imp_?ThrowException@Isolate@v8@@QEAA?AV?$Local@VValue@v8@@@2@V32@@Z 000000018001a378     iojs:node.dll
 0002:00000380       __imp_?GetCurrentContext@Isolate@v8@@QEAA?AV?$Local@VContext@v8@@@2@XZ 000000018001a380     iojs:node.dll
 0002:00000388       __imp_?GetCurrent@Isolate@v8@@SAPEAV12@XZ 000000018001a388     iojs:node.dll
 0002:00000390       __imp_?CreateHandle@HandleScope@v8@@KAPEAPEAVObject@internal@2@PEAVIsolate@42@PEAV342@@Z 000000018001a390     iojs:node.dll
 0002:00000398       __imp_?CreateHandle@HandleScope@v8@@CAPEAPEAVObject@internal@2@PEAVHeapObject@42@PEAV342@@Z 000000018001a398     iojs:node.dll
 0002:000003a0       __imp_??1HandleScope@v8@@QEAA@XZ 000000018001a3a0     iojs:node.dll
 0002:000003a8       __imp_??0HandleScope@v8@@QEAA@PEAVIsolate@1@@Z 000000018001a3a8     iojs:node.dll
 0002:000003b0       __imp_?Set@Template@v8@@QEAAXV?$Local@VName@v8@@@2@V?$Local@VData@v8@@@2@W4PropertyAttribute@2@@Z 000000018001a3b0     iojs:node.dll
 0002:000003b8       __imp_?Error@Exception@v8@@SA?AV?$Local@VValue@v8@@@2@V?$Local@VString@v8@@@2@@Z 000000018001a3b8     iojs:node.dll
 0002:000003c0       __imp_?HasInstance@FunctionTemplate@v8@@QEAA_NV?$Local@VValue@v8@@@2@@Z 000000018001a3c0     iojs:node.dll
 0002:000003c8       __imp_?SetClassName@FunctionTemplate@v8@@QEAAXV?$Local@VString@v8@@@2@@Z 000000018001a3c8     iojs:node.dll
 0002:000003d0       __imp_?PrototypeTemplate@FunctionTemplate@v8@@QEAA?AV?$Local@VObjectTemplate@v8@@@2@XZ 000000018001a3d0     iojs:node.dll
 0002:000003d8       __imp_?InstanceTemplate@FunctionTemplate@v8@@QEAA?AV?$Local@VObjectTemplate@v8@@@2@XZ 000000018001a3d8     iojs:node.dll
 0002:000003e0       __imp_?GetFunction@FunctionTemplate@v8@@QEAA?AV?$MaybeLocal@VFunction@v8@@@2@V?$Local@VContext@v8@@@2@@Z 000000018001a3e0     iojs:node.dll
 0002:000003e8       __imp_?New@FunctionTemplate@v8@@SA?AV?$Local@VFunctionTemplate@v8@@@2@PEAVIsolate@2@P6AXAEBV?$FunctionCallbackInfo@VValue@v8@@@2@@ZV?$Local@VValue@v8@@@2@V?$Local@VSignature@v8@@@2@HW4ConstructorBehavior@2@@Z 000000018001a3e8     iojs:node.dll
 0002:000003f0       __imp_?ToLocalEmpty@V8@v8@@CAXXZ 000000018001a3f0     iojs:node.dll
 0002:000003f8       __imp_?ClearWeak@V8@v8@@CAPEAXPEAPEAVObject@internal@2@@Z 000000018001a3f8     iojs:node.dll
 0002:00000400       __imp_?MakeWeak@V8@v8@@CAXPEAPEAVObject@internal@2@PEAXP6AXAEBV?$WeakCallbackInfo@X@2@@ZW4WeakCallbackType@2@@Z 000000018001a400     iojs:node.dll
 0002:00000408       __imp_?ForceSet@Object@v8@@QEAA?AV?$Maybe@_N@2@V?$Local@VContext@v8@@@2@V?$Local@VValue@v8@@@2@1W4PropertyAttribute@2@@Z 000000018001a408     iojs:node.dll
 0002:00000410       __imp_?Value@External@v8@@QEBAPEAXXZ 000000018001a410     iojs:node.dll
 0002:00000418       __imp_?Has@Object@v8@@QEAA?AV?$Maybe@_N@2@V?$Local@VContext@v8@@@2@V?$Local@VValue@v8@@@2@@Z 000000018001a418     iojs:node.dll
 0002:00000420       __imp_uv_default_loop      000000018001a420     iojs:node.dll
 0002:00000428       __imp_uv_async_init        000000018001a428     iojs:node.dll
 0002:00000430       __imp_?MakeCallback@node@@YA?AV?$Local@VValue@v8@@@v8@@PEAVIsolate@3@V?$Local@VObject@v8@@@3@V?$Local@VString@v8@@@3@HPEAV23@@Z 000000018001a430     iojs:node.dll
 0002:00000438       __imp_node_module_register 000000018001a438     iojs:node.dll
 0002:00000440       __imp_uv_close             000000018001a440     iojs:node.dll
 0002:00000448       __imp_?New@ObjectTemplate@v8@@SA?AV?$Local@VObjectTemplate@v8@@@2@PEAVIsolate@2@V?$Local@VFunctionTemplate@v8@@@2@@Z 000000018001a448     iojs:node.dll
 0002:00000450       __imp_?NewInstance@ObjectTemplate@v8@@QEAA?AV?$MaybeLocal@VObject@v8@@@2@V?$Local@VContext@v8@@@2@@Z 000000018001a450     iojs:node.dll
 0002:00000458       __imp_?SetAccessor@ObjectTemplate@v8@@QEAAXV?$Local@VName@v8@@@2@P6AX0AEBV?$PropertyCallbackInfo@VValue@v8@@@2@@ZP6AX0V?$Local@VValue@v8@@@2@AEBV?$PropertyCallbackInfo@X@2@@Z3W4AccessControl@2@W4PropertyAttribute@2@V?$Local@VAccessorSignature@v8@@@2@@Z 000000018001a458     iojs:node.dll
 0002:00000460       __imp_?SetHandler@ObjectTemplate@v8@@QEAAXAEBUIndexedPropertyHandlerConfiguration@2@@Z 000000018001a460     iojs:node.dll
 0002:00000468       __imp_?Global@Context@v8@@QEAA?AV?$Local@VObject@v8@@@2@XZ 000000018001a468     iojs:node.dll
 0002:00000470       __imp_?NewInstance@Function@v8@@QEBA?AV?$MaybeLocal@VObject@v8@@@2@V?$Local@VContext@v8@@@2@HQEAV?$Local@VValue@v8@@@2@@Z 000000018001a470     iojs:node.dll
 0002:00000478       __imp_?Set@Object@v8@@QEAA?AV?$Maybe@_N@2@V?$Local@VContext@v8@@@2@V?$Local@VValue@v8@@@2@1@Z 000000018001a478     iojs:node.dll
 0002:00000480       __imp_?Set@Object@v8@@QEAA_NV?$Local@VValue@v8@@@2@0@Z 000000018001a480     iojs:node.dll
 0002:00000488       __imp_?Get@Object@v8@@QEAA?AV?$MaybeLocal@VValue@v8@@@2@V?$Local@VContext@v8@@@2@V?$Local@VValue@v8@@@2@@Z 000000018001a488     iojs:node.dll
 0002:00000490       __imp_?Get@Object@v8@@QEAA?AV?$Local@VValue@v8@@@2@V32@@Z 000000018001a490     iojs:node.dll
 0002:00000498       __imp_?Delete@Object@v8@@QEAA?AV?$Maybe@_N@2@V?$Local@VContext@v8@@@2@V?$Local@VValue@v8@@@2@@Z 000000018001a498     iojs:node.dll
 0002:000004a0       __imp_?SetPrototype@Object@v8@@QEAA?AV?$Maybe@_N@2@V?$Local@VContext@v8@@@2@V?$Local@VValue@v8@@@2@@Z 000000018001a4a0     iojs:node.dll
 0002:000004a8       __imp_?InternalFieldCount@Object@v8@@QEAAHXZ 000000018001a4a8     iojs:node.dll
 0002:000004b0       __imp_?SetInternalField@Object@v8@@QEAAXHV?$Local@VValue@v8@@@2@@Z 000000018001a4b0     iojs:node.dll
 0002:000004b8       __imp_?SetAlignedPointerInInternalField@Object@v8@@QEAAXHPEAX@Z 000000018001a4b8     iojs:node.dll
 0002:000004c0       __imp_?New@Object@v8@@SA?AV?$Local@VObject@v8@@@2@PEAVIsolate@2@@Z 000000018001a4c0     iojs:node.dll
 0002:000004c8       __imp_?SlowGetInternalField@Object@v8@@AEAA?AV?$Local@VValue@v8@@@2@H@Z 000000018001a4c8     iojs:node.dll
 0002:000004d0       __imp_?SlowGetAlignedPointerFromInternalField@Object@v8@@AEAAPEAXH@Z 000000018001a4d0     iojs:node.dll
 0002:000004d8       __imp_?NewFromUtf8@String@v8@@SA?AV?$MaybeLocal@VString@v8@@@2@PEAVIsolate@2@PEBDW4NewStringType@2@H@Z 000000018001a4d8     iojs:node.dll
 0002:000004e0       __imp_?Concat@String@v8@@SA?AV?$Local@VString@v8@@@2@V32@0@Z 000000018001a4e0     iojs:node.dll
 0002:000004e8       __imp_??0Value@String@v8@@QEAA@V?$Local@VValue@v8@@@2@@Z 000000018001a4e8     iojs:node.dll
 0002:000004f0       __imp_??1Value@String@v8@@QEAA@XZ 000000018001a4f0     iojs:node.dll
 0002:000004f8       __imp_??0EscapableHandleScope@v8@@QEAA@PEAVIsolate@1@@Z 000000018001a4f8     iojs:node.dll
 0002:00000500       __imp_?Escape@EscapableHandleScope@v8@@AEAAPEAPEAVObject@internal@2@PEAPEAV342@@Z 000000018001a500     iojs:node.dll
 0002:00000508       __imp_??0TryCatch@v8@@QEAA@PEAVIsolate@1@@Z 000000018001a508     iojs:node.dll
 0002:00000510       __imp_??1TryCatch@v8@@QEAA@XZ 000000018001a510     iojs:node.dll
 0002:00000518       __imp_?HasCaught@TryCatch@v8@@QEBA_NXZ 000000018001a518     iojs:node.dll
 0002:00000520       __imp_?Exception@TryCatch@v8@@QEBA?AV?$Local@VValue@v8@@@2@XZ 000000018001a520     iojs:node.dll
 0002:00000528       __imp_?IsFunction@Value@v8@@QEBA_NXZ 000000018001a528     iojs:node.dll
 0002:00000530       __imp_?IsObject@Value@v8@@QEBA_NXZ 000000018001a530     iojs:node.dll
 0002:00000538       __imp_?IsBoolean@Value@v8@@QEBA_NXZ 000000018001a538     iojs:node.dll
 0002:00000540       __imp_?IsInt32@Value@v8@@QEBA_NXZ 000000018001a540     iojs:node.dll
 0002:00000548       __imp_?IsUint32@Value@v8@@QEBA_NXZ 000000018001a548     iojs:node.dll
 0002:00000550       __imp_?ToString@Value@v8@@QEBA?AV?$MaybeLocal@VString@v8@@@2@V?$Local@VContext@v8@@@2@@Z 000000018001a550     iojs:node.dll
 0002:00000558       __imp_?ToObject@Value@v8@@QEBA?AV?$MaybeLocal@VObject@v8@@@2@V?$Local@VContext@v8@@@2@@Z 000000018001a558     iojs:node.dll
 0002:00000560       __imp_?ToInteger@Value@v8@@QEBA?AV?$MaybeLocal@VInteger@v8@@@2@V?$Local@VContext@v8@@@2@@Z 000000018001a560     iojs:node.dll
 0002:00000568       __imp_?Uint32Value@Value@v8@@QEBAIXZ 000000018001a568     iojs:node.dll
 0002:00000570       __imp_?Int32Value@Value@v8@@QEBA?AV?$Maybe@H@2@V?$Local@VContext@v8@@@2@@Z 000000018001a570     iojs:node.dll
 0002:00000578       __imp_?Equals@Value@v8@@QEBA?AV?$Maybe@_N@2@V?$Local@VContext@v8@@@2@V?$Local@VValue@v8@@@2@@Z 000000018001a578     iojs:node.dll
 0002:00000580       __imp_?Equals@Value@v8@@QEBA_NV?$Local@VValue@v8@@@2@@Z 000000018001a580     iojs:node.dll
 0002:00000588       __imp_?GlobalizeReference@V8@v8@@CAPEAPEAVObject@internal@2@PEAVIsolate@42@PEAPEAV342@@Z 000000018001a588     iojs:node.dll
 0002:00000590       __imp_?DisposeGlobal@V8@v8@@CAXPEAPEAVObject@internal@2@@Z 000000018001a590     iojs:node.dll
 0002:00000598       __imp_?NewFromTwoByte@String@v8@@SA?AV?$MaybeLocal@VString@v8@@@2@PEAVIsolate@2@PEBGW4NewStringType@2@H@Z 000000018001a598     iojs:node.dll
 0002:000005a0       __imp_?IsTrue@Value@v8@@QEBA_NXZ 000000018001a5a0     iojs:node.dll
 0002:000005a8       __imp_?SetInternalFieldCount@ObjectTemplate@v8@@QEAAXH@Z 000000018001a5a8     iojs:node.dll
 0002:000005b0       __imp_??1EscapableHandleScope@v8@@QEAA@XZ 000000018001a5b0     iojs:node.dll
 0002:000005b8       __imp_uv_async_send        000000018001a5b8     iojs:node.dll
 0002:000005c0       \177node_NULL_THUNK_DATA   000000018001a5c0     iojs:node.dll
 0002:000005c8       __imp_CoCreateFreeThreadedMarshaler 000000018001a5c8     ole32:ole32.dll
 0002:000005d0       __imp_CoInitializeEx       000000018001a5d0     ole32:ole32.dll
 0002:000005d8       __imp_CoGetContextToken    000000018001a5d8     ole32:ole32.dll
 0002:000005e0       \177ole32_NULL_THUNK_DATA  000000018001a5e0     ole32:ole32.dll
 0002:000005e8       __imp_?__abi_WinRTraiseObjectDisposedException@@YAXXZ 000000018001a5e8     vccorlib:vccorlib140.DLL
 0002:000005f0       __imp_?__abi_WinRTraiseInvalidCastException@@YAXXZ 000000018001a5f0     vccorlib:vccorlib140.DLL
 0002:000005f8       __imp_?__abi_WinRTraiseNotImplementedException@@YAXXZ 000000018001a5f8     vccorlib:vccorlib140.DLL
 0002:00000600       __imp_??0NullReferenceException@Platform@@QE$AAA@XZ 000000018001a600     vccorlib:vccorlib140.DLL
 0002:00000608       __imp_?GetObjectContext@Details@Platform@@YAPEAUIUnknown@@XZ 000000018001a608     vccorlib:vccorlib140.DLL
 0002:00000610       __imp_?ReleaseInContextImpl@Details@Platform@@YAJPEAUIUnknown@@0@Z 000000018001a610     vccorlib:vccorlib140.DLL
 0002:00000618       __imp_?get@Message@Exception@Platform@@QE$AAAPE$AAVString@3@XZ 000000018001a618     vccorlib:vccorlib140.DLL
 0002:00000620       __imp_?Free@Heap@Details@Platform@@SAXPEAX@Z 000000018001a620     vccorlib:vccorlib140.DLL
 0002:00000628       __imp_?AlignedFree@Heap@Details@Platform@@SAXPEAX@Z 000000018001a628     vccorlib:vccorlib140.DLL
 0002:00000630       __imp_?AllocateException@Heap@Details@Platform@@SAPEAX_K0@Z 000000018001a630     vccorlib:vccorlib140.DLL
 0002:00000638       __imp_?GetProxyImpl@Details@Platform@@YAJPEAUIUnknown@@AEBU_GUID@@0PEAPEAU3@@Z 000000018001a638     vccorlib:vccorlib140.DLL
 0002:00000640       __imp_?ReleaseTarget@ControlBlock@Details@Platform@@AEAAXXZ 000000018001a640     vccorlib:vccorlib140.DLL
 0002:00000648       __imp_?ReCreateException@Exception@Platform@@SAPE$AAV12@H@Z 000000018001a648     vccorlib:vccorlib140.DLL
 0002:00000650       __imp_?__abi_WinRTraiseDisconnectedException@@YAXXZ 000000018001a650     vccorlib:vccorlib140.DLL
 0002:00000658       __imp_?__abi_WinRTraiseFailureException@@YAXXZ 000000018001a658     vccorlib:vccorlib140.DLL
 0002:00000660       __imp_?__abi_WinRTraiseOperationCanceledException@@YAXXZ 000000018001a660     vccorlib:vccorlib140.DLL
 0002:00000668       __imp_?InitializeData@Details@Platform@@YAJH@Z 000000018001a668     vccorlib:vccorlib140.DLL
 0002:00000670       __imp_?UninitializeData@Details@Platform@@YAXH@Z 000000018001a670     vccorlib:vccorlib140.DLL
 0002:00000678       __imp_?GetIidsFn@@YAJHPEAKPEBU__s_GUID@@PEAPEAVGuid@Platform@@@Z 000000018001a678     vccorlib:vccorlib140.DLL
 0002:00000680       __imp_?GetActivationFactoryByPCWSTR@@YAJPEAXAEAVGuid@Platform@@PEAPEAX@Z 000000018001a680     vccorlib:vccorlib140.DLL
 0002:00000688       __imp_?Allocate@Heap@Details@Platform@@SAPEAX_K0@Z 000000018001a688     vccorlib:vccorlib140.DLL
 0002:00000690       __imp_?__abi_WinRTraiseAccessDeniedException@@YAXXZ 000000018001a690     vccorlib:vccorlib140.DLL
 0002:00000698       __imp_?__abi_WinRTraiseInvalidArgumentException@@YAXXZ 000000018001a698     vccorlib:vccorlib140.DLL
 0002:000006a0       __imp_?__abi_WinRTraiseClassNotRegisteredException@@YAXXZ 000000018001a6a0     vccorlib:vccorlib140.DLL
 0002:000006a8       __imp_?__abi_WinRTraiseCOMException@@YAXJ@Z 000000018001a6a8     vccorlib:vccorlib140.DLL
 0002:000006b0       __imp_?__abi_translateCurrentException@@YAJ_N@Z 000000018001a6b0     vccorlib:vccorlib140.DLL
 0002:000006b8       __imp_?__abi_WinRTraiseNullReferenceException@@YAXXZ 000000018001a6b8     vccorlib:vccorlib140.DLL
 0002:000006c0       __imp_?__abi_WinRTraiseChangedStateException@@YAXXZ 000000018001a6c0     vccorlib:vccorlib140.DLL
 0002:000006c8       __imp_?__abi_WinRTraiseOutOfBoundsException@@YAXXZ 000000018001a6c8     vccorlib:vccorlib140.DLL
 0002:000006d0       __imp_?__abi_WinRTraiseWrongThreadException@@YAXXZ 000000018001a6d0     vccorlib:vccorlib140.DLL
 0002:000006d8       __imp_?__abi_WinRTraiseOutOfMemoryException@@YAXXZ 000000018001a6d8     vccorlib:vccorlib140.DLL
 0002:000006e0       __imp_??0Delegate@Platform@@QE$AAA@XZ 000000018001a6e0     vccorlib:vccorlib140.DLL
 0002:000006e8       \177vccorlib140_NULL_THUNK_DATA 000000018001a6e8     vccorlib:vccorlib140.DLL
 0002:000006f0       __guard_check_icall_fptr   000000018001a6f0     MSVCRT:guard_support.obj
 0002:000006f8       __guard_dispatch_icall_fptr 000000018001a6f8     MSVCRT:guard_support.obj
 0002:00000700       __xc_a                     000000018001a700     MSVCRT:initializers.obj
 0002:00000710       _register_binding_         000000018001a710     _nodert_generated.obj
 0002:00000740       __xc_z                     000000018001a740     MSVCRT:initializers.obj
 0002:00000748       __xi_a                     000000018001a748     MSVCRT:initializers.obj
 0002:00000758       __abi__initialize          000000018001a758     vccorlib:init.obj
 0002:00000760       __xi_z                     000000018001a760     MSVCRT:initializers.obj
 0002:00000768       __xl_a                     000000018001a768     MSVCRT:tlssup.obj
 0002:00000770       __xl_z                     000000018001a770     MSVCRT:tlssup.obj
 0002:00000778       __xp_a                     000000018001a778     MSVCRT:initializers.obj
 0002:00000780       __xp_z                     000000018001a780     MSVCRT:initializers.obj
 0002:00000788       __xt_a                     000000018001a788     MSVCRT:initializers.obj
 0002:00000790       __xt_z                     000000018001a790     MSVCRT:initializers.obj
 0002:000007a0       ??_C@_1BK@MGMFAEKH@?$AAk?$AAe?$AAr?$AAn?$AAe?$AAl?$AA3?$AA2?$AA?4?$AAd?$AAl?$AAl?$AA?$AA@ 000000018001a7a0     MSVCRT:thread_safe_statics.obj
 0002:000007c0       ??_C@_0BM@HLJJNPAH@InitializeConditionVariable?$AA@ 000000018001a7c0     MSVCRT:thread_safe_statics.obj
 0002:000007e0       ??_C@_0BJ@JEBJOJFJ@SleepConditionVariableCS?$AA@ 000000018001a7e0     MSVCRT:thread_safe_statics.obj
 0002:00000800       ??_C@_0BJ@PGPPEPCC@WakeAllConditionVariable?$AA@ 000000018001a800     MSVCRT:thread_safe_statics.obj
 0002:00000828       ??_7type_info@@6B@         000000018001a828     MSVCRT:std_type_info_static.obj
 0002:00000840       _pDefaultRawDllMain        000000018001a840     MSVCRT:dll_dllmain.obj
 0002:00000840       _pRawDllMain               000000018001a840     MSVCRT:dll_dllmain.obj
 0002:00000850       ??_7exception@std@@6B@     000000018001a850     MSVCRT:throw_bad_alloc.obj
 0002:00000860       ??_C@_0BC@EOODALEL@Unknown?5exception?$AA@ 000000018001a860     MSVCRT:throw_bad_alloc.obj
 0002:00000880       ??_7bad_alloc@std@@6B@     000000018001a880     MSVCRT:throw_bad_alloc.obj
 0002:00000890       ??_C@_0P@GHFPNOJB@bad?5allocation?$AA@ 000000018001a890     MSVCRT:throw_bad_alloc.obj
 0002:000008a8       ??_7bad_array_new_length@std@@6B@ 000000018001a8a8     MSVCRT:throw_bad_alloc.obj
 0002:000008b8       ??_C@_0BF@KINCDENJ@bad?5array?5new?5length?$AA@ 000000018001a8b8     MSVCRT:throw_bad_alloc.obj
 0002:000008d0       ??_C@_0BC@BDKFLDHL@unknown?5exception?$AA@ 000000018001a8d0     _nodert_generated.obj
 0002:000008e8       ??_C@_07CIFAGBMG@unknown?$AA@ 000000018001a8e8     _nodert_generated.obj
 0002:000008f0       ??_C@_1DG@OKCGPKIB@?$AAp?$AAe?$AAr?$AAs?$AAi?$AAs?$AAt?$AAe?$AAn?$AAt?$AA?$CI?$AA?$CJ?$AA?4?$AAI?$AAs?$AAN?$AAe?$AAa?$AAr?$AAD?$AAe?$AAa?$AAt?$AAh?$AA?$CI?$AA?$CJ?$AA?$AA@ 000000018001a8f0     _nodert_generated.obj
 0002:00000928       ??_C@_1CO@EGNPJLKI@?$AAp?$AAe?$AAr?$AAs?$AAi?$AAs?$AAt?$AAe?$AAn?$AAt?$AA?$CI?$AA?$CJ?$AA?4?$AAI?$AAs?$AAE?$AAm?$AAp?$AAt?$AAy?$AA?$CI?$AA?$CJ?$AA?$AA@ 000000018001a928     _nodert_generated.obj
 0002:00000958       ??_C@_1DA@FBGAEOIO@?$AA?$CB?$AAp?$AAe?$AAr?$AAs?$AAi?$AAs?$AAt?$AAe?$AAn?$AAt?$AA?$CI?$AA?$CJ?$AA?4?$AAI?$AAs?$AAE?$AAm?$AAp?$AAt?$AAy?$AA?$CI?$AA?$CJ?$AA?$AA@ 000000018001a958     _nodert_generated.obj
 0002:00000988       ??_C@_1CO@JCKLEFMA@?$AA?$CB?$AAp?$AAe?$AAr?$AAs?$AAi?$AAs?$AAt?$AAe?$AAn?$AAt?$AA?$CI?$AA?$CJ?$AA?4?$AAI?$AAs?$AAW?$AAe?$AAa?$AAk?$AA?$CI?$AA?$CJ?$AA?$AA@ 000000018001a988     _nodert_generated.obj
 0002:000009b8       ??_C@_1BE@GMLLOIPJ@?$AAr?$AAe?$AAf?$AAs?$AA_?$AA?5?$AA?$DO?$AA?5?$AA0?$AA?$AA@ 000000018001a9b8     _nodert_generated.obj
 0002:000009d0       ??_C@_1CC@GBFLAAPF@?$AAw?$AAr?$AAa?$AAp?$AA?9?$AA?$DO?$AAr?$AAe?$AAf?$AAs?$AA_?$AA?5?$AA?$DN?$AA?$DN?$AA?5?$AA0?$AA?$AA@ 000000018001a9d0     _nodert_generated.obj
 0002:00000a00       ??_C@_1KC@OALINNKN@?$AAc?$AA?3?$AA?2?$AAu?$AAs?$AAe?$AAr?$AAs?$AA?2?$AAj?$AAd?$AA?2?$AAd?$AAe?$AAs?$AAk?$AAt?$AAo?$AAp?$AA?2?$AAt?$AAo?$AAk?$AAy?$AAl?$AAa?$AAb?$AAs?$AA?2?$AAt?$AAo?$AAk@ 000000018001aa00     _nodert_generated.obj
 0002:00000ab0       ??_C@_1EC@MGGLMBLC@?$AAo?$AAb?$AAj?$AAe?$AAc?$AAt?$AA?9?$AA?$DO?$AAI?$AAn?$AAt?$AAe?$AAr?$AAn?$AAa?$AAl?$AAF?$AAi?$AAe?$AAl?$AAd?$AAC?$AAo?$AAu?$AAn?$AAt?$AA?$CI?$AA?$CJ?$AA?5?$AA?$DO?$AA?5?$AA0@ 000000018001aab0     _nodert_generated.obj
 0002:00000af8       ??_C@_1DI@ELDBKNAK@?$AAw?$AAr?$AAa?$AAp?$AA?9?$AA?$DO?$AAh?$AAa?$AAn?$AAd?$AAl?$AAe?$AA_?$AA?4?$AAI?$AAs?$AAN?$AAe?$AAa?$AAr?$AAD?$AAe?$AAa?$AAt?$AAh?$AA?$CI?$AA?$CJ?$AA?$AA@ 000000018001aaf8     _nodert_generated.obj
 0002:00000b30       ??_C@_0BM@DMDJGFCM@Fail?5to?5schedule?5the?5chore?$CB?$AA@ 000000018001ab30     _nodert_generated.obj
 0002:00000b50       ??_C@_0DN@ELCPICKL@This?5function?5cannot?5be?5called?5o@ 000000018001ab50     _nodert_generated.obj
 0002:00000b90       ??_C@_0DD@NJEIIHCG@Illegal?5to?5wait?5on?5a?5task?5in?5a?5W@ 000000018001ab90     _nodert_generated.obj
 0002:00000bc8       ??_C@_0BH@LAEGKBN@__winrtOpaqueWrapper__?$AA@ 000000018001abc8     _nodert_generated.obj
 0002:00000be0       ??_C@_08PPIJGMPL@callback?$AA@ 000000018001abe0     _nodert_generated.obj
 0002:00000bf0       ??_C@_07DEBHDLBL@process?$AA@ 000000018001abf0     _nodert_generated.obj
 0002:00000bf8       ??_C@_06LKIIGAOE@domain?$AA@ 000000018001abf8     _nodert_generated.obj
 0002:00000c00       ??_C@_0BJ@LJPDLIMA@__registrationTokenMap__?$AA@ 000000018001ac00     _nodert_generated.obj
 0002:00000c20       ??_C@_0L@HHPKOBNC@RadioState?$AA@ 000000018001ac20     _nodert_generated.obj
 0002:00000c2c       ??_C@_02LIELOMNJ@on?$AA@   000000018001ac2c     _nodert_generated.obj
 0002:00000c30       ??_C@_03MCADLMAF@off?$AA@  000000018001ac30     _nodert_generated.obj
 0002:00000c38       ??_C@_08BEHKFNNO@disabled?$AA@ 000000018001ac38     _nodert_generated.obj
 0002:00000c48       ??_C@_09HDHENHLL@RadioKind?$AA@ 000000018001ac48     _nodert_generated.obj
 0002:00000c54       ??_C@_05BGEKGIIP@other?$AA@ 000000018001ac54     _nodert_generated.obj
 0002:00000c5c       ??_C@_04PECJKNCI@wiFi?$AA@ 000000018001ac5c     _nodert_generated.obj
 0002:00000c68       ??_C@_0BA@NDCAFMN@mobileBroadband?$AA@ 000000018001ac68     _nodert_generated.obj
 0002:00000c78       ??_C@_09FIEGKEPP@bluetooth?$AA@ 000000018001ac78     _nodert_generated.obj
 0002:00000c84       ??_C@_02JDDKADH@fM?$AA@    000000018001ac84     _nodert_generated.obj
 0002:00000c88       ??_C@_0BC@EAFPLGKK@RadioAccessStatus?$AA@ 000000018001ac88     _nodert_generated.obj
 0002:00000ca0       ??_C@_0M@MFMDLEDN@unspecified?$AA@ 000000018001aca0     _nodert_generated.obj
 0002:00000cb0       ??_C@_07BHLLLGNC@allowed?$AA@ 000000018001acb0     _nodert_generated.obj
 0002:00000cb8       ??_C@_0N@MGOAIPKM@deniedByUser?$AA@ 000000018001acb8     _nodert_generated.obj
 0002:00000cc8       ??_C@_0P@OJHKJMDH@deniedBySystem?$AA@ 000000018001acc8     _nodert_generated.obj
 0002:00000cd8       ??_C@_05LKAOEOMO@Radio?$AA@ 000000018001acd8     _nodert_generated.obj
 0002:00000ce0       ??_C@_0O@EIHAEGOG@setStateAsync?$AA@ 000000018001ace0     _nodert_generated.obj
 0002:00000cf0       ??_C@_0M@GMNDPMBH@addListener?$AA@ 000000018001acf0     _nodert_generated.obj
 0002:00000d00       ??_C@_0P@NPMHMMOM@removeListener?$AA@ 000000018001ad00     _nodert_generated.obj
 0002:00000d10       ??_C@_04NCMJLOLO@kind?$AA@ 000000018001ad10     _nodert_generated.obj
 0002:00000d18       ??_C@_04MEMAJGDJ@name?$AA@ 000000018001ad18     _nodert_generated.obj
 0002:00000d20       ??_C@_05HDBKIDE@state?$AA@ 000000018001ad20     _nodert_generated.obj
 0002:00000d28       ??_C@_08KIDHCPHN@castFrom?$AA@ 000000018001ad28     _nodert_generated.obj
 0002:00000d38       ??_C@_0BC@KIEAEFCG@getDeviceSelector?$AA@ 000000018001ad38     _nodert_generated.obj
 0002:00000d50       ??_C@_0P@FOGFFFAG@getRadiosAsync?$AA@ 000000018001ad50     _nodert_generated.obj
 0002:00000d60       ??_C@_0M@EBDIOBPK@fromIdAsync?$AA@ 000000018001ad60     _nodert_generated.obj
 0002:00000d70       ??_C@_0BD@CADIHGEO@requestAccessAsync?$AA@ 000000018001ad70     _nodert_generated.obj
 0002:00000d90       ??_C@_1GC@KBHNNFGK@?$AAI?$AAn?$AAv?$AAa?$AAl?$AAi?$AAd?$AA?5?$AAa?$AAr?$AAg?$AAu?$AAm?$AAe?$AAn?$AAt?$AAs?$AA?0?$AA?5?$AAn?$AAo?$AA?5?$AAs?$AAu?$AAi?$AAt?$AAa?$AAb?$AAl?$AAe?$AA?5?$AAc@ 000000018001ad90     _nodert_generated.obj
 0002:00000df8       ??_C@_0BC@HNKGPEBE@__winRtInstance__?$AA@ 000000018001adf8     _nodert_generated.obj
 0002:00000e10       ??_C@_1LK@MDDHJJID@?$AAI?$AAn?$AAv?$AAa?$AAl?$AAi?$AAd?$AA?5?$AAa?$AAr?$AAg?$AAu?$AAm?$AAe?$AAn?$AAt?$AAs?$AA?0?$AA?5?$AAn?$AAo?$AA?5?$AAo?$AAb?$AAj?$AAe?$AAc?$AAt?$AA?5?$AAp?$AAr?$AAo@ 000000018001ae10     _nodert_generated.obj
 0002:00000ed0       ??_C@_1EK@NFKCAPKC@?$AAB?$AAa?$AAd?$AA?5?$AAa?$AAr?$AAg?$AAu?$AAm?$AAe?$AAn?$AAt?$AAs?$AA?3?$AA?5?$AAN?$AAo?$AA?5?$AAc?$AAa?$AAl?$AAl?$AAb?$AAa?$AAc?$AAk?$AA?5?$AAw?$AAa?$AAs?$AA?5?$AAg@ 000000018001aed0     _nodert_generated.obj
 0002:00000f20       ??_C@_1FE@FAFBJCBD@?$AAB?$AAa?$AAd?$AA?5?$AAa?$AAr?$AAg?$AAu?$AAm?$AAe?$AAn?$AAt?$AAs?$AA?3?$AA?5?$AAn?$AAo?$AA?5?$AAs?$AAu?$AAi?$AAt?$AAa?$AAb?$AAl?$AAe?$AA?5?$AAo?$AAv?$AAe?$AAr?$AAl@ 000000018001af20     _nodert_generated.obj
 0002:00000f80       ??_C@_1JK@DNJLCGHE@?$AAw?$AAr?$AAo?$AAn?$AAg?$AA?5?$AAa?$AAr?$AAg?$AAu?$AAm?$AAe?$AAn?$AAt?$AAs?$AA?0?$AA?5?$AAe?$AAx?$AAp?$AAe?$AAc?$AAt?$AAe?$AAd?$AA?5?$AAa?$AAr?$AAg?$AAu?$AAm?$AAe@ 000000018001af80     _nodert_generated.obj
 0002:00001020       ??_C@_1BK@KICBJJMM@?$AAs?$AAt?$AAa?$AAt?$AAe?$AAC?$AAh?$AAa?$AAn?$AAg?$AAe?$AAd?$AA?$AA@ 000000018001b020     _nodert_generated.obj
 0002:00001040       ??_C@_1LG@DAHPAPIM@?$AAT?$AAh?$AAe?$AA?5?$AAc?$AAa?$AAl?$AAl?$AAe?$AAr?$AA?5?$AAo?$AAf?$AA?5?$AAt?$AAh?$AAi?$AAs?$AA?5?$AAm?$AAe?$AAt?$AAh?$AAo?$AAd?$AA?5?$AAi?$AAs?$AAn?$AA?8?$AAt?$AA?5@ 000000018001b040     _nodert_generated.obj
 0002:00001100       ??_C@_1EG@KBCEIIBD@?$AAg?$AAi?$AAv?$AAe?$AAn?$AA?5?$AAe?$AAv?$AAe?$AAn?$AAt?$AA?5?$AAn?$AAa?$AAm?$AAe?$AA?5?$AAi?$AAs?$AAn?$AA?8?$AAt?$AA?5?$AAs?$AAu?$AAp?$AAp?$AAo?$AAr?$AAt?$AAe?$AAd@ 000000018001b100     _nodert_generated.obj
 0002:00001150       ??_C@_1GE@DOIICCMG@?$AAw?$AAr?$AAo?$AAn?$AAg?$AA?5?$AAa?$AAr?$AAg?$AAu?$AAm?$AAe?$AAn?$AAt?$AAs?$AA?0?$AA?5?$AAe?$AAx?$AAp?$AAe?$AAc?$AAt?$AAe?$AAd?$AA?5?$AAa?$AA?5?$AAs?$AAt?$AAr?$AAi@ 000000018001b150     _nodert_generated.obj
 0002:000011b8       ??_C@_0BH@OEPDILCB@Windows?4Devices?4Radios?$AA@ 000000018001b1b8     _nodert_generated.obj
 0002:000011d0       ??_C@_0BJ@CIOFOAKP@?4?4?2_nodert_generated?4cpp?$AA@ 000000018001b1d0     _nodert_generated.obj
 0002:000011f0       ??_C@_07GGKKJCAC@binding?$AA@ 000000018001b1f0     _nodert_generated.obj
 0002:00001200       ??_C@_1JK@FKNKGECC@?$AAW?$AAi?$AAn?$AAd?$AAo?$AAw?$AAs?$AA?4?$AAF?$AAo?$AAu?$AAn?$AAd?$AAa?$AAt?$AAi?$AAo?$AAn?$AA?4?$AAT?$AAy?$AAp?$AAe?$AAd?$AAE?$AAv?$AAe?$AAn?$AAt?$AAH?$AAa?$AAn@ 000000018001b200     _nodert_generated.obj
 0002:000012a0       ??_C@_1DK@PEFIBCGI@?$AAW?$AAi?$AAn?$AAd?$AAo?$AAw?$AAs?$AA?4?$AAD?$AAe?$AAv?$AAi?$AAc?$AAe?$AAs?$AA?4?$AAR?$AAa?$AAd?$AAi?$AAo?$AAs?$AA?4?$AAR?$AAa?$AAd?$AAi?$AAo?$AA?$AA@ 000000018001b2a0     _nodert_generated.obj
 0002:000012e0       ??_C@_1EC@HNHEILEH@?$AAW?$AAi?$AAn?$AAd?$AAo?$AAw?$AAs?$AA?4?$AAF?$AAo?$AAu?$AAn?$AAd?$AAa?$AAt?$AAi?$AAo?$AAn?$AA?4?$AAP?$AAr?$AAo?$AAp?$AAe?$AAr?$AAt?$AAy?$AAV?$AAa?$AAl?$AAu?$AAe@ 000000018001b2e0     _nodert_generated.obj
 0002:00001328       ??_C@_0CN@CFDLBABJ@Windows?3?3Foundation?3?3Collections@ 000000018001b328     _nodert_generated.obj
 0002:00001358       ??_C@_07JGIDINKK@getMany?$AA@ 000000018001b358     _nodert_generated.obj
 0002:00001360       ??_C@_05NEEIPFEN@getAt?$AA@ 000000018001b360     _nodert_generated.obj
 0002:00001368       ??_C@_07KKKNJHGA@indexOf?$AA@ 000000018001b368     _nodert_generated.obj
 0002:00001370       ??_C@_05NIGAKFML@first?$AA@ 000000018001b370     _nodert_generated.obj
 0002:00001378       ??_C@_04IAGNFIBA@size?$AA@ 000000018001b378     _nodert_generated.obj
 0002:00001380       ??_C@_06IJDLPEM@length?$AA@ 000000018001b380     _nodert_generated.obj
 0002:00001388       ??_C@_1CO@CKJHFEP@?$AAM?$AAe?$AAt?$AAh?$AAo?$AAd?$AA?5?$AAi?$AAs?$AAn?$AA?8?$AAt?$AA?5?$AAs?$AAu?$AAp?$AAp?$AAo?$AAr?$AAt?$AAe?$AAd?$AA?$AA@ 000000018001b388     _nodert_generated.obj
 0002:000013b8       ??_C@_07GOBOHMJA@boolean?$AA@ 000000018001b3b8     _nodert_generated.obj
 0002:000013c0       ??_C@_05FKHKFDID@index?$AA@ 000000018001b3c0     _nodert_generated.obj
 0002:000013c8       ??_C@_1CA@EIFFEMAD@?$AAN?$AAo?$AAt?$AA?5?$AAi?$AAm?$AAp?$AAl?$AAe?$AAm?$AAe?$AAn?$AAt?$AAe?$AAd?$AA?$AA@ 000000018001b3c8     _nodert_generated.obj
 0002:000013e8       ??_C@_0BD@OLBABOEK@vector?$DMT?$DO?5too?5long?$AA@ 000000018001b3e8     _nodert_generated.obj
 0002:00001400       ??_C@_0CL@EPAAJAFM@Windows?3?3Foundation?3?3Collections@ 000000018001b400     _nodert_generated.obj
 0002:00001430       ??_C@_08JABKCAEO@moveNext?$AA@ 000000018001b430     _nodert_generated.obj
 0002:00001440       ??_C@_07LKPDDKMO@current?$AA@ 000000018001b440     _nodert_generated.obj
 0002:00001448       ??_C@_0L@FADMNBDO@hasCurrent?$AA@ 000000018001b448     _nodert_generated.obj
 0002:00001458       ??_C@_1CE@LNAGEONJ@?$AA?$CB?$AAo?$AAb?$AAj?$AAe?$AAc?$AAt?$AA?4?$AAI?$AAs?$AAE?$AAm?$AAp?$AAt?$AAy?$AA?$CI?$AA?$CJ?$AA?$AA@ 000000018001b458     _nodert_generated.obj
 0002:00001480       ??_C@_1KE@PCDCOCGC@?$AAW?$AAi?$AAn?$AAd?$AAo?$AAw?$AAs?$AA?4?$AAF?$AAo?$AAu?$AAn?$AAd?$AAa?$AAt?$AAi?$AAo?$AAn?$AA?4?$AAA?$AAs?$AAy?$AAn?$AAc?$AAO?$AAp?$AAe?$AAr?$AAa?$AAt?$AAi?$AAo@ 000000018001b480     _nodert_generated.obj
 0002:00001530       ??_C@_1BAA@OPHGBHFM@?$AAW?$AAi?$AAn?$AAd?$AAo?$AAw?$AAs?$AA?4?$AAF?$AAo?$AAu?$AAn?$AAd?$AAa?$AAt?$AAi?$AAo?$AAn?$AA?4?$AAA?$AAs?$AAy?$AAn?$AAc?$AAO?$AAp?$AAe?$AAr?$AAa?$AAt?$AAi?$AAo@ 000000018001b530     _nodert_generated.obj
 0002:00001630       ??_C@_1LM@MMDEBKG@?$AAW?$AAi?$AAn?$AAd?$AAo?$AAw?$AAs?$AA?4?$AAF?$AAo?$AAu?$AAn?$AAd?$AAa?$AAt?$AAi?$AAo?$AAn?$AA?4?$AAA?$AAs?$AAy?$AAn?$AAc?$AAO?$AAp?$AAe?$AAr?$AAa?$AAt?$AAi?$AAo@ 000000018001b630     _nodert_generated.obj
 0002:000016f0       __uuidof_?AV?$AsyncOperationCompletedHandler@PE$AAVRadio@Radios@Devices@Windows@@@Foundation@Windows@@ 000000018001b6f0     _nodert_generated.obj
 0002:00001700       ?REGISTRATION_TOKEN_MAP_PROPERTY_NAME@@3PEBDEB 000000018001b700     _nodert_generated.obj
 0002:00001708       __uuidof_?AU__abi_IDelegate@?$TypedEventHandler@PE$AAVRadio@Radios@Devices@Windows@@PE$AAVObject@Platform@@@Foundation@Windows@@ 000000018001b708     _nodert_generated.obj
 0002:00001718       __uuidof_?AV?$AsyncOperationCompletedHandler@PE$AAU?$IVectorView@PE$AAVRadio@Radios@Devices@Windows@@@Collections@Foundation@Windows@@@Foundation@Windows@@ 000000018001b718     _nodert_generated.obj
 0002:00001728       _GUID_94ea2b94_e9cc_49e0_c0ff_ee64ca8f5b90 000000018001b728     _nodert_generated.obj
 0002:00001728       __uuidof_?AUIAgileObject@Details@Platform@@ 000000018001b728     _nodert_generated.obj
 0002:00001738       __uuidof_?AV?$TypedEventHandler@PE$AAVRadio@Radios@Devices@Windows@@PE$AAVObject@Platform@@@Foundation@Windows@@ 000000018001b738     _nodert_generated.obj
 0002:00001748       __uuidof_?AV?$AsyncOperationCompletedHandler@W4RadioAccessStatus@Radios@Devices@Windows@@@Foundation@Windows@@ 000000018001b748     _nodert_generated.obj
 0002:00001758       __uuidof_?AU__abi_IDelegate@?$AsyncOperationCompletedHandler@PE$AAU?$IVectorView@PE$AAVRadio@Radios@Devices@Windows@@@Collections@Foundation@Windows@@@Foundation@Windows@@ 000000018001b758     _nodert_generated.obj
 0002:00001758       __uuidof_?AU__abi_IDelegate@?$AsyncOperationCompletedHandler@W4RadioAccessStatus@Radios@Devices@Windows@@@Foundation@Windows@@ 000000018001b758     _nodert_generated.obj
 0002:00001758       __uuidof_?AU__abi_IDelegate@?$AsyncOperationCompletedHandler@PE$AAVRadio@Radios@Devices@Windows@@@Foundation@Windows@@ 000000018001b758     _nodert_generated.obj
 0002:00001768       _GUID_00000000_0000_0000_c000_000000000046 000000018001b768     _nodert_generated.obj
 0002:00001778       _GUID_00000003_0000_0000_c000_000000000046 000000018001b778     _nodert_generated.obj
 0002:00001788       __uuidof_?AVRadio@Radios@Devices@Windows@@ 000000018001b788     _nodert_generated.obj
 0002:00001798       __uuidof_?AUIAsyncInfo@Foundation@Windows@@ 000000018001b798     _nodert_generated.obj
 0002:000017a8       __uuidof_?AU?$IIterator@PE$AAVRadio@Radios@Devices@Windows@@@Collections@Foundation@Windows@@ 000000018001b7a8     _nodert_generated.obj
 0002:000017b8       __uuidof_?AU?$IIterable@PE$AAVRadio@Radios@Devices@Windows@@@Collections@Foundation@Windows@@ 000000018001b7b8     _nodert_generated.obj
 0002:000017c8       __uuidof_?AU?$IBox@_J@Platform@@ 000000018001b7c8     _nodert_generated.obj
 0002:000017c8       __uuidof_?AV?$Box@_J@Platform@@ 000000018001b7c8     _nodert_generated.obj
 0002:000017d8       __uuidof_?AU?$IVectorView@PE$AAVRadio@Radios@Devices@Windows@@@Collections@Foundation@Windows@@ 000000018001b7d8     _nodert_generated.obj
 0002:000017e8       ??_C@_07KPENDMPA@HRESULT?$AA@ 000000018001b7e8     NodeRtUtils.obj
 0002:000017f0       ??_C@_0BE@FOACCDKJ@__winRtNamespaces__?$AA@ 000000018001b7f0     NodeRtUtils.obj
 0002:00001808       ??_C@_0O@CPBGCLBG@OpaqueWrapper?$AA@ 000000018001b808     OpaqueWrapper.obj
 0002:000043a0       _load_config_used          000000018001e3a0     MSVCRT:loadcfg.obj
 0002:00004438       _tls_used                  000000018001e438     MSVCRT:tlssup.obj
 0002:00004460       ??_R3ModuleBase@Details@WRL@Microsoft@@8 000000018001e460     vccorlib:init.obj
 0002:00004478       ??_R2ModuleBase@Details@WRL@Microsoft@@8 000000018001e478     vccorlib:init.obj
 0002:00004488       ??_R1A@?0A@EA@ModuleBase@Details@WRL@Microsoft@@8 000000018001e488     vccorlib:init.obj
 0002:000044b0       ??_R4InProcModule@Details@Platform@@6B?$Module@$04VInProcModule@Details@Platform@@@WRL@Microsoft@@@ 000000018001e4b0     vccorlib:init.obj
 0002:000044d8       ??_R3InProcModule@Details@Platform@@8 000000018001e4d8     vccorlib:init.obj
 0002:000044f0       ??_R2InProcModule@Details@Platform@@8 000000018001e4f0     vccorlib:init.obj
 0002:00004520       ??_R1A@?0A@EA@InProcModule@Details@Platform@@8 000000018001e520     vccorlib:init.obj
 0002:00004548       ??_R1A@?0A@EA@?$Module@$04VInProcModule@Details@Platform@@@WRL@Microsoft@@8 000000018001e548     vccorlib:init.obj
 0002:00004570       ??_R3?$Module@$04VInProcModule@Details@Platform@@@WRL@Microsoft@@8 000000018001e570     vccorlib:init.obj
 0002:00004588       ??_R2?$Module@$04VInProcModule@Details@Platform@@@WRL@Microsoft@@8 000000018001e588     vccorlib:init.obj
 0002:000045a8       ??_R1A@?0A@EA@?$Module@$00VInProcModule@Details@Platform@@@WRL@Microsoft@@8 000000018001e5a8     vccorlib:init.obj
 0002:000045d0       ??_R3?$Module@$00VInProcModule@Details@Platform@@@WRL@Microsoft@@8 000000018001e5d0     vccorlib:init.obj
 0002:000045e8       ??_R2?$Module@$00VInProcModule@Details@Platform@@@WRL@Microsoft@@8 000000018001e5e8     vccorlib:init.obj
 0002:00004600       ??_R17?0A@EA@__abi_Module@@8 000000018001e600     vccorlib:init.obj
 0002:00004628       ??_R3__abi_Module@@8       000000018001e628     vccorlib:init.obj
 0002:00004640       ??_R2__abi_Module@@8       000000018001e640     vccorlib:init.obj
 0002:00004650       ??_R1A@?0A@EA@__abi_Module@@8 000000018001e650     vccorlib:init.obj
 0002:00004678       ??_R4InProcModule@Details@Platform@@6B__abi_Module@@@ 000000018001e678     vccorlib:init.obj
 0002:000046a0       ??_R4?$Module@$00VInProcModule@Details@Platform@@@WRL@Microsoft@@6B@ 000000018001e6a0     vccorlib:init.obj
 0002:000046c8       ??_R4type_info@@6B@        000000018001e6c8     MSVCRT:std_type_info_static.obj
 0002:000046f0       ??_R3type_info@@8          000000018001e6f0     MSVCRT:std_type_info_static.obj
 0002:00004708       ??_R2type_info@@8          000000018001e708     MSVCRT:std_type_info_static.obj
 0002:00004718       ??_R1A@?0A@EA@type_info@@8 000000018001e718     MSVCRT:std_type_info_static.obj
 0002:00004740       ??_R4exception@std@@6B@    000000018001e740     MSVCRT:throw_bad_alloc.obj
 0002:00004768       ??_R3exception@std@@8      000000018001e768     MSVCRT:throw_bad_alloc.obj
 0002:00004780       ??_R2exception@std@@8      000000018001e780     MSVCRT:throw_bad_alloc.obj
 0002:00004790       ??_R1A@?0A@EA@exception@std@@8 000000018001e790     MSVCRT:throw_bad_alloc.obj
 0002:000047b8       ??_R4bad_alloc@std@@6B@    000000018001e7b8     MSVCRT:throw_bad_alloc.obj
 0002:000047e0       ??_R3bad_alloc@std@@8      000000018001e7e0     MSVCRT:throw_bad_alloc.obj
 0002:000047f8       ??_R2bad_alloc@std@@8      000000018001e7f8     MSVCRT:throw_bad_alloc.obj
 0002:00004810       ??_R1A@?0A@EA@bad_alloc@std@@8 000000018001e810     MSVCRT:throw_bad_alloc.obj
 0002:00004838       ??_R4bad_array_new_length@std@@6B@ 000000018001e838     MSVCRT:throw_bad_alloc.obj
 0002:00004860       ??_R3bad_array_new_length@std@@8 000000018001e860     MSVCRT:throw_bad_alloc.obj
 0002:00004878       ??_R2bad_array_new_length@std@@8 000000018001e878     MSVCRT:throw_bad_alloc.obj
 0002:00004898       ??_R1A@?0A@EA@bad_array_new_length@std@@8 000000018001e898     MSVCRT:throw_bad_alloc.obj
 0002:00004d18       __rtc_iaa                  000000018001ed18     MSVCRT:_initsect_.obj
 0002:00004d20       __rtc_izz                  000000018001ed20     MSVCRT:_initsect_.obj
 0002:00004d28       __rtc_taa                  000000018001ed28     MSVCRT:_initsect_.obj
 0002:00004d30       __rtc_tzz                  000000018001ed30     MSVCRT:_initsect_.obj
 0002:0000b170       _TI2?AVbad_alloc@std@@     0000000180025170     MSVCRT:throw_bad_alloc.obj
 0002:0000b190       _CTA2?AVbad_alloc@std@@    0000000180025190     MSVCRT:throw_bad_alloc.obj
 0002:0000b1a8       _CT??_R0?AVbad_alloc@std@@@8??0bad_alloc@std@@QEAA@AEBV01@@Z24 00000001800251a8     MSVCRT:throw_bad_alloc.obj
 0002:0000b1d0       _CT??_R0?AVexception@std@@@8??0exception@std@@QEAA@AEBV01@@Z24 00000001800251d0     MSVCRT:throw_bad_alloc.obj
 0002:0000b1f8       _TI3?AVbad_array_new_length@std@@ 00000001800251f8     MSVCRT:throw_bad_alloc.obj
 0002:0000b218       _CTA3?AVbad_array_new_length@std@@ 0000000180025218     MSVCRT:throw_bad_alloc.obj
 0002:0000b238       _CT??_R0?AVbad_array_new_length@std@@@8??0bad_array_new_length@std@@QEAA@AEBV01@@Z24 0000000180025238     MSVCRT:throw_bad_alloc.obj
 0002:0000b260       _TI9PE$AAVException@Platform@@ 0000000180025260     _nodert_generated.obj
 0002:0000b280       _CT??_R0PE$AAUIEquatable@Details@Platform@@@8816 0000000180025280     _nodert_generated.obj
 0002:0000b2b0       _CTA9PE$AAVException@Platform@@ 00000001800252b0     _nodert_generated.obj
 0002:0000b300       _CTA11PE$AAVNullReferenceException@Platform@@ 0000000180025300     _nodert_generated.obj
 0002:0000b360       _CT??_R0PE$AAVObject@Platform@@@888 0000000180025360     _nodert_generated.obj
 0002:0000b388       _TI11PE$AAVNullReferenceException@Platform@@ 0000000180025388     _nodert_generated.obj
 0002:0000b3a8       _CT??_R0PE$AAVException@Platform@@@88 00000001800253a8     _nodert_generated.obj
 0002:0000b3d0       _CT??_R0PE$AAUIPrintable@Details@Platform@@@888 00000001800253d0     _nodert_generated.obj
 0002:0000b3f8       _CT??_R0PE$AAVObject@Platform@@@8816 00000001800253f8     _nodert_generated.obj
 0002:0000b420       _CT??_R0PE$AAVNullReferenceException@Platform@@@88 0000000180025420     _nodert_generated.obj
 0002:0000b448       _CT??_R0PE$AAVObject@Platform@@@88 0000000180025448     _nodert_generated.obj
 0002:0000b470       _CT??_R0PE$AAUIDisposable@Platform@@@8824 0000000180025470     _nodert_generated.obj
 0002:0000b498       _CT??_R0PE$AAVCOMException@Platform@@@88 0000000180025498     _nodert_generated.obj
 0002:0000b4c0       _CT??_R0PEAX@88            00000001800254c0     _nodert_generated.obj
 0002:0000b4e8       _CT??_R0PE$AAVObject@Platform@@@8824 00000001800254e8     _nodert_generated.obj
 0002:0000b564       __IMPORT_DESCRIPTOR_KERNEL32 0000000180025564     kernel32:KERNEL32.dll
 0002:0000b578       __IMPORT_DESCRIPTOR_ole32  0000000180025578     ole32:ole32.dll
 0002:0000b58c       __IMPORT_DESCRIPTOR_node   000000018002558c     iojs:node.dll
 0002:0000b5a0       __IMPORT_DESCRIPTOR_vccorlib140 00000001800255a0     vccorlib:vccorlib140.DLL
 0002:0000b5b4       __IMPORT_DESCRIPTOR_MSVCP140 00000001800255b4     msvcprt:MSVCP140.dll
 0002:0000b5c8       __IMPORT_DESCRIPTOR_VCRUNTIME140 00000001800255c8     vcruntime:VCRUNTIME140.dll
 0002:0000b5dc       __IMPORT_DESCRIPTOR_api-ms-win-crt-runtime-l1-1-0 00000001800255dc     ucrt:api-ms-win-crt-runtime-l1-1-0.dll
 0002:0000b5f0       __IMPORT_DESCRIPTOR_api-ms-win-crt-string-l1-1-0 00000001800255f0     ucrt:api-ms-win-crt-string-l1-1-0.dll
 0002:0000b604       __IMPORT_DESCRIPTOR_api-ms-win-crt-heap-l1-1-0 0000000180025604     ucrt:api-ms-win-crt-heap-l1-1-0.dll
 0002:0000b618       __IMPORT_DESCRIPTOR_api-ms-win-core-winrt-string-l1-1-0 0000000180025618     runtimeobject:api-ms-win-core-winrt-string-l1-1-0.dll
 0002:0000b62c       __NULL_IMPORT_DESCRIPTOR   000000018002562c     kernel32:KERNEL32.dll
 0003:00000008       ??_7?$Module@$00VInProcModule@Details@Platform@@@WRL@Microsoft@@6B@ 0000000180029008     vccorlib:init.obj
 0003:00000070       ??_7InProcModule@Details@Platform@@6B?$Module@$04VInProcModule@Details@Platform@@@WRL@Microsoft@@@ 0000000180029070     vccorlib:init.obj
 0003:000000d8       ??_7InProcModule@Details@Platform@@6B__abi_Module@@@ 00000001800290d8     vccorlib:init.obj
 0003:000000f0       _Init_global_epoch         00000001800290f0     MSVCRT:thread_safe_statics.obj
 0003:000000f4       __scrt_native_dllmain_reason 00000001800290f4     MSVCRT:utility.obj
 0003:000000f8       __security_cookie          00000001800290f8     MSVCRT:gs_cookie.obj
 0003:00000100       __security_cookie_complement 0000000180029100     MSVCRT:gs_cookie.obj
 0003:00000108       __isa_available            0000000180029108     MSVCRT:_cpu_disp_.obj
 0003:0000010c       __isa_enabled              000000018002910c     MSVCRT:_cpu_disp_.obj
 0003:00000110       __memcpy_nt_iters          0000000180029110     MSVCRT:_cpu_disp_.obj
 0003:00000120       __scrt_ucrt_dll_is_in_use  0000000180029120     MSVCRT:ucrt_stubs.obj
 0003:00000128       ??_7?$_Func_impl@V<lambda_6e721a9cc44c44771ffaa71ba9f88df1>@@V?$allocator@H@std@@XV?$function@$$A6AXHPEAV?$Local@VValue@v8@@@v8@@@Z@3@@std@@6B@ 0000000180029128     _nodert_generated.obj
 0003:00000158       ??_7?$_Func_base@EV?$task@PE$AAVRadio@Radios@Devices@Windows@@@Concurrency@@@std@@6B@ 0000000180029158     _nodert_generated.obj
 0003:00000188       ??_7?$_Func_impl@V<lambda_f65fe7dd5d5c7d6beb441784825294a0>@@V?$allocator@H@std@@X$$V@std@@6B@ 0000000180029188     _nodert_generated.obj
 0003:000001b8       ??_7?$_Func_impl@V<lambda_ccd993006fa69c8498fa84abf616a650>@@V?$allocator@H@std@@X$$V@std@@6B@ 00000001800291b8     _nodert_generated.obj
 0003:000001e8       ??_7?$_Func_base@XV?$task@PE$AAU?$IVectorView@PE$AAVRadio@Radios@Devices@Windows@@@Collections@Foundation@Windows@@@Concurrency@@@std@@6B@ 00000001800291e8     _nodert_generated.obj
 0003:00000218       ??_7?$_ContinuationTaskHandle@W4RadioAccessStatus@Radios@Devices@Windows@@XV?$function@$$A6AXV?$task@W4RadioAccessStatus@Radios@Devices@Windows@@@Concurrency@@@Z@std@@U?$integral_constant@_N$00@6@U_TypeSelectorNoAsync@details@Concurrency@@@?$task@W4RadioAccessStatus@Radios@Devices@Windows@@@Concurrency@@6B@ 0000000180029218     _nodert_generated.obj
 0003:00000230       ??_7_DefaultPPLTaskScheduler@details@Concurrency@@6B@ 0000000180029230     _nodert_generated.obj
 0003:00000238       ??_7?$_Func_impl@V<lambda_bd8db8e132653ed2b09381d83d27b969>@@V?$allocator@H@std@@XV?$function@$$A6AXHPEAV?$Local@VValue@v8@@@v8@@@Z@3@@std@@6B@ 0000000180029238     _nodert_generated.obj
 0003:00000268       ??_7?$_Func_impl@V<lambda_be5e2ae45d9afcdad4d6af170ce6b1a9>@@V?$allocator@H@std@@XV?$function@$$A6AXHPEAV?$Local@VValue@v8@@@v8@@@Z@3@@std@@6B@ 0000000180029268     _nodert_generated.obj
 0003:00000298       ??_7TokenData@Async@NodeUtils@@6B@ 0000000180029298     _nodert_generated.obj
 0003:000002a0       ??_7?$_Ref_count_obj@U?$_Task_impl@PE$AAVRadio@Radios@Devices@Windows@@@details@Concurrency@@@std@@6B@ 00000001800292a0     _nodert_generated.obj
 0003:000002c0       ??_7?$_Func_impl@V<lambda_34c7f220960deee2386c1fdeeca0be56>@@V?$allocator@H@std@@X$$V@std@@6B@ 00000001800292c0     _nodert_generated.obj
 0003:000002f0       ??_7?$_Func_impl@V<lambda_ae69dad4f0eec31d1194edef18f14e48>@@V?$allocator@H@std@@XV?$task@PE$AAVRadio@Radios@Devices@Windows@@@Concurrency@@@std@@6B@ 00000001800292f0     _nodert_generated.obj
 0003:00000320       ??_7?$AsyncOperationCompletedHandler@PE$AAVRadio@Radios@Devices@Windows@@@Foundation@Windows@@6B__abi_IUnknown@@@ 0000000180029320     _nodert_generated.obj
 0003:00000348       ??_7?$AsyncOperationCompletedHandler@W4RadioAccessStatus@Radios@Devices@Windows@@@Foundation@Windows@@6B@ 0000000180029348     _nodert_generated.obj
 0003:00000378       ??_7?$__abi_FunctorCapture@V<lambda_76b0dc5acfdd88e398543629657656f2>@@XPE$AAU?$IAsyncOperation@W4RadioAccessStatus@Radios@Devices@Windows@@@Foundation@Windows@@W4AsyncStatus@34@@Details@Platform@@6B@ 0000000180029378     _nodert_generated.obj
 0003:00000388       ??_7_CancellationTokenRegistration@details@Concurrency@@6B@ 0000000180029388     _nodert_generated.obj
 0003:000003a0       ??_7?$_Func_base@V?$Local@VValue@v8@@@v8@@PE$AAVRadio@Radios@Devices@Windows@@@std@@6B@ 00000001800293a0     _nodert_generated.obj
 0003:000003d0       ??_7?$_ContinuationTaskHandle@PE$AAU?$IVectorView@PE$AAVRadio@Radios@Devices@Windows@@@Collections@Foundation@Windows@@XV?$function@$$A6AXV?$task@PE$AAU?$IVectorView@PE$AAVRadio@Radios@Devices@Windows@@@Collections@Foundation@Windows@@@Concurrency@@@Z@std@@U?$integral_constant@_N$00@6@U_TypeSelectorNoAsync@details@Concurrency@@@?$task@PE$AAU?$IVectorView@PE$AAVRadio@Radios@Devices@Windows@@@Collections@Foundation@Windows@@@Concurrency@@6B@ 00000001800293d0     _nodert_generated.obj
 0003:000003e8       ??_7?$_Ref_count_obj@U_ExceptionHolder@details@Concurrency@@@std@@6B@ 00000001800293e8     _nodert_generated.obj
 0003:00000408       ??_7_RefCounter@details@Concurrency@@6B@ 0000000180029408     _nodert_generated.obj
 0003:00000418       ??_7?$_Func_impl@V<lambda_763529b0c7473cbc215a52d189ac9b18>@@V?$allocator@H@std@@X$$V@std@@6B@ 0000000180029418     _nodert_generated.obj
 0003:00000448       ??_7?$_Func_impl@V<lambda_1af583cf6945007177c61d87505abd8e>@@V?$allocator@H@std@@XHPEAV?$Local@VValue@v8@@@v8@@@std@@6B@ 0000000180029448     _nodert_generated.obj
 0003:00000478       ??_7?$_Func_impl@V<lambda_86719af9e59bcf010981affea63e2ba5>@@V?$allocator@H@std@@X$$V@std@@6B@ 0000000180029478     _nodert_generated.obj
 0003:000004a8       ??_7?$_Func_impl@V<lambda_199453e3251722af17cbed06cee0aa25>@@V?$allocator@H@std@@EV?$task@W4RadioAccessStatus@Radios@Devices@Windows@@@Concurrency@@@std@@6B@ 00000001800294a8     _nodert_generated.obj
 0003:000004d8       ??_7?$_Func_base@_NV?$Local@VValue@v8@@@v8@@@std@@6B@ 00000001800294d8     _nodert_generated.obj
 0003:00000508       ??_7?$_Func_impl@V<lambda_fa74f712429373a3f78dc33742231903>@@V?$allocator@H@std@@X$$V@std@@6B@ 0000000180029508     _nodert_generated.obj
 0003:00000538       ??_7?$_Func_base@EV?$task@PE$AAU?$IVectorView@PE$AAVRadio@Radios@Devices@Windows@@@Collections@Foundation@Windows@@@Concurrency@@@std@@6B@ 0000000180029538     _nodert_generated.obj
 0003:00000568       ??_7?$TypedEventHandler@PE$AAVRadio@Radios@Devices@Windows@@PE$AAVObject@Platform@@@Foundation@Windows@@6B__abi_IUnknown@@@ 0000000180029568     _nodert_generated.obj
 0003:00000590       ??_7?$AsyncOperationCompletedHandler@W4RadioAccessStatus@Radios@Devices@Windows@@@Foundation@Windows@@6BObject@Platform@@@ 0000000180029590     _nodert_generated.obj
 0003:000005c0       ??_7?$_Func_impl@V<lambda_f62ce569bcbb190725394d954e43b37a>@@V?$allocator@H@std@@XV?$task@W4RadioAccessStatus@Radios@Devices@Windows@@@Concurrency@@@std@@6B@ 00000001800295c0     _nodert_generated.obj
 0003:000005f0       ??_7?$_Func_impl@V<lambda_6b3d546cb33cb2be9b0a401ff7fba40f>@@V?$allocator@H@std@@XV?$task@PE$AAU?$IVectorView@PE$AAVRadio@Radios@Devices@Windows@@@Collections@Foundation@Windows@@@Concurrency@@@std@@6B@ 00000001800295f0     _nodert_generated.obj
 0003:00000620       ??_7?$TypedEventHandler@PE$AAVRadio@Radios@Devices@Windows@@PE$AAVObject@Platform@@@Foundation@Windows@@6B@ 0000000180029620     _nodert_generated.obj
 0003:00000650       ??_7?$_Func_impl@V<lambda_332ba2b9435369ab76e287351a81320b>@@V?$allocator@H@std@@XV?$function@$$A6AXHPEAV?$Local@VValue@v8@@@v8@@@Z@3@@std@@6B@ 0000000180029650     _nodert_generated.obj
 0003:00000680       ??_7?$__abi_FunctorCapture@V<lambda_fa493edce1d787976b8ef791772f712d>@@XPE$AAVRadio@Radios@Devices@Windows@@PE$AAVObject@Platform@@@Details@Platform@@6B@ 0000000180029680     _nodert_generated.obj
 0003:00000690       ??_7?$_Task_impl@PE$AAVRadio@Radios@Devices@Windows@@@details@Concurrency@@6B@ 0000000180029690     _nodert_generated.obj
 0003:000006a0       ??_7?$_Func_base@X$$V@std@@6B@ 00000001800296a0     _nodert_generated.obj
 0003:000006d0       ??_7_Ref_count_base@std@@6B@ 00000001800296d0     _nodert_generated.obj
 0003:000006f0       ??_7?$_Ref_count_obj@U?$_Task_impl@PE$AAU?$IVectorView@PE$AAVRadio@Radios@Devices@Windows@@@Collections@Foundation@Windows@@@details@Concurrency@@@std@@6B@ 00000001800296f0     _nodert_generated.obj
 0003:00000710       ??_7?$_PPLTaskHandle@EU?$_ContinuationTaskHandle@W4RadioAccessStatus@Radios@Devices@Windows@@XV?$function@$$A6AXV?$task@W4RadioAccessStatus@Radios@Devices@Windows@@@Concurrency@@@Z@std@@U?$integral_constant@_N$00@6@U_TypeSelectorNoAsync@details@Concurrency@@@?$task@W4RadioAccessStatus@Radios@Devices@Windows@@@Concurrency@@U_ContinuationTaskHandleBase@details@3@@details@Concurrency@@6B@ 0000000180029710     _nodert_generated.obj
 0003:00000728       ??_7exception@stdext@@6B@  0000000180029728     _nodert_generated.obj
 0003:00000740       ??_7__abi_CaptureBase@Details@Platform@@6B@ 0000000180029740     _nodert_generated.obj
 0003:00000748       ??_7Radio@Radios@Devices@Windows@NodeRT@@6B@ 0000000180029748     _nodert_generated.obj
 0003:00000768       ??_7?$_Func_impl@V<lambda_b053cd760f99e9a3b5b0a75bc506816c>@@V?$allocator@H@std@@V?$Local@VValue@v8@@@v8@@PE$AAVRadio@Radios@Devices@Windows@@@std@@6B@ 0000000180029768     _nodert_generated.obj
 0003:00000798       ??_7?$_Func_impl@V<lambda_937a019cbae5299c9ee089aacd8953b7>@@V?$allocator@H@std@@XV?$function@$$A6AXHPEAV?$Local@VValue@v8@@@v8@@@Z@3@@std@@6B@ 0000000180029798     _nodert_generated.obj
 0003:000007c8       ??_7?$_Task_impl@W4RadioAccessStatus@Radios@Devices@Windows@@@details@Concurrency@@6B@ 00000001800297c8     _nodert_generated.obj
 0003:000007d8       ??_7?$_PPLTaskHandle@EU?$_ContinuationTaskHandle@PE$AAU?$IVectorView@PE$AAVRadio@Radios@Devices@Windows@@@Collections@Foundation@Windows@@XV?$function@$$A6AXV?$task@PE$AAU?$IVectorView@PE$AAVRadio@Radios@Devices@Windows@@@Collections@Foundation@Windows@@@Concurrency@@@Z@std@@U?$integral_constant@_N$00@6@U_TypeSelectorNoAsync@details@Concurrency@@@?$task@PE$AAU?$IVectorView@PE$AAVRadio@Radios@Devices@Windows@@@Collections@Foundation@Windows@@@Concurrency@@U_ContinuationTaskHandleBase@details@3@@details@Concurrency@@6B@ 00000001800297d8     _nodert_generated.obj
 0003:000007f0       ??_7?$IteratorWrapper@PE$AAVRadio@Radios@Devices@Windows@@@Collections@NodeRT@@6B@ 00000001800297f0     _nodert_generated.obj
 0003:00000810       ??_7?$AsyncOperationCompletedHandler@W4RadioAccessStatus@Radios@Devices@Windows@@@Foundation@Windows@@6B__abi_IUnknown@@@ 0000000180029810     _nodert_generated.obj
 0003:00000838       ??_7?$_Func_base@EV?$task@W4RadioAccessStatus@Radios@Devices@Windows@@@Concurrency@@@std@@6B@ 0000000180029838     _nodert_generated.obj
 0003:00000868       ??_7?$_Func_impl@V<lambda_e648a951913df07dc2c48aa4b13c28ad>@@V?$allocator@H@std@@X$$V@std@@6B@ 0000000180029868     _nodert_generated.obj
 0003:000008e0       ??_7?$TypedEventHandler@PE$AAVRadio@Radios@Devices@Windows@@PE$AAVObject@Platform@@@Foundation@Windows@@6BObject@Platform@@@ 00000001800298e0     _nodert_generated.obj
 0003:00000910       ??_7?$_Func_impl@V<lambda_bf7f2b711a6b55b30dfb35db79500e56>@@V?$allocator@H@std@@_NV?$Local@VValue@v8@@@v8@@@std@@6B@ 0000000180029910     _nodert_generated.obj
 0003:00000940       ??_7_TaskProcHandle@details@Concurrency@@6B@ 0000000180029940     _nodert_generated.obj
 0003:00000950       ??_7runtime_error@std@@6B@ 0000000180029950     _nodert_generated.obj
 0003:00000968       ??_7?$_PPLTaskHandle@EU?$_ContinuationTaskHandle@PE$AAVRadio@Radios@Devices@Windows@@XV?$function@$$A6AXV?$task@PE$AAVRadio@Radios@Devices@Windows@@@Concurrency@@@Z@std@@U?$integral_constant@_N$00@6@U_TypeSelectorNoAsync@details@Concurrency@@@?$task@PE$AAVRadio@Radios@Devices@Windows@@@Concurrency@@U_ContinuationTaskHandleBase@details@3@@details@Concurrency@@6B@ 0000000180029968     _nodert_generated.obj
 0003:00000980       ??_7?$_Ref_count_del@V?$Persistent@VObject@v8@@V?$NonCopyablePersistentTraits@VObject@v8@@@2@@Nan@@V<lambda_7ce441e15ae9de863eea1ca9a10cae26>@@@std@@6B@ 0000000180029980     _nodert_generated.obj
 0003:000009a0       ??_7?$_Func_base@XV?$task@PE$AAVRadio@Radios@Devices@Windows@@@Concurrency@@@std@@6B@ 00000001800299a0     _nodert_generated.obj
 0003:000009d0       ??_7task_canceled@Concurrency@@6B@ 00000001800299d0     _nodert_generated.obj
 0003:000009e8       ??_7?$AsyncOperationCompletedHandler@PE$AAU?$IVectorView@PE$AAVRadio@Radios@Devices@Windows@@@Collections@Foundation@Windows@@@Foundation@Windows@@6B__abi_IUnknown@@@ 00000001800299e8     _nodert_generated.obj
 0003:00000a10       ??_7?$_Func_base@XV?$function@$$A6AXHPEAV?$Local@VValue@v8@@@v8@@@Z@std@@@std@@6B@ 0000000180029a10     _nodert_generated.obj
 0003:00000a40       ??_7?$AsyncOperationCompletedHandler@PE$AAU?$IVectorView@PE$AAVRadio@Radios@Devices@Windows@@@Collections@Foundation@Windows@@@Foundation@Windows@@6B@ 0000000180029a40     _nodert_generated.obj
 0003:00000a70       ??_7?$_Func_impl@V<lambda_13c093ceb3cb7088042cb26732856e67>@@V?$allocator@H@std@@XV?$function@$$A6AXHPEAV?$Local@VValue@v8@@@v8@@@Z@3@@std@@6B@ 0000000180029a70     _nodert_generated.obj
 0003:00000aa0       ??_7?$_Func_impl@V<lambda_1410bf25c1f3e34acba1e87129c0b837>@@V?$allocator@H@std@@XV?$function@$$A6AXHPEAV?$Local@VValue@v8@@@v8@@@Z@3@@std@@6B@ 0000000180029aa0     _nodert_generated.obj
 0003:00000ad0       ??_7ObjectWrap@Nan@@6B@    0000000180029ad0     _nodert_generated.obj
 0003:00000ae8       ??_7?$VectorViewWrapper@PE$AAVRadio@Radios@Devices@Windows@@@Collections@NodeRT@@6B@ 0000000180029ae8     _nodert_generated.obj
 0003:00000b08       ??_7?$_Func_impl@V<lambda_73163a669fe347e5c4e2d28c36c6f8ca>@@V?$allocator@H@std@@EV?$task@PE$AAVRadio@Radios@Devices@Windows@@@Concurrency@@@std@@6B@ 0000000180029b08     _nodert_generated.obj
 0003:00000b38       ??_7?$_Func_impl@V<lambda_367e91ba48007cd85cfc48a94120f671>@@V?$allocator@H@std@@X$$V@std@@6B@ 0000000180029b38     _nodert_generated.obj
 0003:00000b68       ??_7?$_Func_impl@V<lambda_e9d83560961a0709c8983a5a76f54321>@@V?$allocator@H@std@@X$$V@std@@6B@ 0000000180029b68     _nodert_generated.obj
 0003:00000b98       ??_7?$__abi_FunctorCapture@V<lambda_74b109aa04c410395ed1b84aaba96129>@@XPE$AAU?$IAsyncOperation@PE$AAU?$IVectorView@PE$AAVRadio@Radios@Devices@Windows@@@Collections@Foundation@Windows@@@Foundation@Windows@@W4AsyncStatus@34@@Details@Platform@@6B@ 0000000180029b98     _nodert_generated.obj
 0003:00000ba8       ??_7?$_Func_base@PE$AAVRadio@Radios@Devices@Windows@@V?$Local@VValue@v8@@@v8@@@std@@6B@ 0000000180029ba8     _nodert_generated.obj
 0003:00000bd8       ??_7?$_Func_impl@V<lambda_f25c37099038263181b5186a3fa41b37>@@V?$allocator@H@std@@X$$V@std@@6B@ 0000000180029bd8     _nodert_generated.obj
 0003:00000c08       ??_7?$_Task_impl@PE$AAU?$IVectorView@PE$AAVRadio@Radios@Devices@Windows@@@Collections@Foundation@Windows@@@details@Concurrency@@6B@ 0000000180029c08     _nodert_generated.obj
 0003:00000c18       ??_7?$_Task_impl@E@details@Concurrency@@6B@ 0000000180029c18     _nodert_generated.obj
 0003:00000c28       ??_7?$_Ref_count_obj@U?$_Task_impl@E@details@Concurrency@@@std@@6B@ 0000000180029c28     _nodert_generated.obj
 0003:00000c48       ??_7?$_Func_impl@V<lambda_84fe49f24ae8de4bd96cfe7e2e397527>@@V?$allocator@H@std@@XV?$task@W4RadioAccessStatus@Radios@Devices@Windows@@@Concurrency@@@std@@6B@ 0000000180029c48     _nodert_generated.obj
 0003:00000c78       ??_7?$_Func_impl@V<lambda_9054500f7a0d601079f2287918e4d694>@@V?$allocator@H@std@@_NV?$Local@VValue@v8@@@v8@@@std@@6B@ 0000000180029c78     _nodert_generated.obj
 0003:00000ca8       ??_7?$AsyncOperationCompletedHandler@PE$AAU?$IVectorView@PE$AAVRadio@Radios@Devices@Windows@@@Collections@Foundation@Windows@@@Foundation@Windows@@6BObject@Platform@@@ 0000000180029ca8     _nodert_generated.obj
 0003:00000cd8       ??_7?$_Func_impl@V<lambda_83ab8abb741bf007d1b5942dba04bfdd>@@V?$allocator@H@std@@EV?$task@PE$AAU?$IVectorView@PE$AAVRadio@Radios@Devices@Windows@@@Collections@Foundation@Windows@@@Concurrency@@@std@@6B@ 0000000180029cd8     _nodert_generated.obj
 0003:00000d08       ??_7invalid_operation@Concurrency@@6B@ 0000000180029d08     _nodert_generated.obj
 0003:00000d20       ??_7?$_Func_base@XV?$task@W4RadioAccessStatus@Radios@Devices@Windows@@@Concurrency@@@std@@6B@ 0000000180029d20     _nodert_generated.obj
 0003:00000d50       ??_7?$_Func_impl@V<lambda_923cdb2d6b6e10951a75b3af8d001269>@@V?$allocator@H@std@@XV?$function@$$A6AXHPEAV?$Local@VValue@v8@@@v8@@@Z@3@@std@@6B@ 0000000180029d50     _nodert_generated.obj
 0003:00000d80       ??_7?$_ContinuationTaskHandle@PE$AAVRadio@Radios@Devices@Windows@@XV?$function@$$A6AXV?$task@PE$AAVRadio@Radios@Devices@Windows@@@Concurrency@@@Z@std@@U?$integral_constant@_N$00@6@U_TypeSelectorNoAsync@details@Concurrency@@@?$task@PE$AAVRadio@Radios@Devices@Windows@@@Concurrency@@6B@ 0000000180029d80     _nodert_generated.obj
 0003:00000d98       ??_7?$_Func_base@XHPEAV?$Local@VValue@v8@@@v8@@@std@@6B@ 0000000180029d98     _nodert_generated.obj
 0003:00000dc8       ??_7?$AsyncOperationCompletedHandler@PE$AAVRadio@Radios@Devices@Windows@@@Foundation@Windows@@6B@ 0000000180029dc8     _nodert_generated.obj
 0003:00000df8       ??_7?$_Func_impl@V<lambda_ee2800ccd2b011420c5de0c63356449b>@@V?$allocator@H@std@@X$$V@std@@6B@ 0000000180029df8     _nodert_generated.obj
 0003:00000e28       ??_7?$_Func_impl@V<lambda_fc55a96778b695da9907353a9fdacbca>@@V?$allocator@H@std@@X$$V@std@@6B@ 0000000180029e28     _nodert_generated.obj
 0003:00000e58       ??_7?$AsyncOperationCompletedHandler@PE$AAVRadio@Radios@Devices@Windows@@@Foundation@Windows@@6BObject@Platform@@@ 0000000180029e58     _nodert_generated.obj
 0003:00000e88       ??_7?$_Ref_count_obj@U?$_Task_impl@W4RadioAccessStatus@Radios@Devices@Windows@@@details@Concurrency@@@std@@6B@ 0000000180029e88     _nodert_generated.obj
 0003:00000ea8       ??_7?$__abi_FunctorCapture@V<lambda_4826e3b284b53b5a99fdf233406a9e9a>@@XPE$AAU?$IAsyncOperation@PE$AAVRadio@Radios@Devices@Windows@@@Foundation@Windows@@W4AsyncStatus@34@@Details@Platform@@6B@ 0000000180029ea8     _nodert_generated.obj
 0003:00000eb8       ??_7?$_CancellationTokenCallback@V<lambda_be3e5d9dce35d2c8dbfa8485373731d5>@@@details@Concurrency@@6B@ 0000000180029eb8     _nodert_generated.obj
 0003:00000ed0       ??_7?$_Func_impl@V<lambda_c806722195bf1298f17615890da7d503>@@V?$allocator@H@std@@PE$AAVRadio@Radios@Devices@Windows@@V?$Local@VValue@v8@@@v8@@@std@@6B@ 0000000180029ed0     _nodert_generated.obj
 0003:00000f00       ??_7_ContinuationTaskHandleBase@details@Concurrency@@6B@ 0000000180029f00     _nodert_generated.obj
 0003:00000f18       ??_7_Task_impl_base@details@Concurrency@@6B@ 0000000180029f18     _nodert_generated.obj
 0003:00000f28       ??_7OpaqueWrapper@NodeRT@@6B@ 0000000180029f28     OpaqueWrapper.obj
 0003:00000f50       ??_R0?AVModuleBase@Details@WRL@Microsoft@@@8 0000000180029f50     vccorlib:init.obj
 0003:00000f88       ??_R0?AVInProcModule@Details@Platform@@@8 0000000180029f88     vccorlib:init.obj
 0003:00000fc0       ??_R0?AV?$Module@$04VInProcModule@Details@Platform@@@WRL@Microsoft@@@8 0000000180029fc0     vccorlib:init.obj
 0003:00001020       ??_R0?AV?$Module@$00VInProcModule@Details@Platform@@@WRL@Microsoft@@@8 000000018002a020     vccorlib:init.obj
 0003:00001078       ??_R0?AU__abi_Module@@@8   000000018002a078     vccorlib:init.obj
 0003:000010a0       ??_R0?AVtype_info@@@8      000000018002a0a0     MSVCRT:std_type_info_static.obj
 0003:000010c0       ??_R0?AVbad_alloc@std@@@8  000000018002a0c0     MSVCRT:throw_bad_alloc.obj
 0003:000010e8       ??_R0?AVexception@std@@@8  000000018002a0e8     MSVCRT:throw_bad_alloc.obj
 0003:00001110       ??_R0?AVbad_array_new_length@std@@@8 000000018002a110     MSVCRT:throw_bad_alloc.obj
 0003:00001140       ??_R0?AV<lambda_e9d83560961a0709c8983a5a76f54321>@@@8 000000018002a140     _nodert_generated.obj
 0003:00001180       ??_R0?AV<lambda_6e721a9cc44c44771ffaa71ba9f88df1>@@@8 000000018002a180     _nodert_generated.obj
 0003:000011c0       ??_R0PE$AAUIDisposable@Platform@@@8 000000018002a1c0     _nodert_generated.obj
 0003:000011f0       ??_R0?AV<lambda_be5e2ae45d9afcdad4d6af170ce6b1a9>@@@8 000000018002a1f0     _nodert_generated.obj
 0003:00001230       ??_R0?AV<lambda_73163a669fe347e5c4e2d28c36c6f8ca>@@@8 000000018002a230     _nodert_generated.obj
 0003:00001270       ??_R0?AV<lambda_7ce441e15ae9de863eea1ca9a10cae26>@@@8 000000018002a270     _nodert_generated.obj
 0003:000012b0       ??_R0?AV<lambda_13c093ceb3cb7088042cb26732856e67>@@@8 000000018002a2b0     _nodert_generated.obj
 0003:000012f0       ??_R0?AV<lambda_e648a951913df07dc2c48aa4b13c28ad>@@@8 000000018002a2f0     _nodert_generated.obj
 0003:00001330       ??_R0PE$AAUIEquatable@Details@Platform@@@8 000000018002a330     _nodert_generated.obj
 0003:00001370       ??_R0?AV<lambda_f65fe7dd5d5c7d6beb441784825294a0>@@@8 000000018002a370     _nodert_generated.obj
 0003:000013b0       ??_R0?AV<lambda_fa74f712429373a3f78dc33742231903>@@@8 000000018002a3b0     _nodert_generated.obj
 0003:000013f0       ??_R0?AV<lambda_f62ce569bcbb190725394d954e43b37a>@@@8 000000018002a3f0     _nodert_generated.obj
 0003:00001430       ??_R0?AV<lambda_ae69dad4f0eec31d1194edef18f14e48>@@@8 000000018002a430     _nodert_generated.obj
 0003:00001470       ??_R0?AV<lambda_937a019cbae5299c9ee089aacd8953b7>@@@8 000000018002a470     _nodert_generated.obj
 0003:000014b0       ??_R0?AV<lambda_83ab8abb741bf007d1b5942dba04bfdd>@@@8 000000018002a4b0     _nodert_generated.obj
 0003:000014f0       ??_R0?AV<lambda_fc55a96778b695da9907353a9fdacbca>@@@8 000000018002a4f0     _nodert_generated.obj
 0003:00001530       ??_R0PE$AAVObject@Platform@@@8 000000018002a530     _nodert_generated.obj
 0003:00001560       ??_R0?AV<lambda_1af583cf6945007177c61d87505abd8e>@@@8 000000018002a560     _nodert_generated.obj
 0003:000015a0       ??_R0?AV<lambda_1410bf25c1f3e34acba1e87129c0b837>@@@8 000000018002a5a0     _nodert_generated.obj
 0003:000015e0       ??_R0PE$AAUIPrintable@Details@Platform@@@8 000000018002a5e0     _nodert_generated.obj
 0003:00001618       ??_R0PE$AAVCOMException@Platform@@@8 000000018002a618     _nodert_generated.obj
 0003:00001650       ??_R0?AV<lambda_9054500f7a0d601079f2287918e4d694>@@@8 000000018002a650     _nodert_generated.obj
 0003:00001690       ??_R0?AV<lambda_199453e3251722af17cbed06cee0aa25>@@@8 000000018002a690     _nodert_generated.obj
 0003:000016d0       ??_R0?AV<lambda_bf7f2b711a6b55b30dfb35db79500e56>@@@8 000000018002a6d0     _nodert_generated.obj
 0003:00001710       ??_R0?AV<lambda_6b3d546cb33cb2be9b0a401ff7fba40f>@@@8 000000018002a710     _nodert_generated.obj
 0003:00001750       ??_R0?AV<lambda_bd8db8e132653ed2b09381d83d27b969>@@@8 000000018002a750     _nodert_generated.obj
 0003:00001790       ??_R0?AV<lambda_34c7f220960deee2386c1fdeeca0be56>@@@8 000000018002a790     _nodert_generated.obj
 0003:000017d0       ??_R0?AV<lambda_84fe49f24ae8de4bd96cfe7e2e397527>@@@8 000000018002a7d0     _nodert_generated.obj
 0003:00001810       ??_R0?AV<lambda_86719af9e59bcf010981affea63e2ba5>@@@8 000000018002a810     _nodert_generated.obj
 0003:00001850       ??_R0PEAX@8                000000018002a850     _nodert_generated.obj
 0003:00001870       ??_R0?AV<lambda_332ba2b9435369ab76e287351a81320b>@@@8 000000018002a870     _nodert_generated.obj
 0003:000018b0       ??_R0?AV<lambda_f25c37099038263181b5186a3fa41b37>@@@8 000000018002a8b0     _nodert_generated.obj
 0003:000018f0       ??_R0?AV<lambda_763529b0c7473cbc215a52d189ac9b18>@@@8 000000018002a8f0     _nodert_generated.obj
 0003:00001930       ??_R0PE$AAVException@Platform@@@8 000000018002a930     _nodert_generated.obj
 0003:00001960       ??_R0PE$AAVNullReferenceException@Platform@@@8 000000018002a960     _nodert_generated.obj
 0003:000019a0       ??_R0?AV<lambda_367e91ba48007cd85cfc48a94120f671>@@@8 000000018002a9a0     _nodert_generated.obj
 0003:000019e0       ??_R0?AV<lambda_ccd993006fa69c8498fa84abf616a650>@@@8 000000018002a9e0     _nodert_generated.obj
 0003:00001a20       ??_R0?AV<lambda_c806722195bf1298f17615890da7d503>@@@8 000000018002aa20     _nodert_generated.obj
 0003:00001a60       ??_R0?AV<lambda_b053cd760f99e9a3b5b0a75bc506816c>@@@8 000000018002aa60     _nodert_generated.obj
 0003:00001aa0       ??_R0?AV<lambda_923cdb2d6b6e10951a75b3af8d001269>@@@8 000000018002aaa0     _nodert_generated.obj
 0003:00001ae0       ??_R0?AV<lambda_ee2800ccd2b011420c5de0c63356449b>@@@8 000000018002aae0     _nodert_generated.obj
 0003:00001b20       ?__abi___threading_model@@3HA 000000018002ab20     vccorlib:init.obj
 0003:00001b24       ?bTestedRoReportUnhandledError@@3HA 000000018002ab24     vccorlib:init.obj
 0003:00001b28       ?RoReportUnhandledErrorFunc@@3P6AJPEAUIRestrictedErrorInfo@@@ZEA 000000018002ab28     vccorlib:init.obj
 0003:00001b30       ?__abi_module@@3PEAU__abi_Module@@EA 000000018002ab30     vccorlib:init.obj
 0003:00001b38       ?module_@Details@Platform@@3AEAVInProcModule@12@EA 000000018002ab38     vccorlib:init.obj
 0003:00001b40       ?moduleLock_@ModuleBase@Details@WRL@Microsoft@@0PEAXEA 000000018002ab40     vccorlib:init.obj
 0003:00001b48       ?objectCount_@ModuleBase@Details@WRL@Microsoft@@1KC 000000018002ab48     vccorlib:init.obj
 0003:00001b50       ?module_@ModuleBase@Details@WRL@Microsoft@@2PEAV1234@EA 000000018002ab50     vccorlib:init.obj
 0003:00001b58       ?module@?1??Create@?$Module@$00VInProcModule@Details@Platform@@@WRL@Microsoft@@SAAEAVInProcModule@Details@Platform@@XZ@4V567@A 000000018002ab58     vccorlib:init.obj
 0003:00001b68       ??_B?1??Create@?$Module@$00VInProcModule@Details@Platform@@@WRL@Microsoft@@SAAEAVInProcModule@Details@Platform@@XZ@51 000000018002ab68     vccorlib:init.obj
 0003:00001bb8       __scrt_current_native_startup_state 000000018002abb8     MSVCRT:utility.obj
 0003:00001bc0       __scrt_native_startup_lock 000000018002abc0     MSVCRT:utility.obj
 0003:00002174       __scrt_debugger_hook_flag  000000018002b174     MSVCRT:utility_desktop.obj
 0003:00002178       _tls_index                 000000018002b178     MSVCRT:tlssup.obj
 0003:0000217c       __favor                    000000018002b17c     MSVCRT:_cpu_disp_.obj
 0003:00002180       ?__type_info_root_node@@3U__type_info_node@@A 000000018002b180     MSVCRT:tncleanup.obj
 0003:00002190       ?_OptionsStorage@?1??__local_stdio_printf_options@@9@4_KA 000000018002b190     MSVCRT:default_local_stdio_options.obj
 0003:00002198       ?_OptionsStorage@?1??__local_stdio_scanf_options@@9@4_KA 000000018002b198     MSVCRT:default_local_stdio_options.obj
 0003:000021a0       ?$TSS0@?1??_GetStaticAmbientSchedulerRef@details@Concurrency@@YAAEAV?$shared_ptr@Uscheduler_interface@Concurrency@@@std@@XZ@4HA 000000018002b1a0     _nodert_generated.obj
 0003:000021a8       ?_S_scheduler@?1??_GetStaticAmbientSchedulerRef@details@Concurrency@@YAAEAV?$shared_ptr@Uscheduler_interface@Concurrency@@@std@@XZ@4V45@A 000000018002b1a8     _nodert_generated.obj
 0003:000021b8       ?s_constructorTemplate@?$IteratorWrapper@PE$AAVRadio@Radios@Devices@Windows@@@Collections@NodeRT@@0V?$Persistent@VFunctionTemplate@v8@@V?$NonCopyablePersistentTraits@VFunctionTemplate@v8@@@2@@Nan@@A 000000018002b1b8     _nodert_generated.obj
 0003:000021c0       ?g_keyProp@Collections@NodeRT@@3V?$Persistent@VString@v8@@V?$NonCopyablePersistentTraits@VString@v8@@@2@@Nan@@A 000000018002b1c0     _nodert_generated.obj
 0003:000021c8       ?s_constructorTemplate@Radio@Radios@Devices@Windows@NodeRT@@0V?$Persistent@VFunctionTemplate@v8@@V?$NonCopyablePersistentTraits@VFunctionTemplate@v8@@@2@@Nan@@A 000000018002b1c8     _nodert_generated.obj
 0003:000021d0       ?g_valueProp@Collections@NodeRT@@3V?$Persistent@VString@v8@@V?$NonCopyablePersistentTraits@VString@v8@@@2@@Nan@@A 000000018002b1d0     _nodert_generated.obj
 0003:000021d8       ?s_constructorTemplate@OpaqueWrapper@NodeRT@@0V?$Persistent@VFunctionTemplate@v8@@V?$NonCopyablePersistentTraits@VFunctionTemplate@v8@@@2@@Nan@@A 000000018002b1d8     OpaqueWrapper.obj
 0003:00002220       ?s_constructorTemplate@?$VectorViewWrapper@PE$AAVRadio@Radios@Devices@Windows@@@Collections@NodeRT@@0V?$Persistent@VFunctionTemplate@v8@@V?$NonCopyablePersistentTraits@VFunctionTemplate@v8@@@2@@Nan@@A 000000018002b220     _nodert_generated.obj
 0003:00002228       __dyn_tls_init_callback    000000018002b228     <common>
 0005:00000000       __pobjectentryfirst        000000018002e000     vccorlib:init.obj
 0005:00000008       __pobjectentrymid          000000018002e008     vccorlib:init.obj
 0005:00000010       __pobjectentrylast         000000018002e010     vccorlib:init.obj
 0007:00000000       _tls_start                 0000000180030000     MSVCRT:tlssup.obj
 0007:00000004       _Init_thread_epoch         0000000180030004     MSVCRT:thread_safe_statics.obj
 0007:00000008       _tls_end                   0000000180030008     MSVCRT:tlssup.obj

 entry point at        0001:0001662c

 Static symbols

 0000:fffcd000       .debug$S                   0000000180000000     iojs:node.dll
 0002:fffe6000       .idata$6                   0000000180000000     runtimeobject:api-ms-win-core-winrt-error-l1-1-0.dll
 0000:fffcd000       .debug$S                   0000000180000000     runtimeobject:api-ms-win-core-winrt-error-l1-1-0.dll
 0000:fffcd000       .debug$S                   0000000180000000     runtimeobject:api-ms-win-core-winrt-error-l1-1-0.dll
 0000:fffcd000       .debug$S                   0000000180000000     runtimeobject:api-ms-win-core-winrt-string-l1-1-0.dll
 0000:fffcd000       .debug$S                   0000000180000000     runtimeobject:api-ms-win-core-winrt-string-l1-1-0.dll
 0000:fffcd000       .debug$S                   0000000180000000     runtimeobject:api-ms-win-core-winrt-string-l1-1-0.dll
 0000:fffcd000       .debug$S                   0000000180000000     runtimeobject:api-ms-win-core-winrt-string-l1-1-0.dll
 0000:fffcd000       .debug$S                   0000000180000000     runtimeobject:api-ms-win-core-winrt-string-l1-1-0.dll
 0000:fffcd000       .debug$S                   0000000180000000     runtimeobject:api-ms-win-core-winrt-string-l1-1-0.dll
 0000:fffcd000       .debug$S                   0000000180000000     iojs:node.dll
 0000:fffcd000       .debug$S                   0000000180000000     iojs:node.dll
 0000:fffcd000       .debug$S                   0000000180000000     iojs:node.dll
 0000:fffcd000       .debug$S                   0000000180000000     iojs:node.dll
 0000:fffcd000       .debug$S                   0000000180000000     iojs:node.dll
 0000:fffcd000       .debug$S                   0000000180000000     iojs:node.dll
 0000:fffcd000       .debug$S                   0000000180000000     iojs:node.dll
 0000:fffcd000       .debug$S                   0000000180000000     iojs:node.dll
 0000:fffcd000       .debug$S                   0000000180000000     ucrt:api-ms-win-crt-heap-l1-1-0.dll
 0000:fffcd000       .debug$S                   0000000180000000     iojs:node.dll
 0000:fffcd000       .debug$S                   0000000180000000     iojs:node.dll
 0000:fffcd000       .debug$S                   0000000180000000     iojs:node.dll
 0000:fffcd000       .debug$S                   0000000180000000     iojs:node.dll
 0000:fffcd000       .debug$S                   0000000180000000     iojs:node.dll
 0000:fffcd000       .debug$S                   0000000180000000     iojs:node.dll
 0000:fffcd000       .debug$S                   0000000180000000     iojs:node.dll
 0000:fffcd000       .debug$S                   0000000180000000     iojs:node.dll
 0000:fffcd000       .debug$S                   0000000180000000     iojs:node.dll
 0000:fffcd000       .debug$S                   0000000180000000     vccorlib:vccorlib140.DLL
 0000:fffcd000       .debug$S                   0000000180000000     vccorlib:vccorlib140.DLL
 0000:fffcd000       .debug$S                   0000000180000000     iojs:node.dll
 0000:fffcd000       .debug$S                   0000000180000000     vccorlib:vccorlib140.DLL
 0000:fffcd000       .debug$S                   0000000180000000     iojs:node.dll
 0000:fffcd000       .debug$S                   0000000180000000     iojs:node.dll
 0000:fffcd000       .debug$S                   0000000180000000     vccorlib:vccorlib140.DLL
 0000:fffcd000       .debug$S                   0000000180000000     vccorlib:vccorlib140.DLL
 0000:fffcd000       .debug$S                   0000000180000000     iojs:node.dll
 0000:fffcd000       .debug$S                   0000000180000000     iojs:node.dll
 0000:fffcd000       .debug$S                   0000000180000000     vccorlib:vccorlib140.DLL
 0000:fffcd000       .debug$S                   0000000180000000     iojs:node.dll
 0000:fffcd000       .debug$S                   0000000180000000     vccorlib:vccorlib140.DLL
 0000:fffcd000       .debug$S                   0000000180000000     iojs:node.dll
 0000:fffcd000       .debug$S                   0000000180000000     ucrt:api-ms-win-crt-heap-l1-1-0.dll
 0000:fffcd000       .debug$S                   0000000180000000     vccorlib:vccorlib140.DLL
 0000:fffcd000       .debug$S                   0000000180000000     ucrt:api-ms-win-crt-runtime-l1-1-0.dll
 0000:fffcd000       .debug$S                   0000000180000000     iojs:node.dll
 0000:fffcd000       .debug$S                   0000000180000000     ucrt:api-ms-win-crt-runtime-l1-1-0.dll
 0000:fffcd000       .debug$S                   0000000180000000     iojs:node.dll
 0000:fffcd000       .debug$S                   0000000180000000     iojs:node.dll
 0000:fffcd000       .debug$S                   0000000180000000     vccorlib:vccorlib140.DLL
 0000:fffcd000       .debug$S                   0000000180000000     iojs:node.dll
 0000:fffcd000       .debug$S                   0000000180000000     vccorlib:vccorlib140.DLL
 0000:fffcd000       .debug$S                   0000000180000000     iojs:node.dll
 0000:fffcd000       .debug$S                   0000000180000000     iojs:node.dll
 0000:fffcd000       .debug$S                   0000000180000000     vccorlib:vccorlib140.DLL
 0000:fffcd000       .debug$S                   0000000180000000     iojs:node.dll
 0000:fffcd000       .debug$S                   0000000180000000     iojs:node.dll
 0000:fffcd000       .debug$S                   0000000180000000     iojs:node.dll
 0000:fffcd000       .debug$S                   0000000180000000     vccorlib:vccorlib140.DLL
 0000:fffcd000       .debug$S                   0000000180000000     iojs:node.dll
 0000:fffcd000       .debug$S                   0000000180000000     iojs:node.dll
 0000:fffcd000       .debug$S                   0000000180000000     vccorlib:vccorlib140.DLL
 0000:fffcd000       .debug$S                   0000000180000000     iojs:node.dll
 0000:fffcd000       .debug$S                   0000000180000000     vccorlib:vccorlib140.DLL
 0000:fffcd000       .debug$S                   0000000180000000     iojs:node.dll
 0000:fffcd000       .debug$S                   0000000180000000     iojs:node.dll
 0000:fffcd000       .debug$S                   0000000180000000     iojs:node.dll
 0000:fffcd000       .debug$S                   0000000180000000     vccorlib:vccorlib140.DLL
 0000:fffcd000       .debug$S                   0000000180000000     iojs:node.dll
 0000:fffcd000       .debug$S                   0000000180000000     iojs:node.dll
 0000:fffcd000       .debug$S                   0000000180000000     vccorlib:vccorlib140.DLL
 0000:fffcd000       .debug$S                   0000000180000000     iojs:node.dll
 0000:fffcd000       .debug$S                   0000000180000000     iojs:node.dll
 0000:fffcd000       .debug$S                   0000000180000000     vccorlib:vccorlib140.DLL
 0000:fffcd000       .debug$S                   0000000180000000     vccorlib:vccorlib140.DLL
 0000:fffcd000       .debug$S                   0000000180000000     iojs:node.dll
 0000:fffcd000       .debug$S                   0000000180000000     iojs:node.dll
 0000:fffcd000       .debug$S                   0000000180000000     iojs:node.dll
 0000:fffcd000       .debug$S                   0000000180000000     vccorlib:vccorlib140.DLL
 0000:fffcd000       .debug$S                   0000000180000000     iojs:node.dll
 0000:fffcd000       .debug$S                   0000000180000000     iojs:node.dll
 0000:fffcd000       .debug$S                   0000000180000000     iojs:node.dll
 0000:fffcd000       .debug$S                   0000000180000000     vccorlib:vccorlib140.DLL
 0000:fffcd000       .debug$S                   0000000180000000     iojs:node.dll
 0000:fffcd000       .debug$S                   0000000180000000     iojs:node.dll
 0000:fffcd000       .debug$S                   0000000180000000     vccorlib:vccorlib140.DLL
 0000:fffcd000       .debug$S                   0000000180000000     iojs:node.dll
 0000:fffcd000       .debug$S                   0000000180000000     vccorlib:vccorlib140.DLL
 0000:fffcd000       .debug$S                   0000000180000000     iojs:node.dll
 0000:fffcd000       .debug$S                   0000000180000000     vccorlib:vccorlib140.DLL
 0000:fffcd000       .debug$S                   0000000180000000     iojs:node.dll
 0000:fffcd000       .debug$S                   0000000180000000     iojs:node.dll
 0000:fffcd000       .debug$S                   0000000180000000     vccorlib:vccorlib140.DLL
 0000:fffcd000       .debug$S                   0000000180000000     iojs:node.dll
 0000:fffcd000       .debug$S                   0000000180000000     vccorlib:vccorlib140.DLL
 0000:fffcd000       .debug$S                   0000000180000000     iojs:node.dll
 0000:fffcd000       .debug$S                   0000000180000000     vccorlib:vccorlib140.DLL
 0000:fffcd000       .debug$S                   0000000180000000     iojs:node.dll
 0000:fffcd000       .debug$S                   0000000180000000     vccorlib:vccorlib140.DLL
 0000:fffcd000       .debug$S                   0000000180000000     vccorlib:vccorlib140.DLL
 0000:fffcd000       .debug$S                   0000000180000000     iojs:node.dll
 0000:fffcd000       .debug$S                   0000000180000000     iojs:node.dll
 0000:fffcd000       .debug$S                   0000000180000000     vccorlib:vccorlib140.DLL
 0000:fffcd000       .debug$S                   0000000180000000     iojs:node.dll
 0000:fffcd000       .debug$S                   0000000180000000     iojs:node.dll
 0000:fffcd000       .debug$S                   0000000180000000     vccorlib:vccorlib140.DLL
 0000:fffcd000       .debug$S                   0000000180000000     vccorlib:vccorlib140.DLL
 0000:fffcd000       .debug$S                   0000000180000000     iojs:node.dll
 0000:fffcd000       .debug$S                   0000000180000000     vccorlib:vccorlib140.DLL
 0000:fffcd000       .debug$S                   0000000180000000     vccorlib:vccorlib140.DLL
 0000:fffcd000       .debug$S                   0000000180000000     iojs:node.dll
 0000:fffcd000       .debug$S                   0000000180000000     iojs:node.dll
 0000:fffcd000       .debug$S                   0000000180000000     vccorlib:vccorlib140.DLL
 0000:fffcd000       .debug$S                   0000000180000000     iojs:node.dll
 0000:fffcd000       .debug$S                   0000000180000000     vccorlib:vccorlib140.DLL
 0000:fffcd000       .debug$S                   0000000180000000     iojs:node.dll
 0000:fffcd000       .debug$S                   0000000180000000     vccorlib:vccorlib140.DLL
 0000:fffcd000       .debug$S                   0000000180000000     iojs:node.dll
 0000:fffcd000       .debug$S                   0000000180000000     vccorlib:vccorlib140.DLL
 0000:fffcd000       .debug$S                   0000000180000000     iojs:node.dll
 0000:fffcd000       .debug$S                   0000000180000000     iojs:node.dll
 0000:fffcd000       .debug$S                   0000000180000000     iojs:node.dll
 0000:fffcd000       .debug$S                   0000000180000000     msvcprt:MSVCP140.dll
 0000:fffcd000       .debug$S                   0000000180000000     iojs:node.dll
 0000:fffcd000       .debug$S                   0000000180000000     msvcprt:MSVCP140.dll
 0000:fffcd000       .debug$S                   0000000180000000     iojs:node.dll
 0000:fffcd000       .debug$S                   0000000180000000     iojs:node.dll
 0000:fffcd000       .debug$S                   0000000180000000     msvcprt:MSVCP140.dll
 0000:fffcd000       .debug$S                   0000000180000000     iojs:node.dll
 0000:fffcd000       .debug$S                   0000000180000000     iojs:node.dll
 0000:fffcd000       .debug$S                   0000000180000000     msvcprt:MSVCP140.dll
 0000:fffcd000       .debug$S                   0000000180000000     iojs:node.dll
 0000:fffcd000       .debug$S                   0000000180000000     iojs:node.dll
 0000:fffcd000       .debug$S                   0000000180000000     msvcprt:MSVCP140.dll
 0000:fffcd000       .debug$S                   0000000180000000     iojs:node.dll
 0000:fffcd000       .debug$S                   0000000180000000     iojs:node.dll
 0000:fffcd000       .debug$S                   0000000180000000     iojs:node.dll
 0000:fffcd000       .debug$S                   0000000180000000     msvcprt:MSVCP140.dll
 0000:fffcd000       .debug$S                   0000000180000000     msvcprt:MSVCP140.dll
 0000:fffcd000       .debug$S                   0000000180000000     iojs:node.dll
 0000:fffcd000       .debug$S                   0000000180000000     msvcprt:MSVCP140.dll
 0000:fffcd000       .debug$S                   0000000180000000     iojs:node.dll
 0000:fffcd000       .debug$S                   0000000180000000     msvcprt:MSVCP140.dll
 0000:fffcd000       .debug$S                   0000000180000000     iojs:node.dll
 0000:fffcd000       .debug$S                   0000000180000000     msvcprt:MSVCP140.dll
 0000:fffcd000       .debug$S                   0000000180000000     msvcprt:MSVCP140.dll
 0000:fffcd000       .debug$S                   0000000180000000     iojs:node.dll
 0000:fffcd000       .debug$S                   0000000180000000     msvcprt:MSVCP140.dll
 0000:fffcd000       .debug$S                   0000000180000000     iojs:node.dll
 0000:fffcd000       .debug$S                   0000000180000000     iojs:node.dll
 0000:fffcd000       .debug$S                   0000000180000000     msvcprt:MSVCP140.dll
 0000:fffcd000       .debug$S                   0000000180000000     iojs:node.dll
 0000:fffcd000       .debug$S                   0000000180000000     msvcprt:MSVCP140.dll
 0000:fffcd000       .debug$S                   0000000180000000     iojs:node.dll
 0000:fffcd000       .debug$S                   0000000180000000     msvcprt:MSVCP140.dll
 0000:fffcd000       .debug$S                   0000000180000000     iojs:node.dll
 0000:fffcd000       .debug$S                   0000000180000000     msvcprt:MSVCP140.dll
 0000:fffcd000       .debug$S                   0000000180000000     msvcprt:MSVCP140.dll
 0000:fffcd000       .debug$S                   0000000180000000     iojs:node.dll
 0000:fffcd000       .debug$S                   0000000180000000     msvcprt:MSVCP140.dll
 0000:fffcd000       .debug$S                   0000000180000000     iojs:node.dll
 0000:fffcd000       .debug$S                   0000000180000000     msvcprt:MSVCP140.dll
 0000:fffcd000       .debug$S                   0000000180000000     iojs:node.dll
 0000:fffcd000       .debug$S                   0000000180000000     iojs:node.dll
 0000:fffcd000       .debug$S                   0000000180000000     iojs:node.dll
 0000:fffcd000       .debug$S                   0000000180000000     msvcprt:MSVCP140.dll
 0000:fffcd000       .debug$S                   0000000180000000     iojs:node.dll
 0000:fffcd000       .debug$S                   0000000180000000     msvcprt:MSVCP140.dll
 0000:fffcd000       .debug$S                   0000000180000000     ole32:ole32.dll
 0000:fffcd000       .debug$S                   0000000180000000     msvcprt:MSVCP140.dll
 0000:fffcd000       .debug$S                   0000000180000000     ole32:ole32.dll
 0000:fffcd000       .debug$S                   0000000180000000     msvcprt:MSVCP140.dll
 0000:fffcd000       .debug$S                   0000000180000000     ole32:ole32.dll
 0000:fffcd000       .debug$S                   0000000180000000     msvcprt:MSVCP140.dll
 0000:fffcd000       .debug$S                   0000000180000000     ole32:ole32.dll
 0000:fffcd000       .debug$S                   0000000180000000     msvcprt:MSVCP140.dll
 0000:fffcd000       .debug$S                   0000000180000000     ole32:ole32.dll
 0000:fffcd000       .debug$S                   0000000180000000     msvcprt:MSVCP140.dll
 0000:fffcd000       .debug$S                   0000000180000000     ole32:ole32.dll
 0000:fffcd000       .debug$S                   0000000180000000     kernel32:KERNEL32.dll
 0000:fffcd000       .debug$S                   0000000180000000     kernel32:KERNEL32.dll
 0000:fffcd000       .debug$S                   0000000180000000     msvcprt:MSVCP140.dll
 0000:fffcd000       .debug$S                   0000000180000000     kernel32:KERNEL32.dll
 0000:fffcd000       .debug$S                   0000000180000000     kernel32:KERNEL32.dll
 0000:fffcd000       .debug$S                   0000000180000000     kernel32:KERNEL32.dll
 0000:fffcd000       .debug$S                   0000000180000000     msvcprt:MSVCP140.dll
 0000:fffcd000       .debug$S                   0000000180000000     kernel32:KERNEL32.dll
 0000:fffcd000       .debug$S                   0000000180000000     kernel32:KERNEL32.dll
 0000:fffcd000       .debug$S                   0000000180000000     kernel32:KERNEL32.dll
 0000:fffcd000       .debug$S                   0000000180000000     msvcprt:MSVCP140.dll
 0000:fffcd000       .debug$S                   0000000180000000     kernel32:KERNEL32.dll
 0000:fffcd000       .debug$S                   0000000180000000     kernel32:KERNEL32.dll
 0000:fffcd000       .debug$S                   0000000180000000     kernel32:KERNEL32.dll
 0000:fffcd000       .debug$S                   0000000180000000     msvcprt:MSVCP140.dll
 0000:fffcd000       .debug$S                   0000000180000000     kernel32:KERNEL32.dll
 0000:fffcd000       .debug$S                   0000000180000000     msvcprt:MSVCP140.dll
 0000:fffcd000       .debug$S                   0000000180000000     kernel32:KERNEL32.dll
 0000:fffcd000       .debug$S                   0000000180000000     kernel32:KERNEL32.dll
 0000:fffcd000       .debug$S                   0000000180000000     kernel32:KERNEL32.dll
 0000:fffcd000       .debug$S                   0000000180000000     kernel32:KERNEL32.dll
 0000:fffcd000       .debug$S                   0000000180000000     kernel32:KERNEL32.dll
 0000:fffcd000       .debug$S                   0000000180000000     msvcprt:MSVCP140.dll
 0000:fffcd000       .debug$S                   0000000180000000     kernel32:KERNEL32.dll
 0000:fffcd000       .debug$S                   0000000180000000     msvcprt:MSVCP140.dll
 0000:fffcd000       .debug$S                   0000000180000000     kernel32:KERNEL32.dll
 0000:fffcd000       .debug$S                   0000000180000000     kernel32:KERNEL32.dll
 0000:fffcd000       .debug$S                   0000000180000000     msvcprt:MSVCP140.dll
 0000:fffcd000       .debug$S                   0000000180000000     kernel32:KERNEL32.dll
 0000:fffcd000       .debug$S                   0000000180000000     msvcprt:MSVCP140.dll
 0000:fffcd000       .debug$S                   0000000180000000     kernel32:KERNEL32.dll
 0000:fffcd000       .debug$S                   0000000180000000     kernel32:KERNEL32.dll
 0000:fffcd000       .debug$S                   0000000180000000     msvcprt:MSVCP140.dll
 0000:fffcd000       .debug$S                   0000000180000000     msvcprt:MSVCP140.dll
 0000:fffcd000       .debug$S                   0000000180000000     kernel32:KERNEL32.dll
 0000:fffcd000       .debug$S                   0000000180000000     msvcprt:MSVCP140.dll
 0000:fffcd000       .debug$S                   0000000180000000     kernel32:KERNEL32.dll
 0000:fffcd000       .debug$S                   0000000180000000     kernel32:KERNEL32.dll
 0000:fffcd000       .debug$S                   0000000180000000     kernel32:KERNEL32.dll
 0000:fffcd000       .debug$S                   0000000180000000     kernel32:KERNEL32.dll
 0000:fffcd000       .debug$S                   0000000180000000     kernel32:KERNEL32.dll
 0000:fffcd000       .debug$S                   0000000180000000     kernel32:KERNEL32.dll
 0000:fffcd000       .debug$S                   0000000180000000     kernel32:KERNEL32.dll
 0000:fffcd000       .debug$S                   0000000180000000     binding.exp
 0000:fffcd000       .debug$S                   0000000180000000     ucrt:api-ms-win-crt-runtime-l1-1-0.dll
 0000:fffcd000       .debug$S                   0000000180000000     vcruntime:VCRUNTIME140.dll
 0000:fffcd000       .debug$S                   0000000180000000     vcruntime:VCRUNTIME140.dll
 0000:fffcd000       .debug$S                   0000000180000000     vcruntime:VCRUNTIME140.dll
 0000:fffcd000       .debug$S                   0000000180000000     vcruntime:VCRUNTIME140.dll
 0000:fffcd000       .debug$S                   0000000180000000     vcruntime:VCRUNTIME140.dll
 0000:fffcd000       .debug$S                   0000000180000000     vcruntime:VCRUNTIME140.dll
 0000:fffcd000       .debug$S                   0000000180000000     vcruntime:VCRUNTIME140.dll
 0000:fffcd000       .debug$S                   0000000180000000     vcruntime:VCRUNTIME140.dll
 0000:fffcd000       .debug$S                   0000000180000000     vcruntime:VCRUNTIME140.dll
 0000:fffcd000       .debug$S                   0000000180000000     vcruntime:VCRUNTIME140.dll
 0000:fffcd000       .debug$S                   0000000180000000     vcruntime:VCRUNTIME140.dll
 0000:fffcd000       .debug$S                   0000000180000000     vcruntime:VCRUNTIME140.dll
 0000:fffcd000       .debug$S                   0000000180000000     ucrt:api-ms-win-crt-string-l1-1-0.dll
 0000:fffcd000       .debug$S                   0000000180000000     ucrt:api-ms-win-crt-string-l1-1-0.dll
 0000:fffcd000       .debug$S                   0000000180000000     ucrt:api-ms-win-crt-string-l1-1-0.dll
 0000:fffcd000       .debug$S                   0000000180000000     ucrt:api-ms-win-crt-runtime-l1-1-0.dll
 0000:fffcd000       .debug$S                   0000000180000000     ucrt:api-ms-win-crt-runtime-l1-1-0.dll
 0000:fffcd000       .debug$S                   0000000180000000     ucrt:api-ms-win-crt-runtime-l1-1-0.dll
 0000:fffcd000       .debug$S                   0000000180000000     ucrt:api-ms-win-crt-runtime-l1-1-0.dll
 0000:fffcd000       .debug$S                   0000000180000000     ucrt:api-ms-win-crt-runtime-l1-1-0.dll
 0000:fffcd000       .debug$S                   0000000180000000     ucrt:api-ms-win-crt-runtime-l1-1-0.dll
 0000:fffcd000       .debug$S                   0000000180000000     ucrt:api-ms-win-crt-runtime-l1-1-0.dll
 0000:fffcd000       .debug$S                   0000000180000000     ucrt:api-ms-win-crt-runtime-l1-1-0.dll
 0000:fffcd000       .debug$S                   0000000180000000     ucrt:api-ms-win-crt-runtime-l1-1-0.dll
 0000:fffcd000       .debug$S                   0000000180000000     ucrt:api-ms-win-crt-runtime-l1-1-0.dll
 0000:fffcd000       .debug$S                   0000000180000000     ucrt:api-ms-win-crt-runtime-l1-1-0.dll
 0000:fffcd000       .debug$S                   0000000180000000     ucrt:api-ms-win-crt-runtime-l1-1-0.dll
 0000:fffcd000       .debug$S                   0000000180000000     ucrt:api-ms-win-crt-heap-l1-1-0.dll
 0001:00000000       ??__Eg_keyProp@Collections@NodeRT@@YAXXZ 0000000180001000 f   _nodert_generated.obj
 0001:00000010       ??__Eg_valueProp@Collections@NodeRT@@YAXXZ 0000000180001010 f   _nodert_generated.obj
 0001:00000020       ??__EcheckStringFunc@Collections@NodeRT@@YAXXZ 0000000180001020 f   _nodert_generated.obj
 0001:00000070       ??__E?s_constructorTemplate@Radio@Radios@Devices@Windows@NodeRT@@0V?$Persistent@VFunctionTemplate@v8@@V?$NonCopyablePersistentTraits@VFunctionTemplate@v8@@@2@@Nan@@A@@YAXXZ 0000000180001070 f   _nodert_generated.obj
 0001:00000080       ??__E?s_constructorTemplate@OpaqueWrapper@NodeRT@@0V?$Persistent@VFunctionTemplate@v8@@V?$NonCopyablePersistentTraits@VFunctionTemplate@v8@@@2@@Nan@@A@@YAXXZ 0000000180001080 f   OpaqueWrapper.obj
 0001:0000008c       ??__Emodule_@Details@Platform@@YAXXZ 000000018000108c f   vccorlib:init.obj
 0001:000006c0       ?FunctionCallbackWrapper@imp@Nan@@YAXAEBV?$FunctionCallbackInfo@VValue@v8@@@v8@@@Z 00000001800016c0 f   _nodert_generated.obj
 0001:00000790       ?GetterCallbackWrapper@imp@Nan@@YAXV?$Local@VName@v8@@@v8@@AEBV?$PropertyCallbackInfo@VValue@v8@@@4@@Z 0000000180001790 f   _nodert_generated.obj
 0001:00000860       ?IndexGetterCallbackWrapper@imp@Nan@@YAXIAEBV?$PropertyCallbackInfo@VValue@v8@@@v8@@@Z 0000000180001860 f   _nodert_generated.obj
 0001:000031b0       ??R<lambda_be3e5d9dce35d2c8dbfa8485373731d5>@@QEBAXXZ 00000001800041b0 f   _nodert_generated.obj
 0001:00003470       ??R<lambda_ee2800ccd2b011420c5de0c63356449b>@@QEBAXXZ 0000000180004470 f   _nodert_generated.obj
 0001:00003960       ??1<lambda_be3e5d9dce35d2c8dbfa8485373731d5>@@QEAA@XZ 0000000180004960 f   _nodert_generated.obj
 0001:00003fd0       ??R<lambda_1af583cf6945007177c61d87505abd8e>@@QEBAXHPEAV?$Local@VValue@v8@@@v8@@@Z 0000000180004fd0 f   _nodert_generated.obj
 0001:00004090       ??R<lambda_fc55a96778b695da9907353a9fdacbca>@@QEBAXXZ 0000000180005090 f   _nodert_generated.obj
 0001:000044b0       ??1<lambda_fc55a96778b695da9907353a9fdacbca>@@QEAA@XZ 00000001800054b0 f   _nodert_generated.obj
 0001:00004520       ?InitRadioStateEnum@Radios@Devices@Windows@NodeRT@@YAXV?$Local@VObject@v8@@@v8@@@Z 0000000180005520 f   _nodert_generated.obj
 0001:000047b0       ?InitRadioKindEnum@Radios@Devices@Windows@NodeRT@@YAXV?$Local@VObject@v8@@@v8@@@Z 00000001800057b0 f   _nodert_generated.obj
 0001:00004ac0       ?InitRadioAccessStatusEnum@Radios@Devices@Windows@NodeRT@@YAXV?$Local@VObject@v8@@@v8@@@Z 0000000180005ac0 f   _nodert_generated.obj
 0001:00005c10       ??R<lambda_f62ce569bcbb190725394d954e43b37a>@@QEBAXV?$task@W4RadioAccessStatus@Radios@Devices@Windows@@@Concurrency@@@Z 0000000180006c10 f   _nodert_generated.obj
 0001:00005d10       ??R<lambda_13c093ceb3cb7088042cb26732856e67>@@QEBAXV?$function@$$A6AXHPEAV?$Local@VValue@v8@@@v8@@@Z@std@@@Z 0000000180006d10 f   _nodert_generated.obj
 0001:00005d10       ??R<lambda_bd8db8e132653ed2b09381d83d27b969>@@QEBAXV?$function@$$A6AXHPEAV?$Local@VValue@v8@@@v8@@@Z@std@@@Z 0000000180006d10 f   _nodert_generated.obj
 0001:00005e50       ??R<lambda_1410bf25c1f3e34acba1e87129c0b837>@@QEBAXV?$function@$$A6AXHPEAV?$Local@VValue@v8@@@v8@@@Z@std@@@Z 0000000180006e50 f   _nodert_generated.obj
 0001:00005e50       ??R<lambda_6e721a9cc44c44771ffaa71ba9f88df1>@@QEBAXV?$function@$$A6AXHPEAV?$Local@VValue@v8@@@v8@@@Z@std@@@Z 0000000180006e50 f   _nodert_generated.obj
 0001:00005e50       ??R<lambda_923cdb2d6b6e10951a75b3af8d001269>@@QEBAXV?$function@$$A6AXHPEAV?$Local@VValue@v8@@@v8@@@Z@std@@@Z 0000000180006e50 f   _nodert_generated.obj
 0001:00005e50       ??R<lambda_be5e2ae45d9afcdad4d6af170ce6b1a9>@@QEBAXV?$function@$$A6AXHPEAV?$Local@VValue@v8@@@v8@@@Z@std@@@Z 0000000180006e50 f   _nodert_generated.obj
 0001:000061a0       ??R<lambda_6b3d546cb33cb2be9b0a401ff7fba40f>@@QEBAXV?$task@PE$AAU?$IVectorView@PE$AAVRadio@Radios@Devices@Windows@@@Collections@Foundation@Windows@@@Concurrency@@@Z 00000001800071a0 f   _nodert_generated.obj
 0001:000062b0       ??R<lambda_332ba2b9435369ab76e287351a81320b>@@QEBAXV?$function@$$A6AXHPEAV?$Local@VValue@v8@@@v8@@@Z@std@@@Z 00000001800072b0 f   _nodert_generated.obj
 0001:00006870       ??R<lambda_ae69dad4f0eec31d1194edef18f14e48>@@QEBAXV?$task@PE$AAVRadio@Radios@Devices@Windows@@@Concurrency@@@Z 0000000180007870 f   _nodert_generated.obj
 0001:00006980       ??R<lambda_937a019cbae5299c9ee089aacd8953b7>@@QEBAXV?$function@$$A6AXHPEAV?$Local@VValue@v8@@@v8@@@Z@std@@@Z 0000000180007980 f   _nodert_generated.obj
 0001:00006d60       ??R<lambda_84fe49f24ae8de4bd96cfe7e2e397527>@@QEBAXV?$task@W4RadioAccessStatus@Radios@Devices@Windows@@@Concurrency@@@Z 0000000180007d60 f   _nodert_generated.obj
 0001:000078e0       ??R<lambda_fa493edce1d787976b8ef791772f712d>@@QEBAXPE$AAVRadio@Radios@Devices@Windows@@PE$AAVObject@Platform@@@Z 00000001800088e0 f   _nodert_generated.obj
 0001:00007a00       ??R<lambda_86719af9e59bcf010981affea63e2ba5>@@QEBAXXZ 0000000180008a00 f   _nodert_generated.obj
 0001:00008150       ??1<lambda_86719af9e59bcf010981affea63e2ba5>@@QEAA@XZ 0000000180009150 f   _nodert_generated.obj
 0001:000081d0       ??1<lambda_4826e3b284b53b5a99fdf233406a9e9a>@@QEAA@XZ 00000001800091d0 f   _nodert_generated.obj
 0001:000081d0       ??1<lambda_76b0dc5acfdd88e398543629657656f2>@@QEAA@XZ 00000001800091d0 f   _nodert_generated.obj
 0001:000081d0       ??1<lambda_74b109aa04c410395ed1b84aaba96129>@@QEAA@XZ 00000001800091d0 f   _nodert_generated.obj
 0001:000081d0       ??1<lambda_fa493edce1d787976b8ef791772f712d>@@QEAA@XZ 00000001800091d0 f   _nodert_generated.obj
 0001:00008370       _register_binding          0000000180009370 f   _nodert_generated.obj
 0001:00010180       ??R<lambda_73163a669fe347e5c4e2d28c36c6f8ca>@@QEBAEV?$task@PE$AAVRadio@Radios@Devices@Windows@@@Concurrency@@@Z 0000000180011180 f   _nodert_generated.obj
 0001:000102a0       ??R<lambda_83ab8abb741bf007d1b5942dba04bfdd>@@QEBAEV?$task@PE$AAU?$IVectorView@PE$AAVRadio@Radios@Devices@Windows@@@Collections@Foundation@Windows@@@Concurrency@@@Z 00000001800112a0 f   _nodert_generated.obj
 0001:000103d0       ??R<lambda_199453e3251722af17cbed06cee0aa25>@@QEBAEV?$task@W4RadioAccessStatus@Radios@Devices@Windows@@@Concurrency@@@Z 00000001800113d0 f   _nodert_generated.obj
 0001:000104c0       ??1<lambda_73163a669fe347e5c4e2d28c36c6f8ca>@@QEAA@XZ 00000001800114c0 f   _nodert_generated.obj
 0001:00010520       ??1<lambda_83ab8abb741bf007d1b5942dba04bfdd>@@QEAA@XZ 0000000180011520 f   _nodert_generated.obj
 0001:00010580       ??1<lambda_199453e3251722af17cbed06cee0aa25>@@QEAA@XZ 0000000180011580 f   _nodert_generated.obj
 0001:000119c0       ??R<lambda_4826e3b284b53b5a99fdf233406a9e9a>@@QEAAXPE$AAU?$IAsyncOperation@PE$AAVRadio@Radios@Devices@Windows@@@Foundation@Windows@@W4AsyncStatus@23@@Z 00000001800129c0 f   _nodert_generated.obj
 0001:00011da0       ??R<lambda_74b109aa04c410395ed1b84aaba96129>@@QEAAXPE$AAU?$IAsyncOperation@PE$AAU?$IVectorView@PE$AAVRadio@Radios@Devices@Windows@@@Collections@Foundation@Windows@@@Foundation@Windows@@W4AsyncStatus@23@@Z 0000000180012da0 f   _nodert_generated.obj
 0001:00012120       ??R<lambda_76b0dc5acfdd88e398543629657656f2>@@QEAAXPE$AAU?$IAsyncOperation@W4RadioAccessStatus@Radios@Devices@Windows@@@Foundation@Windows@@W4AsyncStatus@23@@Z 0000000180013120 f   _nodert_generated.obj
 0001:00014270       ??0<lambda_86719af9e59bcf010981affea63e2ba5>@@QEAA@$$QEAV0@@Z 0000000180015270 f   _nodert_generated.obj
 0001:00014620       ??0<lambda_86719af9e59bcf010981affea63e2ba5>@@QEAA@AEBV0@@Z 0000000180015620 f   _nodert_generated.obj
 0001:000146a0       ??0<lambda_fc55a96778b695da9907353a9fdacbca>@@QEAA@AEBV0@@Z 00000001800156a0 f   _nodert_generated.obj
 0001:000159d0       $$000000                   00000001800169d0     MSVCRT:_amdsecgs_.obj
 0001:00015a04       ?__scrt_initialize_thread_safe_statics@@YAHXZ 0000000180016a04 f   MSVCRT:thread_safe_statics.obj
 0001:00015b24       ?__scrt_uninitialize_thread_safe_statics@@YAXXZ 0000000180016b24 f   MSVCRT:thread_safe_statics.obj
 0001:0001626c       capture_previous_context   000000018001726c f   MSVCRT:gs_report.obj
 0001:000162e0       ?dllmain_crt_dispatch@@YAHQEAUHINSTANCE__@@KQEAX@Z 00000001800172e0 f   MSVCRT:dll_dllmain.obj
 0001:00016330       ?dllmain_crt_process_attach@@YAHQEAUHINSTANCE__@@QEAX@Z 0000000180017330 f   MSVCRT:dll_dllmain.obj
 0001:0001645c       ?dllmain_crt_process_detach@@YAH_N@Z 000000018001745c f   MSVCRT:dll_dllmain.obj
 0001:000164e0       ?dllmain_dispatch@@YAHQEAUHINSTANCE__@@KQEAX@Z 00000001800174e0 f   MSVCRT:dll_dllmain.obj
 0001:000165d8       ?dllmain_raw@@YAHQEAUHINSTANCE__@@KQEAX@Z 00000001800175d8 f   MSVCRT:dll_dllmain.obj
 0001:00016ec0       $$000000                   0000000180017ec0     MSVCRT:_guard_dispatch_.obj
 0001:00016ee0       ?dtor$0@?0??_Copy_exception@exception_ptr@std@@SA?AV12@PEAXPEBX@Z@4HA 0000000180017ee0 f   _nodert_generated.obj
 0001:00016ef0       ?dtor$0@?0??Equals@Nan@@YA?AV?$Maybe@_N@v8@@V?$Local@VValue@v8@@@3@0@Z@4HA 0000000180017ef0 f   _nodert_generated.obj
 0001:00016ef0       ?dtor$0@?0??convert@?$ToFactory@H@imp@Nan@@SA?AV?$Maybe@H@v8@@V?$Local@VValue@v8@@@5@@Z@4HA 0000000180017ef0 f   _nodert_generated.obj
 0001:00016ef0       ?dtor$0@?0??Delete@Nan@@YA?AV?$Maybe@_N@v8@@V?$Local@VObject@v8@@@3@V?$Local@VString@v8@@@3@@Z@4HA 0000000180017ef0 f   _nodert_generated.obj
 0001:00016ef0       ?dtor$0@?0??SetPrototype@Nan@@YA?AV?$Maybe@_N@v8@@V?$Local@VObject@v8@@@3@V?$Local@VValue@v8@@@3@@Z@4HA 0000000180017ef0 f   _nodert_generated.obj
 0001:00016ef0       ?dtor$0@?0??Has@Nan@@YA?AV?$Maybe@_N@v8@@V?$Local@VObject@v8@@@3@V?$Local@VString@v8@@@3@@Z@4HA 0000000180017ef0 f   NodeRtUtils.obj
 0001:00016f00       ?dtor$0@?0??NewInstance@Nan@@YA?AV?$MaybeLocal@VObject@v8@@@v8@@V?$Local@VFunction@v8@@@3@HQEAV?$Local@VValue@v8@@@3@@Z@4HA 0000000180017f00 f   _nodert_generated.obj
 0001:00016f10       ?dtor$0@?0??Get@Nan@@YA?AV?$MaybeLocal@VValue@v8@@@v8@@V?$Local@VObject@v8@@@3@V?$Local@VValue@v8@@@3@@Z@4HA 0000000180017f10 f   _nodert_generated.obj
 0001:00016f10       ?dtor$0@?0??convert@?$ToFactory@VObject@v8@@@imp@Nan@@SA?AV?$MaybeLocal@VObject@v8@@@v8@@V?$Local@VValue@v8@@@5@@Z@4HA 0000000180017f10 f   _nodert_generated.obj
 0001:00016f10       ?dtor$0@?0??GetFunction@Nan@@YA?AV?$MaybeLocal@VFunction@v8@@@v8@@V?$Local@VFunctionTemplate@v8@@@3@@Z@4HA 0000000180017f10 f   _nodert_generated.obj
 0001:00016f10       ?dtor$0@?0??convert@?$ToFactory@VString@v8@@@imp@Nan@@SA?AV?$MaybeLocal@VString@v8@@@v8@@V?$Local@VValue@v8@@@5@@Z@4HA 0000000180017f10 f   _nodert_generated.obj
 0001:00016f10       ?dtor$0@?0??convert@?$ToFactory@VInteger@v8@@@imp@Nan@@SA?AV?$MaybeLocal@VInteger@v8@@@v8@@V?$Local@VValue@v8@@@5@@Z@4HA 0000000180017f10 f   _nodert_generated.obj
 0001:00016f10       ?dtor$0@?0??NewInstance@Nan@@YA?AV?$MaybeLocal@VObject@v8@@@v8@@V?$Local@VObjectTemplate@v8@@@3@@Z@4HA 0000000180017f10 f   _nodert_generated.obj
 0001:00016f20       ?dtor$0@?0??Set@Nan@@YA?AV?$Maybe@_N@v8@@V?$Local@VObject@v8@@@3@V?$Local@VValue@v8@@@3@1@Z@4HA 0000000180017f20 f   _nodert_generated.obj
 0001:00016f20       ?dtor$0@?0??ForceSet@Nan@@YA?AV?$Maybe@_N@v8@@V?$Local@VObject@v8@@@3@V?$Local@VValue@v8@@@3@1W4PropertyAttribute@3@@Z@4HA 0000000180017f20 f   NodeRtUtils.obj
 0001:00016f30       ?dtor$0@?0??New@?$Factory@VFunctionTemplate@v8@@@imp@Nan@@SA?AV?$Local@VFunctionTemplate@v8@@@v8@@P6AXAEBV?$FunctionCallbackInfo@VValue@v8@@@3@@ZV?$Local@VValue@v8@@@5@V?$Local@VSignature@v8@@@5@@Z@4HA 0000000180017f30 f   _nodert_generated.obj
 0001:00016f40       ?dtor$0@?0??SetPrototypeMethod@Nan@@YAXV?$Local@VFunctionTemplate@v8@@@v8@@PEBDP6AXAEBV?$FunctionCallbackInfo@VValue@v8@@@1@@Z@Z@4HA 0000000180017f40 f   _nodert_generated.obj
 0001:00016f40       ?dtor$0@?0??RegisterNameSpace@Utils@NodeRT@@YAXPEBDV?$Local@VValue@v8@@@v8@@@Z@4HA 0000000180017f40 f   NodeRtUtils.obj
 0001:00016f40       ?dtor$0@?0???$SetMethod@VObject@v8@@VLocal@2@@Nan@@YAXV?$Local@VObject@v8@@@v8@@PEBDP6AXAEBV?$FunctionCallbackInfo@VValue@v8@@@0@@Z@Z@4HA 0000000180017f40 f   _nodert_generated.obj
 0001:00016f50       ?dtor$0@?0??SetAccessor@Nan@@YAXV?$Local@VObjectTemplate@v8@@@v8@@V?$Local@VString@v8@@@3@P6AX1AEBV?$PropertyCallbackInfo@VValue@v8@@@1@@ZP6AX1V?$Local@VValue@v8@@@3@AEBV?$PropertyCallbackInfo@X@1@@Z4W4AccessControl@3@W4PropertyAttribute@3@V?$Local@VAccessorSignature@v8@@@3@@Z@4HA 0000000180017f50 f   _nodert_generated.obj
 0001:00016f60       ?dtor$0@?0??SetIndexedPropertyHandler@Nan@@YAXV?$Local@VObjectTemplate@v8@@@v8@@P6AXIAEBV?$PropertyCallbackInfo@VValue@v8@@@1@@ZP6AXIV?$Local@VValue@v8@@@3@1@ZP6AXIAEBV?$PropertyCallbackInfo@VInteger@v8@@@1@@ZP6AXIAEBV?$PropertyCallbackInfo@VBoolean@v8@@@1@@ZP6AXAEBV?$PropertyCallbackInfo@VArray@v8@@@1@@Z3@Z@4HA 0000000180017f60 f   _nodert_generated.obj
 0001:00016f60       ?dtor$0@?0??WrapRadio@Radios@Devices@Windows@NodeRT@@YA?AV?$Local@VValue@v8@@@v8@@PE$AAVRadio@123@@Z@4HA 0000000180017f60 f   _nodert_generated.obj
 0001:00016f70       ?dtor$0@?0??_Callback@_PPLTaskChore@_DefaultPPLTaskScheduler@details@Concurrency@@CAXPEAX@Z@4HA 0000000180017f70 f   _nodert_generated.obj
 0001:00016f80       ?dtor$0@?0??_NoCallOnDefaultTask_ErrorImpl@_DefaultTaskHelper@details@Concurrency@@SAXXZ@4HA 0000000180017f80 f   _nodert_generated.obj
 0001:00016f80       ?dtor$0@?0??_Wait@_Task_impl_base@details@Concurrency@@QEAA?AW4task_group_status@3@XZ@4HA 0000000180017f80 f   _nodert_generated.obj
 0001:00016f80       ?dtor$1@?0??schedule@_DefaultPPLTaskScheduler@details@Concurrency@@UEAAXP6AXPEAX@Z0@Z@4HA 0000000180017f80 f   _nodert_generated.obj
 0001:00016f90       ?dtor$0@?0??_RegisterCallback@_CancellationTokenState@details@Concurrency@@QEAAXPEAV_CancellationTokenRegistration@23@@Z@4HA 0000000180017f90 f   _nodert_generated.obj
 0001:00016fa0       ?dtor$0@?0??_DeregisterCallback@_CancellationTokenState@details@Concurrency@@QEAAXPEAV_CancellationTokenRegistration@23@@Z@4HA 0000000180017fa0 f   _nodert_generated.obj
 0001:00016fac       ?dtor$1@?0??_DeregisterCallback@_CancellationTokenState@details@Concurrency@@QEAAXPEAV_CancellationTokenRegistration@23@@Z@4HA 0000000180017fac f   _nodert_generated.obj
 0001:00016fc0       ?dtor$1@?0??_Do_call@?$_Func_impl@V<lambda_f25c37099038263181b5186a3fa41b37>@@V?$allocator@H@std@@X$$V@std@@EEAAXXZ@4HA 0000000180017fc0 f   _nodert_generated.obj
 0001:00016fc0       ?dtor$1@?0??_ScheduleTask@_Task_impl_base@details@Concurrency@@QEAAXPEAU_TaskProcHandle@23@W4_TaskInliningMode@23@@Z@4HA 0000000180017fc0 f   _nodert_generated.obj
 0001:00016fc0       ?dtor$0@?0??_RunChoreBridge@_TaskProcHandle@details@Concurrency@@SAXPEAX@Z@4HA 0000000180017fc0 f   _nodert_generated.obj
 0001:00016fd0       ?dtor$0@?0??WaitUntilStateChangedTo@_TaskCollectionBaseImpl@details@Concurrency@@IEAAXW4_TaskCollectionState@123@@Z@4HA 0000000180017fd0 f   _nodert_generated.obj
 0001:00016fe0       ?dtor$1@?0??_RunTask@_TaskCollectionBaseImpl@details@Concurrency@@SAXP6AXPEAX@Z0W4_TaskInliningMode@23@@Z@4HA 0000000180017fe0 f   _nodert_generated.obj
 0001:00016fec       ?dtor$0@?0??_RunTask@_TaskCollectionBaseImpl@details@Concurrency@@SAXP6AXPEAX@Z0W4_TaskInliningMode@23@@Z@4HA 0000000180017fec f   _nodert_generated.obj
 0001:00017000       ?dtor$0@?0??_Bridge@_TaskProcThunk@details@Concurrency@@SAXPEAX@Z@4HA 0000000180018000 f   _nodert_generated.obj
 0001:00017010       ?dtor$0@?0??_CaptureCurrent@_ContextCallback@details@Concurrency@@SA?AV123@XZ@4HA 0000000180018010 f   _nodert_generated.obj
 0001:00017040       ?dtor$0@?0??_CallInContext@_ContextCallback@details@Concurrency@@QEBAXV?$function@$$A6AXXZ@std@@@Z@4HA 0000000180018040 f   _nodert_generated.obj
 0001:0001704c       ?dtor$2@?0??_CallInContext@_ContextCallback@details@Concurrency@@QEBAXV?$function@$$A6AXXZ@std@@@Z@4HA 000000018001804c f   _nodert_generated.obj
 0001:00017060       ?dtor$1@?0??_RethrowUserException@_ExceptionHolder@details@Concurrency@@QEAAXXZ@4HA 0000000180018060 f   _nodert_generated.obj
 0001:00017070       ?dtor$1@?0???0task_options@Concurrency@@QEAA@XZ@4HA 0000000180018070 f   _nodert_generated.obj
 0001:0001707c       ?dtor$2@?0???0task_options@Concurrency@@QEAA@XZ@4HA 000000018001807c f   _nodert_generated.obj
 0001:00017090       ?dtor$0@?0???0_ThenImplOptions@details@Concurrency@@QEAA@PEAV_CancellationTokenState@12@PEBVtask_continuation_context@2@Uscheduler_ptr@2@V_TaskCreationCallstack@12@W4_TaskInliningMode@12@@Z@4HA 0000000180018090 f   _nodert_generated.obj
 0001:0001709c       ?dtor$1@?0???0_ThenImplOptions@details@Concurrency@@QEAA@PEAV_CancellationTokenState@12@PEBVtask_continuation_context@2@Uscheduler_ptr@2@V_TaskCreationCallstack@12@W4_TaskInliningMode@12@@Z@4HA 000000018001809c f   _nodert_generated.obj
 0001:000170a8       ?dtor$2@?0???0_ThenImplOptions@details@Concurrency@@QEAA@PEAV_CancellationTokenState@12@PEBVtask_continuation_context@2@Uscheduler_ptr@2@V_TaskCreationCallstack@12@W4_TaskInliningMode@12@@Z@4HA 00000001800180a8 f   _nodert_generated.obj
 0001:000170c0       ?dtor$3@?0??_CreateOptions@_ThenImplOptions@details@Concurrency@@SA?AU123@AEBVtask_options@3@AEBVtask_continuation_context@3@AEBUscheduler_ptr@3@@Z@4HA 00000001800180c0 f   _nodert_generated.obj
 0001:000170cc       ?dtor$5@?0??_CreateOptions@_ThenImplOptions@details@Concurrency@@SA?AU123@AEBVtask_options@3@AEBVtask_continuation_context@3@AEBUscheduler_ptr@3@@Z@4HA 00000001800180cc f   _nodert_generated.obj
 0001:000170d8       ?dtor$8@?0??_CreateOptions@_ThenImplOptions@details@Concurrency@@SA?AU123@AEBVtask_options@3@AEBVtask_continuation_context@3@AEBUscheduler_ptr@3@@Z@4HA 00000001800180d8 f   _nodert_generated.obj
 0001:000170f0       ?dtor$0@?0??_CancelWithException@_Task_impl_base@details@Concurrency@@QEAA_NAEBVexception_ptr@std@@@Z@4HA 00000001800180f0 f   _nodert_generated.obj
 0001:000170fc       ?dtor$1@?0??_CancelWithException@_Task_impl_base@details@Concurrency@@QEAA_NAEBVexception_ptr@std@@@Z@4HA 00000001800180fc f   _nodert_generated.obj
 0001:00017110       ?dtor$0@?0??_RegisterCancellation@_Task_impl_base@details@Concurrency@@QEAAXV?$weak_ptr@U_Task_impl_base@details@Concurrency@@@std@@@Z@4HA 0000000180018110 f   _nodert_generated.obj
 0001:0001711c       ?dtor$1@?0??_RegisterCancellation@_Task_impl_base@details@Concurrency@@QEAAXV?$weak_ptr@U_Task_impl_base@details@Concurrency@@@std@@@Z@4HA 000000018001811c f   _nodert_generated.obj
 0001:00017130       ?dtor$0@?0??_RunTaskContinuations@_Task_impl_base@details@Concurrency@@QEAAXXZ@4HA 0000000180018130 f   _nodert_generated.obj
 0001:00017130       ?dtor$0@?0???R<lambda_be3e5d9dce35d2c8dbfa8485373731d5>@@QEBAXXZ@4HA 0000000180018130 f   _nodert_generated.obj
 0001:00017140       ?dtor$0@?0??_ScheduleContinuationTask@_Task_impl_base@details@Concurrency@@QEAAXPEAU_ContinuationTaskHandleBase@23@@Z@4HA 0000000180018140 f   _nodert_generated.obj
 0001:0001714c       ?dtor$2@?0??_ScheduleContinuationTask@_Task_impl_base@details@Concurrency@@QEAAXPEAU_ContinuationTaskHandleBase@23@@Z@4HA 000000018001814c f   _nodert_generated.obj
 0001:00017169       ?dtor$4@?0??_ScheduleContinuationTask@_Task_impl_base@details@Concurrency@@QEAAXPEAU_ContinuationTaskHandleBase@23@@Z@4HA 0000000180018169 f   _nodert_generated.obj
 0001:00017180       ?dtor$0@?0???R<lambda_ee2800ccd2b011420c5de0c63356449b>@@QEBAXXZ@4HA 0000000180018180 f   _nodert_generated.obj
 0001:0001718c       ?dtor$7@?0???R<lambda_ee2800ccd2b011420c5de0c63356449b>@@QEBAXXZ@4HA 000000018001818c f   _nodert_generated.obj
 0001:000171a0       ?dtor$1@?0??_ScheduleContinuation@_Task_impl_base@details@Concurrency@@QEAAXPEAU_ContinuationTaskHandleBase@23@@Z@4HA 00000001800181a0 f   _nodert_generated.obj
 0001:000171ac       ?dtor$2@?0??_ScheduleContinuation@_Task_impl_base@details@Concurrency@@QEAAXPEAU_ContinuationTaskHandleBase@23@@Z@4HA 00000001800181ac f   _nodert_generated.obj
 0001:000171b8       ?dtor$3@?0??_ScheduleContinuation@_Task_impl_base@details@Concurrency@@QEAAXPEAU_ContinuationTaskHandleBase@23@@Z@4HA 00000001800181b8 f   _nodert_generated.obj
 0001:000171d0       ?dtor$0@?0??_CreateImpl@?$task@X@Concurrency@@QEAAXPEAV_CancellationTokenState@details@2@Uscheduler_ptr@2@@Z@4HA 00000001800181d0 f   _nodert_generated.obj
 0001:000171e0       ?dtor$0@?0??RunOnMain@Async@NodeUtils@@SAXV?$function@$$A6AXXZ@std@@@Z@4HA 00000001800181e0 f   _nodert_generated.obj
 0001:000171ec       ?dtor$3@?0??RunOnMain@Async@NodeUtils@@SAXV?$function@$$A6AXXZ@std@@@Z@4HA 00000001800181ec f   _nodert_generated.obj
 0001:000171f8       ?dtor$4@?0??RunOnMain@Async@NodeUtils@@SAXV?$function@$$A6AXXZ@std@@@Z@4HA 00000001800181f8 f   _nodert_generated.obj
 0001:00017210       ?dtor$0@?0??RunCallbackOnMain@Async@NodeUtils@@SAXPEAUuv_async_s@@V?$function@$$A6AXV?$function@$$A6AXHPEAV?$Local@VValue@v8@@@v8@@@Z@std@@@Z@std@@@Z@4HA 0000000180018210 f   _nodert_generated.obj
 0001:0001721c       ?dtor$1@?0??RunCallbackOnMain@Async@NodeUtils@@SAXPEAUuv_async_s@@V?$function@$$A6AXV?$function@$$A6AXHPEAV?$Local@VValue@v8@@@v8@@@Z@std@@@Z@std@@@Z@4HA 000000018001821c f   _nodert_generated.obj
 0001:00017228       ?dtor$8@?0??RunCallbackOnMain@Async@NodeUtils@@SAXPEAUuv_async_s@@V?$function@$$A6AXV?$function@$$A6AXHPEAV?$Local@VValue@v8@@@v8@@@Z@std@@@Z@std@@@Z@4HA 0000000180018228 f   _nodert_generated.obj
 0001:00017234       ?dtor$10@?0??RunCallbackOnMain@Async@NodeUtils@@SAXPEAUuv_async_s@@V?$function@$$A6AXV?$function@$$A6AXHPEAV?$Local@VValue@v8@@@v8@@@Z@std@@@Z@std@@@Z@4HA 0000000180018234 f   _nodert_generated.obj
 0001:00017240       ?dtor$11@?0??RunCallbackOnMain@Async@NodeUtils@@SAXPEAUuv_async_s@@V?$function@$$A6AXV?$function@$$A6AXHPEAV?$Local@VValue@v8@@@v8@@@Z@std@@@Z@std@@@Z@4HA 0000000180018240 f   _nodert_generated.obj
 0001:0001724c       ?dtor$12@?0??RunCallbackOnMain@Async@NodeUtils@@SAXPEAUuv_async_s@@V?$function@$$A6AXV?$function@$$A6AXHPEAV?$Local@VValue@v8@@@v8@@@Z@std@@@Z@std@@@Z@4HA 000000018001824c f   _nodert_generated.obj
 0001:00017268       ?dtor$13@?0??RunCallbackOnMain@Async@NodeUtils@@SAXPEAUuv_async_s@@V?$function@$$A6AXV?$function@$$A6AXHPEAV?$Local@VValue@v8@@@v8@@@Z@std@@@Z@std@@@Z@4HA 0000000180018268 f   _nodert_generated.obj
 0001:00017274       ?dtor$3@?0??RunCallbackOnMain@Async@NodeUtils@@SAXPEAUuv_async_s@@V?$function@$$A6AXV?$function@$$A6AXHPEAV?$Local@VValue@v8@@@v8@@@Z@std@@@Z@std@@@Z@4HA 0000000180018274 f   _nodert_generated.obj
 0001:00017280       ?dtor$19@?0??RunCallbackOnMain@Async@NodeUtils@@SAXPEAUuv_async_s@@V?$function@$$A6AXV?$function@$$A6AXHPEAV?$Local@VValue@v8@@@v8@@@Z@std@@@Z@std@@@Z@4HA 0000000180018280 f   _nodert_generated.obj
 0001:0001728c       ?dtor$20@?0??RunCallbackOnMain@Async@NodeUtils@@SAXPEAUuv_async_s@@V?$function@$$A6AXV?$function@$$A6AXHPEAV?$Local@VValue@v8@@@v8@@@Z@std@@@Z@std@@@Z@4HA 000000018001828c f   _nodert_generated.obj
 0001:000172a0       ?dtor$0@?0???R<lambda_fc55a96778b695da9907353a9fdacbca>@@QEBAXXZ@4HA 00000001800182a0 f   _nodert_generated.obj
 0001:000172ac       ?dtor$4@?0???R<lambda_fc55a96778b695da9907353a9fdacbca>@@QEBAXXZ@4HA 00000001800182ac f   _nodert_generated.obj
 0001:000172c0       ?dtor$0@?0??CreateCallbackData@Async@NodeUtils@@CA?AV?$Local@VObject@v8@@@v8@@V?$Local@VFunction@v8@@@4@V?$Local@VValue@v8@@@4@@Z@4HA 00000001800182c0 f   _nodert_generated.obj
 0001:000172d0       ?dtor$0@?0??WinRtExceptionToJsError@Utils@NodeRT@@YA?AV?$Local@VValue@v8@@@v8@@PE$AAVException@Platform@@@Z@4HA 00000001800182d0 f   NodeRtUtils.obj
 0001:000172d0       ?dtor$0@?0??InitRadioAccessStatusEnum@Radios@Devices@Windows@NodeRT@@YAXV?$Local@VObject@v8@@@v8@@@Z@4HA 00000001800182d0 f   _nodert_generated.obj
 0001:000172d0       ?dtor$0@?0??Init@?$VectorViewWrapper@PE$AAVRadio@Radios@Devices@Windows@@@Collections@NodeRT@@SAXXZ@4HA 00000001800182d0 f   _nodert_generated.obj
 0001:000172d0       ?dtor$0@?0??InitRadioStateEnum@Radios@Devices@Windows@NodeRT@@YAXV?$Local@VObject@v8@@@v8@@@Z@4HA 00000001800182d0 f   _nodert_generated.obj
 0001:000172d0       ?dtor$0@?0??InitRadioKindEnum@Radios@Devices@Windows@NodeRT@@YAXV?$Local@VObject@v8@@@v8@@@Z@4HA 00000001800182d0 f   _nodert_generated.obj
 0001:000172d0       ?dtor$0@?0??Init@?$IteratorWrapper@PE$AAVRadio@Radios@Devices@Windows@@@Collections@NodeRT@@SAXXZ@4HA 00000001800182d0 f   _nodert_generated.obj
 0001:000172d0       ?dtor$0@?0??Init@Radio@Radios@Devices@Windows@NodeRT@@SAXV?$Local@VObject@v8@@@v8@@@Z@4HA 00000001800182d0 f   _nodert_generated.obj
 0001:000172e0       ?dtor$0@?0??New@Radio@Radios@Devices@Windows@NodeRT@@CAXAEBV?$FunctionCallbackInfo@VValue@v8@@@Nan@@@Z@4HA 00000001800182e0 f   _nodert_generated.obj
 0001:000172ec       ?dtor$2@?0??New@Radio@Radios@Devices@Windows@NodeRT@@CAXAEBV?$FunctionCallbackInfo@VValue@v8@@@Nan@@@Z@4HA 00000001800182ec f   _nodert_generated.obj
 0001:000172f8       ?dtor$3@?0??New@Radio@Radios@Devices@Windows@NodeRT@@CAXAEBV?$FunctionCallbackInfo@VValue@v8@@@Nan@@@Z@4HA 00000001800182f8 f   _nodert_generated.obj
 0001:00017304       ?dtor$4@?0??New@Radio@Radios@Devices@Windows@NodeRT@@CAXAEBV?$FunctionCallbackInfo@VValue@v8@@@Nan@@@Z@4HA 0000000180018304 f   _nodert_generated.obj
 0001:00017310       ?dtor$5@?0??New@Radio@Radios@Devices@Windows@NodeRT@@CAXAEBV?$FunctionCallbackInfo@VValue@v8@@@Nan@@@Z@4HA 0000000180018310 f   _nodert_generated.obj
 0001:0001731c       ?catch$22@?0??New@Radio@Radios@Devices@Windows@NodeRT@@CAXAEBV?$FunctionCallbackInfo@VValue@v8@@@Nan@@@Z@4HA 000000018001831c f   _nodert_generated.obj
 0001:00017329       __catch$?New@Radio@Radios@Devices@Windows@NodeRT@@CAXAEBV?$FunctionCallbackInfo@VValue@v8@@@Nan@@@Z$0 0000000180018329 f   _nodert_generated.obj
 0001:00017341       ?dtor$6@?0??New@Radio@Radios@Devices@Windows@NodeRT@@CAXAEBV?$FunctionCallbackInfo@VValue@v8@@@Nan@@@Z@4HA 0000000180018341 f   _nodert_generated.obj
 0001:00017361       ?dtor$19@?0??New@Radio@Radios@Devices@Windows@NodeRT@@CAXAEBV?$FunctionCallbackInfo@VValue@v8@@@Nan@@@Z@4HA 0000000180018361 f   _nodert_generated.obj
 0001:0001736d       ?dtor$20@?0??New@Radio@Radios@Devices@Windows@NodeRT@@CAXAEBV?$FunctionCallbackInfo@VValue@v8@@@Nan@@@Z@4HA 000000018001836d f   _nodert_generated.obj
 0001:00017380       ?dtor$0@?0??CastFrom@Radio@Radios@Devices@Windows@NodeRT@@CAXAEBV?$FunctionCallbackInfo@VValue@v8@@@Nan@@@Z@4HA 0000000180018380 f   _nodert_generated.obj
 0001:0001738c       ?dtor$1@?0??CastFrom@Radio@Radios@Devices@Windows@NodeRT@@CAXAEBV?$FunctionCallbackInfo@VValue@v8@@@Nan@@@Z@4HA 000000018001838c f   _nodert_generated.obj
 0001:00017398       ?dtor$2@?0??CastFrom@Radio@Radios@Devices@Windows@NodeRT@@CAXAEBV?$FunctionCallbackInfo@VValue@v8@@@Nan@@@Z@4HA 0000000180018398 f   _nodert_generated.obj
 0001:000173a4       ?dtor$3@?0??CastFrom@Radio@Radios@Devices@Windows@NodeRT@@CAXAEBV?$FunctionCallbackInfo@VValue@v8@@@Nan@@@Z@4HA 00000001800183a4 f   _nodert_generated.obj
 0001:000173b0       ?catch$8@?0??CastFrom@Radio@Radios@Devices@Windows@NodeRT@@CAXAEBV?$FunctionCallbackInfo@VValue@v8@@@Nan@@@Z@4HA 00000001800183b0 f   _nodert_generated.obj
 0001:000173bd       __catch$?CastFrom@Radio@Radios@Devices@Windows@NodeRT@@CAXAEBV?$FunctionCallbackInfo@VValue@v8@@@Nan@@@Z$0 00000001800183bd f   _nodert_generated.obj
 0001:000173e0       ?dtor$0@?0??SetStateAsync@Radio@Radios@Devices@Windows@NodeRT@@CAXAEBV?$FunctionCallbackInfo@VValue@v8@@@Nan@@@Z@4HA 00000001800183e0 f   _nodert_generated.obj
 0001:000173ec       ?dtor$1@?0??SetStateAsync@Radio@Radios@Devices@Windows@NodeRT@@CAXAEBV?$FunctionCallbackInfo@VValue@v8@@@Nan@@@Z@4HA 00000001800183ec f   _nodert_generated.obj
 0001:000173f8       ?dtor$2@?0??SetStateAsync@Radio@Radios@Devices@Windows@NodeRT@@CAXAEBV?$FunctionCallbackInfo@VValue@v8@@@Nan@@@Z@4HA 00000001800183f8 f   _nodert_generated.obj
 0001:00017404       ?catch$16@?0??SetStateAsync@Radio@Radios@Devices@Windows@NodeRT@@CAXAEBV?$FunctionCallbackInfo@VValue@v8@@@Nan@@@Z@4HA 0000000180018404 f   _nodert_generated.obj
 0001:00017411       __catch$?SetStateAsync@Radio@Radios@Devices@Windows@NodeRT@@CAXAEBV?$FunctionCallbackInfo@VValue@v8@@@Nan@@@Z$0 0000000180018411 f   _nodert_generated.obj
 0001:0001742c       ?dtor$4@?0??SetStateAsync@Radio@Radios@Devices@Windows@NodeRT@@CAXAEBV?$FunctionCallbackInfo@VValue@v8@@@Nan@@@Z@4HA 000000018001842c f   _nodert_generated.obj
 0001:00017440       ?dtor$0@?0???R<lambda_f62ce569bcbb190725394d954e43b37a>@@QEBAXV?$task@W4RadioAccessStatus@Radios@Devices@Windows@@@Concurrency@@@Z@4HA 0000000180018440 f   _nodert_generated.obj
 0001:0001744c       ?dtor$4@?0???R<lambda_f62ce569bcbb190725394d954e43b37a>@@QEBAXV?$task@W4RadioAccessStatus@Radios@Devices@Windows@@@Concurrency@@@Z@4HA 000000018001844c f   _nodert_generated.obj
 0001:00017458       ?catch$12@?0???R<lambda_f62ce569bcbb190725394d954e43b37a>@@QEBAXV?$task@W4RadioAccessStatus@Radios@Devices@Windows@@@Concurrency@@@Z@4HA 0000000180018458 f   _nodert_generated.obj
 0001:00017466       __catch$??R<lambda_f62ce569bcbb190725394d954e43b37a>@@QEBAXV?$task@W4RadioAccessStatus@Radios@Devices@Windows@@@Concurrency@@@Z$0 0000000180018466 f   _nodert_generated.obj
 0001:000174e0       ?dtor$0@?0???R<lambda_bd8db8e132653ed2b09381d83d27b969>@@QEBAXV?$function@$$A6AXHPEAV?$Local@VValue@v8@@@v8@@@Z@std@@@Z@4HA 00000001800184e0 f   _nodert_generated.obj
 0001:000174e0       ?dtor$0@?0???R<lambda_937a019cbae5299c9ee089aacd8953b7>@@QEBAXV?$function@$$A6AXHPEAV?$Local@VValue@v8@@@v8@@@Z@std@@@Z@4HA 00000001800184e0 f   _nodert_generated.obj
 0001:000174e0       ?dtor$0@?0???R<lambda_13c093ceb3cb7088042cb26732856e67>@@QEBAXV?$function@$$A6AXHPEAV?$Local@VValue@v8@@@v8@@@Z@std@@@Z@4HA 00000001800184e0 f   _nodert_generated.obj
 0001:000174ec       ?dtor$1@?0???R<lambda_937a019cbae5299c9ee089aacd8953b7>@@QEBAXV?$function@$$A6AXHPEAV?$Local@VValue@v8@@@v8@@@Z@std@@@Z@4HA 00000001800184ec f   _nodert_generated.obj
 0001:000174ec       ?dtor$1@?0???R<lambda_13c093ceb3cb7088042cb26732856e67>@@QEBAXV?$function@$$A6AXHPEAV?$Local@VValue@v8@@@v8@@@Z@std@@@Z@4HA 00000001800184ec f   _nodert_generated.obj
 0001:000174ec       ?dtor$1@?0???R<lambda_bd8db8e132653ed2b09381d83d27b969>@@QEBAXV?$function@$$A6AXHPEAV?$Local@VValue@v8@@@v8@@@Z@std@@@Z@4HA 00000001800184ec f   _nodert_generated.obj
 0001:00017500       ?dtor$0@?0???R<lambda_be5e2ae45d9afcdad4d6af170ce6b1a9>@@QEBAXV?$function@$$A6AXHPEAV?$Local@VValue@v8@@@v8@@@Z@std@@@Z@4HA 0000000180018500 f   _nodert_generated.obj
 0001:00017500       ?dtor$0@?0???R<lambda_6e721a9cc44c44771ffaa71ba9f88df1>@@QEBAXV?$function@$$A6AXHPEAV?$Local@VValue@v8@@@v8@@@Z@std@@@Z@4HA 0000000180018500 f   _nodert_generated.obj
 0001:00017500       ?dtor$0@?0???R<lambda_923cdb2d6b6e10951a75b3af8d001269>@@QEBAXV?$function@$$A6AXHPEAV?$Local@VValue@v8@@@v8@@@Z@std@@@Z@4HA 0000000180018500 f   _nodert_generated.obj
 0001:00017500       ?dtor$0@?0???R<lambda_1410bf25c1f3e34acba1e87129c0b837>@@QEBAXV?$function@$$A6AXHPEAV?$Local@VValue@v8@@@v8@@@Z@std@@@Z@4HA 0000000180018500 f   _nodert_generated.obj
 0001:00017510       ?dtor$0@?0??GetRadiosAsync@Radio@Radios@Devices@Windows@NodeRT@@CAXAEBV?$FunctionCallbackInfo@VValue@v8@@@Nan@@@Z@4HA 0000000180018510 f   _nodert_generated.obj
 0001:0001751c       ?dtor$1@?0??GetRadiosAsync@Radio@Radios@Devices@Windows@NodeRT@@CAXAEBV?$FunctionCallbackInfo@VValue@v8@@@Nan@@@Z@4HA 000000018001851c f   _nodert_generated.obj
 0001:00017528       ?dtor$2@?0??GetRadiosAsync@Radio@Radios@Devices@Windows@NodeRT@@CAXAEBV?$FunctionCallbackInfo@VValue@v8@@@Nan@@@Z@4HA 0000000180018528 f   _nodert_generated.obj
 0001:00017534       ?catch$14@?0??GetRadiosAsync@Radio@Radios@Devices@Windows@NodeRT@@CAXAEBV?$FunctionCallbackInfo@VValue@v8@@@Nan@@@Z@4HA 0000000180018534 f   _nodert_generated.obj
 0001:00017541       __catch$?GetRadiosAsync@Radio@Radios@Devices@Windows@NodeRT@@CAXAEBV?$FunctionCallbackInfo@VValue@v8@@@Nan@@@Z$0 0000000180018541 f   _nodert_generated.obj
 0001:00017559       ?dtor$4@?0??GetRadiosAsync@Radio@Radios@Devices@Windows@NodeRT@@CAXAEBV?$FunctionCallbackInfo@VValue@v8@@@Nan@@@Z@4HA 0000000180018559 f   _nodert_generated.obj
 0001:00017570       ?dtor$0@?0???R<lambda_6b3d546cb33cb2be9b0a401ff7fba40f>@@QEBAXV?$task@PE$AAU?$IVectorView@PE$AAVRadio@Radios@Devices@Windows@@@Collections@Foundation@Windows@@@Concurrency@@@Z@4HA 0000000180018570 f   _nodert_generated.obj
 0001:0001757c       ?dtor$1@?0???R<lambda_6b3d546cb33cb2be9b0a401ff7fba40f>@@QEBAXV?$task@PE$AAU?$IVectorView@PE$AAVRadio@Radios@Devices@Windows@@@Collections@Foundation@Windows@@@Concurrency@@@Z@4HA 000000018001857c f   _nodert_generated.obj
 0001:00017588       ?dtor$2@?0???R<lambda_6b3d546cb33cb2be9b0a401ff7fba40f>@@QEBAXV?$task@PE$AAU?$IVectorView@PE$AAVRadio@Radios@Devices@Windows@@@Collections@Foundation@Windows@@@Concurrency@@@Z@4HA 0000000180018588 f   _nodert_generated.obj
 0001:00017594       ?catch$16@?0???R<lambda_6b3d546cb33cb2be9b0a401ff7fba40f>@@QEBAXV?$task@PE$AAU?$IVectorView@PE$AAVRadio@Radios@Devices@Windows@@@Collections@Foundation@Windows@@@Concurrency@@@Z@4HA 0000000180018594 f   _nodert_generated.obj
 0001:000175a2       __catch$??R<lambda_6b3d546cb33cb2be9b0a401ff7fba40f>@@QEBAXV?$task@PE$AAU?$IVectorView@PE$AAVRadio@Radios@Devices@Windows@@@Collections@Foundation@Windows@@@Concurrency@@@Z$0 00000001800185a2 f   _nodert_generated.obj
 0001:00017620       ?dtor$0@?0???R<lambda_332ba2b9435369ab76e287351a81320b>@@QEBAXV?$function@$$A6AXHPEAV?$Local@VValue@v8@@@v8@@@Z@std@@@Z@4HA 0000000180018620 f   _nodert_generated.obj
 0001:0001762c       ?dtor$1@?0???R<lambda_332ba2b9435369ab76e287351a81320b>@@QEBAXV?$function@$$A6AXHPEAV?$Local@VValue@v8@@@v8@@@Z@std@@@Z@4HA 000000018001862c f   _nodert_generated.obj
 0001:00017638       ?dtor$2@?0???R<lambda_332ba2b9435369ab76e287351a81320b>@@QEBAXV?$function@$$A6AXHPEAV?$Local@VValue@v8@@@v8@@@Z@std@@@Z@4HA 0000000180018638 f   _nodert_generated.obj
 0001:00017644       ?dtor$3@?0???R<lambda_332ba2b9435369ab76e287351a81320b>@@QEBAXV?$function@$$A6AXHPEAV?$Local@VValue@v8@@@v8@@@Z@std@@@Z@4HA 0000000180018644 f   _nodert_generated.obj
 0001:00017650       ?dtor$4@?0???R<lambda_332ba2b9435369ab76e287351a81320b>@@QEBAXV?$function@$$A6AXHPEAV?$Local@VValue@v8@@@v8@@@Z@std@@@Z@4HA 0000000180018650 f   _nodert_generated.obj
 0001:00017660       ?dtor$0@?0??FromIdAsync@Radio@Radios@Devices@Windows@NodeRT@@CAXAEBV?$FunctionCallbackInfo@VValue@v8@@@Nan@@@Z@4HA 0000000180018660 f   _nodert_generated.obj
 0001:0001766c       ?dtor$1@?0??FromIdAsync@Radio@Radios@Devices@Windows@NodeRT@@CAXAEBV?$FunctionCallbackInfo@VValue@v8@@@Nan@@@Z@4HA 000000018001866c f   _nodert_generated.obj
 0001:00017678       ?dtor$2@?0??FromIdAsync@Radio@Radios@Devices@Windows@NodeRT@@CAXAEBV?$FunctionCallbackInfo@VValue@v8@@@Nan@@@Z@4HA 0000000180018678 f   _nodert_generated.obj
 0001:0001769b       ?dtor$3@?0??FromIdAsync@Radio@Radios@Devices@Windows@NodeRT@@CAXAEBV?$FunctionCallbackInfo@VValue@v8@@@Nan@@@Z@4HA 000000018001869b f   _nodert_generated.obj
 0001:000176a9       ?dtor$4@?0??FromIdAsync@Radio@Radios@Devices@Windows@NodeRT@@CAXAEBV?$FunctionCallbackInfo@VValue@v8@@@Nan@@@Z@4HA 00000001800186a9 f   _nodert_generated.obj
 0001:000176b5       ?dtor$5@?0??FromIdAsync@Radio@Radios@Devices@Windows@NodeRT@@CAXAEBV?$FunctionCallbackInfo@VValue@v8@@@Nan@@@Z@4HA 00000001800186b5 f   _nodert_generated.obj
 0001:000176c1       ?dtor$6@?0??FromIdAsync@Radio@Radios@Devices@Windows@NodeRT@@CAXAEBV?$FunctionCallbackInfo@VValue@v8@@@Nan@@@Z@4HA 00000001800186c1 f   _nodert_generated.obj
 0001:000176cd       ?catch$18@?0??FromIdAsync@Radio@Radios@Devices@Windows@NodeRT@@CAXAEBV?$FunctionCallbackInfo@VValue@v8@@@Nan@@@Z@4HA 00000001800186cd f   _nodert_generated.obj
 0001:000176da       __catch$?FromIdAsync@Radio@Radios@Devices@Windows@NodeRT@@CAXAEBV?$FunctionCallbackInfo@VValue@v8@@@Nan@@@Z$0 00000001800186da f   _nodert_generated.obj
 0001:000176f2       ?dtor$8@?0??FromIdAsync@Radio@Radios@Devices@Windows@NodeRT@@CAXAEBV?$FunctionCallbackInfo@VValue@v8@@@Nan@@@Z@4HA 00000001800186f2 f   _nodert_generated.obj
 0001:00017700       ?dtor$0@?0???R<lambda_ae69dad4f0eec31d1194edef18f14e48>@@QEBAXV?$task@PE$AAVRadio@Radios@Devices@Windows@@@Concurrency@@@Z@4HA 0000000180018700 f   _nodert_generated.obj
 0001:0001770c       ?dtor$1@?0???R<lambda_ae69dad4f0eec31d1194edef18f14e48>@@QEBAXV?$task@PE$AAVRadio@Radios@Devices@Windows@@@Concurrency@@@Z@4HA 000000018001870c f   _nodert_generated.obj
 0001:00017718       ?dtor$2@?0???R<lambda_ae69dad4f0eec31d1194edef18f14e48>@@QEBAXV?$task@PE$AAVRadio@Radios@Devices@Windows@@@Concurrency@@@Z@4HA 0000000180018718 f   _nodert_generated.obj
 0001:00017724       ?catch$16@?0???R<lambda_ae69dad4f0eec31d1194edef18f14e48>@@QEBAXV?$task@PE$AAVRadio@Radios@Devices@Windows@@@Concurrency@@@Z@4HA 0000000180018724 f   _nodert_generated.obj
 0001:00017732       __catch$??R<lambda_ae69dad4f0eec31d1194edef18f14e48>@@QEBAXV?$task@PE$AAVRadio@Radios@Devices@Windows@@@Concurrency@@@Z$0 0000000180018732 f   _nodert_generated.obj
 0001:000177b0       ?dtor$0@?0??RequestAccessAsync@Radio@Radios@Devices@Windows@NodeRT@@CAXAEBV?$FunctionCallbackInfo@VValue@v8@@@Nan@@@Z@4HA 00000001800187b0 f   _nodert_generated.obj
 0001:000177bc       ?dtor$1@?0??RequestAccessAsync@Radio@Radios@Devices@Windows@NodeRT@@CAXAEBV?$FunctionCallbackInfo@VValue@v8@@@Nan@@@Z@4HA 00000001800187bc f   _nodert_generated.obj
 0001:000177c8       ?dtor$2@?0??RequestAccessAsync@Radio@Radios@Devices@Windows@NodeRT@@CAXAEBV?$FunctionCallbackInfo@VValue@v8@@@Nan@@@Z@4HA 00000001800187c8 f   _nodert_generated.obj
 0001:000177d4       ?catch$14@?0??RequestAccessAsync@Radio@Radios@Devices@Windows@NodeRT@@CAXAEBV?$FunctionCallbackInfo@VValue@v8@@@Nan@@@Z@4HA 00000001800187d4 f   _nodert_generated.obj
 0001:000177e1       __catch$?RequestAccessAsync@Radio@Radios@Devices@Windows@NodeRT@@CAXAEBV?$FunctionCallbackInfo@VValue@v8@@@Nan@@@Z$0 00000001800187e1 f   _nodert_generated.obj
 0001:000177f9       ?dtor$4@?0??RequestAccessAsync@Radio@Radios@Devices@Windows@NodeRT@@CAXAEBV?$FunctionCallbackInfo@VValue@v8@@@Nan@@@Z@4HA 00000001800187f9 f   _nodert_generated.obj
 0001:00017810       ?dtor$0@?0???R<lambda_84fe49f24ae8de4bd96cfe7e2e397527>@@QEBAXV?$task@W4RadioAccessStatus@Radios@Devices@Windows@@@Concurrency@@@Z@4HA 0000000180018810 f   _nodert_generated.obj
 0001:0001781c       ?dtor$4@?0???R<lambda_84fe49f24ae8de4bd96cfe7e2e397527>@@QEBAXV?$task@W4RadioAccessStatus@Radios@Devices@Windows@@@Concurrency@@@Z@4HA 000000018001881c f   _nodert_generated.obj
 0001:00017828       ?catch$12@?0???R<lambda_84fe49f24ae8de4bd96cfe7e2e397527>@@QEBAXV?$task@W4RadioAccessStatus@Radios@Devices@Windows@@@Concurrency@@@Z@4HA 0000000180018828 f   _nodert_generated.obj
 0001:00017836       __catch$??R<lambda_84fe49f24ae8de4bd96cfe7e2e397527>@@QEBAXV?$task@W4RadioAccessStatus@Radios@Devices@Windows@@@Concurrency@@@Z$0 0000000180018836 f   _nodert_generated.obj
 0001:000178b0       ?dtor$0@?0??GetDeviceSelector@Radio@Radios@Devices@Windows@NodeRT@@CAXAEBV?$FunctionCallbackInfo@VValue@v8@@@Nan@@@Z@4HA 00000001800188b0 f   _nodert_generated.obj
 0001:000178bc       ?dtor$1@?0??GetDeviceSelector@Radio@Radios@Devices@Windows@NodeRT@@CAXAEBV?$FunctionCallbackInfo@VValue@v8@@@Nan@@@Z@4HA 00000001800188bc f   _nodert_generated.obj
 0001:000178c8       ?dtor$2@?0??GetDeviceSelector@Radio@Radios@Devices@Windows@NodeRT@@CAXAEBV?$FunctionCallbackInfo@VValue@v8@@@Nan@@@Z@4HA 00000001800188c8 f   _nodert_generated.obj
 0001:000178d4       ?catch$8@?0??GetDeviceSelector@Radio@Radios@Devices@Windows@NodeRT@@CAXAEBV?$FunctionCallbackInfo@VValue@v8@@@Nan@@@Z@4HA 00000001800188d4 f   _nodert_generated.obj
 0001:000178e1       __catch$?GetDeviceSelector@Radio@Radios@Devices@Windows@NodeRT@@CAXAEBV?$FunctionCallbackInfo@VValue@v8@@@Nan@@@Z$0 00000001800188e1 f   _nodert_generated.obj
 0001:00017900       ?dtor$0@?0??KindGetter@Radio@Radios@Devices@Windows@NodeRT@@CAXV?$Local@VString@v8@@@v8@@AEBV?$PropertyCallbackInfo@VValue@v8@@@Nan@@@Z@4HA 0000000180018900 f   _nodert_generated.obj
 0001:0001790c       ?catch$7@?0??KindGetter@Radio@Radios@Devices@Windows@NodeRT@@CAXV?$Local@VString@v8@@@v8@@AEBV?$PropertyCallbackInfo@VValue@v8@@@Nan@@@Z@4HA 000000018001890c f   _nodert_generated.obj
 0001:00017919       __catch$?KindGetter@Radio@Radios@Devices@Windows@NodeRT@@CAXV?$Local@VString@v8@@@v8@@AEBV?$PropertyCallbackInfo@VValue@v8@@@Nan@@@Z$0 0000000180018919 f   _nodert_generated.obj
 0001:00017940       ?dtor$0@?0??NameGetter@Radio@Radios@Devices@Windows@NodeRT@@CAXV?$Local@VString@v8@@@v8@@AEBV?$PropertyCallbackInfo@VValue@v8@@@Nan@@@Z@4HA 0000000180018940 f   _nodert_generated.obj
 0001:0001794c       ?dtor$1@?0??NameGetter@Radio@Radios@Devices@Windows@NodeRT@@CAXV?$Local@VString@v8@@@v8@@AEBV?$PropertyCallbackInfo@VValue@v8@@@Nan@@@Z@4HA 000000018001894c f   _nodert_generated.obj
 0001:00017958       ?dtor$2@?0??NameGetter@Radio@Radios@Devices@Windows@NodeRT@@CAXV?$Local@VString@v8@@@v8@@AEBV?$PropertyCallbackInfo@VValue@v8@@@Nan@@@Z@4HA 0000000180018958 f   _nodert_generated.obj
 0001:00017964       ?catch$8@?0??NameGetter@Radio@Radios@Devices@Windows@NodeRT@@CAXV?$Local@VString@v8@@@v8@@AEBV?$PropertyCallbackInfo@VValue@v8@@@Nan@@@Z@4HA 0000000180018964 f   _nodert_generated.obj
 0001:00017971       __catch$?NameGetter@Radio@Radios@Devices@Windows@NodeRT@@CAXV?$Local@VString@v8@@@v8@@AEBV?$PropertyCallbackInfo@VValue@v8@@@Nan@@@Z$0 0000000180018971 f   _nodert_generated.obj
 0001:00017990       ?dtor$0@?0??StateGetter@Radio@Radios@Devices@Windows@NodeRT@@CAXV?$Local@VString@v8@@@v8@@AEBV?$PropertyCallbackInfo@VValue@v8@@@Nan@@@Z@4HA 0000000180018990 f   _nodert_generated.obj
 0001:0001799c       ?catch$7@?0??StateGetter@Radio@Radios@Devices@Windows@NodeRT@@CAXV?$Local@VString@v8@@@v8@@AEBV?$PropertyCallbackInfo@VValue@v8@@@Nan@@@Z@4HA 000000018001899c f   _nodert_generated.obj
 0001:000179a9       __catch$?StateGetter@Radio@Radios@Devices@Windows@NodeRT@@CAXV?$Local@VString@v8@@@v8@@AEBV?$PropertyCallbackInfo@VValue@v8@@@Nan@@@Z$0 00000001800189a9 f   _nodert_generated.obj
 0001:000179d0       ?dtor$0@?0??AddListener@Radio@Radios@Devices@Windows@NodeRT@@CAXAEBV?$FunctionCallbackInfo@VValue@v8@@@Nan@@@Z@4HA 00000001800189d0 f   _nodert_generated.obj
 0001:000179dc       ?dtor$1@?0??AddListener@Radio@Radios@Devices@Windows@NodeRT@@CAXAEBV?$FunctionCallbackInfo@VValue@v8@@@Nan@@@Z@4HA 00000001800189dc f   _nodert_generated.obj
 0001:000179ea       ?dtor$3@?0??AddListener@Radio@Radios@Devices@Windows@NodeRT@@CAXAEBV?$FunctionCallbackInfo@VValue@v8@@@Nan@@@Z@4HA 00000001800189ea f   _nodert_generated.obj
 0001:000179f6       ?dtor$4@?0??AddListener@Radio@Radios@Devices@Windows@NodeRT@@CAXAEBV?$FunctionCallbackInfo@VValue@v8@@@Nan@@@Z@4HA 00000001800189f6 f   _nodert_generated.obj
 0001:00017a16       ?dtor$6@?0??AddListener@Radio@Radios@Devices@Windows@NodeRT@@CAXAEBV?$FunctionCallbackInfo@VValue@v8@@@Nan@@@Z@4HA 0000000180018a16 f   _nodert_generated.obj
 0001:00017a22       ?catch$20@?0??AddListener@Radio@Radios@Devices@Windows@NodeRT@@CAXAEBV?$FunctionCallbackInfo@VValue@v8@@@Nan@@@Z@4HA 0000000180018a22 f   _nodert_generated.obj
 0001:00017a2f       __catch$?AddListener@Radio@Radios@Devices@Windows@NodeRT@@CAXAEBV?$FunctionCallbackInfo@VValue@v8@@@Nan@@@Z$0 0000000180018a2f f   _nodert_generated.obj
 0001:00017a4a       ?dtor$7@?0??AddListener@Radio@Radios@Devices@Windows@NodeRT@@CAXAEBV?$FunctionCallbackInfo@VValue@v8@@@Nan@@@Z@4HA 0000000180018a4a f   _nodert_generated.obj
 0001:00017a60       ?dtor$0@?0???R<lambda_fa493edce1d787976b8ef791772f712d>@@QEBAXPE$AAVRadio@Radios@Devices@Windows@@PE$AAVObject@Platform@@@Z@4HA 0000000180018a60 f   _nodert_generated.obj
 0001:00017a6c       ?dtor$1@?0???R<lambda_fa493edce1d787976b8ef791772f712d>@@QEBAXPE$AAVRadio@Radios@Devices@Windows@@PE$AAVObject@Platform@@@Z@4HA 0000000180018a6c f   _nodert_generated.obj
 0001:00017a78       ?dtor$4@?0???R<lambda_fa493edce1d787976b8ef791772f712d>@@QEBAXPE$AAVRadio@Radios@Devices@Windows@@PE$AAVObject@Platform@@@Z@4HA 0000000180018a78 f   _nodert_generated.obj
 0001:00017a84       ?dtor$5@?0???R<lambda_fa493edce1d787976b8ef791772f712d>@@QEBAXPE$AAVRadio@Radios@Devices@Windows@@PE$AAVObject@Platform@@@Z@4HA 0000000180018a84 f   _nodert_generated.obj
 0001:00017aa0       ?dtor$0@?0???R<lambda_86719af9e59bcf010981affea63e2ba5>@@QEBAXXZ@4HA 0000000180018aa0 f   _nodert_generated.obj
 0001:00017aac       ?dtor$1@?0???R<lambda_86719af9e59bcf010981affea63e2ba5>@@QEBAXXZ@4HA 0000000180018aac f   _nodert_generated.obj
 0001:00017ac0       ?dtor$0@?0??RemoveListener@Radio@Radios@Devices@Windows@NodeRT@@CAXAEBV?$FunctionCallbackInfo@VValue@v8@@@Nan@@@Z@4HA 0000000180018ac0 f   _nodert_generated.obj
 0001:00017acc       ?dtor$1@?0??RemoveListener@Radio@Radios@Devices@Windows@NodeRT@@CAXAEBV?$FunctionCallbackInfo@VValue@v8@@@Nan@@@Z@4HA 0000000180018acc f   _nodert_generated.obj
 0001:00017ada       ?dtor$2@?0??RemoveListener@Radio@Radios@Devices@Windows@NodeRT@@CAXAEBV?$FunctionCallbackInfo@VValue@v8@@@Nan@@@Z@4HA 0000000180018ada f   _nodert_generated.obj
 0001:00017ae6       ?dtor$10@?0??RemoveListener@Radio@Radios@Devices@Windows@NodeRT@@CAXAEBV?$FunctionCallbackInfo@VValue@v8@@@Nan@@@Z@4HA 0000000180018ae6 f   _nodert_generated.obj
 0001:00017af2       ?catch$16@?0??RemoveListener@Radio@Radios@Devices@Windows@NodeRT@@CAXAEBV?$FunctionCallbackInfo@VValue@v8@@@Nan@@@Z@4HA 0000000180018af2 f   _nodert_generated.obj
 0001:00017aff       __catch$?RemoveListener@Radio@Radios@Devices@Windows@NodeRT@@CAXAEBV?$FunctionCallbackInfo@VValue@v8@@@Nan@@@Z$0 0000000180018aff f   _nodert_generated.obj
 0001:00017b20       ?catch$0@?0??__abi_Windows_Foundation_?$TypedEventHandler@PE$AAVRadio@Radios@Devices@Windows@@PE$AAVObject@Platform@@___abi_IDelegate____abi_Invoke@?Q__abi_IDelegate@?$TypedEventHandler@PE$AAVRadio@Radios@Devices@Windows@@PE$AAVObject@Platform@@@Foundation@Windows@@234@UE$AAAJPE$AAVRadio@Radios@Devices@4@PE$AAVObject@Platform@@@Z@4HA 0000000180018b20 f   _nodert_generated.obj
 0001:00017b2d       __catch$?__abi_Windows_Foundation_?$TypedEventHandler@PE$AAVRadio@Radios@Devices@Windows@@PE$AAVObject@Platform@@___abi_IDelegate____abi_Invoke@?Q__abi_IDelegate@?$TypedEventHandler@PE$AAVRadio@Radios@Devices@Windows@@PE$AAVObject@Platform@@@Foundation@Windows@@234@UE$AAAJPE$AAVRadio@Radios@Devices@4@PE$AAVObject@Platform@@@Z$0 0000000180018b2d f   _nodert_generated.obj
 0001:00017b50       ?dtor$0@?0??RequestAccessAsync@Radio@Radios@Devices@Windows@@SAPE$AAU?$IAsyncOperation@W4RadioAccessStatus@Radios@Devices@Windows@@@Foundation@4@XZ@4HA 0000000180018b50 f   _nodert_generated.obj
 0001:00017b50       ?dtor$0@?0??GetRadiosAsync@Radio@Radios@Devices@Windows@@SAPE$AAU?$IAsyncOperation@PE$AAU?$IVectorView@PE$AAVRadio@Radios@Devices@Windows@@@Collections@Foundation@Windows@@@Foundation@4@XZ@4HA 0000000180018b50 f   _nodert_generated.obj
 0001:00017b5c       ?dtor$3@?0??GetRadiosAsync@Radio@Radios@Devices@Windows@@SAPE$AAU?$IAsyncOperation@PE$AAU?$IVectorView@PE$AAVRadio@Radios@Devices@Windows@@@Collections@Foundation@Windows@@@Foundation@4@XZ@4HA 0000000180018b5c f   _nodert_generated.obj
 0001:00017b5c       ?dtor$3@?0??RequestAccessAsync@Radio@Radios@Devices@Windows@@SAPE$AAU?$IAsyncOperation@W4RadioAccessStatus@Radios@Devices@Windows@@@Foundation@4@XZ@4HA 0000000180018b5c f   _nodert_generated.obj
 0001:00017b68       ?dtor$1@?0??GetRadiosAsync@Radio@Radios@Devices@Windows@@SAPE$AAU?$IAsyncOperation@PE$AAU?$IVectorView@PE$AAVRadio@Radios@Devices@Windows@@@Collections@Foundation@Windows@@@Foundation@4@XZ@4HA 0000000180018b68 f   _nodert_generated.obj
 0001:00017b68       ?dtor$1@?0??RequestAccessAsync@Radio@Radios@Devices@Windows@@SAPE$AAU?$IAsyncOperation@W4RadioAccessStatus@Radios@Devices@Windows@@@Foundation@4@XZ@4HA 0000000180018b68 f   _nodert_generated.obj
 0001:00017b74       ?dtor$2@?0??RequestAccessAsync@Radio@Radios@Devices@Windows@@SAPE$AAU?$IAsyncOperation@W4RadioAccessStatus@Radios@Devices@Windows@@@Foundation@4@XZ@4HA 0000000180018b74 f   _nodert_generated.obj
 0001:00017b74       ?dtor$2@?0??GetRadiosAsync@Radio@Radios@Devices@Windows@@SAPE$AAU?$IAsyncOperation@PE$AAU?$IVectorView@PE$AAVRadio@Radios@Devices@Windows@@@Collections@Foundation@Windows@@@Foundation@4@XZ@4HA 0000000180018b74 f   _nodert_generated.obj
 0001:00017b80       ?dtor$0@?0??GetDeviceSelector@Radio@Radios@Devices@Windows@@SAPE$AAVString@Platform@@XZ@4HA 0000000180018b80 f   _nodert_generated.obj
 0001:00017b8c       ?dtor$3@?0??GetDeviceSelector@Radio@Radios@Devices@Windows@@SAPE$AAVString@Platform@@XZ@4HA 0000000180018b8c f   _nodert_generated.obj
 0001:00017b98       ?dtor$1@?0??GetDeviceSelector@Radio@Radios@Devices@Windows@@SAPE$AAVString@Platform@@XZ@4HA 0000000180018b98 f   _nodert_generated.obj
 0001:00017ba4       ?dtor$2@?0??GetDeviceSelector@Radio@Radios@Devices@Windows@@SAPE$AAVString@Platform@@XZ@4HA 0000000180018ba4 f   _nodert_generated.obj
 0001:00017bb0       ?dtor$0@?0??FromIdAsync@Radio@Radios@Devices@Windows@@SAPE$AAU?$IAsyncOperation@PE$AAVRadio@Radios@Devices@Windows@@@Foundation@4@PE$AAVString@Platform@@@Z@4HA 0000000180018bb0 f   _nodert_generated.obj
 0001:00017bb0       ?dtor$0@?0??CreateInt64@PropertyValue@Foundation@Windows@@SAPE$AAVObject@Platform@@_J@Z@4HA 0000000180018bb0 f   _nodert_generated.obj
 0001:00017bbc       ?dtor$3@?0??FromIdAsync@Radio@Radios@Devices@Windows@@SAPE$AAU?$IAsyncOperation@PE$AAVRadio@Radios@Devices@Windows@@@Foundation@4@PE$AAVString@Platform@@@Z@4HA 0000000180018bbc f   _nodert_generated.obj
 0001:00017bbc       ?dtor$3@?0??CreateInt64@PropertyValue@Foundation@Windows@@SAPE$AAVObject@Platform@@_J@Z@4HA 0000000180018bbc f   _nodert_generated.obj
 0001:00017bc8       ?dtor$1@?0??FromIdAsync@Radio@Radios@Devices@Windows@@SAPE$AAU?$IAsyncOperation@PE$AAVRadio@Radios@Devices@Windows@@@Foundation@4@PE$AAVString@Platform@@@Z@4HA 0000000180018bc8 f   _nodert_generated.obj
 0001:00017bc8       ?dtor$1@?0??CreateInt64@PropertyValue@Foundation@Windows@@SAPE$AAVObject@Platform@@_J@Z@4HA 0000000180018bc8 f   _nodert_generated.obj
 0001:00017bd4       ?dtor$2@?0??FromIdAsync@Radio@Radios@Devices@Windows@@SAPE$AAU?$IAsyncOperation@PE$AAVRadio@Radios@Devices@Windows@@@Foundation@4@PE$AAVString@Platform@@@Z@4HA 0000000180018bd4 f   _nodert_generated.obj
 0001:00017bd4       ?dtor$2@?0??CreateInt64@PropertyValue@Foundation@Windows@@SAPE$AAVObject@Platform@@_J@Z@4HA 0000000180018bd4 f   _nodert_generated.obj
 0001:00017be0       ?dtor$0@?0??get@?$task@PE$AAU?$IVectorView@PE$AAVRadio@Radios@Devices@Windows@@@Collections@Foundation@Windows@@@Concurrency@@QEBAPE$AAU?$IVectorView@PE$AAVRadio@Radios@Devices@Windows@@@Collections@Foundation@Windows@@XZ@4HA 0000000180018be0 f   _nodert_generated.obj
 0001:00017be0       ?dtor$0@?0??get@?$task@PE$AAVRadio@Radios@Devices@Windows@@@Concurrency@@QEBAPE$AAVRadio@Radios@Devices@Windows@@XZ@4HA 0000000180018be0 f   _nodert_generated.obj
 0001:00017bec       ?dtor$4@?0??get@?$task@PE$AAU?$IVectorView@PE$AAVRadio@Radios@Devices@Windows@@@Collections@Foundation@Windows@@@Concurrency@@QEBAPE$AAU?$IVectorView@PE$AAVRadio@Radios@Devices@Windows@@@Collections@Foundation@Windows@@XZ@4HA 0000000180018bec f   _nodert_generated.obj
 0001:00017bec       ?dtor$4@?0??get@?$task@PE$AAVRadio@Radios@Devices@Windows@@@Concurrency@@QEBAPE$AAVRadio@Radios@Devices@Windows@@XZ@4HA 0000000180018bec f   _nodert_generated.obj
 0001:00017bf8       ?dtor$3@?0??get@?$task@PE$AAVRadio@Radios@Devices@Windows@@@Concurrency@@QEBAPE$AAVRadio@Radios@Devices@Windows@@XZ@4HA 0000000180018bf8 f   _nodert_generated.obj
 0001:00017bf8       ?dtor$3@?0??get@?$task@PE$AAU?$IVectorView@PE$AAVRadio@Radios@Devices@Windows@@@Collections@Foundation@Windows@@@Concurrency@@QEBAPE$AAU?$IVectorView@PE$AAVRadio@Radios@Devices@Windows@@@Collections@Foundation@Windows@@XZ@4HA 0000000180018bf8 f   _nodert_generated.obj
 0001:00017c04       ?dtor$1@?0??get@?$task@PE$AAU?$IVectorView@PE$AAVRadio@Radios@Devices@Windows@@@Collections@Foundation@Windows@@@Concurrency@@QEBAPE$AAU?$IVectorView@PE$AAVRadio@Radios@Devices@Windows@@@Collections@Foundation@Windows@@XZ@4HA 0000000180018c04 f   _nodert_generated.obj
 0001:00017c04       ?dtor$1@?0??get@?$task@PE$AAVRadio@Radios@Devices@Windows@@@Concurrency@@QEBAPE$AAVRadio@Radios@Devices@Windows@@XZ@4HA 0000000180018c04 f   _nodert_generated.obj
 0001:00017c10       ?dtor$0@?0??CreateVectorViewWrapper@?$VectorViewWrapper@PE$AAVRadio@Radios@Devices@Windows@@@Collections@NodeRT@@SA?AV?$Local@VValue@v8@@@v8@@PE$AAU?$IVectorView@PE$AAVRadio@Radios@Devices@Windows@@@2Foundation@Windows@@AEBV?$function@$$A6A?AV?$Local@VValue@v8@@@v8@@PE$AAVRadio@Radios@Devices@Windows@@@Z@std@@AEBV?$function@$$A6A_NV?$Local@VValue@v8@@@v8@@@Z@std@@AEBV?$function@$$A6APE$AAVRadio@Radios@Devices@Windows@@V?$Local@VValue@v8@@@v8@@@Z@std@@@Z@4HA 0000000180018c10 f   _nodert_generated.obj
 0001:00017c1c       ?dtor$1@?0??CreateVectorViewWrapper@?$VectorViewWrapper@PE$AAVRadio@Radios@Devices@Windows@@@Collections@NodeRT@@SA?AV?$Local@VValue@v8@@@v8@@PE$AAU?$IVectorView@PE$AAVRadio@Radios@Devices@Windows@@@2Foundation@Windows@@AEBV?$function@$$A6A?AV?$Local@VValue@v8@@@v8@@PE$AAVRadio@Radios@Devices@Windows@@@Z@std@@AEBV?$function@$$A6A_NV?$Local@VValue@v8@@@v8@@@Z@std@@AEBV?$function@$$A6APE$AAVRadio@Radios@Devices@Windows@@V?$Local@VValue@v8@@@v8@@@Z@std@@@Z@4HA 0000000180018c1c f   _nodert_generated.obj
 0001:00017c39       ?dtor$2@?0??CreateVectorViewWrapper@?$VectorViewWrapper@PE$AAVRadio@Radios@Devices@Windows@@@Collections@NodeRT@@SA?AV?$Local@VValue@v8@@@v8@@PE$AAU?$IVectorView@PE$AAVRadio@Radios@Devices@Windows@@@2Foundation@Windows@@AEBV?$function@$$A6A?AV?$Local@VValue@v8@@@v8@@PE$AAVRadio@Radios@Devices@Windows@@@Z@std@@AEBV?$function@$$A6A_NV?$Local@VValue@v8@@@v8@@@Z@std@@AEBV?$function@$$A6APE$AAVRadio@Radios@Devices@Windows@@V?$Local@VValue@v8@@@v8@@@Z@std@@@Z@4HA 0000000180018c39 f   _nodert_generated.obj
 0001:00017c62       ?dtor$3@?0??CreateVectorViewWrapper@?$VectorViewWrapper@PE$AAVRadio@Radios@Devices@Windows@@@Collections@NodeRT@@SA?AV?$Local@VValue@v8@@@v8@@PE$AAU?$IVectorView@PE$AAVRadio@Radios@Devices@Windows@@@2Foundation@Windows@@AEBV?$function@$$A6A?AV?$Local@VValue@v8@@@v8@@PE$AAVRadio@Radios@Devices@Windows@@@Z@std@@AEBV?$function@$$A6A_NV?$Local@VValue@v8@@@v8@@@Z@std@@AEBV?$function@$$A6APE$AAVRadio@Radios@Devices@Windows@@V?$Local@VValue@v8@@@v8@@@Z@std@@@Z@4HA 0000000180018c62 f   _nodert_generated.obj
 0001:00017c90       ?dtor$0@?0??_CreateImpl@?$task@PE$AAVRadio@Radios@Devices@Windows@@@Concurrency@@QEAAXPEAV_CancellationTokenState@details@2@Uscheduler_ptr@2@@Z@4HA 0000000180018c90 f   _nodert_generated.obj
 0001:00017c90       ?dtor$0@?0??_CreateImpl@?$task@E@Concurrency@@QEAAXPEAV_CancellationTokenState@details@2@Uscheduler_ptr@2@@Z@4HA 0000000180018c90 f   _nodert_generated.obj
 0001:00017c90       ?dtor$0@?0??_CreateImpl@?$task@W4RadioAccessStatus@Radios@Devices@Windows@@@Concurrency@@QEAAXPEAV_CancellationTokenState@details@2@Uscheduler_ptr@2@@Z@4HA 0000000180018c90 f   _nodert_generated.obj
 0001:00017c90       ?dtor$0@?0??_CreateImpl@?$task@PE$AAU?$IVectorView@PE$AAVRadio@Radios@Devices@Windows@@@Collections@Foundation@Windows@@@Concurrency@@QEAAXPEAV_CancellationTokenState@details@2@Uscheduler_ptr@2@@Z@4HA 0000000180018c90 f   _nodert_generated.obj
 0001:00017ca0       ?dtor$0@?0??_CancelAndRunContinuations@?$_Task_impl@PE$AAVRadio@Radios@Devices@Windows@@@details@Concurrency@@UEAA_N_N00AEBV?$shared_ptr@U_ExceptionHolder@details@Concurrency@@@std@@@Z@4HA 0000000180018ca0 f   _nodert_generated.obj
 0001:00017ca0       ?dtor$0@?0??_CancelAndRunContinuations@?$_Task_impl@E@details@Concurrency@@UEAA_N_N00AEBV?$shared_ptr@U_ExceptionHolder@details@Concurrency@@@std@@@Z@4HA 0000000180018ca0 f   _nodert_generated.obj
 0001:00017ca0       ?dtor$0@?0??_CancelAndRunContinuations@?$_Task_impl@PE$AAU?$IVectorView@PE$AAVRadio@Radios@Devices@Windows@@@Collections@Foundation@Windows@@@details@Concurrency@@UEAA_N_N00AEBV?$shared_ptr@U_ExceptionHolder@details@Concurrency@@@std@@@Z@4HA 0000000180018ca0 f   _nodert_generated.obj
 0001:00017ca0       ?dtor$0@?0??_CancelAndRunContinuations@?$_Task_impl@W4RadioAccessStatus@Radios@Devices@Windows@@@details@Concurrency@@UEAA_N_N00AEBV?$shared_ptr@U_ExceptionHolder@details@Concurrency@@@std@@@Z@4HA 0000000180018ca0 f   _nodert_generated.obj
 0001:00017cac       ?dtor$1@?0??_CancelAndRunContinuations@?$_Task_impl@PE$AAU?$IVectorView@PE$AAVRadio@Radios@Devices@Windows@@@Collections@Foundation@Windows@@@details@Concurrency@@UEAA_N_N00AEBV?$shared_ptr@U_ExceptionHolder@details@Concurrency@@@std@@@Z@4HA 0000000180018cac f   _nodert_generated.obj
 0001:00017cac       ?dtor$1@?0??_CancelAndRunContinuations@?$_Task_impl@W4RadioAccessStatus@Radios@Devices@Windows@@@details@Concurrency@@UEAA_N_N00AEBV?$shared_ptr@U_ExceptionHolder@details@Concurrency@@@std@@@Z@4HA 0000000180018cac f   _nodert_generated.obj
 0001:00017cac       ?dtor$1@?0??_CancelAndRunContinuations@?$_Task_impl@PE$AAVRadio@Radios@Devices@Windows@@@details@Concurrency@@UEAA_N_N00AEBV?$shared_ptr@U_ExceptionHolder@details@Concurrency@@@std@@@Z@4HA 0000000180018cac f   _nodert_generated.obj
 0001:00017cac       ?dtor$1@?0??_CancelAndRunContinuations@?$_Task_impl@E@details@Concurrency@@UEAA_N_N00AEBV?$shared_ptr@U_ExceptionHolder@details@Concurrency@@@std@@@Z@4HA 0000000180018cac f   _nodert_generated.obj
 0001:00017cb8       ?dtor$3@?0??_CancelAndRunContinuations@?$_Task_impl@PE$AAU?$IVectorView@PE$AAVRadio@Radios@Devices@Windows@@@Collections@Foundation@Windows@@@details@Concurrency@@UEAA_N_N00AEBV?$shared_ptr@U_ExceptionHolder@details@Concurrency@@@std@@@Z@4HA 0000000180018cb8 f   _nodert_generated.obj
 0001:00017cb8       ?dtor$3@?0??_CancelAndRunContinuations@?$_Task_impl@W4RadioAccessStatus@Radios@Devices@Windows@@@details@Concurrency@@UEAA_N_N00AEBV?$shared_ptr@U_ExceptionHolder@details@Concurrency@@@std@@@Z@4HA 0000000180018cb8 f   _nodert_generated.obj
 0001:00017cb8       ?dtor$3@?0??_CancelAndRunContinuations@?$_Task_impl@PE$AAVRadio@Radios@Devices@Windows@@@details@Concurrency@@UEAA_N_N00AEBV?$shared_ptr@U_ExceptionHolder@details@Concurrency@@@std@@@Z@4HA 0000000180018cb8 f   _nodert_generated.obj
 0001:00017cb8       ?dtor$3@?0??_CancelAndRunContinuations@?$_Task_impl@E@details@Concurrency@@UEAA_N_N00AEBV?$shared_ptr@U_ExceptionHolder@details@Concurrency@@@std@@@Z@4HA 0000000180018cb8 f   _nodert_generated.obj
 0001:00017cd5       ?dtor$5@?0??_CancelAndRunContinuations@?$_Task_impl@PE$AAVRadio@Radios@Devices@Windows@@@details@Concurrency@@UEAA_N_N00AEBV?$shared_ptr@U_ExceptionHolder@details@Concurrency@@@std@@@Z@4HA 0000000180018cd5 f   _nodert_generated.obj
 0001:00017cd5       ?dtor$5@?0??_CancelAndRunContinuations@?$_Task_impl@W4RadioAccessStatus@Radios@Devices@Windows@@@details@Concurrency@@UEAA_N_N00AEBV?$shared_ptr@U_ExceptionHolder@details@Concurrency@@@std@@@Z@4HA 0000000180018cd5 f   _nodert_generated.obj
 0001:00017cd5       ?dtor$5@?0??_CancelAndRunContinuations@?$_Task_impl@PE$AAU?$IVectorView@PE$AAVRadio@Radios@Devices@Windows@@@Collections@Foundation@Windows@@@details@Concurrency@@UEAA_N_N00AEBV?$shared_ptr@U_ExceptionHolder@details@Concurrency@@@std@@@Z@4HA 0000000180018cd5 f   _nodert_generated.obj
 0001:00017cd5       ?dtor$5@?0??_CancelAndRunContinuations@?$_Task_impl@E@details@Concurrency@@UEAA_N_N00AEBV?$shared_ptr@U_ExceptionHolder@details@Concurrency@@@std@@@Z@4HA 0000000180018cd5 f   _nodert_generated.obj
 0001:00017ce1       ?dtor$6@?0??_CancelAndRunContinuations@?$_Task_impl@PE$AAVRadio@Radios@Devices@Windows@@@details@Concurrency@@UEAA_N_N00AEBV?$shared_ptr@U_ExceptionHolder@details@Concurrency@@@std@@@Z@4HA 0000000180018ce1 f   _nodert_generated.obj
 0001:00017ce1       ?dtor$6@?0??_CancelAndRunContinuations@?$_Task_impl@E@details@Concurrency@@UEAA_N_N00AEBV?$shared_ptr@U_ExceptionHolder@details@Concurrency@@@std@@@Z@4HA 0000000180018ce1 f   _nodert_generated.obj
 0001:00017ce1       ?dtor$6@?0??_CancelAndRunContinuations@?$_Task_impl@PE$AAU?$IVectorView@PE$AAVRadio@Radios@Devices@Windows@@@Collections@Foundation@Windows@@@details@Concurrency@@UEAA_N_N00AEBV?$shared_ptr@U_ExceptionHolder@details@Concurrency@@@std@@@Z@4HA 0000000180018ce1 f   _nodert_generated.obj
 0001:00017ce1       ?dtor$6@?0??_CancelAndRunContinuations@?$_Task_impl@W4RadioAccessStatus@Radios@Devices@Windows@@@details@Concurrency@@UEAA_N_N00AEBV?$shared_ptr@U_ExceptionHolder@details@Concurrency@@@std@@@Z@4HA 0000000180018ce1 f   _nodert_generated.obj
 0001:00017cf0       ?dtor$0@?0???0?$VectorViewWrapper@PE$AAVRadio@Radios@Devices@Windows@@@Collections@NodeRT@@AEAA@PE$AAU?$IVectorView@PE$AAVRadio@Radios@Devices@Windows@@@1Foundation@Windows@@AEBV?$function@$$A6A?AV?$Local@VValue@v8@@@v8@@PE$AAVRadio@Radios@Devices@Windows@@@Z@std@@AEBV?$function@$$A6A_NV?$Local@VValue@v8@@@v8@@@Z@7@AEBV?$function@$$A6APE$AAVRadio@Radios@Devices@Windows@@V?$Local@VValue@v8@@@v8@@@Z@7@@Z@4HA 0000000180018cf0 f   _nodert_generated.obj
 0001:00017cfc       ?dtor$1@?0???0?$VectorViewWrapper@PE$AAVRadio@Radios@Devices@Windows@@@Collections@NodeRT@@AEAA@PE$AAU?$IVectorView@PE$AAVRadio@Radios@Devices@Windows@@@1Foundation@Windows@@AEBV?$function@$$A6A?AV?$Local@VValue@v8@@@v8@@PE$AAVRadio@Radios@Devices@Windows@@@Z@std@@AEBV?$function@$$A6A_NV?$Local@VValue@v8@@@v8@@@Z@7@AEBV?$function@$$A6APE$AAVRadio@Radios@Devices@Windows@@V?$Local@VValue@v8@@@v8@@@Z@7@@Z@4HA 0000000180018cfc f   _nodert_generated.obj
 0001:00017d0f       ?dtor$5@?0???0?$VectorViewWrapper@PE$AAVRadio@Radios@Devices@Windows@@@Collections@NodeRT@@AEAA@PE$AAU?$IVectorView@PE$AAVRadio@Radios@Devices@Windows@@@1Foundation@Windows@@AEBV?$function@$$A6A?AV?$Local@VValue@v8@@@v8@@PE$AAVRadio@Radios@Devices@Windows@@@Z@std@@AEBV?$function@$$A6A_NV?$Local@VValue@v8@@@v8@@@Z@7@AEBV?$function@$$A6APE$AAVRadio@Radios@Devices@Windows@@V?$Local@VValue@v8@@@v8@@@Z@7@@Z@4HA 0000000180018d0f f   _nodert_generated.obj
 0001:00017d1b       ?dtor$2@?0???0?$VectorViewWrapper@PE$AAVRadio@Radios@Devices@Windows@@@Collections@NodeRT@@AEAA@PE$AAU?$IVectorView@PE$AAVRadio@Radios@Devices@Windows@@@1Foundation@Windows@@AEBV?$function@$$A6A?AV?$Local@VValue@v8@@@v8@@PE$AAVRadio@Radios@Devices@Windows@@@Z@std@@AEBV?$function@$$A6A_NV?$Local@VValue@v8@@@v8@@@Z@7@AEBV?$function@$$A6APE$AAVRadio@Radios@Devices@Windows@@V?$Local@VValue@v8@@@v8@@@Z@7@@Z@4HA 0000000180018d1b f   _nodert_generated.obj
 0001:00017d2b       ?dtor$7@?0???0?$VectorViewWrapper@PE$AAVRadio@Radios@Devices@Windows@@@Collections@NodeRT@@AEAA@PE$AAU?$IVectorView@PE$AAVRadio@Radios@Devices@Windows@@@1Foundation@Windows@@AEBV?$function@$$A6A?AV?$Local@VValue@v8@@@v8@@PE$AAVRadio@Radios@Devices@Windows@@@Z@std@@AEBV?$function@$$A6A_NV?$Local@VValue@v8@@@v8@@@Z@7@AEBV?$function@$$A6APE$AAVRadio@Radios@Devices@Windows@@V?$Local@VValue@v8@@@v8@@@Z@7@@Z@4HA 0000000180018d2b f   _nodert_generated.obj
 0001:00017d37       ?dtor$3@?0???0?$VectorViewWrapper@PE$AAVRadio@Radios@Devices@Windows@@@Collections@NodeRT@@AEAA@PE$AAU?$IVectorView@PE$AAVRadio@Radios@Devices@Windows@@@1Foundation@Windows@@AEBV?$function@$$A6A?AV?$Local@VValue@v8@@@v8@@PE$AAVRadio@Radios@Devices@Windows@@@Z@std@@AEBV?$function@$$A6A_NV?$Local@VValue@v8@@@v8@@@Z@7@AEBV?$function@$$A6APE$AAVRadio@Radios@Devices@Windows@@V?$Local@VValue@v8@@@v8@@@Z@7@@Z@4HA 0000000180018d37 f   _nodert_generated.obj
 0001:00017d47       ?dtor$8@?0???0?$VectorViewWrapper@PE$AAVRadio@Radios@Devices@Windows@@@Collections@NodeRT@@AEAA@PE$AAU?$IVectorView@PE$AAVRadio@Radios@Devices@Windows@@@1Foundation@Windows@@AEBV?$function@$$A6A?AV?$Local@VValue@v8@@@v8@@PE$AAVRadio@Radios@Devices@Windows@@@Z@std@@AEBV?$function@$$A6A_NV?$Local@VValue@v8@@@v8@@@Z@7@AEBV?$function@$$A6APE$AAVRadio@Radios@Devices@Windows@@V?$Local@VValue@v8@@@v8@@@Z@7@@Z@4HA 0000000180018d47 f   _nodert_generated.obj
 0001:00017d60       ?dtor$0@?0??_Make@?$_Task_ptr@PE$AAVRadio@Radios@Devices@Windows@@@details@Concurrency@@SA?AV?$shared_ptr@U?$_Task_impl@PE$AAVRadio@Radios@Devices@Windows@@@details@Concurrency@@@std@@PEAV_CancellationTokenState@23@Uscheduler_ptr@3@@Z@4HA 0000000180018d60 f   _nodert_generated.obj
 0001:00017d60       ?dtor$0@?0??_Make@?$_Task_ptr@E@details@Concurrency@@SA?AV?$shared_ptr@U?$_Task_impl@E@details@Concurrency@@@std@@PEAV_CancellationTokenState@23@Uscheduler_ptr@3@@Z@4HA 0000000180018d60 f   _nodert_generated.obj
 0001:00017d60       ?dtor$0@?0??_Make@?$_Task_ptr@PE$AAU?$IVectorView@PE$AAVRadio@Radios@Devices@Windows@@@Collections@Foundation@Windows@@@details@Concurrency@@SA?AV?$shared_ptr@U?$_Task_impl@PE$AAU?$IVectorView@PE$AAVRadio@Radios@Devices@Windows@@@Collections@Foundation@Windows@@@details@Concurrency@@@std@@PEAV_CancellationTokenState@23@Uscheduler_ptr@3@@Z@4HA 0000000180018d60 f   _nodert_generated.obj
 0001:00017d60       ?dtor$0@?0??_Make@?$_Task_ptr@W4RadioAccessStatus@Radios@Devices@Windows@@@details@Concurrency@@SA?AV?$shared_ptr@U?$_Task_impl@W4RadioAccessStatus@Radios@Devices@Windows@@@details@Concurrency@@@std@@PEAV_CancellationTokenState@23@Uscheduler_ptr@3@@Z@4HA 0000000180018d60 f   _nodert_generated.obj
 0001:00017d70       ?dtor$0@?0??SizeGetter@?$VectorViewWrapper@PE$AAVRadio@Radios@Devices@Windows@@@Collections@NodeRT@@CAXV?$Local@VString@v8@@@v8@@AEBV?$PropertyCallbackInfo@VValue@v8@@@Nan@@@Z@4HA 0000000180018d70 f   _nodert_generated.obj
 0001:00017d7c       ?catch$6@?0??SizeGetter@?$VectorViewWrapper@PE$AAVRadio@Radios@Devices@Windows@@@Collections@NodeRT@@CAXV?$Local@VString@v8@@@v8@@AEBV?$PropertyCallbackInfo@VValue@v8@@@Nan@@@Z@4HA 0000000180018d7c f   _nodert_generated.obj
 0001:00017d89       __catch$?SizeGetter@?$VectorViewWrapper@PE$AAVRadio@Radios@Devices@Windows@@@Collections@NodeRT@@CAXV?$Local@VString@v8@@@v8@@AEBV?$PropertyCallbackInfo@VValue@v8@@@Nan@@@Z$0 0000000180018d89 f   _nodert_generated.obj
 0001:00017db0       ?dtor$0@?0??IndexOf@?$VectorViewWrapper@PE$AAVRadio@Radios@Devices@Windows@@@Collections@NodeRT@@CAXAEBV?$FunctionCallbackInfo@VValue@v8@@@Nan@@@Z@4HA 0000000180018db0 f   _nodert_generated.obj
 0001:00017dbc       ?dtor$1@?0??IndexOf@?$VectorViewWrapper@PE$AAVRadio@Radios@Devices@Windows@@@Collections@NodeRT@@CAXAEBV?$FunctionCallbackInfo@VValue@v8@@@Nan@@@Z@4HA 0000000180018dbc f   _nodert_generated.obj
 0001:00017dc8       ?dtor$2@?0??IndexOf@?$VectorViewWrapper@PE$AAVRadio@Radios@Devices@Windows@@@Collections@NodeRT@@CAXAEBV?$FunctionCallbackInfo@VValue@v8@@@Nan@@@Z@4HA 0000000180018dc8 f   _nodert_generated.obj
 0001:00017dd4       ?catch$10@?0??IndexOf@?$VectorViewWrapper@PE$AAVRadio@Radios@Devices@Windows@@@Collections@NodeRT@@CAXAEBV?$FunctionCallbackInfo@VValue@v8@@@Nan@@@Z@4HA 0000000180018dd4 f   _nodert_generated.obj
 0001:00017de1       __catch$?IndexOf@?$VectorViewWrapper@PE$AAVRadio@Radios@Devices@Windows@@@Collections@NodeRT@@CAXAEBV?$FunctionCallbackInfo@VValue@v8@@@Nan@@@Z$0 0000000180018de1 f   _nodert_generated.obj
 0001:00017e00       ?dtor$0@?0??First@?$VectorViewWrapper@PE$AAVRadio@Radios@Devices@Windows@@@Collections@NodeRT@@CAXAEBV?$FunctionCallbackInfo@VValue@v8@@@Nan@@@Z@4HA 0000000180018e00 f   _nodert_generated.obj
 0001:00017e0c       ?dtor$1@?0??First@?$VectorViewWrapper@PE$AAVRadio@Radios@Devices@Windows@@@Collections@NodeRT@@CAXAEBV?$FunctionCallbackInfo@VValue@v8@@@Nan@@@Z@4HA 0000000180018e0c f   _nodert_generated.obj
 0001:00017e18       ?dtor$2@?0??First@?$VectorViewWrapper@PE$AAVRadio@Radios@Devices@Windows@@@Collections@NodeRT@@CAXAEBV?$FunctionCallbackInfo@VValue@v8@@@Nan@@@Z@4HA 0000000180018e18 f   _nodert_generated.obj
 0001:00017e24       ?catch$8@?0??First@?$VectorViewWrapper@PE$AAVRadio@Radios@Devices@Windows@@@Collections@NodeRT@@CAXAEBV?$FunctionCallbackInfo@VValue@v8@@@Nan@@@Z@4HA 0000000180018e24 f   _nodert_generated.obj
 0001:00017e31       __catch$?First@?$VectorViewWrapper@PE$AAVRadio@Radios@Devices@Windows@@@Collections@NodeRT@@CAXAEBV?$FunctionCallbackInfo@VValue@v8@@@Nan@@@Z$0 0000000180018e31 f   _nodert_generated.obj
 0001:00017e50       ?dtor$0@?0??GetMany@?$VectorViewWrapper@PE$AAVRadio@Radios@Devices@Windows@@@Collections@NodeRT@@CAXAEBV?$FunctionCallbackInfo@VValue@v8@@@Nan@@@Z@4HA 0000000180018e50 f   _nodert_generated.obj
 0001:00017e50       ?dtor$0@?0??GetMany@?$IteratorWrapper@PE$AAVRadio@Radios@Devices@Windows@@@Collections@NodeRT@@CAXAEBV?$FunctionCallbackInfo@VValue@v8@@@Nan@@@Z@4HA 0000000180018e50 f   _nodert_generated.obj
 0001:00017e50       ?dtor$0@?0??Init@OpaqueWrapper@NodeRT@@CAXXZ@4HA 0000000180018e50 f   OpaqueWrapper.obj
 0001:00017e60       ?dtor$0@?0??GetAt@?$VectorViewWrapper@PE$AAVRadio@Radios@Devices@Windows@@@Collections@NodeRT@@CAXAEBV?$FunctionCallbackInfo@VValue@v8@@@Nan@@@Z@4HA 0000000180018e60 f   _nodert_generated.obj
 0001:00017e6c       ?dtor$1@?0??GetAt@?$VectorViewWrapper@PE$AAVRadio@Radios@Devices@Windows@@@Collections@NodeRT@@CAXAEBV?$FunctionCallbackInfo@VValue@v8@@@Nan@@@Z@4HA 0000000180018e6c f   _nodert_generated.obj
 0001:00017e78       ?dtor$2@?0??GetAt@?$VectorViewWrapper@PE$AAVRadio@Radios@Devices@Windows@@@Collections@NodeRT@@CAXAEBV?$FunctionCallbackInfo@VValue@v8@@@Nan@@@Z@4HA 0000000180018e78 f   _nodert_generated.obj
 0001:00017e84       ?catch$10@?0??GetAt@?$VectorViewWrapper@PE$AAVRadio@Radios@Devices@Windows@@@Collections@NodeRT@@CAXAEBV?$FunctionCallbackInfo@VValue@v8@@@Nan@@@Z@4HA 0000000180018e84 f   _nodert_generated.obj
 0001:00017e91       __catch$?GetAt@?$VectorViewWrapper@PE$AAVRadio@Radios@Devices@Windows@@@Collections@NodeRT@@CAXAEBV?$FunctionCallbackInfo@VValue@v8@@@Nan@@@Z$0 0000000180018e91 f   _nodert_generated.obj
 0001:00017eb0       ?dtor$0@?0??Get@?$VectorViewWrapper@PE$AAVRadio@Radios@Devices@Windows@@@Collections@NodeRT@@CAXIAEBV?$PropertyCallbackInfo@VValue@v8@@@Nan@@@Z@4HA 0000000180018eb0 f   _nodert_generated.obj
 0001:00017ebc       ?dtor$1@?0??Get@?$VectorViewWrapper@PE$AAVRadio@Radios@Devices@Windows@@@Collections@NodeRT@@CAXIAEBV?$PropertyCallbackInfo@VValue@v8@@@Nan@@@Z@4HA 0000000180018ebc f   _nodert_generated.obj
 0001:00017ec8       ?dtor$2@?0??Get@?$VectorViewWrapper@PE$AAVRadio@Radios@Devices@Windows@@@Collections@NodeRT@@CAXIAEBV?$PropertyCallbackInfo@VValue@v8@@@Nan@@@Z@4HA 0000000180018ec8 f   _nodert_generated.obj
 0001:00017ee0       ?dtor$0@?0??CreateIteratorWrapper@?$IteratorWrapper@PE$AAVRadio@Radios@Devices@Windows@@@Collections@NodeRT@@SA?AV?$Local@VValue@v8@@@v8@@PE$AAU?$IIterator@PE$AAVRadio@Radios@Devices@Windows@@@2Foundation@Windows@@AEBV?$function@$$A6A?AV?$Local@VValue@v8@@@v8@@PE$AAVRadio@Radios@Devices@Windows@@@Z@std@@@Z@4HA 0000000180018ee0 f   _nodert_generated.obj
 0001:00017eec       ?dtor$1@?0??CreateIteratorWrapper@?$IteratorWrapper@PE$AAVRadio@Radios@Devices@Windows@@@Collections@NodeRT@@SA?AV?$Local@VValue@v8@@@v8@@PE$AAU?$IIterator@PE$AAVRadio@Radios@Devices@Windows@@@2Foundation@Windows@@AEBV?$function@$$A6A?AV?$Local@VValue@v8@@@v8@@PE$AAVRadio@Radios@Devices@Windows@@@Z@std@@@Z@4HA 0000000180018eec f   _nodert_generated.obj
 0001:00017f10       ?dtor$0@?0??Get@?$Agile@PE$AAU?$IVectorView@PE$AAVRadio@Radios@Devices@Windows@@@Collections@Foundation@Windows@@$00@Platform@@QEBAPE$AAU?$IVectorView@PE$AAVRadio@Radios@Devices@Windows@@@Collections@Foundation@Windows@@XZ@4HA 0000000180018f10 f   _nodert_generated.obj
 0001:00017f1c       ?dtor$1@?0??Get@?$Agile@PE$AAU?$IVectorView@PE$AAVRadio@Radios@Devices@Windows@@@Collections@Foundation@Windows@@$00@Platform@@QEBAPE$AAU?$IVectorView@PE$AAVRadio@Radios@Devices@Windows@@@Collections@Foundation@Windows@@XZ@4HA 0000000180018f1c f   _nodert_generated.obj
 0001:00017f30       ?dtor$1@?0???R?$_Func_class@PE$AAVRadio@Radios@Devices@Windows@@V?$Local@VValue@v8@@@v8@@@std@@QEBAPE$AAVRadio@Radios@Devices@Windows@@V?$Local@VValue@v8@@@v8@@@Z@4HA 0000000180018f30 f   _nodert_generated.obj
 0001:00017f3c       ?dtor$0@?0???R?$_Func_class@PE$AAVRadio@Radios@Devices@Windows@@V?$Local@VValue@v8@@@v8@@@std@@QEBAPE$AAVRadio@Radios@Devices@Windows@@V?$Local@VValue@v8@@@v8@@@Z@4HA 0000000180018f3c f   _nodert_generated.obj
 0001:00017f50       ?dtor$0@?0??_Do_call@?$_Func_impl@V<lambda_c806722195bf1298f17615890da7d503>@@V?$allocator@H@std@@PE$AAVRadio@Radios@Devices@Windows@@V?$Local@VValue@v8@@@v8@@@std@@EEAAPE$AAVRadio@Radios@Devices@Windows@@$$QEAV?$Local@VValue@v8@@@v8@@@Z@4HA 0000000180018f50 f   _nodert_generated.obj
 0001:00017f50       ?dtor$0@?0???R?$_Func_class@V?$Local@VValue@v8@@@v8@@PE$AAVRadio@Radios@Devices@Windows@@@std@@QEBA?AV?$Local@VValue@v8@@@v8@@PE$AAVRadio@Radios@Devices@Windows@@@Z@4HA 0000000180018f50 f   _nodert_generated.obj
 0001:00017f60       ?dtor$0@?0???0?$IteratorWrapper@PE$AAVRadio@Radios@Devices@Windows@@@Collections@NodeRT@@AEAA@PE$AAU?$IIterator@PE$AAVRadio@Radios@Devices@Windows@@@1Foundation@Windows@@AEBV?$function@$$A6A?AV?$Local@VValue@v8@@@v8@@PE$AAVRadio@Radios@Devices@Windows@@@Z@std@@@Z@4HA 0000000180018f60 f   _nodert_generated.obj
 0001:00017f6c       ?dtor$1@?0???0?$IteratorWrapper@PE$AAVRadio@Radios@Devices@Windows@@@Collections@NodeRT@@AEAA@PE$AAU?$IIterator@PE$AAVRadio@Radios@Devices@Windows@@@1Foundation@Windows@@AEBV?$function@$$A6A?AV?$Local@VValue@v8@@@v8@@PE$AAVRadio@Radios@Devices@Windows@@@Z@std@@@Z@4HA 0000000180018f6c f   _nodert_generated.obj
 0001:00017f7f       ?dtor$3@?0???0?$IteratorWrapper@PE$AAVRadio@Radios@Devices@Windows@@@Collections@NodeRT@@AEAA@PE$AAU?$IIterator@PE$AAVRadio@Radios@Devices@Windows@@@1Foundation@Windows@@AEBV?$function@$$A6A?AV?$Local@VValue@v8@@@v8@@PE$AAVRadio@Radios@Devices@Windows@@@Z@std@@@Z@4HA 0000000180018f7f f   _nodert_generated.obj
 0001:00017f90       ?dtor$0@?0??HasCurrentGetter@?$IteratorWrapper@PE$AAVRadio@Radios@Devices@Windows@@@Collections@NodeRT@@CAXV?$Local@VString@v8@@@v8@@AEBV?$PropertyCallbackInfo@VValue@v8@@@Nan@@@Z@4HA 0000000180018f90 f   _nodert_generated.obj
 0001:00017f9c       ?catch$5@?0??HasCurrentGetter@?$IteratorWrapper@PE$AAVRadio@Radios@Devices@Windows@@@Collections@NodeRT@@CAXV?$Local@VString@v8@@@v8@@AEBV?$PropertyCallbackInfo@VValue@v8@@@Nan@@@Z@4HA 0000000180018f9c f   _nodert_generated.obj
 0001:00017fa9       __catch$?HasCurrentGetter@?$IteratorWrapper@PE$AAVRadio@Radios@Devices@Windows@@@Collections@NodeRT@@CAXV?$Local@VString@v8@@@v8@@AEBV?$PropertyCallbackInfo@VValue@v8@@@Nan@@@Z$0 0000000180018fa9 f   _nodert_generated.obj
 0001:00017fd0       ?dtor$0@?0??CurrentGetter@?$IteratorWrapper@PE$AAVRadio@Radios@Devices@Windows@@@Collections@NodeRT@@CAXV?$Local@VString@v8@@@v8@@AEBV?$PropertyCallbackInfo@VValue@v8@@@Nan@@@Z@4HA 0000000180018fd0 f   _nodert_generated.obj
 0001:00017fdc       ?dtor$5@?0??CurrentGetter@?$IteratorWrapper@PE$AAVRadio@Radios@Devices@Windows@@@Collections@NodeRT@@CAXV?$Local@VString@v8@@@v8@@AEBV?$PropertyCallbackInfo@VValue@v8@@@Nan@@@Z@4HA 0000000180018fdc f   _nodert_generated.obj
 0001:00017fe8       ?dtor$1@?0??CurrentGetter@?$IteratorWrapper@PE$AAVRadio@Radios@Devices@Windows@@@Collections@NodeRT@@CAXV?$Local@VString@v8@@@v8@@AEBV?$PropertyCallbackInfo@VValue@v8@@@Nan@@@Z@4HA 0000000180018fe8 f   _nodert_generated.obj
 0001:00017ff4       ?dtor$2@?0??CurrentGetter@?$IteratorWrapper@PE$AAVRadio@Radios@Devices@Windows@@@Collections@NodeRT@@CAXV?$Local@VString@v8@@@v8@@AEBV?$PropertyCallbackInfo@VValue@v8@@@Nan@@@Z@4HA 0000000180018ff4 f   _nodert_generated.obj
 0001:00018000       ?catch$9@?0??CurrentGetter@?$IteratorWrapper@PE$AAVRadio@Radios@Devices@Windows@@@Collections@NodeRT@@CAXV?$Local@VString@v8@@@v8@@AEBV?$PropertyCallbackInfo@VValue@v8@@@Nan@@@Z@4HA 0000000180019000 f   _nodert_generated.obj
 0001:0001800d       __catch$?CurrentGetter@?$IteratorWrapper@PE$AAVRadio@Radios@Devices@Windows@@@Collections@NodeRT@@CAXV?$Local@VString@v8@@@v8@@AEBV?$PropertyCallbackInfo@VValue@v8@@@Nan@@@Z$0 000000018001900d f   _nodert_generated.obj
 0001:00018030       ?dtor$0@?0??MoveNext@?$IteratorWrapper@PE$AAVRadio@Radios@Devices@Windows@@@Collections@NodeRT@@CAXAEBV?$FunctionCallbackInfo@VValue@v8@@@Nan@@@Z@4HA 0000000180019030 f   _nodert_generated.obj
 0001:0001803c       ?catch$7@?0??MoveNext@?$IteratorWrapper@PE$AAVRadio@Radios@Devices@Windows@@@Collections@NodeRT@@CAXAEBV?$FunctionCallbackInfo@VValue@v8@@@Nan@@@Z@4HA 000000018001903c f   _nodert_generated.obj
 0001:00018049       __catch$?MoveNext@?$IteratorWrapper@PE$AAVRadio@Radios@Devices@Windows@@@Collections@NodeRT@@CAXAEBV?$FunctionCallbackInfo@VValue@v8@@@Nan@@@Z$0 0000000180019049 f   _nodert_generated.obj
 0001:00018070       ?dtor$0@?0??get@Name@IRadio@Radios@Devices@Windows@@UE$AAAPE$AAVString@Platform@@XZ@4HA 0000000180019070 f   _nodert_generated.obj
 0001:00018080       ?dtor$0@?0??GetResults@?$IAsyncOperation@PE$AAU?$IVectorView@PE$AAVRadio@Radios@Devices@Windows@@@Collections@Foundation@Windows@@@Foundation@Windows@@UE$AAAPE$AAU?$IVectorView@PE$AAVRadio@Radios@Devices@Windows@@@Collections@23@XZ@4HA 0000000180019080 f   _nodert_generated.obj
 0001:00018080       ?dtor$0@?0??GetResults@?$IAsyncOperation@PE$AAVRadio@Radios@Devices@Windows@@@Foundation@Windows@@UE$AAAPE$AAVRadio@Radios@Devices@3@XZ@4HA 0000000180019080 f   _nodert_generated.obj
 0001:00018080       ?dtor$0@?0??SetStateAsync@IRadio@Radios@Devices@Windows@@UE$AAAPE$AAU?$IAsyncOperation@W4RadioAccessStatus@Radios@Devices@Windows@@@Foundation@4@W4RadioState@234@@Z@4HA 0000000180019080 f   _nodert_generated.obj
 0001:00018080       ?dtor$0@?0???$swap@PE$AAU?$IVectorView@PE$AAVRadio@Radios@Devices@Windows@@@Collections@Foundation@Windows@@X@std@@YAXAEAPE$AAU?$IVectorView@PE$AAVRadio@Radios@Devices@Windows@@@Collections@Foundation@Windows@@0@Z@4HA 0000000180019080 f   _nodert_generated.obj
 0001:00018080       ?dtor$0@?0??GetAt@?$IVectorView@PE$AAVRadio@Radios@Devices@Windows@@@Collections@Foundation@Windows@@UE$AAAPE$AAVRadio@Radios@Devices@4@I@Z@4HA 0000000180019080 f   _nodert_generated.obj
 0001:00018080       ?dtor$0@?0??GetObjectInstance@Utils@NodeRT@@YAPE$AAVObject@Platform@@V?$Local@VValue@v8@@@v8@@@Z@4HA 0000000180019080 f   NodeRtUtils.obj
 0001:00018080       ?dtor$0@?0??First@?$IIterable@PE$AAVRadio@Radios@Devices@Windows@@@Collections@Foundation@Windows@@UE$AAAPE$AAU?$IIterator@PE$AAVRadio@Radios@Devices@Windows@@@234@XZ@4HA 0000000180019080 f   _nodert_generated.obj
 0001:00018090       ?dtor$0@?0???$make_shared@U_ExceptionHolder@details@Concurrency@@AEBVexception_ptr@std@@V_TaskCreationCallstack@23@@std@@YA?AV?$shared_ptr@U_ExceptionHolder@details@Concurrency@@@0@AEBVexception_ptr@0@$$QEAV_TaskCreationCallstack@details@Concurrency@@@Z@4HA 0000000180019090 f   _nodert_generated.obj
 0001:000180b0       ?dtor$2@?0???$make_shared@U_ExceptionHolder@details@Concurrency@@AEBVexception_ptr@std@@V_TaskCreationCallstack@23@@std@@YA?AV?$shared_ptr@U_ExceptionHolder@details@Concurrency@@@0@AEBVexception_ptr@0@$$QEAV_TaskCreationCallstack@details@Concurrency@@@Z@4HA 00000001800190b0 f   _nodert_generated.obj
 0001:000180bc       ?dtor$3@?0???$make_shared@U_ExceptionHolder@details@Concurrency@@AEBVexception_ptr@std@@V_TaskCreationCallstack@23@@std@@YA?AV?$shared_ptr@U_ExceptionHolder@details@Concurrency@@@0@AEBVexception_ptr@0@$$QEAV_TaskCreationCallstack@details@Concurrency@@@Z@4HA 00000001800190bc f   _nodert_generated.obj
 0001:000180df       ?dtor$4@?0???$make_shared@U_ExceptionHolder@details@Concurrency@@AEBVexception_ptr@std@@V_TaskCreationCallstack@23@@std@@YA?AV?$shared_ptr@U_ExceptionHolder@details@Concurrency@@@0@AEBVexception_ptr@0@$$QEAV_TaskCreationCallstack@details@Concurrency@@@Z@4HA 00000001800190df f   _nodert_generated.obj
 0001:000180ef       ?dtor$1@?0???$make_shared@U_ExceptionHolder@details@Concurrency@@AEBVexception_ptr@std@@V_TaskCreationCallstack@23@@std@@YA?AV?$shared_ptr@U_ExceptionHolder@details@Concurrency@@@0@AEBVexception_ptr@0@$$QEAV_TaskCreationCallstack@details@Concurrency@@@Z@4HA 00000001800190ef f   _nodert_generated.obj
 0001:00018120       ?dtor$1@?0???$?4AEAV?$function@$$A6AXXZ@std@@XX@?$function@$$A6AXXZ@std@@QEAAAEAV01@AEAV01@@Z@4HA 0000000180019120 f   _nodert_generated.obj
 0001:00018130       ?dtor$1@?0???$IsWinRtWrapperOf@PE$AAVRadio@Radios@Devices@Windows@@@Utils@NodeRT@@YA_NV?$Local@VValue@v8@@@v8@@@Z@4HA 0000000180019130 f   _nodert_generated.obj
 0001:0001813c       ?dtor$2@?0???$IsWinRtWrapperOf@PE$AAVRadio@Radios@Devices@Windows@@@Utils@NodeRT@@YA_NV?$Local@VValue@v8@@@v8@@@Z@4HA 000000018001913c f   _nodert_generated.obj
 0001:00018148       ?catch$4@?0???$IsWinRtWrapperOf@PE$AAVRadio@Radios@Devices@Windows@@@Utils@NodeRT@@YA_NV?$Local@VValue@v8@@@v8@@@Z@4HA 0000000180019148 f   _nodert_generated.obj
 0001:00018155       __catch$??$IsWinRtWrapperOf@PE$AAVRadio@Radios@Devices@Windows@@@Utils@NodeRT@@YA_NV?$Local@VValue@v8@@@v8@@@Z$0 0000000180019155 f   _nodert_generated.obj
 0001:00018170       ?dtor$0@?0???$create_task@PE$AAU?$IAsyncOperation@PE$AAVRadio@Radios@Devices@Windows@@@Foundation@Windows@@@Concurrency@@YA?AV?$task@PE$AAVRadio@Radios@Devices@Windows@@@0@PE$AAU?$IAsyncOperation@PE$AAVRadio@Radios@Devices@Windows@@@Foundation@Windows@@Vtask_options@0@@Z@4HA 0000000180019170 f   _nodert_generated.obj
 0001:00018170       ?dtor$0@?0???$create_task@PE$AAU?$IAsyncOperation@W4RadioAccessStatus@Radios@Devices@Windows@@@Foundation@Windows@@@Concurrency@@YA?AV?$task@W4RadioAccessStatus@Radios@Devices@Windows@@@0@PE$AAU?$IAsyncOperation@W4RadioAccessStatus@Radios@Devices@Windows@@@Foundation@Windows@@Vtask_options@0@@Z@4HA 0000000180019170 f   _nodert_generated.obj
 0001:00018170       ?dtor$0@?0???$create_task@PE$AAU?$IAsyncOperation@PE$AAU?$IVectorView@PE$AAVRadio@Radios@Devices@Windows@@@Collections@Foundation@Windows@@@Foundation@Windows@@@Concurrency@@YA?AV?$task@PE$AAU?$IVectorView@PE$AAVRadio@Radios@Devices@Windows@@@Collections@Foundation@Windows@@@0@PE$AAU?$IAsyncOperation@PE$AAU?$IVectorView@PE$AAVRadio@Radios@Devices@Windows@@@Collections@Foundation@Windows@@@Foundation@Windows@@Vtask_options@0@@Z@4HA 0000000180019170 f   _nodert_generated.obj
 0001:0001817c       ?dtor$1@?0???$create_task@PE$AAU?$IAsyncOperation@W4RadioAccessStatus@Radios@Devices@Windows@@@Foundation@Windows@@@Concurrency@@YA?AV?$task@W4RadioAccessStatus@Radios@Devices@Windows@@@0@PE$AAU?$IAsyncOperation@W4RadioAccessStatus@Radios@Devices@Windows@@@Foundation@Windows@@Vtask_options@0@@Z@4HA 000000018001917c f   _nodert_generated.obj
 0001:0001817c       ?dtor$1@?0???$create_task@PE$AAU?$IAsyncOperation@PE$AAU?$IVectorView@PE$AAVRadio@Radios@Devices@Windows@@@Collections@Foundation@Windows@@@Foundation@Windows@@@Concurrency@@YA?AV?$task@PE$AAU?$IVectorView@PE$AAVRadio@Radios@Devices@Windows@@@Collections@Foundation@Windows@@@0@PE$AAU?$IAsyncOperation@PE$AAU?$IVectorView@PE$AAVRadio@Radios@Devices@Windows@@@Collections@Foundation@Windows@@@Foundation@Windows@@Vtask_options@0@@Z@4HA 000000018001917c f   _nodert_generated.obj
 0001:0001817c       ?dtor$1@?0???$create_task@PE$AAU?$IAsyncOperation@PE$AAVRadio@Radios@Devices@Windows@@@Foundation@Windows@@@Concurrency@@YA?AV?$task@PE$AAVRadio@Radios@Devices@Windows@@@0@PE$AAU?$IAsyncOperation@PE$AAVRadio@Radios@Devices@Windows@@@Foundation@Windows@@Vtask_options@0@@Z@4HA 000000018001917c f   _nodert_generated.obj
 0001:00018190       ?dtor$8@?0???$then@V<lambda_f62ce569bcbb190725394d954e43b37a>@@@?$task@W4RadioAccessStatus@Radios@Devices@Windows@@@Concurrency@@QEBA?AV?$task@X@1@AEBV<lambda_f62ce569bcbb190725394d954e43b37a>@@@Z@4HA 0000000180019190 f   _nodert_generated.obj
 0001:00018190       ?dtor$8@?0???$then@V<lambda_84fe49f24ae8de4bd96cfe7e2e397527>@@@?$task@W4RadioAccessStatus@Radios@Devices@Windows@@@Concurrency@@QEBA?AV?$task@X@1@AEBV<lambda_84fe49f24ae8de4bd96cfe7e2e397527>@@@Z@4HA 0000000180019190 f   _nodert_generated.obj
 0001:0001819c       ?dtor$9@?0???$then@V<lambda_f62ce569bcbb190725394d954e43b37a>@@@?$task@W4RadioAccessStatus@Radios@Devices@Windows@@@Concurrency@@QEBA?AV?$task@X@1@AEBV<lambda_f62ce569bcbb190725394d954e43b37a>@@@Z@4HA 000000018001919c f   _nodert_generated.obj
 0001:0001819c       ?dtor$9@?0???$then@V<lambda_84fe49f24ae8de4bd96cfe7e2e397527>@@@?$task@W4RadioAccessStatus@Radios@Devices@Windows@@@Concurrency@@QEBA?AV?$task@X@1@AEBV<lambda_84fe49f24ae8de4bd96cfe7e2e397527>@@@Z@4HA 000000018001919c f   _nodert_generated.obj
 0001:000181ac       ?dtor$0@?0???$then@V<lambda_f62ce569bcbb190725394d954e43b37a>@@@?$task@W4RadioAccessStatus@Radios@Devices@Windows@@@Concurrency@@QEBA?AV?$task@X@1@AEBV<lambda_f62ce569bcbb190725394d954e43b37a>@@@Z@4HA 00000001800191ac f   _nodert_generated.obj
 0001:000181ac       ?dtor$0@?0???$then@V<lambda_84fe49f24ae8de4bd96cfe7e2e397527>@@@?$task@W4RadioAccessStatus@Radios@Devices@Windows@@@Concurrency@@QEBA?AV?$task@X@1@AEBV<lambda_84fe49f24ae8de4bd96cfe7e2e397527>@@@Z@4HA 00000001800191ac f   _nodert_generated.obj
 0001:000181b8       ?dtor$1@?0???$then@V<lambda_f62ce569bcbb190725394d954e43b37a>@@@?$task@W4RadioAccessStatus@Radios@Devices@Windows@@@Concurrency@@QEBA?AV?$task@X@1@AEBV<lambda_f62ce569bcbb190725394d954e43b37a>@@@Z@4HA 00000001800191b8 f   _nodert_generated.obj
 0001:000181b8       ?dtor$1@?0???$then@V<lambda_84fe49f24ae8de4bd96cfe7e2e397527>@@@?$task@W4RadioAccessStatus@Radios@Devices@Windows@@@Concurrency@@QEBA?AV?$task@X@1@AEBV<lambda_84fe49f24ae8de4bd96cfe7e2e397527>@@@Z@4HA 00000001800191b8 f   _nodert_generated.obj
 0001:000181c4       ?dtor$2@?0???$then@V<lambda_84fe49f24ae8de4bd96cfe7e2e397527>@@@?$task@W4RadioAccessStatus@Radios@Devices@Windows@@@Concurrency@@QEBA?AV?$task@X@1@AEBV<lambda_84fe49f24ae8de4bd96cfe7e2e397527>@@@Z@4HA 00000001800191c4 f   _nodert_generated.obj
 0001:000181c4       ?dtor$2@?0???$then@V<lambda_f62ce569bcbb190725394d954e43b37a>@@@?$task@W4RadioAccessStatus@Radios@Devices@Windows@@@Concurrency@@QEBA?AV?$task@X@1@AEBV<lambda_f62ce569bcbb190725394d954e43b37a>@@@Z@4HA 00000001800191c4 f   _nodert_generated.obj
 0001:000181d0       ?dtor$3@?0???$then@V<lambda_f62ce569bcbb190725394d954e43b37a>@@@?$task@W4RadioAccessStatus@Radios@Devices@Windows@@@Concurrency@@QEBA?AV?$task@X@1@AEBV<lambda_f62ce569bcbb190725394d954e43b37a>@@@Z@4HA 00000001800191d0 f   _nodert_generated.obj
 0001:000181d0       ?dtor$3@?0???$then@V<lambda_84fe49f24ae8de4bd96cfe7e2e397527>@@@?$task@W4RadioAccessStatus@Radios@Devices@Windows@@@Concurrency@@QEBA?AV?$task@X@1@AEBV<lambda_84fe49f24ae8de4bd96cfe7e2e397527>@@@Z@4HA 00000001800191d0 f   _nodert_generated.obj
 0001:000181dc       ?dtor$4@?0???$then@V<lambda_84fe49f24ae8de4bd96cfe7e2e397527>@@@?$task@W4RadioAccessStatus@Radios@Devices@Windows@@@Concurrency@@QEBA?AV?$task@X@1@AEBV<lambda_84fe49f24ae8de4bd96cfe7e2e397527>@@@Z@4HA 00000001800191dc f   _nodert_generated.obj
 0001:000181dc       ?dtor$4@?0???$then@V<lambda_f62ce569bcbb190725394d954e43b37a>@@@?$task@W4RadioAccessStatus@Radios@Devices@Windows@@@Concurrency@@QEBA?AV?$task@X@1@AEBV<lambda_f62ce569bcbb190725394d954e43b37a>@@@Z@4HA 00000001800191dc f   _nodert_generated.obj
 0001:000181e8       ?dtor$5@?0???$then@V<lambda_f62ce569bcbb190725394d954e43b37a>@@@?$task@W4RadioAccessStatus@Radios@Devices@Windows@@@Concurrency@@QEBA?AV?$task@X@1@AEBV<lambda_f62ce569bcbb190725394d954e43b37a>@@@Z@4HA 00000001800191e8 f   _nodert_generated.obj
 0001:000181e8       ?dtor$5@?0???$then@V<lambda_84fe49f24ae8de4bd96cfe7e2e397527>@@@?$task@W4RadioAccessStatus@Radios@Devices@Windows@@@Concurrency@@QEBA?AV?$task@X@1@AEBV<lambda_84fe49f24ae8de4bd96cfe7e2e397527>@@@Z@4HA 00000001800191e8 f   _nodert_generated.obj
 0001:00018200       ?dtor$8@?0???$then@V<lambda_6b3d546cb33cb2be9b0a401ff7fba40f>@@@?$task@PE$AAU?$IVectorView@PE$AAVRadio@Radios@Devices@Windows@@@Collections@Foundation@Windows@@@Concurrency@@QEBA?AV?$task@X@1@AEBV<lambda_6b3d546cb33cb2be9b0a401ff7fba40f>@@@Z@4HA 0000000180019200 f   _nodert_generated.obj
 0001:0001820c       ?dtor$9@?0???$then@V<lambda_6b3d546cb33cb2be9b0a401ff7fba40f>@@@?$task@PE$AAU?$IVectorView@PE$AAVRadio@Radios@Devices@Windows@@@Collections@Foundation@Windows@@@Concurrency@@QEBA?AV?$task@X@1@AEBV<lambda_6b3d546cb33cb2be9b0a401ff7fba40f>@@@Z@4HA 000000018001920c f   _nodert_generated.obj
 0001:0001821c       ?dtor$0@?0???$then@V<lambda_6b3d546cb33cb2be9b0a401ff7fba40f>@@@?$task@PE$AAU?$IVectorView@PE$AAVRadio@Radios@Devices@Windows@@@Collections@Foundation@Windows@@@Concurrency@@QEBA?AV?$task@X@1@AEBV<lambda_6b3d546cb33cb2be9b0a401ff7fba40f>@@@Z@4HA 000000018001921c f   _nodert_generated.obj
 0001:00018228       ?dtor$1@?0???$then@V<lambda_6b3d546cb33cb2be9b0a401ff7fba40f>@@@?$task@PE$AAU?$IVectorView@PE$AAVRadio@Radios@Devices@Windows@@@Collections@Foundation@Windows@@@Concurrency@@QEBA?AV?$task@X@1@AEBV<lambda_6b3d546cb33cb2be9b0a401ff7fba40f>@@@Z@4HA 0000000180019228 f   _nodert_generated.obj
 0001:00018234       ?dtor$2@?0???$then@V<lambda_6b3d546cb33cb2be9b0a401ff7fba40f>@@@?$task@PE$AAU?$IVectorView@PE$AAVRadio@Radios@Devices@Windows@@@Collections@Foundation@Windows@@@Concurrency@@QEBA?AV?$task@X@1@AEBV<lambda_6b3d546cb33cb2be9b0a401ff7fba40f>@@@Z@4HA 0000000180019234 f   _nodert_generated.obj
 0001:00018240       ?dtor$3@?0???$then@V<lambda_6b3d546cb33cb2be9b0a401ff7fba40f>@@@?$task@PE$AAU?$IVectorView@PE$AAVRadio@Radios@Devices@Windows@@@Collections@Foundation@Windows@@@Concurrency@@QEBA?AV?$task@X@1@AEBV<lambda_6b3d546cb33cb2be9b0a401ff7fba40f>@@@Z@4HA 0000000180019240 f   _nodert_generated.obj
 0001:0001824c       ?dtor$4@?0???$then@V<lambda_6b3d546cb33cb2be9b0a401ff7fba40f>@@@?$task@PE$AAU?$IVectorView@PE$AAVRadio@Radios@Devices@Windows@@@Collections@Foundation@Windows@@@Concurrency@@QEBA?AV?$task@X@1@AEBV<lambda_6b3d546cb33cb2be9b0a401ff7fba40f>@@@Z@4HA 000000018001924c f   _nodert_generated.obj
 0001:00018258       ?dtor$5@?0???$then@V<lambda_6b3d546cb33cb2be9b0a401ff7fba40f>@@@?$task@PE$AAU?$IVectorView@PE$AAVRadio@Radios@Devices@Windows@@@Collections@Foundation@Windows@@@Concurrency@@QEBA?AV?$task@X@1@AEBV<lambda_6b3d546cb33cb2be9b0a401ff7fba40f>@@@Z@4HA 0000000180019258 f   _nodert_generated.obj
 0001:00018270       ?dtor$8@?0???$then@V<lambda_ae69dad4f0eec31d1194edef18f14e48>@@@?$task@PE$AAVRadio@Radios@Devices@Windows@@@Concurrency@@QEBA?AV?$task@X@1@AEBV<lambda_ae69dad4f0eec31d1194edef18f14e48>@@@Z@4HA 0000000180019270 f   _nodert_generated.obj
 0001:0001827c       ?dtor$9@?0???$then@V<lambda_ae69dad4f0eec31d1194edef18f14e48>@@@?$task@PE$AAVRadio@Radios@Devices@Windows@@@Concurrency@@QEBA?AV?$task@X@1@AEBV<lambda_ae69dad4f0eec31d1194edef18f14e48>@@@Z@4HA 000000018001927c f   _nodert_generated.obj
 0001:0001828c       ?dtor$0@?0???$then@V<lambda_ae69dad4f0eec31d1194edef18f14e48>@@@?$task@PE$AAVRadio@Radios@Devices@Windows@@@Concurrency@@QEBA?AV?$task@X@1@AEBV<lambda_ae69dad4f0eec31d1194edef18f14e48>@@@Z@4HA 000000018001928c f   _nodert_generated.obj
 0001:00018298       ?dtor$1@?0???$then@V<lambda_ae69dad4f0eec31d1194edef18f14e48>@@@?$task@PE$AAVRadio@Radios@Devices@Windows@@@Concurrency@@QEBA?AV?$task@X@1@AEBV<lambda_ae69dad4f0eec31d1194edef18f14e48>@@@Z@4HA 0000000180019298 f   _nodert_generated.obj
 0001:000182a4       ?dtor$2@?0???$then@V<lambda_ae69dad4f0eec31d1194edef18f14e48>@@@?$task@PE$AAVRadio@Radios@Devices@Windows@@@Concurrency@@QEBA?AV?$task@X@1@AEBV<lambda_ae69dad4f0eec31d1194edef18f14e48>@@@Z@4HA 00000001800192a4 f   _nodert_generated.obj
 0001:000182b0       ?dtor$3@?0???$then@V<lambda_ae69dad4f0eec31d1194edef18f14e48>@@@?$task@PE$AAVRadio@Radios@Devices@Windows@@@Concurrency@@QEBA?AV?$task@X@1@AEBV<lambda_ae69dad4f0eec31d1194edef18f14e48>@@@Z@4HA 00000001800192b0 f   _nodert_generated.obj
 0001:000182bc       ?dtor$4@?0???$then@V<lambda_ae69dad4f0eec31d1194edef18f14e48>@@@?$task@PE$AAVRadio@Radios@Devices@Windows@@@Concurrency@@QEBA?AV?$task@X@1@AEBV<lambda_ae69dad4f0eec31d1194edef18f14e48>@@@Z@4HA 00000001800192bc f   _nodert_generated.obj
 0001:000182c8       ?dtor$5@?0???$then@V<lambda_ae69dad4f0eec31d1194edef18f14e48>@@@?$task@PE$AAVRadio@Radios@Devices@Windows@@@Concurrency@@QEBA?AV?$task@X@1@AEBV<lambda_ae69dad4f0eec31d1194edef18f14e48>@@@Z@4HA 00000001800192c8 f   _nodert_generated.obj
 0001:000182e0       ?dtor$0@?0???$?0V<lambda_4826e3b284b53b5a99fdf233406a9e9a>@@@?$AsyncOperationCompletedHandler@PE$AAVRadio@Radios@Devices@Windows@@@Foundation@Windows@@QE$AAA@V<lambda_4826e3b284b53b5a99fdf233406a9e9a>@@W4CallbackContext@Platform@@_N@Z@4HA 00000001800192e0 f   _nodert_generated.obj
 0001:000182e0       ?dtor$0@?0???$?0V<lambda_fa493edce1d787976b8ef791772f712d>@@@?$TypedEventHandler@PE$AAVRadio@Radios@Devices@Windows@@PE$AAVObject@Platform@@@Foundation@Windows@@QE$AAA@V<lambda_fa493edce1d787976b8ef791772f712d>@@W4CallbackContext@Platform@@_N@Z@4HA 00000001800192e0 f   _nodert_generated.obj
 0001:000182e0       ?dtor$0@?0???$?0V<lambda_76b0dc5acfdd88e398543629657656f2>@@@?$AsyncOperationCompletedHandler@W4RadioAccessStatus@Radios@Devices@Windows@@@Foundation@Windows@@QE$AAA@V<lambda_76b0dc5acfdd88e398543629657656f2>@@W4CallbackContext@Platform@@_N@Z@4HA 00000001800192e0 f   _nodert_generated.obj
 0001:000182e0       ?dtor$0@?0???$?0V<lambda_74b109aa04c410395ed1b84aaba96129>@@@?$AsyncOperationCompletedHandler@PE$AAU?$IVectorView@PE$AAVRadio@Radios@Devices@Windows@@@Collections@Foundation@Windows@@@Foundation@Windows@@QE$AAA@V<lambda_74b109aa04c410395ed1b84aaba96129>@@W4CallbackContext@Platform@@_N@Z@4HA 00000001800192e0 f   _nodert_generated.obj
 0001:000182ec       ?dtor$1@?0???$?0V<lambda_4826e3b284b53b5a99fdf233406a9e9a>@@@?$AsyncOperationCompletedHandler@PE$AAVRadio@Radios@Devices@Windows@@@Foundation@Windows@@QE$AAA@V<lambda_4826e3b284b53b5a99fdf233406a9e9a>@@W4CallbackContext@Platform@@_N@Z@4HA 00000001800192ec f   _nodert_generated.obj
 0001:000182ec       ?dtor$1@?0???$?0V<lambda_76b0dc5acfdd88e398543629657656f2>@@@?$AsyncOperationCompletedHandler@W4RadioAccessStatus@Radios@Devices@Windows@@@Foundation@Windows@@QE$AAA@V<lambda_76b0dc5acfdd88e398543629657656f2>@@W4CallbackContext@Platform@@_N@Z@4HA 00000001800192ec f   _nodert_generated.obj
 0001:000182ec       ?dtor$1@?0???$?0V<lambda_74b109aa04c410395ed1b84aaba96129>@@@?$AsyncOperationCompletedHandler@PE$AAU?$IVectorView@PE$AAVRadio@Radios@Devices@Windows@@@Collections@Foundation@Windows@@@Foundation@Windows@@QE$AAA@V<lambda_74b109aa04c410395ed1b84aaba96129>@@W4CallbackContext@Platform@@_N@Z@4HA 00000001800192ec f   _nodert_generated.obj
 0001:000182ec       ?dtor$1@?0???$?0V<lambda_fa493edce1d787976b8ef791772f712d>@@@?$TypedEventHandler@PE$AAVRadio@Radios@Devices@Windows@@PE$AAVObject@Platform@@@Foundation@Windows@@QE$AAA@V<lambda_fa493edce1d787976b8ef791772f712d>@@W4CallbackContext@Platform@@_N@Z@4HA 00000001800192ec f   _nodert_generated.obj
 0001:000182fc       ?dtor$2@?0???$?0V<lambda_76b0dc5acfdd88e398543629657656f2>@@@?$AsyncOperationCompletedHandler@W4RadioAccessStatus@Radios@Devices@Windows@@@Foundation@Windows@@QE$AAA@V<lambda_76b0dc5acfdd88e398543629657656f2>@@W4CallbackContext@Platform@@_N@Z@4HA 00000001800192fc f   _nodert_generated.obj
 0001:000182fc       ?dtor$2@?0???$?0V<lambda_4826e3b284b53b5a99fdf233406a9e9a>@@@?$AsyncOperationCompletedHandler@PE$AAVRadio@Radios@Devices@Windows@@@Foundation@Windows@@QE$AAA@V<lambda_4826e3b284b53b5a99fdf233406a9e9a>@@W4CallbackContext@Platform@@_N@Z@4HA 00000001800192fc f   _nodert_generated.obj
 0001:000182fc       ?dtor$2@?0???$?0V<lambda_74b109aa04c410395ed1b84aaba96129>@@@?$AsyncOperationCompletedHandler@PE$AAU?$IVectorView@PE$AAVRadio@Radios@Devices@Windows@@@Collections@Foundation@Windows@@@Foundation@Windows@@QE$AAA@V<lambda_74b109aa04c410395ed1b84aaba96129>@@W4CallbackContext@Platform@@_N@Z@4HA 00000001800192fc f   _nodert_generated.obj
 0001:000182fc       ?dtor$2@?0???$?0V<lambda_fa493edce1d787976b8ef791772f712d>@@@?$TypedEventHandler@PE$AAVRadio@Radios@Devices@Windows@@PE$AAVObject@Platform@@@Foundation@Windows@@QE$AAA@V<lambda_fa493edce1d787976b8ef791772f712d>@@W4CallbackContext@Platform@@_N@Z@4HA 00000001800192fc f   _nodert_generated.obj
 0001:00018310       ?dtor$1@?0???$make_shared@U?$_Task_impl@PE$AAVRadio@Radios@Devices@Windows@@@details@Concurrency@@AEAPEAV_CancellationTokenState@23@AEAUscheduler_ptr@3@@std@@YA?AV?$shared_ptr@U?$_Task_impl@PE$AAVRadio@Radios@Devices@Windows@@@details@Concurrency@@@0@AEAPEAV_CancellationTokenState@details@Concurrency@@AEAUscheduler_ptr@4@@Z@4HA 0000000180019310 f   _nodert_generated.obj
 0001:00018310       ?dtor$1@?0???$make_shared@U?$_Task_impl@W4RadioAccessStatus@Radios@Devices@Windows@@@details@Concurrency@@AEAPEAV_CancellationTokenState@23@AEAUscheduler_ptr@3@@std@@YA?AV?$shared_ptr@U?$_Task_impl@W4RadioAccessStatus@Radios@Devices@Windows@@@details@Concurrency@@@0@AEAPEAV_CancellationTokenState@details@Concurrency@@AEAUscheduler_ptr@4@@Z@4HA 0000000180019310 f   _nodert_generated.obj
 0001:00018310       ?dtor$1@?0???$make_shared@U?$_Task_impl@PE$AAU?$IVectorView@PE$AAVRadio@Radios@Devices@Windows@@@Collections@Foundation@Windows@@@details@Concurrency@@AEAPEAV_CancellationTokenState@23@AEAUscheduler_ptr@3@@std@@YA?AV?$shared_ptr@U?$_Task_impl@PE$AAU?$IVectorView@PE$AAVRadio@Radios@Devices@Windows@@@Collections@Foundation@Windows@@@details@Concurrency@@@0@AEAPEAV_CancellationTokenState@details@Concurrency@@AEAUscheduler_ptr@4@@Z@4HA 0000000180019310 f   _nodert_generated.obj
 0001:00018310       ?dtor$1@?0???$make_shared@U?$_Task_impl@E@details@Concurrency@@AEAPEAV_CancellationTokenState@23@AEAUscheduler_ptr@3@@std@@YA?AV?$shared_ptr@U?$_Task_impl@E@details@Concurrency@@@0@AEAPEAV_CancellationTokenState@details@Concurrency@@AEAUscheduler_ptr@4@@Z@4HA 0000000180019310 f   _nodert_generated.obj
 0001:00018340       ?dtor$1@?0???$IsWinRtWrapperOf@PE$AAU?$IVectorView@PE$AAVRadio@Radios@Devices@Windows@@@Collections@Foundation@Windows@@@Utils@NodeRT@@YA_NV?$Local@VValue@v8@@@v8@@@Z@4HA 0000000180019340 f   _nodert_generated.obj
 0001:0001834c       ?dtor$2@?0???$IsWinRtWrapperOf@PE$AAU?$IVectorView@PE$AAVRadio@Radios@Devices@Windows@@@Collections@Foundation@Windows@@@Utils@NodeRT@@YA_NV?$Local@VValue@v8@@@v8@@@Z@4HA 000000018001934c f   _nodert_generated.obj
 0001:00018358       ?catch$4@?0???$IsWinRtWrapperOf@PE$AAU?$IVectorView@PE$AAVRadio@Radios@Devices@Windows@@@Collections@Foundation@Windows@@@Utils@NodeRT@@YA_NV?$Local@VValue@v8@@@v8@@@Z@4HA 0000000180019358 f   _nodert_generated.obj
 0001:00018365       __catch$??$IsWinRtWrapperOf@PE$AAU?$IVectorView@PE$AAVRadio@Radios@Devices@Windows@@@Collections@Foundation@Windows@@@Utils@NodeRT@@YA_NV?$Local@VValue@v8@@@v8@@@Z$0 0000000180019365 f   _nodert_generated.obj
 0001:00018380       ?dtor$1@?0???$IsWinRtWrapperOf@PE$AAU?$IIterator@PE$AAVRadio@Radios@Devices@Windows@@@Collections@Foundation@Windows@@@Utils@NodeRT@@YA_NV?$Local@VValue@v8@@@v8@@@Z@4HA 0000000180019380 f   _nodert_generated.obj
 0001:0001838c       ?dtor$2@?0???$IsWinRtWrapperOf@PE$AAU?$IIterator@PE$AAVRadio@Radios@Devices@Windows@@@Collections@Foundation@Windows@@@Utils@NodeRT@@YA_NV?$Local@VValue@v8@@@v8@@@Z@4HA 000000018001938c f   _nodert_generated.obj
 0001:00018398       ?catch$4@?0???$IsWinRtWrapperOf@PE$AAU?$IIterator@PE$AAVRadio@Radios@Devices@Windows@@@Collections@Foundation@Windows@@@Utils@NodeRT@@YA_NV?$Local@VValue@v8@@@v8@@@Z@4HA 0000000180019398 f   _nodert_generated.obj
 0001:000183a5       __catch$??$IsWinRtWrapperOf@PE$AAU?$IIterator@PE$AAVRadio@Radios@Devices@Windows@@@Collections@Foundation@Windows@@@Utils@NodeRT@@YA_NV?$Local@VValue@v8@@@v8@@@Z$0 00000001800193a5 f   _nodert_generated.obj
 0001:000183c0       ?dtor$0@?0???B?$Box@_J@Platform@@QE$AAA_JXZ@4HA 00000001800193c0 f   _nodert_generated.obj
 0001:000183dd       ?dtor$1@?0???B?$Box@_J@Platform@@QE$AAA_JXZ@4HA 00000001800193dd f   _nodert_generated.obj
 0001:000183e9       ?dtor$2@?0???B?$Box@_J@Platform@@QE$AAA_JXZ@4HA 00000001800193e9 f   _nodert_generated.obj
 0001:00018400       ?dtor$0@?0???$?0PE$AAU?$IAsyncOperation@PE$AAU?$IVectorView@PE$AAVRadio@Radios@Devices@Windows@@@Collections@Foundation@Windows@@@Foundation@Windows@@@?$task@PE$AAU?$IVectorView@PE$AAVRadio@Radios@Devices@Windows@@@Collections@Foundation@Windows@@@Concurrency@@QEAA@PE$AAU?$IAsyncOperation@PE$AAU?$IVectorView@PE$AAVRadio@Radios@Devices@Windows@@@Collections@Foundation@Windows@@@Foundation@Windows@@AEBVtask_options@1@@Z@4HA 0000000180019400 f   _nodert_generated.obj
 0001:00018400       ?dtor$0@?0???$?0PE$AAU?$IAsyncOperation@PE$AAVRadio@Radios@Devices@Windows@@@Foundation@Windows@@@?$task@PE$AAVRadio@Radios@Devices@Windows@@@Concurrency@@QEAA@PE$AAU?$IAsyncOperation@PE$AAVRadio@Radios@Devices@Windows@@@Foundation@Windows@@AEBVtask_options@1@@Z@4HA 0000000180019400 f   _nodert_generated.obj
 0001:00018400       ?dtor$0@?0???$?0PE$AAU?$IAsyncOperation@W4RadioAccessStatus@Radios@Devices@Windows@@@Foundation@Windows@@@?$task@W4RadioAccessStatus@Radios@Devices@Windows@@@Concurrency@@QEAA@PE$AAU?$IAsyncOperation@W4RadioAccessStatus@Radios@Devices@Windows@@@Foundation@Windows@@AEBVtask_options@1@@Z@4HA 0000000180019400 f   _nodert_generated.obj
 0001:0001840c       ?dtor$1@?0???$?0PE$AAU?$IAsyncOperation@PE$AAU?$IVectorView@PE$AAVRadio@Radios@Devices@Windows@@@Collections@Foundation@Windows@@@Foundation@Windows@@@?$task@PE$AAU?$IVectorView@PE$AAVRadio@Radios@Devices@Windows@@@Collections@Foundation@Windows@@@Concurrency@@QEAA@PE$AAU?$IAsyncOperation@PE$AAU?$IVectorView@PE$AAVRadio@Radios@Devices@Windows@@@Collections@Foundation@Windows@@@Foundation@Windows@@AEBVtask_options@1@@Z@4HA 000000018001940c f   _nodert_generated.obj
 0001:0001840c       ?dtor$1@?0???$?0PE$AAU?$IAsyncOperation@PE$AAVRadio@Radios@Devices@Windows@@@Foundation@Windows@@@?$task@PE$AAVRadio@Radios@Devices@Windows@@@Concurrency@@QEAA@PE$AAU?$IAsyncOperation@PE$AAVRadio@Radios@Devices@Windows@@@Foundation@Windows@@AEBVtask_options@1@@Z@4HA 000000018001940c f   _nodert_generated.obj
 0001:0001840c       ?dtor$1@?0???$?0PE$AAU?$IAsyncOperation@W4RadioAccessStatus@Radios@Devices@Windows@@@Foundation@Windows@@@?$task@W4RadioAccessStatus@Radios@Devices@Windows@@@Concurrency@@QEAA@PE$AAU?$IAsyncOperation@W4RadioAccessStatus@Radios@Devices@Windows@@@Foundation@Windows@@AEBVtask_options@1@@Z@4HA 000000018001940c f   _nodert_generated.obj
 0001:00018418       ?dtor$3@?0???$?0PE$AAU?$IAsyncOperation@W4RadioAccessStatus@Radios@Devices@Windows@@@Foundation@Windows@@@?$task@W4RadioAccessStatus@Radios@Devices@Windows@@@Concurrency@@QEAA@PE$AAU?$IAsyncOperation@W4RadioAccessStatus@Radios@Devices@Windows@@@Foundation@Windows@@AEBVtask_options@1@@Z@4HA 0000000180019418 f   _nodert_generated.obj
 0001:00018418       ?dtor$3@?0???$?0PE$AAU?$IAsyncOperation@PE$AAU?$IVectorView@PE$AAVRadio@Radios@Devices@Windows@@@Collections@Foundation@Windows@@@Foundation@Windows@@@?$task@PE$AAU?$IVectorView@PE$AAVRadio@Radios@Devices@Windows@@@Collections@Foundation@Windows@@@Concurrency@@QEAA@PE$AAU?$IAsyncOperation@PE$AAU?$IVectorView@PE$AAVRadio@Radios@Devices@Windows@@@Collections@Foundation@Windows@@@Foundation@Windows@@AEBVtask_options@1@@Z@4HA 0000000180019418 f   _nodert_generated.obj
 0001:00018418       ?dtor$3@?0???$?0PE$AAU?$IAsyncOperation@PE$AAVRadio@Radios@Devices@Windows@@@Foundation@Windows@@@?$task@PE$AAVRadio@Radios@Devices@Windows@@@Concurrency@@QEAA@PE$AAU?$IAsyncOperation@PE$AAVRadio@Radios@Devices@Windows@@@Foundation@Windows@@AEBVtask_options@1@@Z@4HA 0000000180019418 f   _nodert_generated.obj
 0001:00018424       ?dtor$4@?0???$?0PE$AAU?$IAsyncOperation@PE$AAU?$IVectorView@PE$AAVRadio@Radios@Devices@Windows@@@Collections@Foundation@Windows@@@Foundation@Windows@@@?$task@PE$AAU?$IVectorView@PE$AAVRadio@Radios@Devices@Windows@@@Collections@Foundation@Windows@@@Concurrency@@QEAA@PE$AAU?$IAsyncOperation@PE$AAU?$IVectorView@PE$AAVRadio@Radios@Devices@Windows@@@Collections@Foundation@Windows@@@Foundation@Windows@@AEBVtask_options@1@@Z@4HA 0000000180019424 f   _nodert_generated.obj
 0001:00018424       ?dtor$4@?0???$?0PE$AAU?$IAsyncOperation@W4RadioAccessStatus@Radios@Devices@Windows@@@Foundation@Windows@@@?$task@W4RadioAccessStatus@Radios@Devices@Windows@@@Concurrency@@QEAA@PE$AAU?$IAsyncOperation@W4RadioAccessStatus@Radios@Devices@Windows@@@Foundation@Windows@@AEBVtask_options@1@@Z@4HA 0000000180019424 f   _nodert_generated.obj
 0001:00018424       ?dtor$4@?0???$?0PE$AAU?$IAsyncOperation@PE$AAVRadio@Radios@Devices@Windows@@@Foundation@Windows@@@?$task@PE$AAVRadio@Radios@Devices@Windows@@@Concurrency@@QEAA@PE$AAU?$IAsyncOperation@PE$AAVRadio@Radios@Devices@Windows@@@Foundation@Windows@@AEBVtask_options@1@@Z@4HA 0000000180019424 f   _nodert_generated.obj
 0001:00018450       ?dtor$5@?0???$?0PE$AAU?$IAsyncOperation@W4RadioAccessStatus@Radios@Devices@Windows@@@Foundation@Windows@@@?$task@W4RadioAccessStatus@Radios@Devices@Windows@@@Concurrency@@QEAA@PE$AAU?$IAsyncOperation@W4RadioAccessStatus@Radios@Devices@Windows@@@Foundation@Windows@@AEBVtask_options@1@@Z@4HA 0000000180019450 f   _nodert_generated.obj
 0001:00018450       ?dtor$5@?0???$?0PE$AAU?$IAsyncOperation@PE$AAU?$IVectorView@PE$AAVRadio@Radios@Devices@Windows@@@Collections@Foundation@Windows@@@Foundation@Windows@@@?$task@PE$AAU?$IVectorView@PE$AAVRadio@Radios@Devices@Windows@@@Collections@Foundation@Windows@@@Concurrency@@QEAA@PE$AAU?$IAsyncOperation@PE$AAU?$IVectorView@PE$AAVRadio@Radios@Devices@Windows@@@Collections@Foundation@Windows@@@Foundation@Windows@@AEBVtask_options@1@@Z@4HA 0000000180019450 f   _nodert_generated.obj
 0001:00018450       ?dtor$5@?0???$?0PE$AAU?$IAsyncOperation@PE$AAVRadio@Radios@Devices@Windows@@@Foundation@Windows@@@?$task@PE$AAVRadio@Radios@Devices@Windows@@@Concurrency@@QEAA@PE$AAU?$IAsyncOperation@PE$AAVRadio@Radios@Devices@Windows@@@Foundation@Windows@@AEBVtask_options@1@@Z@4HA 0000000180019450 f   _nodert_generated.obj
 0001:00018480       ?dtor$0@?0???$_ThenImpl@PE$AAU?$IVectorView@PE$AAVRadio@Radios@Devices@Windows@@@Collections@Foundation@Windows@@V?$function@$$A6AXV?$task@PE$AAU?$IVectorView@PE$AAVRadio@Radios@Devices@Windows@@@Collections@Foundation@Windows@@@Concurrency@@@Z@std@@@?$task@PE$AAU?$IVectorView@PE$AAVRadio@Radios@Devices@Windows@@@Collections@Foundation@Windows@@@Concurrency@@AEBA?AV?$task@X@1@AEBV?$function@$$A6AXV?$task@PE$AAU?$IVectorView@PE$AAVRadio@Radios@Devices@Windows@@@Collections@Foundation@Windows@@@Concurrency@@@Z@std@@AEAU_ThenImplOptions@details@1@@Z@4HA 0000000180019480 f   _nodert_generated.obj
 0001:00018480       ?dtor$0@?0???$_ThenImpl@W4RadioAccessStatus@Radios@Devices@Windows@@V?$function@$$A6AXV?$task@W4RadioAccessStatus@Radios@Devices@Windows@@@Concurrency@@@Z@std@@@?$task@W4RadioAccessStatus@Radios@Devices@Windows@@@Concurrency@@AEBA?AV?$task@X@1@AEBV?$function@$$A6AXV?$task@W4RadioAccessStatus@Radios@Devices@Windows@@@Concurrency@@@Z@std@@AEAU_ThenImplOptions@details@1@@Z@4HA 0000000180019480 f   _nodert_generated.obj
 0001:00018480       ?dtor$0@?0???$_ThenImpl@PE$AAVRadio@Radios@Devices@Windows@@V?$function@$$A6AXV?$task@PE$AAVRadio@Radios@Devices@Windows@@@Concurrency@@@Z@std@@@?$task@PE$AAVRadio@Radios@Devices@Windows@@@Concurrency@@AEBA?AV?$task@X@1@AEBV?$function@$$A6AXV?$task@PE$AAVRadio@Radios@Devices@Windows@@@Concurrency@@@Z@std@@AEAU_ThenImplOptions@details@1@@Z@4HA 0000000180019480 f   _nodert_generated.obj
 0001:000184a9       ?dtor$2@?0???$_ThenImpl@PE$AAU?$IVectorView@PE$AAVRadio@Radios@Devices@Windows@@@Collections@Foundation@Windows@@V?$function@$$A6AXV?$task@PE$AAU?$IVectorView@PE$AAVRadio@Radios@Devices@Windows@@@Collections@Foundation@Windows@@@Concurrency@@@Z@std@@@?$task@PE$AAU?$IVectorView@PE$AAVRadio@Radios@Devices@Windows@@@Collections@Foundation@Windows@@@Concurrency@@AEBA?AV?$task@X@1@AEBV?$function@$$A6AXV?$task@PE$AAU?$IVectorView@PE$AAVRadio@Radios@Devices@Windows@@@Collections@Foundation@Windows@@@Concurrency@@@Z@std@@AEAU_ThenImplOptions@details@1@@Z@4HA 00000001800194a9 f   _nodert_generated.obj
 0001:000184a9       ?dtor$2@?0???$_ThenImpl@PE$AAVRadio@Radios@Devices@Windows@@V?$function@$$A6AXV?$task@PE$AAVRadio@Radios@Devices@Windows@@@Concurrency@@@Z@std@@@?$task@PE$AAVRadio@Radios@Devices@Windows@@@Concurrency@@AEBA?AV?$task@X@1@AEBV?$function@$$A6AXV?$task@PE$AAVRadio@Radios@Devices@Windows@@@Concurrency@@@Z@std@@AEAU_ThenImplOptions@details@1@@Z@4HA 00000001800194a9 f   _nodert_generated.obj
 0001:000184a9       ?dtor$2@?0???$_ThenImpl@W4RadioAccessStatus@Radios@Devices@Windows@@V?$function@$$A6AXV?$task@W4RadioAccessStatus@Radios@Devices@Windows@@@Concurrency@@@Z@std@@@?$task@W4RadioAccessStatus@Radios@Devices@Windows@@@Concurrency@@AEBA?AV?$task@X@1@AEBV?$function@$$A6AXV?$task@W4RadioAccessStatus@Radios@Devices@Windows@@@Concurrency@@@Z@std@@AEAU_ThenImplOptions@details@1@@Z@4HA 00000001800194a9 f   _nodert_generated.obj
 0001:000184d0       ?dtor$0@?0???0?$_ContinuationTaskHandle@PE$AAVRadio@Radios@Devices@Windows@@XV?$function@$$A6AXV?$task@PE$AAVRadio@Radios@Devices@Windows@@@Concurrency@@@Z@std@@U?$integral_constant@_N$00@6@U_TypeSelectorNoAsync@details@Concurrency@@@?$task@PE$AAVRadio@Radios@Devices@Windows@@@Concurrency@@QEAA@AEBV?$shared_ptr@U?$_Task_impl@PE$AAVRadio@Radios@Devices@Windows@@@details@Concurrency@@@std@@AEBV?$shared_ptr@U?$_Task_impl@E@details@Concurrency@@@4@AEBV?$function@$$A6AXV?$task@PE$AAVRadio@Radios@Devices@Windows@@@Concurrency@@@Z@4@AEBVtask_continuation_context@2@W4_TaskInliningMode@details@2@@Z@4HA 00000001800194d0 f   _nodert_generated.obj
 0001:000184dc       ?dtor$1@?0???0?$_ContinuationTaskHandle@PE$AAVRadio@Radios@Devices@Windows@@XV?$function@$$A6AXV?$task@PE$AAVRadio@Radios@Devices@Windows@@@Concurrency@@@Z@std@@U?$integral_constant@_N$00@6@U_TypeSelectorNoAsync@details@Concurrency@@@?$task@PE$AAVRadio@Radios@Devices@Windows@@@Concurrency@@QEAA@AEBV?$shared_ptr@U?$_Task_impl@PE$AAVRadio@Radios@Devices@Windows@@@details@Concurrency@@@std@@AEBV?$shared_ptr@U?$_Task_impl@E@details@Concurrency@@@4@AEBV?$function@$$A6AXV?$task@PE$AAVRadio@Radios@Devices@Windows@@@Concurrency@@@Z@4@AEBVtask_continuation_context@2@W4_TaskInliningMode@details@2@@Z@4HA 00000001800194dc f   _nodert_generated.obj
 0001:000184ec       ?dtor$3@?0???0?$_ContinuationTaskHandle@PE$AAVRadio@Radios@Devices@Windows@@XV?$function@$$A6AXV?$task@PE$AAVRadio@Radios@Devices@Windows@@@Concurrency@@@Z@std@@U?$integral_constant@_N$00@6@U_TypeSelectorNoAsync@details@Concurrency@@@?$task@PE$AAVRadio@Radios@Devices@Windows@@@Concurrency@@QEAA@AEBV?$shared_ptr@U?$_Task_impl@PE$AAVRadio@Radios@Devices@Windows@@@details@Concurrency@@@std@@AEBV?$shared_ptr@U?$_Task_impl@E@details@Concurrency@@@4@AEBV?$function@$$A6AXV?$task@PE$AAVRadio@Radios@Devices@Windows@@@Concurrency@@@Z@4@AEBVtask_continuation_context@2@W4_TaskInliningMode@details@2@@Z@4HA 00000001800194ec f   _nodert_generated.obj
 0001:000184f8       ?dtor$2@?0???0?$_ContinuationTaskHandle@PE$AAVRadio@Radios@Devices@Windows@@XV?$function@$$A6AXV?$task@PE$AAVRadio@Radios@Devices@Windows@@@Concurrency@@@Z@std@@U?$integral_constant@_N$00@6@U_TypeSelectorNoAsync@details@Concurrency@@@?$task@PE$AAVRadio@Radios@Devices@Windows@@@Concurrency@@QEAA@AEBV?$shared_ptr@U?$_Task_impl@PE$AAVRadio@Radios@Devices@Windows@@@details@Concurrency@@@std@@AEBV?$shared_ptr@U?$_Task_impl@E@details@Concurrency@@@4@AEBV?$function@$$A6AXV?$task@PE$AAVRadio@Radios@Devices@Windows@@@Concurrency@@@Z@4@AEBVtask_continuation_context@2@W4_TaskInliningMode@details@2@@Z@4HA 00000001800194f8 f   _nodert_generated.obj
 0001:00018510       ?dtor$0@?0???0?$_ContinuationTaskHandle@PE$AAU?$IVectorView@PE$AAVRadio@Radios@Devices@Windows@@@Collections@Foundation@Windows@@XV?$function@$$A6AXV?$task@PE$AAU?$IVectorView@PE$AAVRadio@Radios@Devices@Windows@@@Collections@Foundation@Windows@@@Concurrency@@@Z@std@@U?$integral_constant@_N$00@6@U_TypeSelectorNoAsync@details@Concurrency@@@?$task@PE$AAU?$IVectorView@PE$AAVRadio@Radios@Devices@Windows@@@Collections@Foundation@Windows@@@Concurrency@@QEAA@AEBV?$shared_ptr@U?$_Task_impl@PE$AAU?$IVectorView@PE$AAVRadio@Radios@Devices@Windows@@@Collections@Foundation@Windows@@@details@Concurrency@@@std@@AEBV?$shared_ptr@U?$_Task_impl@E@details@Concurrency@@@4@AEBV?$function@$$A6AXV?$task@PE$AAU?$IVectorView@PE$AAVRadio@Radios@Devices@Windows@@@Collections@Foundation@Windows@@@Concurrency@@@Z@4@AEBVtask_continuation_context@2@W4_TaskInliningMode@details@2@@Z@4HA 0000000180019510 f   _nodert_generated.obj
 0001:0001851c       ?dtor$1@?0???0?$_ContinuationTaskHandle@PE$AAU?$IVectorView@PE$AAVRadio@Radios@Devices@Windows@@@Collections@Foundation@Windows@@XV?$function@$$A6AXV?$task@PE$AAU?$IVectorView@PE$AAVRadio@Radios@Devices@Windows@@@Collections@Foundation@Windows@@@Concurrency@@@Z@std@@U?$integral_constant@_N$00@6@U_TypeSelectorNoAsync@details@Concurrency@@@?$task@PE$AAU?$IVectorView@PE$AAVRadio@Radios@Devices@Windows@@@Collections@Foundation@Windows@@@Concurrency@@QEAA@AEBV?$shared_ptr@U?$_Task_impl@PE$AAU?$IVectorView@PE$AAVRadio@Radios@Devices@Windows@@@Collections@Foundation@Windows@@@details@Concurrency@@@std@@AEBV?$shared_ptr@U?$_Task_impl@E@details@Concurrency@@@4@AEBV?$function@$$A6AXV?$task@PE$AAU?$IVectorView@PE$AAVRadio@Radios@Devices@Windows@@@Collections@Foundation@Windows@@@Concurrency@@@Z@4@AEBVtask_continuation_context@2@W4_TaskInliningMode@details@2@@Z@4HA 000000018001951c f   _nodert_generated.obj
 0001:0001852c       ?dtor$3@?0???0?$_ContinuationTaskHandle@PE$AAU?$IVectorView@PE$AAVRadio@Radios@Devices@Windows@@@Collections@Foundation@Windows@@XV?$function@$$A6AXV?$task@PE$AAU?$IVectorView@PE$AAVRadio@Radios@Devices@Windows@@@Collections@Foundation@Windows@@@Concurrency@@@Z@std@@U?$integral_constant@_N$00@6@U_TypeSelectorNoAsync@details@Concurrency@@@?$task@PE$AAU?$IVectorView@PE$AAVRadio@Radios@Devices@Windows@@@Collections@Foundation@Windows@@@Concurrency@@QEAA@AEBV?$shared_ptr@U?$_Task_impl@PE$AAU?$IVectorView@PE$AAVRadio@Radios@Devices@Windows@@@Collections@Foundation@Windows@@@details@Concurrency@@@std@@AEBV?$shared_ptr@U?$_Task_impl@E@details@Concurrency@@@4@AEBV?$function@$$A6AXV?$task@PE$AAU?$IVectorView@PE$AAVRadio@Radios@Devices@Windows@@@Collections@Foundation@Windows@@@Concurrency@@@Z@4@AEBVtask_continuation_context@2@W4_TaskInliningMode@details@2@@Z@4HA 000000018001952c f   _nodert_generated.obj
 0001:00018538       ?dtor$2@?0???0?$_ContinuationTaskHandle@PE$AAU?$IVectorView@PE$AAVRadio@Radios@Devices@Windows@@@Collections@Foundation@Windows@@XV?$function@$$A6AXV?$task@PE$AAU?$IVectorView@PE$AAVRadio@Radios@Devices@Windows@@@Collections@Foundation@Windows@@@Concurrency@@@Z@std@@U?$integral_constant@_N$00@6@U_TypeSelectorNoAsync@details@Concurrency@@@?$task@PE$AAU?$IVectorView@PE$AAVRadio@Radios@Devices@Windows@@@Collections@Foundation@Windows@@@Concurrency@@QEAA@AEBV?$shared_ptr@U?$_Task_impl@PE$AAU?$IVectorView@PE$AAVRadio@Radios@Devices@Windows@@@Collections@Foundation@Windows@@@details@Concurrency@@@std@@AEBV?$shared_ptr@U?$_Task_impl@E@details@Concurrency@@@4@AEBV?$function@$$A6AXV?$task@PE$AAU?$IVectorView@PE$AAVRadio@Radios@Devices@Windows@@@Collections@Foundation@Windows@@@Concurrency@@@Z@4@AEBVtask_continuation_context@2@W4_TaskInliningMode@details@2@@Z@4HA 0000000180019538 f   _nodert_generated.obj
 0001:00018550       ?dtor$0@?0???0?$_ContinuationTaskHandle@W4RadioAccessStatus@Radios@Devices@Windows@@XV?$function@$$A6AXV?$task@W4RadioAccessStatus@Radios@Devices@Windows@@@Concurrency@@@Z@std@@U?$integral_constant@_N$00@6@U_TypeSelectorNoAsync@details@Concurrency@@@?$task@W4RadioAccessStatus@Radios@Devices@Windows@@@Concurrency@@QEAA@AEBV?$shared_ptr@U?$_Task_impl@W4RadioAccessStatus@Radios@Devices@Windows@@@details@Concurrency@@@std@@AEBV?$shared_ptr@U?$_Task_impl@E@details@Concurrency@@@4@AEBV?$function@$$A6AXV?$task@W4RadioAccessStatus@Radios@Devices@Windows@@@Concurrency@@@Z@4@AEBVtask_continuation_context@2@W4_TaskInliningMode@details@2@@Z@4HA 0000000180019550 f   _nodert_generated.obj
 0001:0001855c       ?dtor$1@?0???0?$_ContinuationTaskHandle@W4RadioAccessStatus@Radios@Devices@Windows@@XV?$function@$$A6AXV?$task@W4RadioAccessStatus@Radios@Devices@Windows@@@Concurrency@@@Z@std@@U?$integral_constant@_N$00@6@U_TypeSelectorNoAsync@details@Concurrency@@@?$task@W4RadioAccessStatus@Radios@Devices@Windows@@@Concurrency@@QEAA@AEBV?$shared_ptr@U?$_Task_impl@W4RadioAccessStatus@Radios@Devices@Windows@@@details@Concurrency@@@std@@AEBV?$shared_ptr@U?$_Task_impl@E@details@Concurrency@@@4@AEBV?$function@$$A6AXV?$task@W4RadioAccessStatus@Radios@Devices@Windows@@@Concurrency@@@Z@4@AEBVtask_continuation_context@2@W4_TaskInliningMode@details@2@@Z@4HA 000000018001955c f   _nodert_generated.obj
 0001:0001856c       ?dtor$3@?0???0?$_ContinuationTaskHandle@W4RadioAccessStatus@Radios@Devices@Windows@@XV?$function@$$A6AXV?$task@W4RadioAccessStatus@Radios@Devices@Windows@@@Concurrency@@@Z@std@@U?$integral_constant@_N$00@6@U_TypeSelectorNoAsync@details@Concurrency@@@?$task@W4RadioAccessStatus@Radios@Devices@Windows@@@Concurrency@@QEAA@AEBV?$shared_ptr@U?$_Task_impl@W4RadioAccessStatus@Radios@Devices@Windows@@@details@Concurrency@@@std@@AEBV?$shared_ptr@U?$_Task_impl@E@details@Concurrency@@@4@AEBV?$function@$$A6AXV?$task@W4RadioAccessStatus@Radios@Devices@Windows@@@Concurrency@@@Z@4@AEBVtask_continuation_context@2@W4_TaskInliningMode@details@2@@Z@4HA 000000018001956c f   _nodert_generated.obj
 0001:00018578       ?dtor$2@?0???0?$_ContinuationTaskHandle@W4RadioAccessStatus@Radios@Devices@Windows@@XV?$function@$$A6AXV?$task@W4RadioAccessStatus@Radios@Devices@Windows@@@Concurrency@@@Z@std@@U?$integral_constant@_N$00@6@U_TypeSelectorNoAsync@details@Concurrency@@@?$task@W4RadioAccessStatus@Radios@Devices@Windows@@@Concurrency@@QEAA@AEBV?$shared_ptr@U?$_Task_impl@W4RadioAccessStatus@Radios@Devices@Windows@@@details@Concurrency@@@std@@AEBV?$shared_ptr@U?$_Task_impl@E@details@Concurrency@@@4@AEBV?$function@$$A6AXV?$task@W4RadioAccessStatus@Radios@Devices@Windows@@@Concurrency@@@Z@4@AEBVtask_continuation_context@2@W4_TaskInliningMode@details@2@@Z@4HA 0000000180019578 f   _nodert_generated.obj
 0001:00018590       ?dtor$2@?0???0?$_PPLTaskHandle@EU?$_ContinuationTaskHandle@PE$AAVRadio@Radios@Devices@Windows@@XV?$function@$$A6AXV?$task@PE$AAVRadio@Radios@Devices@Windows@@@Concurrency@@@Z@std@@U?$integral_constant@_N$00@6@U_TypeSelectorNoAsync@details@Concurrency@@@?$task@PE$AAVRadio@Radios@Devices@Windows@@@Concurrency@@U_ContinuationTaskHandleBase@details@3@@details@Concurrency@@QEAA@AEBV?$shared_ptr@U?$_Task_impl@E@details@Concurrency@@@std@@@Z@4HA 0000000180019590 f   _nodert_generated.obj
 0001:00018590       ?dtor$2@?0???0?$_PPLTaskHandle@EU?$_ContinuationTaskHandle@W4RadioAccessStatus@Radios@Devices@Windows@@XV?$function@$$A6AXV?$task@W4RadioAccessStatus@Radios@Devices@Windows@@@Concurrency@@@Z@std@@U?$integral_constant@_N$00@6@U_TypeSelectorNoAsync@details@Concurrency@@@?$task@W4RadioAccessStatus@Radios@Devices@Windows@@@Concurrency@@U_ContinuationTaskHandleBase@details@3@@details@Concurrency@@QEAA@AEBV?$shared_ptr@U?$_Task_impl@E@details@Concurrency@@@std@@@Z@4HA 0000000180019590 f   _nodert_generated.obj
 0001:00018590       ?dtor$2@?0???0?$_PPLTaskHandle@EU?$_ContinuationTaskHandle@PE$AAU?$IVectorView@PE$AAVRadio@Radios@Devices@Windows@@@Collections@Foundation@Windows@@XV?$function@$$A6AXV?$task@PE$AAU?$IVectorView@PE$AAVRadio@Radios@Devices@Windows@@@Collections@Foundation@Windows@@@Concurrency@@@Z@std@@U?$integral_constant@_N$00@6@U_TypeSelectorNoAsync@details@Concurrency@@@?$task@PE$AAU?$IVectorView@PE$AAVRadio@Radios@Devices@Windows@@@Collections@Foundation@Windows@@@Concurrency@@U_ContinuationTaskHandleBase@details@3@@details@Concurrency@@QEAA@AEBV?$shared_ptr@U?$_Task_impl@E@details@Concurrency@@@std@@@Z@4HA 0000000180019590 f   _nodert_generated.obj
 0001:000185a0       ?dtor$0@?0??_Continue@?$_ContinuationTaskHandle@PE$AAVRadio@Radios@Devices@Windows@@XV?$function@$$A6AXV?$task@PE$AAVRadio@Radios@Devices@Windows@@@Concurrency@@@Z@std@@U?$integral_constant@_N$00@6@U_TypeSelectorNoAsync@details@Concurrency@@@?$task@PE$AAVRadio@Radios@Devices@Windows@@@Concurrency@@QEBAXU?$integral_constant@_N$00@std@@U_TypeSelectorNoAsync@details@3@@Z@4HA 00000001800195a0 f   _nodert_generated.obj
 0001:000185ac       ?dtor$3@?0??_Continue@?$_ContinuationTaskHandle@PE$AAVRadio@Radios@Devices@Windows@@XV?$function@$$A6AXV?$task@PE$AAVRadio@Radios@Devices@Windows@@@Concurrency@@@Z@std@@U?$integral_constant@_N$00@6@U_TypeSelectorNoAsync@details@Concurrency@@@?$task@PE$AAVRadio@Radios@Devices@Windows@@@Concurrency@@QEBAXU?$integral_constant@_N$00@std@@U_TypeSelectorNoAsync@details@3@@Z@4HA 00000001800195ac f   _nodert_generated.obj
 0001:000185b8       ?dtor$2@?0??_Continue@?$_ContinuationTaskHandle@PE$AAVRadio@Radios@Devices@Windows@@XV?$function@$$A6AXV?$task@PE$AAVRadio@Radios@Devices@Windows@@@Concurrency@@@Z@std@@U?$integral_constant@_N$00@6@U_TypeSelectorNoAsync@details@Concurrency@@@?$task@PE$AAVRadio@Radios@Devices@Windows@@@Concurrency@@QEBAXU?$integral_constant@_N$00@std@@U_TypeSelectorNoAsync@details@3@@Z@4HA 00000001800195b8 f   _nodert_generated.obj
 0001:000185c4       ?dtor$5@?0??_Continue@?$_ContinuationTaskHandle@PE$AAVRadio@Radios@Devices@Windows@@XV?$function@$$A6AXV?$task@PE$AAVRadio@Radios@Devices@Windows@@@Concurrency@@@Z@std@@U?$integral_constant@_N$00@6@U_TypeSelectorNoAsync@details@Concurrency@@@?$task@PE$AAVRadio@Radios@Devices@Windows@@@Concurrency@@QEBAXU?$integral_constant@_N$00@std@@U_TypeSelectorNoAsync@details@3@@Z@4HA 00000001800195c4 f   _nodert_generated.obj
 0001:000185d0       ?dtor$0@?0??_Continue@?$_ContinuationTaskHandle@PE$AAU?$IVectorView@PE$AAVRadio@Radios@Devices@Windows@@@Collections@Foundation@Windows@@XV?$function@$$A6AXV?$task@PE$AAU?$IVectorView@PE$AAVRadio@Radios@Devices@Windows@@@Collections@Foundation@Windows@@@Concurrency@@@Z@std@@U?$integral_constant@_N$00@6@U_TypeSelectorNoAsync@details@Concurrency@@@?$task@PE$AAU?$IVectorView@PE$AAVRadio@Radios@Devices@Windows@@@Collections@Foundation@Windows@@@Concurrency@@QEBAXU?$integral_constant@_N$00@std@@U_TypeSelectorNoAsync@details@3@@Z@4HA 00000001800195d0 f   _nodert_generated.obj
 0001:000185dc       ?dtor$3@?0??_Continue@?$_ContinuationTaskHandle@PE$AAU?$IVectorView@PE$AAVRadio@Radios@Devices@Windows@@@Collections@Foundation@Windows@@XV?$function@$$A6AXV?$task@PE$AAU?$IVectorView@PE$AAVRadio@Radios@Devices@Windows@@@Collections@Foundation@Windows@@@Concurrency@@@Z@std@@U?$integral_constant@_N$00@6@U_TypeSelectorNoAsync@details@Concurrency@@@?$task@PE$AAU?$IVectorView@PE$AAVRadio@Radios@Devices@Windows@@@Collections@Foundation@Windows@@@Concurrency@@QEBAXU?$integral_constant@_N$00@std@@U_TypeSelectorNoAsync@details@3@@Z@4HA 00000001800195dc f   _nodert_generated.obj
 0001:000185e8       ?dtor$2@?0??_Continue@?$_ContinuationTaskHandle@PE$AAU?$IVectorView@PE$AAVRadio@Radios@Devices@Windows@@@Collections@Foundation@Windows@@XV?$function@$$A6AXV?$task@PE$AAU?$IVectorView@PE$AAVRadio@Radios@Devices@Windows@@@Collections@Foundation@Windows@@@Concurrency@@@Z@std@@U?$integral_constant@_N$00@6@U_TypeSelectorNoAsync@details@Concurrency@@@?$task@PE$AAU?$IVectorView@PE$AAVRadio@Radios@Devices@Windows@@@Collections@Foundation@Windows@@@Concurrency@@QEBAXU?$integral_constant@_N$00@std@@U_TypeSelectorNoAsync@details@3@@Z@4HA 00000001800195e8 f   _nodert_generated.obj
 0001:000185f4       ?dtor$5@?0??_Continue@?$_ContinuationTaskHandle@PE$AAU?$IVectorView@PE$AAVRadio@Radios@Devices@Windows@@@Collections@Foundation@Windows@@XV?$function@$$A6AXV?$task@PE$AAU?$IVectorView@PE$AAVRadio@Radios@Devices@Windows@@@Collections@Foundation@Windows@@@Concurrency@@@Z@std@@U?$integral_constant@_N$00@6@U_TypeSelectorNoAsync@details@Concurrency@@@?$task@PE$AAU?$IVectorView@PE$AAVRadio@Radios@Devices@Windows@@@Collections@Foundation@Windows@@@Concurrency@@QEBAXU?$integral_constant@_N$00@std@@U_TypeSelectorNoAsync@details@3@@Z@4HA 00000001800195f4 f   _nodert_generated.obj
 0001:00018600       ?dtor$0@?0??_Continue@?$_ContinuationTaskHandle@W4RadioAccessStatus@Radios@Devices@Windows@@XV?$function@$$A6AXV?$task@W4RadioAccessStatus@Radios@Devices@Windows@@@Concurrency@@@Z@std@@U?$integral_constant@_N$00@6@U_TypeSelectorNoAsync@details@Concurrency@@@?$task@W4RadioAccessStatus@Radios@Devices@Windows@@@Concurrency@@QEBAXU?$integral_constant@_N$00@std@@U_TypeSelectorNoAsync@details@3@@Z@4HA 0000000180019600 f   _nodert_generated.obj
 0001:0001860c       ?dtor$3@?0??_Continue@?$_ContinuationTaskHandle@W4RadioAccessStatus@Radios@Devices@Windows@@XV?$function@$$A6AXV?$task@W4RadioAccessStatus@Radios@Devices@Windows@@@Concurrency@@@Z@std@@U?$integral_constant@_N$00@6@U_TypeSelectorNoAsync@details@Concurrency@@@?$task@W4RadioAccessStatus@Radios@Devices@Windows@@@Concurrency@@QEBAXU?$integral_constant@_N$00@std@@U_TypeSelectorNoAsync@details@3@@Z@4HA 000000018001960c f   _nodert_generated.obj
 0001:00018618       ?dtor$2@?0??_Continue@?$_ContinuationTaskHandle@W4RadioAccessStatus@Radios@Devices@Windows@@XV?$function@$$A6AXV?$task@W4RadioAccessStatus@Radios@Devices@Windows@@@Concurrency@@@Z@std@@U?$integral_constant@_N$00@6@U_TypeSelectorNoAsync@details@Concurrency@@@?$task@W4RadioAccessStatus@Radios@Devices@Windows@@@Concurrency@@QEBAXU?$integral_constant@_N$00@std@@U_TypeSelectorNoAsync@details@3@@Z@4HA 0000000180019618 f   _nodert_generated.obj
 0001:00018624       ?dtor$4@?0??_Continue@?$_ContinuationTaskHandle@W4RadioAccessStatus@Radios@Devices@Windows@@XV?$function@$$A6AXV?$task@W4RadioAccessStatus@Radios@Devices@Windows@@@Concurrency@@@Z@std@@U?$integral_constant@_N$00@6@U_TypeSelectorNoAsync@details@Concurrency@@@?$task@W4RadioAccessStatus@Radios@Devices@Windows@@@Concurrency@@QEBAXU?$integral_constant@_N$00@std@@U_TypeSelectorNoAsync@details@3@@Z@4HA 0000000180019624 f   _nodert_generated.obj
 0001:00018630       ?dtor$0@?0??_Perform@?$_Continuation_func_transformer@V?$task@W4RadioAccessStatus@Radios@Devices@Windows@@@Concurrency@@X@Concurrency@@SA?AV?$function@$$A6AEV?$task@W4RadioAccessStatus@Radios@Devices@Windows@@@Concurrency@@@Z@std@@V?$function@$$A6AXV?$task@W4RadioAccessStatus@Radios@Devices@Windows@@@Concurrency@@@Z@4@@Z@4HA 0000000180019630 f   _nodert_generated.obj
 0001:00018640       ?dtor$0@?0??_Perform@?$_Continuation_func_transformer@V?$task@PE$AAU?$IVectorView@PE$AAVRadio@Radios@Devices@Windows@@@Collections@Foundation@Windows@@@Concurrency@@X@Concurrency@@SA?AV?$function@$$A6AEV?$task@PE$AAU?$IVectorView@PE$AAVRadio@Radios@Devices@Windows@@@Collections@Foundation@Windows@@@Concurrency@@@Z@std@@V?$function@$$A6AXV?$task@PE$AAU?$IVectorView@PE$AAVRadio@Radios@Devices@Windows@@@Collections@Foundation@Windows@@@Concurrency@@@Z@4@@Z@4HA 0000000180019640 f   _nodert_generated.obj
 0001:00018650       ?dtor$0@?0??_Perform@?$_Continuation_func_transformer@V?$task@PE$AAVRadio@Radios@Devices@Windows@@@Concurrency@@X@Concurrency@@SA?AV?$function@$$A6AEV?$task@PE$AAVRadio@Radios@Devices@Windows@@@Concurrency@@@Z@std@@V?$function@$$A6AXV?$task@PE$AAVRadio@Radios@Devices@Windows@@@Concurrency@@@Z@4@@Z@4HA 0000000180019650 f   _nodert_generated.obj
 0001:00018660       ?dtor$3@?0???$_MakeTToUnitFunc@V?$task@PE$AAVRadio@Radios@Devices@Windows@@@Concurrency@@@details@Concurrency@@YA?AV?$function@$$A6AEV?$task@PE$AAVRadio@Radios@Devices@Windows@@@Concurrency@@@Z@std@@AEBV?$function@$$A6AXV?$task@PE$AAVRadio@Radios@Devices@Windows@@@Concurrency@@@Z@3@@Z@4HA 0000000180019660 f   _nodert_generated.obj
 0001:00018670       ?dtor$0@?0???R?$_Func_class@XV?$task@PE$AAVRadio@Radios@Devices@Windows@@@Concurrency@@@std@@QEBAXV?$task@PE$AAVRadio@Radios@Devices@Windows@@@Concurrency@@@Z@4HA 0000000180019670 f   _nodert_generated.obj
 0001:00018670       ?dtor$0@?0???R<lambda_83ab8abb741bf007d1b5942dba04bfdd>@@QEBAEV?$task@PE$AAU?$IVectorView@PE$AAVRadio@Radios@Devices@Windows@@@Collections@Foundation@Windows@@@Concurrency@@@Z@4HA 0000000180019670 f   _nodert_generated.obj
 0001:00018670       ?dtor$0@?0???R?$_Func_class@XV?$task@PE$AAU?$IVectorView@PE$AAVRadio@Radios@Devices@Windows@@@Collections@Foundation@Windows@@@Concurrency@@@std@@QEBAXV?$task@PE$AAU?$IVectorView@PE$AAVRadio@Radios@Devices@Windows@@@Collections@Foundation@Windows@@@Concurrency@@@Z@4HA 0000000180019670 f   _nodert_generated.obj
 0001:00018670       ?dtor$0@?0???R?$_Func_class@EV?$task@PE$AAU?$IVectorView@PE$AAVRadio@Radios@Devices@Windows@@@Collections@Foundation@Windows@@@Concurrency@@@std@@QEBAEV?$task@PE$AAU?$IVectorView@PE$AAVRadio@Radios@Devices@Windows@@@Collections@Foundation@Windows@@@Concurrency@@@Z@4HA 0000000180019670 f   _nodert_generated.obj
 0001:00018670       ?dtor$0@?0???R?$_Func_class@EV?$task@PE$AAVRadio@Radios@Devices@Windows@@@Concurrency@@@std@@QEBAEV?$task@PE$AAVRadio@Radios@Devices@Windows@@@Concurrency@@@Z@4HA 0000000180019670 f   _nodert_generated.obj
 0001:00018670       ?dtor$0@?0???R<lambda_73163a669fe347e5c4e2d28c36c6f8ca>@@QEBAEV?$task@PE$AAVRadio@Radios@Devices@Windows@@@Concurrency@@@Z@4HA 0000000180019670 f   _nodert_generated.obj
 0001:00018670       ?dtor$0@?0???R?$_Func_class@EV?$task@W4RadioAccessStatus@Radios@Devices@Windows@@@Concurrency@@@std@@QEBAEV?$task@W4RadioAccessStatus@Radios@Devices@Windows@@@Concurrency@@@Z@4HA 0000000180019670 f   _nodert_generated.obj
 0001:00018680       ?dtor$3@?0???$_MakeTToUnitFunc@V?$task@PE$AAU?$IVectorView@PE$AAVRadio@Radios@Devices@Windows@@@Collections@Foundation@Windows@@@Concurrency@@@details@Concurrency@@YA?AV?$function@$$A6AEV?$task@PE$AAU?$IVectorView@PE$AAVRadio@Radios@Devices@Windows@@@Collections@Foundation@Windows@@@Concurrency@@@Z@std@@AEBV?$function@$$A6AXV?$task@PE$AAU?$IVectorView@PE$AAVRadio@Radios@Devices@Windows@@@Collections@Foundation@Windows@@@Concurrency@@@Z@3@@Z@4HA 0000000180019680 f   _nodert_generated.obj
 0001:00018690       ?dtor$3@?0???$_MakeTToUnitFunc@V?$task@W4RadioAccessStatus@Radios@Devices@Windows@@@Concurrency@@@details@Concurrency@@YA?AV?$function@$$A6AEV?$task@W4RadioAccessStatus@Radios@Devices@Windows@@@Concurrency@@@Z@std@@AEBV?$function@$$A6AXV?$task@W4RadioAccessStatus@Radios@Devices@Windows@@@Concurrency@@@Z@3@@Z@4HA 0000000180019690 f   _nodert_generated.obj
 0001:0001869c       ?dtor$4@?0???$_MakeTToUnitFunc@V?$task@W4RadioAccessStatus@Radios@Devices@Windows@@@Concurrency@@@details@Concurrency@@YA?AV?$function@$$A6AEV?$task@W4RadioAccessStatus@Radios@Devices@Windows@@@Concurrency@@@Z@std@@AEBV?$function@$$A6AXV?$task@W4RadioAccessStatus@Radios@Devices@Windows@@@Concurrency@@@Z@3@@Z@4HA 000000018001969c f   _nodert_generated.obj
 0001:000186a8       ?dtor$5@?0???$_MakeTToUnitFunc@V?$task@W4RadioAccessStatus@Radios@Devices@Windows@@@Concurrency@@@details@Concurrency@@YA?AV?$function@$$A6AEV?$task@W4RadioAccessStatus@Radios@Devices@Windows@@@Concurrency@@@Z@std@@AEBV?$function@$$A6AXV?$task@W4RadioAccessStatus@Radios@Devices@Windows@@@Concurrency@@@Z@3@@Z@4HA 00000001800196a8 f   _nodert_generated.obj
 0001:000186c0       ?dtor$0@?0???R<lambda_199453e3251722af17cbed06cee0aa25>@@QEBAEV?$task@W4RadioAccessStatus@Radios@Devices@Windows@@@Concurrency@@@Z@4HA 00000001800196c0 f   _nodert_generated.obj
 0001:000186cc       ?dtor$2@?0???R<lambda_199453e3251722af17cbed06cee0aa25>@@QEBAEV?$task@W4RadioAccessStatus@Radios@Devices@Windows@@@Concurrency@@@Z@4HA 00000001800196cc f   _nodert_generated.obj
 0001:000186e0       ?dtor$0@?0??_Copy@?$_Func_impl@V<lambda_fc55a96778b695da9907353a9fdacbca>@@V?$allocator@H@std@@X$$V@std@@EEBAPEAV?$_Func_base@X$$V@2@PEAX@Z@4HA 00000001800196e0 f   _nodert_generated.obj
 0001:000186e0       ?dtor$0@?0??_Move@?$_Func_impl@V<lambda_fc55a96778b695da9907353a9fdacbca>@@V?$allocator@H@std@@X$$V@std@@EEAAPEAV?$_Func_base@X$$V@2@PEAX@Z@4HA 00000001800196e0 f   _nodert_generated.obj
 0001:000186fc       ?dtor$1@?0??_Copy@?$_Func_impl@V<lambda_fc55a96778b695da9907353a9fdacbca>@@V?$allocator@H@std@@X$$V@std@@EEBAPEAV?$_Func_base@X$$V@2@PEAX@Z@4HA 00000001800196fc f   _nodert_generated.obj
 0001:000186fc       ?dtor$1@?0??_Move@?$_Func_impl@V<lambda_fc55a96778b695da9907353a9fdacbca>@@V?$allocator@H@std@@X$$V@std@@EEAAPEAV?$_Func_base@X$$V@2@PEAX@Z@4HA 00000001800196fc f   _nodert_generated.obj
 0001:00018710       ?dtor$0@?0??_TaskInitAsyncOp@?$task@W4RadioAccessStatus@Radios@Devices@Windows@@@Concurrency@@AEAAXPE$AAU?$IAsyncOperation@W4RadioAccessStatus@Radios@Devices@Windows@@@Foundation@Windows@@@Z@4HA 0000000180019710 f   _nodert_generated.obj
 0001:00018710       ?dtor$0@?0??_TaskInitAsyncOp@?$task@PE$AAU?$IVectorView@PE$AAVRadio@Radios@Devices@Windows@@@Collections@Foundation@Windows@@@Concurrency@@AEAAXPE$AAU?$IAsyncOperation@PE$AAU?$IVectorView@PE$AAVRadio@Radios@Devices@Windows@@@Collections@Foundation@Windows@@@Foundation@Windows@@@Z@4HA 0000000180019710 f   _nodert_generated.obj
 0001:00018710       ?dtor$0@?0??_TaskInitAsyncOp@?$task@PE$AAVRadio@Radios@Devices@Windows@@@Concurrency@@AEAAXPE$AAU?$IAsyncOperation@PE$AAVRadio@Radios@Devices@Windows@@@Foundation@Windows@@@Z@4HA 0000000180019710 f   _nodert_generated.obj
 0001:0001872d       ?dtor$2@?0??_TaskInitAsyncOp@?$task@PE$AAVRadio@Radios@Devices@Windows@@@Concurrency@@AEAAXPE$AAU?$IAsyncOperation@PE$AAVRadio@Radios@Devices@Windows@@@Foundation@Windows@@@Z@4HA 000000018001972d f   _nodert_generated.obj
 0001:0001872d       ?dtor$2@?0??_TaskInitAsyncOp@?$task@PE$AAU?$IVectorView@PE$AAVRadio@Radios@Devices@Windows@@@Collections@Foundation@Windows@@@Concurrency@@AEAAXPE$AAU?$IAsyncOperation@PE$AAU?$IVectorView@PE$AAVRadio@Radios@Devices@Windows@@@Collections@Foundation@Windows@@@Foundation@Windows@@@Z@4HA 000000018001972d f   _nodert_generated.obj
 0001:0001872d       ?dtor$2@?0??_TaskInitAsyncOp@?$task@W4RadioAccessStatus@Radios@Devices@Windows@@@Concurrency@@AEAAXPE$AAU?$IAsyncOperation@W4RadioAccessStatus@Radios@Devices@Windows@@@Foundation@Windows@@@Z@4HA 000000018001972d f   _nodert_generated.obj
 0001:00018740       ?dtor$0@?0???$?0V<lambda_73163a669fe347e5c4e2d28c36c6f8ca>@@EX@?$function@$$A6AEV?$task@PE$AAVRadio@Radios@Devices@Windows@@@Concurrency@@@Z@std@@QEAA@V<lambda_73163a669fe347e5c4e2d28c36c6f8ca>@@@Z@4HA 0000000180019740 f   _nodert_generated.obj
 0001:0001874c       ?dtor$1@?0???$?0V<lambda_73163a669fe347e5c4e2d28c36c6f8ca>@@EX@?$function@$$A6AEV?$task@PE$AAVRadio@Radios@Devices@Windows@@@Concurrency@@@Z@std@@QEAA@V<lambda_73163a669fe347e5c4e2d28c36c6f8ca>@@@Z@4HA 000000018001974c f   _nodert_generated.obj
 0001:00018760       ?dtor$0@?0???$?0V<lambda_83ab8abb741bf007d1b5942dba04bfdd>@@EX@?$function@$$A6AEV?$task@PE$AAU?$IVectorView@PE$AAVRadio@Radios@Devices@Windows@@@Collections@Foundation@Windows@@@Concurrency@@@Z@std@@QEAA@V<lambda_83ab8abb741bf007d1b5942dba04bfdd>@@@Z@4HA 0000000180019760 f   _nodert_generated.obj
 0001:0001876c       ?dtor$1@?0???$?0V<lambda_83ab8abb741bf007d1b5942dba04bfdd>@@EX@?$function@$$A6AEV?$task@PE$AAU?$IVectorView@PE$AAVRadio@Radios@Devices@Windows@@@Collections@Foundation@Windows@@@Concurrency@@@Z@std@@QEAA@V<lambda_83ab8abb741bf007d1b5942dba04bfdd>@@@Z@4HA 000000018001976c f   _nodert_generated.obj
 0001:00018780       ?dtor$3@?0???$_Invoke_ret@PE$AAVRadio@Radios@Devices@Windows@@AEAV<lambda_c806722195bf1298f17615890da7d503>@@V?$Local@VValue@v8@@@v8@@@std@@YAPE$AAVRadio@Radios@Devices@Windows@@U?$_Forced@PE$AAVRadio@Radios@Devices@Windows@@$0A@@0@AEAV<lambda_c806722195bf1298f17615890da7d503>@@$$QEAV?$Local@VValue@v8@@@v8@@@Z@4HA 0000000180019780 f   _nodert_generated.obj
 0001:0001878c       ?dtor$2@?0???$_Invoke_ret@PE$AAVRadio@Radios@Devices@Windows@@AEAV<lambda_c806722195bf1298f17615890da7d503>@@V?$Local@VValue@v8@@@v8@@@std@@YAPE$AAVRadio@Radios@Devices@Windows@@U?$_Forced@PE$AAVRadio@Radios@Devices@Windows@@$0A@@0@AEAV<lambda_c806722195bf1298f17615890da7d503>@@$$QEAV?$Local@VValue@v8@@@v8@@@Z@4HA 000000018001978c f   _nodert_generated.obj
 0001:00018798       ?dtor$1@?0???$_Invoke_ret@PE$AAVRadio@Radios@Devices@Windows@@AEAV<lambda_c806722195bf1298f17615890da7d503>@@V?$Local@VValue@v8@@@v8@@@std@@YAPE$AAVRadio@Radios@Devices@Windows@@U?$_Forced@PE$AAVRadio@Radios@Devices@Windows@@$0A@@0@AEAV<lambda_c806722195bf1298f17615890da7d503>@@$$QEAV?$Local@VValue@v8@@@v8@@@Z@4HA 0000000180019798 f   _nodert_generated.obj
 0001:000187a4       ?dtor$0@?0???$_Invoke_ret@PE$AAVRadio@Radios@Devices@Windows@@AEAV<lambda_c806722195bf1298f17615890da7d503>@@V?$Local@VValue@v8@@@v8@@@std@@YAPE$AAVRadio@Radios@Devices@Windows@@U?$_Forced@PE$AAVRadio@Radios@Devices@Windows@@$0A@@0@AEAV<lambda_c806722195bf1298f17615890da7d503>@@$$QEAV?$Local@VValue@v8@@@v8@@@Z@4HA 00000001800197a4 f   _nodert_generated.obj
 0001:000187b0       ?dtor$0@?0???R<lambda_4826e3b284b53b5a99fdf233406a9e9a>@@QEAAXPE$AAU?$IAsyncOperation@PE$AAVRadio@Radios@Devices@Windows@@@Foundation@Windows@@W4AsyncStatus@23@@Z@4HA 00000001800197b0 f   _nodert_generated.obj
 0001:000187bc       ?dtor$1@?0???R<lambda_4826e3b284b53b5a99fdf233406a9e9a>@@QEAAXPE$AAU?$IAsyncOperation@PE$AAVRadio@Radios@Devices@Windows@@@Foundation@Windows@@W4AsyncStatus@23@@Z@4HA 00000001800197bc f   _nodert_generated.obj
 0001:000187c8       ?dtor$2@?0???R<lambda_4826e3b284b53b5a99fdf233406a9e9a>@@QEAAXPE$AAU?$IAsyncOperation@PE$AAVRadio@Radios@Devices@Windows@@@Foundation@Windows@@W4AsyncStatus@23@@Z@4HA 00000001800197c8 f   _nodert_generated.obj
 0001:000187d4       ?dtor$3@?0???R<lambda_4826e3b284b53b5a99fdf233406a9e9a>@@QEAAXPE$AAU?$IAsyncOperation@PE$AAVRadio@Radios@Devices@Windows@@@Foundation@Windows@@W4AsyncStatus@23@@Z@4HA 00000001800197d4 f   _nodert_generated.obj
 0001:000187e0       ?catch$5@?0???R<lambda_4826e3b284b53b5a99fdf233406a9e9a>@@QEAAXPE$AAU?$IAsyncOperation@PE$AAVRadio@Radios@Devices@Windows@@@Foundation@Windows@@W4AsyncStatus@23@@Z@4HA 00000001800197e0 f   _nodert_generated.obj
 0001:000187ed       __catch$??R<lambda_4826e3b284b53b5a99fdf233406a9e9a>@@QEAAXPE$AAU?$IAsyncOperation@PE$AAVRadio@Radios@Devices@Windows@@@Foundation@Windows@@W4AsyncStatus@23@@Z$0 00000001800197ed f   _nodert_generated.obj
 0001:00018823       ?dtor$4@?0???R<lambda_4826e3b284b53b5a99fdf233406a9e9a>@@QEAAXPE$AAU?$IAsyncOperation@PE$AAVRadio@Radios@Devices@Windows@@@Foundation@Windows@@W4AsyncStatus@23@@Z@4HA 0000000180019823 f   _nodert_generated.obj
 0001:00018830       ?catch$0@?0??__abi_Windows_Foundation_?$AsyncOperationCompletedHandler@PE$AAVRadio@Radios@Devices@Windows@@___abi_IDelegate____abi_Invoke@?Q__abi_IDelegate@?$AsyncOperationCompletedHandler@PE$AAVRadio@Radios@Devices@Windows@@@Foundation@Windows@@234@UE$AAAJPE$AAU?$IAsyncOperation@PE$AAVRadio@Radios@Devices@Windows@@@34@W4AsyncStatus@34@@Z@4HA 0000000180019830 f   _nodert_generated.obj
 0001:0001883d       __catch$?__abi_Windows_Foundation_?$AsyncOperationCompletedHandler@PE$AAVRadio@Radios@Devices@Windows@@___abi_IDelegate____abi_Invoke@?Q__abi_IDelegate@?$AsyncOperationCompletedHandler@PE$AAVRadio@Radios@Devices@Windows@@@Foundation@Windows@@234@UE$AAAJPE$AAU?$IAsyncOperation@PE$AAVRadio@Radios@Devices@Windows@@@34@W4AsyncStatus@34@@Z$0 000000018001983d f   _nodert_generated.obj
 0001:00018860       ?dtor$0@?0???R<lambda_74b109aa04c410395ed1b84aaba96129>@@QEAAXPE$AAU?$IAsyncOperation@PE$AAU?$IVectorView@PE$AAVRadio@Radios@Devices@Windows@@@Collections@Foundation@Windows@@@Foundation@Windows@@W4AsyncStatus@23@@Z@4HA 0000000180019860 f   _nodert_generated.obj
 0001:0001886c       ?dtor$1@?0???R<lambda_74b109aa04c410395ed1b84aaba96129>@@QEAAXPE$AAU?$IAsyncOperation@PE$AAU?$IVectorView@PE$AAVRadio@Radios@Devices@Windows@@@Collections@Foundation@Windows@@@Foundation@Windows@@W4AsyncStatus@23@@Z@4HA 000000018001986c f   _nodert_generated.obj
 0001:00018878       ?dtor$2@?0???R<lambda_74b109aa04c410395ed1b84aaba96129>@@QEAAXPE$AAU?$IAsyncOperation@PE$AAU?$IVectorView@PE$AAVRadio@Radios@Devices@Windows@@@Collections@Foundation@Windows@@@Foundation@Windows@@W4AsyncStatus@23@@Z@4HA 0000000180019878 f   _nodert_generated.obj
 0001:00018884       ?dtor$3@?0???R<lambda_74b109aa04c410395ed1b84aaba96129>@@QEAAXPE$AAU?$IAsyncOperation@PE$AAU?$IVectorView@PE$AAVRadio@Radios@Devices@Windows@@@Collections@Foundation@Windows@@@Foundation@Windows@@W4AsyncStatus@23@@Z@4HA 0000000180019884 f   _nodert_generated.obj
 0001:00018890       ?catch$5@?0???R<lambda_74b109aa04c410395ed1b84aaba96129>@@QEAAXPE$AAU?$IAsyncOperation@PE$AAU?$IVectorView@PE$AAVRadio@Radios@Devices@Windows@@@Collections@Foundation@Windows@@@Foundation@Windows@@W4AsyncStatus@23@@Z@4HA 0000000180019890 f   _nodert_generated.obj
 0001:0001889d       __catch$??R<lambda_74b109aa04c410395ed1b84aaba96129>@@QEAAXPE$AAU?$IAsyncOperation@PE$AAU?$IVectorView@PE$AAVRadio@Radios@Devices@Windows@@@Collections@Foundation@Windows@@@Foundation@Windows@@W4AsyncStatus@23@@Z$0 000000018001989d f   _nodert_generated.obj
 0001:000188d3       ?dtor$4@?0???R<lambda_74b109aa04c410395ed1b84aaba96129>@@QEAAXPE$AAU?$IAsyncOperation@PE$AAU?$IVectorView@PE$AAVRadio@Radios@Devices@Windows@@@Collections@Foundation@Windows@@@Foundation@Windows@@W4AsyncStatus@23@@Z@4HA 00000001800198d3 f   _nodert_generated.obj
 0001:000188e0       ?catch$0@?0??__abi_Windows_Foundation_?$AsyncOperationCompletedHandler@PE$AAU?$IVectorView@PE$AAVRadio@Radios@Devices@Windows@@@Collections@Foundation@Windows@@___abi_IDelegate____abi_Invoke@?Q__abi_IDelegate@?$AsyncOperationCompletedHandler@PE$AAU?$IVectorView@PE$AAVRadio@Radios@Devices@Windows@@@Collections@Foundation@Windows@@@Foundation@Windows@@234@UE$AAAJPE$AAU?$IAsyncOperation@PE$AAU?$IVectorView@PE$AAVRadio@Radios@Devices@Windows@@@Collections@Foundation@Windows@@@34@W4AsyncStatus@34@@Z@4HA 00000001800198e0 f   _nodert_generated.obj
 0001:000188ed       __catch$?__abi_Windows_Foundation_?$AsyncOperationCompletedHandler@PE$AAU?$IVectorView@PE$AAVRadio@Radios@Devices@Windows@@@Collections@Foundation@Windows@@___abi_IDelegate____abi_Invoke@?Q__abi_IDelegate@?$AsyncOperationCompletedHandler@PE$AAU?$IVectorView@PE$AAVRadio@Radios@Devices@Windows@@@Collections@Foundation@Windows@@@Foundation@Windows@@234@UE$AAAJPE$AAU?$IAsyncOperation@PE$AAU?$IVectorView@PE$AAVRadio@Radios@Devices@Windows@@@Collections@Foundation@Windows@@@34@W4AsyncStatus@34@@Z$0 00000001800198ed f   _nodert_generated.obj
 0001:00018910       ?dtor$0@?0???R<lambda_76b0dc5acfdd88e398543629657656f2>@@QEAAXPE$AAU?$IAsyncOperation@W4RadioAccessStatus@Radios@Devices@Windows@@@Foundation@Windows@@W4AsyncStatus@23@@Z@4HA 0000000180019910 f   _nodert_generated.obj
 0001:0001891c       ?dtor$1@?0???R<lambda_76b0dc5acfdd88e398543629657656f2>@@QEAAXPE$AAU?$IAsyncOperation@W4RadioAccessStatus@Radios@Devices@Windows@@@Foundation@Windows@@W4AsyncStatus@23@@Z@4HA 000000018001991c f   _nodert_generated.obj
 0001:00018928       ?dtor$2@?0???R<lambda_76b0dc5acfdd88e398543629657656f2>@@QEAAXPE$AAU?$IAsyncOperation@W4RadioAccessStatus@Radios@Devices@Windows@@@Foundation@Windows@@W4AsyncStatus@23@@Z@4HA 0000000180019928 f   _nodert_generated.obj
 0001:00018934       ?catch$4@?0???R<lambda_76b0dc5acfdd88e398543629657656f2>@@QEAAXPE$AAU?$IAsyncOperation@W4RadioAccessStatus@Radios@Devices@Windows@@@Foundation@Windows@@W4AsyncStatus@23@@Z@4HA 0000000180019934 f   _nodert_generated.obj
 0001:00018941       __catch$??R<lambda_76b0dc5acfdd88e398543629657656f2>@@QEAAXPE$AAU?$IAsyncOperation@W4RadioAccessStatus@Radios@Devices@Windows@@@Foundation@Windows@@W4AsyncStatus@23@@Z$0 0000000180019941 f   _nodert_generated.obj
 0001:00018977       ?dtor$3@?0???R<lambda_76b0dc5acfdd88e398543629657656f2>@@QEAAXPE$AAU?$IAsyncOperation@W4RadioAccessStatus@Radios@Devices@Windows@@@Foundation@Windows@@W4AsyncStatus@23@@Z@4HA 0000000180019977 f   _nodert_generated.obj
 0001:00018990       ?catch$0@?0??__abi_Windows_Foundation_?$AsyncOperationCompletedHandler@W4RadioAccessStatus@Radios@Devices@Windows@@___abi_IDelegate____abi_Invoke@?Q__abi_IDelegate@?$AsyncOperationCompletedHandler@W4RadioAccessStatus@Radios@Devices@Windows@@@Foundation@Windows@@234@UE$AAAJPE$AAU?$IAsyncOperation@W4RadioAccessStatus@Radios@Devices@Windows@@@34@W4AsyncStatus@34@@Z@4HA 0000000180019990 f   _nodert_generated.obj
 0001:0001899d       __catch$?__abi_Windows_Foundation_?$AsyncOperationCompletedHandler@W4RadioAccessStatus@Radios@Devices@Windows@@___abi_IDelegate____abi_Invoke@?Q__abi_IDelegate@?$AsyncOperationCompletedHandler@W4RadioAccessStatus@Radios@Devices@Windows@@@Foundation@Windows@@234@UE$AAAJPE$AAU?$IAsyncOperation@W4RadioAccessStatus@Radios@Devices@Windows@@@34@W4AsyncStatus@34@@Z$0 000000018001999d f   _nodert_generated.obj
 0001:000189c0       ?dtor$0@?0??_SetUnwrappedAsyncOp@?$_Task_impl@W4RadioAccessStatus@Radios@Devices@Windows@@@details@Concurrency@@QEAAXPE$AAU?$IAsyncOperation@W4RadioAccessStatus@Radios@Devices@Windows@@@Foundation@Windows@@@Z@4HA 00000001800199c0 f   _nodert_generated.obj
 0001:000189c0       ?dtor$0@?0??_SetUnwrappedAsyncOp@?$_Task_impl@PE$AAU?$IVectorView@PE$AAVRadio@Radios@Devices@Windows@@@Collections@Foundation@Windows@@@details@Concurrency@@QEAAXPE$AAU?$IAsyncOperation@PE$AAU?$IVectorView@PE$AAVRadio@Radios@Devices@Windows@@@Collections@Foundation@Windows@@@Foundation@Windows@@@Z@4HA 00000001800199c0 f   _nodert_generated.obj
 0001:000189c0       ?dtor$0@?0??_SetUnwrappedAsyncOp@?$_Task_impl@PE$AAVRadio@Radios@Devices@Windows@@@details@Concurrency@@QEAAXPE$AAU?$IAsyncOperation@PE$AAVRadio@Radios@Devices@Windows@@@Foundation@Windows@@@Z@4HA 00000001800199c0 f   _nodert_generated.obj
 0001:000189cc       ?dtor$1@?0??_SetUnwrappedAsyncOp@?$_Task_impl@PE$AAVRadio@Radios@Devices@Windows@@@details@Concurrency@@QEAAXPE$AAU?$IAsyncOperation@PE$AAVRadio@Radios@Devices@Windows@@@Foundation@Windows@@@Z@4HA 00000001800199cc f   _nodert_generated.obj
 0001:000189cc       ?dtor$1@?0??_SetUnwrappedAsyncOp@?$_Task_impl@PE$AAU?$IVectorView@PE$AAVRadio@Radios@Devices@Windows@@@Collections@Foundation@Windows@@@details@Concurrency@@QEAAXPE$AAU?$IAsyncOperation@PE$AAU?$IVectorView@PE$AAVRadio@Radios@Devices@Windows@@@Collections@Foundation@Windows@@@Foundation@Windows@@@Z@4HA 00000001800199cc f   _nodert_generated.obj
 0001:000189cc       ?dtor$1@?0??_SetUnwrappedAsyncOp@?$_Task_impl@W4RadioAccessStatus@Radios@Devices@Windows@@@details@Concurrency@@QEAAXPE$AAU?$IAsyncOperation@W4RadioAccessStatus@Radios@Devices@Windows@@@Foundation@Windows@@@Z@4HA 00000001800199cc f   _nodert_generated.obj
 0001:000189d8       ?dtor$3@?0??_SetUnwrappedAsyncOp@?$_Task_impl@W4RadioAccessStatus@Radios@Devices@Windows@@@details@Concurrency@@QEAAXPE$AAU?$IAsyncOperation@W4RadioAccessStatus@Radios@Devices@Windows@@@Foundation@Windows@@@Z@4HA 00000001800199d8 f   _nodert_generated.obj
 0001:000189d8       ?dtor$3@?0??_SetUnwrappedAsyncOp@?$_Task_impl@PE$AAU?$IVectorView@PE$AAVRadio@Radios@Devices@Windows@@@Collections@Foundation@Windows@@@details@Concurrency@@QEAAXPE$AAU?$IAsyncOperation@PE$AAU?$IVectorView@PE$AAVRadio@Radios@Devices@Windows@@@Collections@Foundation@Windows@@@Foundation@Windows@@@Z@4HA 00000001800199d8 f   _nodert_generated.obj
 0001:000189d8       ?dtor$3@?0??_SetUnwrappedAsyncOp@?$_Task_impl@PE$AAVRadio@Radios@Devices@Windows@@@details@Concurrency@@QEAAXPE$AAU?$IAsyncOperation@PE$AAVRadio@Radios@Devices@Windows@@@Foundation@Windows@@@Z@4HA 00000001800199d8 f   _nodert_generated.obj
 0001:000189f0       ?dtor$0@?0??_FinalizeAndRunContinuations@?$_Task_impl@PE$AAVRadio@Radios@Devices@Windows@@@details@Concurrency@@QEAAXPE$AAVRadio@Radios@Devices@Windows@@@Z@4HA 00000001800199f0 f   _nodert_generated.obj
 0001:000189f0       ?dtor$0@?0??_FinalizeAndRunContinuations@?$_Task_impl@PE$AAU?$IVectorView@PE$AAVRadio@Radios@Devices@Windows@@@Collections@Foundation@Windows@@@details@Concurrency@@QEAAXPE$AAU?$IVectorView@PE$AAVRadio@Radios@Devices@Windows@@@Collections@Foundation@Windows@@@Z@4HA 00000001800199f0 f   _nodert_generated.obj
 0001:000189fc       ?dtor$1@?0??_FinalizeAndRunContinuations@?$_Task_impl@PE$AAU?$IVectorView@PE$AAVRadio@Radios@Devices@Windows@@@Collections@Foundation@Windows@@@details@Concurrency@@QEAAXPE$AAU?$IVectorView@PE$AAVRadio@Radios@Devices@Windows@@@Collections@Foundation@Windows@@@Z@4HA 00000001800199fc f   _nodert_generated.obj
 0001:000189fc       ?dtor$1@?0??_FinalizeAndRunContinuations@?$_Task_impl@PE$AAVRadio@Radios@Devices@Windows@@@details@Concurrency@@QEAAXPE$AAVRadio@Radios@Devices@Windows@@@Z@4HA 00000001800199fc f   _nodert_generated.obj
 0001:00018a10       ?dtor$0@?0??SetObject@?$Agile@PE$AAU?$IVectorView@PE$AAVRadio@Radios@Devices@Windows@@@Collections@Foundation@Windows@@$00@Platform@@AEAAXPE$AAU?$IVectorView@PE$AAVRadio@Radios@Devices@Windows@@@Collections@Foundation@Windows@@@Z@4HA 0000000180019a10 f   _nodert_generated.obj
 0001:00018a20       ?dtor$0@?0???$_Reset@V<lambda_73163a669fe347e5c4e2d28c36c6f8ca>@@@?$_Func_class@EV?$task@PE$AAVRadio@Radios@Devices@Windows@@@Concurrency@@@std@@IEAAX$$QEAV<lambda_73163a669fe347e5c4e2d28c36c6f8ca>@@@Z@4HA 0000000180019a20 f   _nodert_generated.obj
 0001:00018a3c       ?dtor$1@?0???$_Reset@V<lambda_73163a669fe347e5c4e2d28c36c6f8ca>@@@?$_Func_class@EV?$task@PE$AAVRadio@Radios@Devices@Windows@@@Concurrency@@@std@@IEAAX$$QEAV<lambda_73163a669fe347e5c4e2d28c36c6f8ca>@@@Z@4HA 0000000180019a3c f   _nodert_generated.obj
 0001:00018a48       ?dtor$6@?0???$_Reset@V<lambda_73163a669fe347e5c4e2d28c36c6f8ca>@@@?$_Func_class@EV?$task@PE$AAVRadio@Radios@Devices@Windows@@@Concurrency@@@std@@IEAAX$$QEAV<lambda_73163a669fe347e5c4e2d28c36c6f8ca>@@@Z@4HA 0000000180019a48 f   _nodert_generated.obj
 0001:00018a60       ?dtor$0@?0???$_Reset@V<lambda_83ab8abb741bf007d1b5942dba04bfdd>@@@?$_Func_class@EV?$task@PE$AAU?$IVectorView@PE$AAVRadio@Radios@Devices@Windows@@@Collections@Foundation@Windows@@@Concurrency@@@std@@IEAAX$$QEAV<lambda_83ab8abb741bf007d1b5942dba04bfdd>@@@Z@4HA 0000000180019a60 f   _nodert_generated.obj
 0001:00018a7c       ?dtor$1@?0???$_Reset@V<lambda_83ab8abb741bf007d1b5942dba04bfdd>@@@?$_Func_class@EV?$task@PE$AAU?$IVectorView@PE$AAVRadio@Radios@Devices@Windows@@@Collections@Foundation@Windows@@@Concurrency@@@std@@IEAAX$$QEAV<lambda_83ab8abb741bf007d1b5942dba04bfdd>@@@Z@4HA 0000000180019a7c f   _nodert_generated.obj
 0001:00018a88       ?dtor$6@?0???$_Reset@V<lambda_83ab8abb741bf007d1b5942dba04bfdd>@@@?$_Func_class@EV?$task@PE$AAU?$IVectorView@PE$AAVRadio@Radios@Devices@Windows@@@Collections@Foundation@Windows@@@Concurrency@@@std@@IEAAX$$QEAV<lambda_83ab8abb741bf007d1b5942dba04bfdd>@@@Z@4HA 0000000180019a88 f   _nodert_generated.obj
 0001:00018aa0       ?dtor$0@?0???$_Reset@V<lambda_199453e3251722af17cbed06cee0aa25>@@@?$_Func_class@EV?$task@W4RadioAccessStatus@Radios@Devices@Windows@@@Concurrency@@@std@@IEAAX$$QEAV<lambda_199453e3251722af17cbed06cee0aa25>@@@Z@4HA 0000000180019aa0 f   _nodert_generated.obj
 0001:00018abc       ?dtor$1@?0???$_Reset@V<lambda_199453e3251722af17cbed06cee0aa25>@@@?$_Func_class@EV?$task@W4RadioAccessStatus@Radios@Devices@Windows@@@Concurrency@@@std@@IEAAX$$QEAV<lambda_199453e3251722af17cbed06cee0aa25>@@@Z@4HA 0000000180019abc f   _nodert_generated.obj
 0001:00018ac8       ?dtor$6@?0???$_Reset@V<lambda_199453e3251722af17cbed06cee0aa25>@@@?$_Func_class@EV?$task@W4RadioAccessStatus@Radios@Devices@Windows@@@Concurrency@@@std@@IEAAX$$QEAV<lambda_199453e3251722af17cbed06cee0aa25>@@@Z@4HA 0000000180019ac8 f   _nodert_generated.obj
 0001:00018ae0       ?dtor$0@?0??_Move@?$_Func_impl@V<lambda_199453e3251722af17cbed06cee0aa25>@@V?$allocator@H@std@@EV?$task@W4RadioAccessStatus@Radios@Devices@Windows@@@Concurrency@@@std@@EEAAPEAV?$_Func_base@EV?$task@W4RadioAccessStatus@Radios@Devices@Windows@@@Concurrency@@@2@PEAX@Z@4HA 0000000180019ae0 f   _nodert_generated.obj
 0001:00018afc       ?dtor$1@?0??_Move@?$_Func_impl@V<lambda_199453e3251722af17cbed06cee0aa25>@@V?$allocator@H@std@@EV?$task@W4RadioAccessStatus@Radios@Devices@Windows@@@Concurrency@@@std@@EEAAPEAV?$_Func_base@EV?$task@W4RadioAccessStatus@Radios@Devices@Windows@@@Concurrency@@@2@PEAX@Z@4HA 0000000180019afc f   _nodert_generated.obj
 0001:00018b08       ?dtor$6@?0??_Move@?$_Func_impl@V<lambda_199453e3251722af17cbed06cee0aa25>@@V?$allocator@H@std@@EV?$task@W4RadioAccessStatus@Radios@Devices@Windows@@@Concurrency@@@std@@EEAAPEAV?$_Func_base@EV?$task@W4RadioAccessStatus@Radios@Devices@Windows@@@Concurrency@@@2@PEAX@Z@4HA 0000000180019b08 f   _nodert_generated.obj
 0001:00018b20       ?dtor$0@?0??_Move@?$_Func_impl@V<lambda_83ab8abb741bf007d1b5942dba04bfdd>@@V?$allocator@H@std@@EV?$task@PE$AAU?$IVectorView@PE$AAVRadio@Radios@Devices@Windows@@@Collections@Foundation@Windows@@@Concurrency@@@std@@EEAAPEAV?$_Func_base@EV?$task@PE$AAU?$IVectorView@PE$AAVRadio@Radios@Devices@Windows@@@Collections@Foundation@Windows@@@Concurrency@@@2@PEAX@Z@4HA 0000000180019b20 f   _nodert_generated.obj
 0001:00018b3c       ?dtor$1@?0??_Move@?$_Func_impl@V<lambda_83ab8abb741bf007d1b5942dba04bfdd>@@V?$allocator@H@std@@EV?$task@PE$AAU?$IVectorView@PE$AAVRadio@Radios@Devices@Windows@@@Collections@Foundation@Windows@@@Concurrency@@@std@@EEAAPEAV?$_Func_base@EV?$task@PE$AAU?$IVectorView@PE$AAVRadio@Radios@Devices@Windows@@@Collections@Foundation@Windows@@@Concurrency@@@2@PEAX@Z@4HA 0000000180019b3c f   _nodert_generated.obj
 0001:00018b48       ?dtor$6@?0??_Move@?$_Func_impl@V<lambda_83ab8abb741bf007d1b5942dba04bfdd>@@V?$allocator@H@std@@EV?$task@PE$AAU?$IVectorView@PE$AAVRadio@Radios@Devices@Windows@@@Collections@Foundation@Windows@@@Concurrency@@@std@@EEAAPEAV?$_Func_base@EV?$task@PE$AAU?$IVectorView@PE$AAVRadio@Radios@Devices@Windows@@@Collections@Foundation@Windows@@@Concurrency@@@2@PEAX@Z@4HA 0000000180019b48 f   _nodert_generated.obj
 0001:00018b60       ?dtor$0@?0??_Move@?$_Func_impl@V<lambda_73163a669fe347e5c4e2d28c36c6f8ca>@@V?$allocator@H@std@@EV?$task@PE$AAVRadio@Radios@Devices@Windows@@@Concurrency@@@std@@EEAAPEAV?$_Func_base@EV?$task@PE$AAVRadio@Radios@Devices@Windows@@@Concurrency@@@2@PEAX@Z@4HA 0000000180019b60 f   _nodert_generated.obj
 0001:00018b7c       ?dtor$1@?0??_Move@?$_Func_impl@V<lambda_73163a669fe347e5c4e2d28c36c6f8ca>@@V?$allocator@H@std@@EV?$task@PE$AAVRadio@Radios@Devices@Windows@@@Concurrency@@@std@@EEAAPEAV?$_Func_base@EV?$task@PE$AAVRadio@Radios@Devices@Windows@@@Concurrency@@@2@PEAX@Z@4HA 0000000180019b7c f   _nodert_generated.obj
 0001:00018b88       ?dtor$6@?0??_Move@?$_Func_impl@V<lambda_73163a669fe347e5c4e2d28c36c6f8ca>@@V?$allocator@H@std@@EV?$task@PE$AAVRadio@Radios@Devices@Windows@@@Concurrency@@@std@@EEAAPEAV?$_Func_base@EV?$task@PE$AAVRadio@Radios@Devices@Windows@@@Concurrency@@@2@PEAX@Z@4HA 0000000180019b88 f   _nodert_generated.obj
 0001:00018ba0       ?dtor$0@?0???$_Clone@X@?$_Func_impl@V<lambda_199453e3251722af17cbed06cee0aa25>@@V?$allocator@H@std@@EV?$task@W4RadioAccessStatus@Radios@Devices@Windows@@@Concurrency@@@std@@AEBAPEAV?$_Func_base@EV?$task@W4RadioAccessStatus@Radios@Devices@Windows@@@Concurrency@@@1@PEAXU?$integral_constant@_N$00@1@@Z@4HA 0000000180019ba0 f   _nodert_generated.obj
 0001:00018bbc       ?dtor$1@?0???$_Clone@X@?$_Func_impl@V<lambda_199453e3251722af17cbed06cee0aa25>@@V?$allocator@H@std@@EV?$task@W4RadioAccessStatus@Radios@Devices@Windows@@@Concurrency@@@std@@AEBAPEAV?$_Func_base@EV?$task@W4RadioAccessStatus@Radios@Devices@Windows@@@Concurrency@@@1@PEAXU?$integral_constant@_N$00@1@@Z@4HA 0000000180019bbc f   _nodert_generated.obj
 0001:00018bc8       ?dtor$6@?0???$_Clone@X@?$_Func_impl@V<lambda_199453e3251722af17cbed06cee0aa25>@@V?$allocator@H@std@@EV?$task@W4RadioAccessStatus@Radios@Devices@Windows@@@Concurrency@@@std@@AEBAPEAV?$_Func_base@EV?$task@W4RadioAccessStatus@Radios@Devices@Windows@@@Concurrency@@@1@PEAXU?$integral_constant@_N$00@1@@Z@4HA 0000000180019bc8 f   _nodert_generated.obj
 0001:00018be0       ?dtor$0@?0???$_Clone@X@?$_Func_impl@V<lambda_83ab8abb741bf007d1b5942dba04bfdd>@@V?$allocator@H@std@@EV?$task@PE$AAU?$IVectorView@PE$AAVRadio@Radios@Devices@Windows@@@Collections@Foundation@Windows@@@Concurrency@@@std@@AEBAPEAV?$_Func_base@EV?$task@PE$AAU?$IVectorView@PE$AAVRadio@Radios@Devices@Windows@@@Collections@Foundation@Windows@@@Concurrency@@@1@PEAXU?$integral_constant@_N$00@1@@Z@4HA 0000000180019be0 f   _nodert_generated.obj
 0001:00018bfc       ?dtor$1@?0???$_Clone@X@?$_Func_impl@V<lambda_83ab8abb741bf007d1b5942dba04bfdd>@@V?$allocator@H@std@@EV?$task@PE$AAU?$IVectorView@PE$AAVRadio@Radios@Devices@Windows@@@Collections@Foundation@Windows@@@Concurrency@@@std@@AEBAPEAV?$_Func_base@EV?$task@PE$AAU?$IVectorView@PE$AAVRadio@Radios@Devices@Windows@@@Collections@Foundation@Windows@@@Concurrency@@@1@PEAXU?$integral_constant@_N$00@1@@Z@4HA 0000000180019bfc f   _nodert_generated.obj
 0001:00018c08       ?dtor$6@?0???$_Clone@X@?$_Func_impl@V<lambda_83ab8abb741bf007d1b5942dba04bfdd>@@V?$allocator@H@std@@EV?$task@PE$AAU?$IVectorView@PE$AAVRadio@Radios@Devices@Windows@@@Collections@Foundation@Windows@@@Concurrency@@@std@@AEBAPEAV?$_Func_base@EV?$task@PE$AAU?$IVectorView@PE$AAVRadio@Radios@Devices@Windows@@@Collections@Foundation@Windows@@@Concurrency@@@1@PEAXU?$integral_constant@_N$00@1@@Z@4HA 0000000180019c08 f   _nodert_generated.obj
 0001:00018c20       ?dtor$0@?0???$_Clone@X@?$_Func_impl@V<lambda_73163a669fe347e5c4e2d28c36c6f8ca>@@V?$allocator@H@std@@EV?$task@PE$AAVRadio@Radios@Devices@Windows@@@Concurrency@@@std@@AEBAPEAV?$_Func_base@EV?$task@PE$AAVRadio@Radios@Devices@Windows@@@Concurrency@@@1@PEAXU?$integral_constant@_N$00@1@@Z@4HA 0000000180019c20 f   _nodert_generated.obj
 0001:00018c3c       ?dtor$1@?0???$_Clone@X@?$_Func_impl@V<lambda_73163a669fe347e5c4e2d28c36c6f8ca>@@V?$allocator@H@std@@EV?$task@PE$AAVRadio@Radios@Devices@Windows@@@Concurrency@@@std@@AEBAPEAV?$_Func_base@EV?$task@PE$AAVRadio@Radios@Devices@Windows@@@Concurrency@@@1@PEAXU?$integral_constant@_N$00@1@@Z@4HA 0000000180019c3c f   _nodert_generated.obj
 0001:00018c48       ?dtor$6@?0???$_Clone@X@?$_Func_impl@V<lambda_73163a669fe347e5c4e2d28c36c6f8ca>@@V?$allocator@H@std@@EV?$task@PE$AAVRadio@Radios@Devices@Windows@@@Concurrency@@@std@@AEBAPEAV?$_Func_base@EV?$task@PE$AAVRadio@Radios@Devices@Windows@@@Concurrency@@@1@PEAXU?$integral_constant@_N$00@1@@Z@4HA 0000000180019c48 f   _nodert_generated.obj
 0001:00018c60       ?dtor$0@?0??_Do_call@?$_Func_impl@V<lambda_367e91ba48007cd85cfc48a94120f671>@@V?$allocator@H@std@@X$$V@std@@EEAAXXZ@4HA 0000000180019c60 f   _nodert_generated.obj
 0001:00018c60       ?dtor$0@?0??_Do_call@?$_Func_impl@V<lambda_34c7f220960deee2386c1fdeeca0be56>@@V?$allocator@H@std@@X$$V@std@@EEAAXXZ@4HA 0000000180019c60 f   _nodert_generated.obj
 0001:00018c60       ?dtor$0@?0??_Do_call@?$_Func_impl@V<lambda_e648a951913df07dc2c48aa4b13c28ad>@@V?$allocator@H@std@@X$$V@std@@EEAAXXZ@4HA 0000000180019c60 f   _nodert_generated.obj
 0001:00018c70       ?dtor$2@?0???0<lambda_fc55a96778b695da9907353a9fdacbca>@@QEAA@AEBV0@@Z@4HA 0000000180019c70 f   _nodert_generated.obj
 0001:00018c70       ?dtor$0@?0???0?$function@$$A6AXV?$function@$$A6AXHPEAV?$Local@VValue@v8@@@v8@@@Z@std@@@Z@std@@QEAA@$$QEAV01@@Z@4HA 0000000180019c70 f   _nodert_generated.obj
 0001:00018c80       ?dtor$0@?0??CreateCallbackObjectInDomain@Utils@NodeRT@@YA?AV?$Local@VObject@v8@@@v8@@V?$Local@VFunction@v8@@@4@@Z@4HA 0000000180019c80 f   NodeRtUtils.obj
 0001:00018c90       ?dtor$0@?0??CreateOpaqueWrapper@NodeRT@@YA?AV?$Local@VValue@v8@@@v8@@PE$AAVObject@Platform@@@Z@4HA 0000000180019c90 f   OpaqueWrapper.obj
 0001:00018c9c       ?dtor$1@?0??CreateOpaqueWrapper@NodeRT@@YA?AV?$Local@VValue@v8@@@v8@@PE$AAVObject@Platform@@@Z@4HA 0000000180019c9c f   OpaqueWrapper.obj
 0001:00018cb9       ?dtor$9@?0??CreateOpaqueWrapper@NodeRT@@YA?AV?$Local@VValue@v8@@@v8@@PE$AAVObject@Platform@@@Z@4HA 0000000180019cb9 f   OpaqueWrapper.obj
 0001:00018cc5       __scrt_is_nonwritable_in_current_image$filt$0 0000000180019cc5 f   MSVCRT:utility.obj
 0001:00018cdd       ?fin$0@?0??dllmain_crt_process_attach@@YAHQEAUHINSTANCE__@@QEAX@Z@4HA 0000000180019cdd f   MSVCRT:dll_dllmain.obj
 0001:00018cf4       ?fin$0@?0??dllmain_crt_process_detach@@YAH_N@Z@4HA 0000000180019cf4 f   MSVCRT:dll_dllmain.obj
 0001:00018d10       ?filt$0@?0??dllmain_dispatch@@YAHQEAUHINSTANCE__@@KQEAX@Z@4HA 0000000180019d10 f   MSVCRT:dll_dllmain.obj
 0001:00018da0       ??__Fg_keyProp@Collections@NodeRT@@YAXXZ 0000000180019da0 f   _nodert_generated.obj
 0001:00018dc0       ??__Fg_valueProp@Collections@NodeRT@@YAXXZ 0000000180019dc0 f   _nodert_generated.obj
 0001:00018de0       ??__FcheckStringFunc@Collections@NodeRT@@YAXXZ 0000000180019de0 f   _nodert_generated.obj
 0001:00018e20       ??__F?s_constructorTemplate@Radio@Radios@Devices@Windows@NodeRT@@0V?$Persistent@VFunctionTemplate@v8@@V?$NonCopyablePersistentTraits@VFunctionTemplate@v8@@@2@@Nan@@A@@YAXXZ 0000000180019e20 f   _nodert_generated.obj
 0001:00018e40       ??__F?s_constructorTemplate@OpaqueWrapper@NodeRT@@0V?$Persistent@VFunctionTemplate@v8@@V?$NonCopyablePersistentTraits@VFunctionTemplate@v8@@@2@@Nan@@A@@YAXXZ 0000000180019e40 f   OpaqueWrapper.obj
 0002:00000708       ?module_$initializer$@Details@Platform@@3P6AXXZEA 000000018001a708     vccorlib:init.obj
 0002:00000718       ?g_keyProp$initializer$@Collections@NodeRT@@3P6AXXZEA 000000018001a718     _nodert_generated.obj
 0002:00000720       ?g_valueProp$initializer$@Collections@NodeRT@@3P6AXXZEA 000000018001a720     _nodert_generated.obj
 0002:00000728       ?checkStringFunc$initializer$@Collections@NodeRT@@3P6AXXZEA 000000018001a728     _nodert_generated.obj
 0002:00000730       ??s_constructorTemplate$initializer$@Radio@Radios@Devices@Windows@NodeRT@@0P6AXXZEA@@3P6AXXZEA 000000018001a730     _nodert_generated.obj
 0002:00000738       ??s_constructorTemplate$initializer$@OpaqueWrapper@NodeRT@@0P6AXXZEA@@3P6AXXZEA 000000018001a738     OpaqueWrapper.obj
 0002:00000750       ?__scrt_initialize_tss_var@@3P6AHXZEA 000000018001a750     MSVCRT:thread_safe_statics.obj
 0002:00000830       GS_ExceptionPointers       000000018001a830     MSVCRT:gs_report.obj
 0002:00001818       $cppxdata$??0<lambda_fc55a96778b695da9907353a9fdacbca>@@QEAA@AEBV0@@Z 000000018001b818     _nodert_generated.obj
 0002:00001840       $cppxdata$??0<lambda_86719af9e59bcf010981affea63e2ba5>@@QEAA@AEBV0@@Z 000000018001b840     _nodert_generated.obj
 0002:00001868       $cppxdata$??0?$function@$$A6AXV?$function@$$A6AXHPEAV?$Local@VValue@v8@@@v8@@@Z@std@@@Z@std@@QEAA@$$QEAV01@@Z 000000018001b868     _nodert_generated.obj
 0002:00001890       $cppxdata$?_Copy@?$_Func_impl@V<lambda_34c7f220960deee2386c1fdeeca0be56>@@V?$allocator@H@std@@X$$V@std@@EEBAPEAV?$_Func_base@X$$V@2@PEAX@Z 000000018001b890     _nodert_generated.obj
 0002:00001890       $cppxdata$?_Move@?$_Func_impl@V<lambda_34c7f220960deee2386c1fdeeca0be56>@@V?$allocator@H@std@@X$$V@std@@EEAAPEAV?$_Func_base@X$$V@2@PEAX@Z 000000018001b890     _nodert_generated.obj
 0002:000018b8       $cppxdata$?_Delete_this@?$_Func_impl@V<lambda_34c7f220960deee2386c1fdeeca0be56>@@V?$allocator@H@std@@X$$V@std@@EEAAX_N@Z 000000018001b8b8     _nodert_generated.obj
 0002:000018e0       $cppxdata$?_Move@?$_Func_impl@V<lambda_e648a951913df07dc2c48aa4b13c28ad>@@V?$allocator@H@std@@X$$V@std@@EEAAPEAV?$_Func_base@X$$V@2@PEAX@Z 000000018001b8e0     _nodert_generated.obj
 0002:000018e0       $cppxdata$?_Copy@?$_Func_impl@V<lambda_e648a951913df07dc2c48aa4b13c28ad>@@V?$allocator@H@std@@X$$V@std@@EEBAPEAV?$_Func_base@X$$V@2@PEAX@Z 000000018001b8e0     _nodert_generated.obj
 0002:00001908       $cppxdata$?_Delete_this@?$_Func_impl@V<lambda_e648a951913df07dc2c48aa4b13c28ad>@@V?$allocator@H@std@@X$$V@std@@EEAAX_N@Z 000000018001b908     _nodert_generated.obj
 0002:00001930       $cppxdata$?_Copy@?$_Func_impl@V<lambda_367e91ba48007cd85cfc48a94120f671>@@V?$allocator@H@std@@X$$V@std@@EEBAPEAV?$_Func_base@X$$V@2@PEAX@Z 000000018001b930     _nodert_generated.obj
 0002:00001930       $cppxdata$?_Move@?$_Func_impl@V<lambda_367e91ba48007cd85cfc48a94120f671>@@V?$allocator@H@std@@X$$V@std@@EEAAPEAV?$_Func_base@X$$V@2@PEAX@Z 000000018001b930     _nodert_generated.obj
 0002:00001958       $cppxdata$?_Do_call@?$_Func_impl@V<lambda_367e91ba48007cd85cfc48a94120f671>@@V?$allocator@H@std@@X$$V@std@@EEAAXXZ 000000018001b958     _nodert_generated.obj
 0002:00001958       $cppxdata$?_Do_call@?$_Func_impl@V<lambda_34c7f220960deee2386c1fdeeca0be56>@@V?$allocator@H@std@@X$$V@std@@EEAAXXZ 000000018001b958     _nodert_generated.obj
 0002:00001958       $cppxdata$?_Do_call@?$_Func_impl@V<lambda_e648a951913df07dc2c48aa4b13c28ad>@@V?$allocator@H@std@@X$$V@std@@EEAAXXZ 000000018001b958     _nodert_generated.obj
 0002:00001980       $cppxdata$?_Delete_this@?$_Func_impl@V<lambda_367e91ba48007cd85cfc48a94120f671>@@V?$allocator@H@std@@X$$V@std@@EEAAX_N@Z 000000018001b980     _nodert_generated.obj
 0002:000019a8       $cppxdata$??0<lambda_86719af9e59bcf010981affea63e2ba5>@@QEAA@$$QEAV0@@Z 000000018001b9a8     _nodert_generated.obj
 0002:000019d0       $cppxdata$??$_Clone@X@?$_Func_impl@V<lambda_73163a669fe347e5c4e2d28c36c6f8ca>@@V?$allocator@H@std@@EV?$task@PE$AAVRadio@Radios@Devices@Windows@@@Concurrency@@@std@@AEBAPEAV?$_Func_base@EV?$task@PE$AAVRadio@Radios@Devices@Windows@@@Concurrency@@@1@PEAXU?$integral_constant@_N$00@1@@Z 000000018001b9d0     _nodert_generated.obj
 0002:000019f8       $cppxdata$??$_Clone@X@?$_Func_impl@V<lambda_83ab8abb741bf007d1b5942dba04bfdd>@@V?$allocator@H@std@@EV?$task@PE$AAU?$IVectorView@PE$AAVRadio@Radios@Devices@Windows@@@Collections@Foundation@Windows@@@Concurrency@@@std@@AEBAPEAV?$_Func_base@EV?$task@PE$AAU?$IVectorView@PE$AAVRadio@Radios@Devices@Windows@@@Collections@Foundation@Windows@@@Concurrency@@@1@PEAXU?$integral_constant@_N$00@1@@Z 000000018001b9f8     _nodert_generated.obj
 0002:00001a20       $cppxdata$??$_Clone@X@?$_Func_impl@V<lambda_199453e3251722af17cbed06cee0aa25>@@V?$allocator@H@std@@EV?$task@W4RadioAccessStatus@Radios@Devices@Windows@@@Concurrency@@@std@@AEBAPEAV?$_Func_base@EV?$task@W4RadioAccessStatus@Radios@Devices@Windows@@@Concurrency@@@1@PEAXU?$integral_constant@_N$00@1@@Z 000000018001ba20     _nodert_generated.obj
 0002:00001a48       $cppxdata$?_Move@?$_Func_impl@V<lambda_73163a669fe347e5c4e2d28c36c6f8ca>@@V?$allocator@H@std@@EV?$task@PE$AAVRadio@Radios@Devices@Windows@@@Concurrency@@@std@@EEAAPEAV?$_Func_base@EV?$task@PE$AAVRadio@Radios@Devices@Windows@@@Concurrency@@@2@PEAX@Z 000000018001ba48     _nodert_generated.obj
 0002:00001a70       $cppxdata$?_Move@?$_Func_impl@V<lambda_83ab8abb741bf007d1b5942dba04bfdd>@@V?$allocator@H@std@@EV?$task@PE$AAU?$IVectorView@PE$AAVRadio@Radios@Devices@Windows@@@Collections@Foundation@Windows@@@Concurrency@@@std@@EEAAPEAV?$_Func_base@EV?$task@PE$AAU?$IVectorView@PE$AAVRadio@Radios@Devices@Windows@@@Collections@Foundation@Windows@@@Concurrency@@@2@PEAX@Z 000000018001ba70     _nodert_generated.obj
 0002:00001a98       $cppxdata$?_Move@?$_Func_impl@V<lambda_199453e3251722af17cbed06cee0aa25>@@V?$allocator@H@std@@EV?$task@W4RadioAccessStatus@Radios@Devices@Windows@@@Concurrency@@@std@@EEAAPEAV?$_Func_base@EV?$task@W4RadioAccessStatus@Radios@Devices@Windows@@@Concurrency@@@2@PEAX@Z 000000018001ba98     _nodert_generated.obj
 0002:00001ac0       $cppxdata$??$swap@PE$AAU?$IVectorView@PE$AAVRadio@Radios@Devices@Windows@@@Collections@Foundation@Windows@@X@std@@YAXAEAPE$AAU?$IVectorView@PE$AAVRadio@Radios@Devices@Windows@@@Collections@Foundation@Windows@@0@Z 000000018001bac0     _nodert_generated.obj
 0002:00001ae8       $cppxdata$??$?4V<lambda_367e91ba48007cd85cfc48a94120f671>@@XX@?$function@$$A6AXXZ@std@@QEAAAEAV01@$$QEAV<lambda_367e91ba48007cd85cfc48a94120f671>@@@Z 000000018001bae8     _nodert_generated.obj
 0002:00001b10       $cppxdata$??$?4V<lambda_e648a951913df07dc2c48aa4b13c28ad>@@XX@?$function@$$A6AXXZ@std@@QEAAAEAV01@$$QEAV<lambda_e648a951913df07dc2c48aa4b13c28ad>@@@Z 000000018001bb10     _nodert_generated.obj
 0002:00001b38       $cppxdata$??$?4V<lambda_34c7f220960deee2386c1fdeeca0be56>@@XX@?$function@$$A6AXXZ@std@@QEAAAEAV01@$$QEAV<lambda_34c7f220960deee2386c1fdeeca0be56>@@@Z 000000018001bb38     _nodert_generated.obj
 0002:00001b60       $cppxdata$??$?0V<lambda_76b0dc5acfdd88e398543629657656f2>@@@?$AsyncOperationCompletedHandler@W4RadioAccessStatus@Radios@Devices@Windows@@@Foundation@Windows@@QE$AAA@V<lambda_76b0dc5acfdd88e398543629657656f2>@@W4CallbackContext@Platform@@_N@Z 000000018001bb60     _nodert_generated.obj
 0002:00001b88       $cppxdata$??$?0V<lambda_74b109aa04c410395ed1b84aaba96129>@@@?$AsyncOperationCompletedHandler@PE$AAU?$IVectorView@PE$AAVRadio@Radios@Devices@Windows@@@Collections@Foundation@Windows@@@Foundation@Windows@@QE$AAA@V<lambda_74b109aa04c410395ed1b84aaba96129>@@W4CallbackContext@Platform@@_N@Z 000000018001bb88     _nodert_generated.obj
 0002:00001bb0       $cppxdata$??$?0V<lambda_4826e3b284b53b5a99fdf233406a9e9a>@@@?$AsyncOperationCompletedHandler@PE$AAVRadio@Radios@Devices@Windows@@@Foundation@Windows@@QE$AAA@V<lambda_4826e3b284b53b5a99fdf233406a9e9a>@@W4CallbackContext@Platform@@_N@Z 000000018001bbb0     _nodert_generated.obj
 0002:00001bd8       $cppxdata$??$_Reset@V<lambda_199453e3251722af17cbed06cee0aa25>@@@?$_Func_class@EV?$task@W4RadioAccessStatus@Radios@Devices@Windows@@@Concurrency@@@std@@IEAAX$$QEAV<lambda_199453e3251722af17cbed06cee0aa25>@@@Z 000000018001bbd8     _nodert_generated.obj
 0002:00001c00       $cppxdata$??$_Reset@V<lambda_83ab8abb741bf007d1b5942dba04bfdd>@@@?$_Func_class@EV?$task@PE$AAU?$IVectorView@PE$AAVRadio@Radios@Devices@Windows@@@Collections@Foundation@Windows@@@Concurrency@@@std@@IEAAX$$QEAV<lambda_83ab8abb741bf007d1b5942dba04bfdd>@@@Z 000000018001bc00     _nodert_generated.obj
 0002:00001c28       $cppxdata$??$_Reset@V<lambda_73163a669fe347e5c4e2d28c36c6f8ca>@@@?$_Func_class@EV?$task@PE$AAVRadio@Radios@Devices@Windows@@@Concurrency@@@std@@IEAAX$$QEAV<lambda_73163a669fe347e5c4e2d28c36c6f8ca>@@@Z 000000018001bc28     _nodert_generated.obj
 0002:00001c50       $cppxdata$?GetResults@?$IAsyncOperation@PE$AAVRadio@Radios@Devices@Windows@@@Foundation@Windows@@UE$AAAPE$AAVRadio@Radios@Devices@3@XZ 000000018001bc50     _nodert_generated.obj
 0002:00001c50       $cppxdata$?GetResults@?$IAsyncOperation@PE$AAU?$IVectorView@PE$AAVRadio@Radios@Devices@Windows@@@Collections@Foundation@Windows@@@Foundation@Windows@@UE$AAAPE$AAU?$IVectorView@PE$AAVRadio@Radios@Devices@Windows@@@Collections@23@XZ 000000018001bc50     _nodert_generated.obj
 0002:00001c78       $cppxdata$?SetObject@?$Agile@PE$AAU?$IVectorView@PE$AAVRadio@Radios@Devices@Windows@@@Collections@Foundation@Windows@@$00@Platform@@AEAAXPE$AAU?$IVectorView@PE$AAVRadio@Radios@Devices@Windows@@@Collections@Foundation@Windows@@@Z 000000018001bc78     _nodert_generated.obj
 0002:00001ca0       $cppxdata$?_SetUnwrappedAsyncOp@?$_Task_impl@W4RadioAccessStatus@Radios@Devices@Windows@@@details@Concurrency@@QEAAXPE$AAU?$IAsyncOperation@W4RadioAccessStatus@Radios@Devices@Windows@@@Foundation@Windows@@@Z 000000018001bca0     _nodert_generated.obj
 0002:00001cc8       $cppxdata$?_FinalizeAndRunContinuations@?$_Task_impl@PE$AAU?$IVectorView@PE$AAVRadio@Radios@Devices@Windows@@@Collections@Foundation@Windows@@@details@Concurrency@@QEAAXPE$AAU?$IVectorView@PE$AAVRadio@Radios@Devices@Windows@@@Collections@Foundation@Windows@@@Z 000000018001bcc8     _nodert_generated.obj
 0002:00001cf0       $cppxdata$?_SetUnwrappedAsyncOp@?$_Task_impl@PE$AAU?$IVectorView@PE$AAVRadio@Radios@Devices@Windows@@@Collections@Foundation@Windows@@@details@Concurrency@@QEAAXPE$AAU?$IAsyncOperation@PE$AAU?$IVectorView@PE$AAVRadio@Radios@Devices@Windows@@@Collections@Foundation@Windows@@@Foundation@Windows@@@Z 000000018001bcf0     _nodert_generated.obj
 0002:00001d18       $cppxdata$?_FinalizeAndRunContinuations@?$_Task_impl@PE$AAVRadio@Radios@Devices@Windows@@@details@Concurrency@@QEAAXPE$AAVRadio@Radios@Devices@Windows@@@Z 000000018001bd18     _nodert_generated.obj
 0002:00001d40       $cppxdata$?_SetUnwrappedAsyncOp@?$_Task_impl@PE$AAVRadio@Radios@Devices@Windows@@@details@Concurrency@@QEAAXPE$AAU?$IAsyncOperation@PE$AAVRadio@Radios@Devices@Windows@@@Foundation@Windows@@@Z 000000018001bd40     _nodert_generated.obj
 0002:00001d68       $cppxdata$?__abi_Windows_Foundation_?$AsyncOperationCompletedHandler@W4RadioAccessStatus@Radios@Devices@Windows@@___abi_IDelegate____abi_Invoke@?Q__abi_IDelegate@?$AsyncOperationCompletedHandler@W4RadioAccessStatus@Radios@Devices@Windows@@@Foundation@Windows@@234@UE$AAAJPE$AAU?$IAsyncOperation@W4RadioAccessStatus@Radios@Devices@Windows@@@34@W4AsyncStatus@34@@Z 000000018001bd68     _nodert_generated.obj
 0002:00001d90       $cppxdata$??R<lambda_76b0dc5acfdd88e398543629657656f2>@@QEAAXPE$AAU?$IAsyncOperation@W4RadioAccessStatus@Radios@Devices@Windows@@@Foundation@Windows@@W4AsyncStatus@23@@Z 000000018001bd90     _nodert_generated.obj
 0002:00001db8       $cppxdata$?__abi_Windows_Foundation_?$AsyncOperationCompletedHandler@PE$AAU?$IVectorView@PE$AAVRadio@Radios@Devices@Windows@@@Collections@Foundation@Windows@@___abi_IDelegate____abi_Invoke@?Q__abi_IDelegate@?$AsyncOperationCompletedHandler@PE$AAU?$IVectorView@PE$AAVRadio@Radios@Devices@Windows@@@Collections@Foundation@Windows@@@Foundation@Windows@@234@UE$AAAJPE$AAU?$IAsyncOperation@PE$AAU?$IVectorView@PE$AAVRadio@Radios@Devices@Windows@@@Collections@Foundation@Windows@@@34@W4AsyncStatus@34@@Z 000000018001bdb8     _nodert_generated.obj
 0002:00001de0       $cppxdata$??R<lambda_74b109aa04c410395ed1b84aaba96129>@@QEAAXPE$AAU?$IAsyncOperation@PE$AAU?$IVectorView@PE$AAVRadio@Radios@Devices@Windows@@@Collections@Foundation@Windows@@@Foundation@Windows@@W4AsyncStatus@23@@Z 000000018001bde0     _nodert_generated.obj
 0002:00001e08       $cppxdata$?__abi_Windows_Foundation_?$AsyncOperationCompletedHandler@PE$AAVRadio@Radios@Devices@Windows@@___abi_IDelegate____abi_Invoke@?Q__abi_IDelegate@?$AsyncOperationCompletedHandler@PE$AAVRadio@Radios@Devices@Windows@@@Foundation@Windows@@234@UE$AAAJPE$AAU?$IAsyncOperation@PE$AAVRadio@Radios@Devices@Windows@@@34@W4AsyncStatus@34@@Z 000000018001be08     _nodert_generated.obj
 0002:00001e30       $cppxdata$??R<lambda_4826e3b284b53b5a99fdf233406a9e9a>@@QEAAXPE$AAU?$IAsyncOperation@PE$AAVRadio@Radios@Devices@Windows@@@Foundation@Windows@@W4AsyncStatus@23@@Z 000000018001be30     _nodert_generated.obj
 0002:00001e58       $cppxdata$??$_Invoke_ret@PE$AAVRadio@Radios@Devices@Windows@@AEAV<lambda_c806722195bf1298f17615890da7d503>@@V?$Local@VValue@v8@@@v8@@@std@@YAPE$AAVRadio@Radios@Devices@Windows@@U?$_Forced@PE$AAVRadio@Radios@Devices@Windows@@$0A@@0@AEAV<lambda_c806722195bf1298f17615890da7d503>@@$$QEAV?$Local@VValue@v8@@@v8@@@Z 000000018001be58     _nodert_generated.obj
 0002:00001e80       $cppxdata$??$?0V<lambda_83ab8abb741bf007d1b5942dba04bfdd>@@EX@?$function@$$A6AEV?$task@PE$AAU?$IVectorView@PE$AAVRadio@Radios@Devices@Windows@@@Collections@Foundation@Windows@@@Concurrency@@@Z@std@@QEAA@V<lambda_83ab8abb741bf007d1b5942dba04bfdd>@@@Z 000000018001be80     _nodert_generated.obj
 0002:00001ea8       $cppxdata$??$?0V<lambda_73163a669fe347e5c4e2d28c36c6f8ca>@@EX@?$function@$$A6AEV?$task@PE$AAVRadio@Radios@Devices@Windows@@@Concurrency@@@Z@std@@QEAA@V<lambda_73163a669fe347e5c4e2d28c36c6f8ca>@@@Z 000000018001bea8     _nodert_generated.obj
 0002:00001ed0       $cppxdata$?_TaskInitAsyncOp@?$task@W4RadioAccessStatus@Radios@Devices@Windows@@@Concurrency@@AEAAXPE$AAU?$IAsyncOperation@W4RadioAccessStatus@Radios@Devices@Windows@@@Foundation@Windows@@@Z 000000018001bed0     _nodert_generated.obj
 0002:00001ef8       $cppxdata$?_TaskInitAsyncOp@?$task@PE$AAU?$IVectorView@PE$AAVRadio@Radios@Devices@Windows@@@Collections@Foundation@Windows@@@Concurrency@@AEAAXPE$AAU?$IAsyncOperation@PE$AAU?$IVectorView@PE$AAVRadio@Radios@Devices@Windows@@@Collections@Foundation@Windows@@@Foundation@Windows@@@Z 000000018001bef8     _nodert_generated.obj
 0002:00001f20       $cppxdata$?_TaskInitAsyncOp@?$task@PE$AAVRadio@Radios@Devices@Windows@@@Concurrency@@AEAAXPE$AAU?$IAsyncOperation@PE$AAVRadio@Radios@Devices@Windows@@@Foundation@Windows@@@Z 000000018001bf20     _nodert_generated.obj
 0002:00001f48       $cppxdata$??R?$_Func_class@XV?$task@PE$AAU?$IVectorView@PE$AAVRadio@Radios@Devices@Windows@@@Collections@Foundation@Windows@@@Concurrency@@@std@@QEBAXV?$task@PE$AAU?$IVectorView@PE$AAVRadio@Radios@Devices@Windows@@@Collections@Foundation@Windows@@@Concurrency@@@Z 000000018001bf48     _nodert_generated.obj
 0002:00001f70       $cppxdata$??R?$_Func_class@XV?$task@PE$AAVRadio@Radios@Devices@Windows@@@Concurrency@@@std@@QEBAXV?$task@PE$AAVRadio@Radios@Devices@Windows@@@Concurrency@@@Z 000000018001bf70     _nodert_generated.obj
 0002:00001f98       $cppxdata$??R?$_Func_class@EV?$task@PE$AAVRadio@Radios@Devices@Windows@@@Concurrency@@@std@@QEBAEV?$task@PE$AAVRadio@Radios@Devices@Windows@@@Concurrency@@@Z 000000018001bf98     _nodert_generated.obj
 0002:00001fc0       $cppxdata$??R?$_Func_class@EV?$task@PE$AAU?$IVectorView@PE$AAVRadio@Radios@Devices@Windows@@@Collections@Foundation@Windows@@@Concurrency@@@std@@QEBAEV?$task@PE$AAU?$IVectorView@PE$AAVRadio@Radios@Devices@Windows@@@Collections@Foundation@Windows@@@Concurrency@@@Z 000000018001bfc0     _nodert_generated.obj
 0002:00001fe8       $cppxdata$??R?$_Func_class@EV?$task@W4RadioAccessStatus@Radios@Devices@Windows@@@Concurrency@@@std@@QEBAEV?$task@W4RadioAccessStatus@Radios@Devices@Windows@@@Concurrency@@@Z 000000018001bfe8     _nodert_generated.obj
 0002:00002010       $cppxdata$?_Do_call@?$_Func_impl@V<lambda_f25c37099038263181b5186a3fa41b37>@@V?$allocator@H@std@@X$$V@std@@EEAAXXZ 000000018001c010     _nodert_generated.obj
 0002:00002038       $cppxdata$?_Copy@?$_Func_impl@V<lambda_fc55a96778b695da9907353a9fdacbca>@@V?$allocator@H@std@@X$$V@std@@EEBAPEAV?$_Func_base@X$$V@2@PEAX@Z 000000018001c038     _nodert_generated.obj
 0002:00002060       $cppxdata$?_Move@?$_Func_impl@V<lambda_fc55a96778b695da9907353a9fdacbca>@@V?$allocator@H@std@@X$$V@std@@EEAAPEAV?$_Func_base@X$$V@2@PEAX@Z 000000018001c060     _nodert_generated.obj
 0002:00002088       $cppxdata$?_Move@?$_Func_impl@V<lambda_923cdb2d6b6e10951a75b3af8d001269>@@V?$allocator@H@std@@XV?$function@$$A6AXHPEAV?$Local@VValue@v8@@@v8@@@Z@3@@std@@EEAAPEAV?$_Func_base@XV?$function@$$A6AXHPEAV?$Local@VValue@v8@@@v8@@@Z@std@@@2@PEAX@Z 000000018001c088     _nodert_generated.obj
 0002:00002088       $cppxdata$?_Copy@?$_Func_impl@V<lambda_923cdb2d6b6e10951a75b3af8d001269>@@V?$allocator@H@std@@XV?$function@$$A6AXHPEAV?$Local@VValue@v8@@@v8@@@Z@3@@std@@EEBAPEAV?$_Func_base@XV?$function@$$A6AXHPEAV?$Local@VValue@v8@@@v8@@@Z@std@@@2@PEAX@Z 000000018001c088     _nodert_generated.obj
 0002:000020b0       $cppxdata$?_Delete_this@?$_Func_impl@V<lambda_923cdb2d6b6e10951a75b3af8d001269>@@V?$allocator@H@std@@XV?$function@$$A6AXHPEAV?$Local@VValue@v8@@@v8@@@Z@3@@std@@EEAAX_N@Z 000000018001c0b0     _nodert_generated.obj
 0002:000020d8       $cppxdata$?_Do_call@?$_Func_impl@V<lambda_c806722195bf1298f17615890da7d503>@@V?$allocator@H@std@@PE$AAVRadio@Radios@Devices@Windows@@V?$Local@VValue@v8@@@v8@@@std@@EEAAPE$AAVRadio@Radios@Devices@Windows@@$$QEAV?$Local@VValue@v8@@@v8@@@Z 000000018001c0d8     _nodert_generated.obj
 0002:00002100       $cppxdata$?_Copy@?$_Func_impl@V<lambda_332ba2b9435369ab76e287351a81320b>@@V?$allocator@H@std@@XV?$function@$$A6AXHPEAV?$Local@VValue@v8@@@v8@@@Z@3@@std@@EEBAPEAV?$_Func_base@XV?$function@$$A6AXHPEAV?$Local@VValue@v8@@@v8@@@Z@std@@@2@PEAX@Z 000000018001c100     _nodert_generated.obj
 0002:00002100       $cppxdata$?_Move@?$_Func_impl@V<lambda_332ba2b9435369ab76e287351a81320b>@@V?$allocator@H@std@@XV?$function@$$A6AXHPEAV?$Local@VValue@v8@@@v8@@@Z@3@@std@@EEAAPEAV?$_Func_base@XV?$function@$$A6AXHPEAV?$Local@VValue@v8@@@v8@@@Z@std@@@2@PEAX@Z 000000018001c100     _nodert_generated.obj
 0002:00002128       $cppxdata$?_Delete_this@?$_Func_impl@V<lambda_332ba2b9435369ab76e287351a81320b>@@V?$allocator@H@std@@XV?$function@$$A6AXHPEAV?$Local@VValue@v8@@@v8@@@Z@3@@std@@EEAAX_N@Z 000000018001c128     _nodert_generated.obj
 0002:00002150       $cppxdata$?_Move@?$_Func_impl@V<lambda_6e721a9cc44c44771ffaa71ba9f88df1>@@V?$allocator@H@std@@XV?$function@$$A6AXHPEAV?$Local@VValue@v8@@@v8@@@Z@3@@std@@EEAAPEAV?$_Func_base@XV?$function@$$A6AXHPEAV?$Local@VValue@v8@@@v8@@@Z@std@@@2@PEAX@Z 000000018001c150     _nodert_generated.obj
 0002:00002150       $cppxdata$?_Copy@?$_Func_impl@V<lambda_6e721a9cc44c44771ffaa71ba9f88df1>@@V?$allocator@H@std@@XV?$function@$$A6AXHPEAV?$Local@VValue@v8@@@v8@@@Z@3@@std@@EEBAPEAV?$_Func_base@XV?$function@$$A6AXHPEAV?$Local@VValue@v8@@@v8@@@Z@std@@@2@PEAX@Z 000000018001c150     _nodert_generated.obj
 0002:00002178       $cppxdata$?_Delete_this@?$_Func_impl@V<lambda_6e721a9cc44c44771ffaa71ba9f88df1>@@V?$allocator@H@std@@XV?$function@$$A6AXHPEAV?$Local@VValue@v8@@@v8@@@Z@3@@std@@EEAAX_N@Z 000000018001c178     _nodert_generated.obj
 0002:000021a0       $cppxdata$?_Move@?$_Func_impl@V<lambda_937a019cbae5299c9ee089aacd8953b7>@@V?$allocator@H@std@@XV?$function@$$A6AXHPEAV?$Local@VValue@v8@@@v8@@@Z@3@@std@@EEAAPEAV?$_Func_base@XV?$function@$$A6AXHPEAV?$Local@VValue@v8@@@v8@@@Z@std@@@2@PEAX@Z 000000018001c1a0     _nodert_generated.obj
 0002:000021a0       $cppxdata$?_Copy@?$_Func_impl@V<lambda_937a019cbae5299c9ee089aacd8953b7>@@V?$allocator@H@std@@XV?$function@$$A6AXHPEAV?$Local@VValue@v8@@@v8@@@Z@3@@std@@EEBAPEAV?$_Func_base@XV?$function@$$A6AXHPEAV?$Local@VValue@v8@@@v8@@@Z@std@@@2@PEAX@Z 000000018001c1a0     _nodert_generated.obj
 0002:000021c8       $cppxdata$?_Delete_this@?$_Func_impl@V<lambda_937a019cbae5299c9ee089aacd8953b7>@@V?$allocator@H@std@@XV?$function@$$A6AXHPEAV?$Local@VValue@v8@@@v8@@@Z@3@@std@@EEAAX_N@Z 000000018001c1c8     _nodert_generated.obj
 0002:000021f0       $cppxdata$?_Copy@?$_Func_impl@V<lambda_1410bf25c1f3e34acba1e87129c0b837>@@V?$allocator@H@std@@XV?$function@$$A6AXHPEAV?$Local@VValue@v8@@@v8@@@Z@3@@std@@EEBAPEAV?$_Func_base@XV?$function@$$A6AXHPEAV?$Local@VValue@v8@@@v8@@@Z@std@@@2@PEAX@Z 000000018001c1f0     _nodert_generated.obj
 0002:000021f0       $cppxdata$?_Move@?$_Func_impl@V<lambda_1410bf25c1f3e34acba1e87129c0b837>@@V?$allocator@H@std@@XV?$function@$$A6AXHPEAV?$Local@VValue@v8@@@v8@@@Z@3@@std@@EEAAPEAV?$_Func_base@XV?$function@$$A6AXHPEAV?$Local@VValue@v8@@@v8@@@Z@std@@@2@PEAX@Z 000000018001c1f0     _nodert_generated.obj
 0002:00002218       $cppxdata$?_Delete_this@?$_Func_impl@V<lambda_1410bf25c1f3e34acba1e87129c0b837>@@V?$allocator@H@std@@XV?$function@$$A6AXHPEAV?$Local@VValue@v8@@@v8@@@Z@3@@std@@EEAAX_N@Z 000000018001c218     _nodert_generated.obj
 0002:00002240       $cppxdata$?_Copy@?$_Func_impl@V<lambda_be5e2ae45d9afcdad4d6af170ce6b1a9>@@V?$allocator@H@std@@XV?$function@$$A6AXHPEAV?$Local@VValue@v8@@@v8@@@Z@3@@std@@EEBAPEAV?$_Func_base@XV?$function@$$A6AXHPEAV?$Local@VValue@v8@@@v8@@@Z@std@@@2@PEAX@Z 000000018001c240     _nodert_generated.obj
 0002:00002240       $cppxdata$?_Move@?$_Func_impl@V<lambda_be5e2ae45d9afcdad4d6af170ce6b1a9>@@V?$allocator@H@std@@XV?$function@$$A6AXHPEAV?$Local@VValue@v8@@@v8@@@Z@3@@std@@EEAAPEAV?$_Func_base@XV?$function@$$A6AXHPEAV?$Local@VValue@v8@@@v8@@@Z@std@@@2@PEAX@Z 000000018001c240     _nodert_generated.obj
 0002:00002268       $cppxdata$?_Delete_this@?$_Func_impl@V<lambda_be5e2ae45d9afcdad4d6af170ce6b1a9>@@V?$allocator@H@std@@XV?$function@$$A6AXHPEAV?$Local@VValue@v8@@@v8@@@Z@3@@std@@EEAAX_N@Z 000000018001c268     _nodert_generated.obj
 0002:00002290       $cppxdata$?_Do_call@?$_Func_impl@V<lambda_fa74f712429373a3f78dc33742231903>@@V?$allocator@H@std@@X$$V@std@@EEAAXXZ 000000018001c290     _nodert_generated.obj
 0002:000022b8       $cppxdata$??1<lambda_199453e3251722af17cbed06cee0aa25>@@QEAA@XZ 000000018001c2b8     _nodert_generated.obj
 0002:000022e0       $cppxdata$??1<lambda_83ab8abb741bf007d1b5942dba04bfdd>@@QEAA@XZ 000000018001c2e0     _nodert_generated.obj
 0002:00002308       $cppxdata$??1<lambda_73163a669fe347e5c4e2d28c36c6f8ca>@@QEAA@XZ 000000018001c308     _nodert_generated.obj
 0002:00002330       $cppxdata$??R<lambda_199453e3251722af17cbed06cee0aa25>@@QEBAEV?$task@W4RadioAccessStatus@Radios@Devices@Windows@@@Concurrency@@@Z 000000018001c330     _nodert_generated.obj
 0002:00002358       $cppxdata$??$_MakeTToUnitFunc@V?$task@W4RadioAccessStatus@Radios@Devices@Windows@@@Concurrency@@@details@Concurrency@@YA?AV?$function@$$A6AEV?$task@W4RadioAccessStatus@Radios@Devices@Windows@@@Concurrency@@@Z@std@@AEBV?$function@$$A6AXV?$task@W4RadioAccessStatus@Radios@Devices@Windows@@@Concurrency@@@Z@3@@Z 000000018001c358     _nodert_generated.obj
 0002:00002380       $cppxdata$??R<lambda_83ab8abb741bf007d1b5942dba04bfdd>@@QEBAEV?$task@PE$AAU?$IVectorView@PE$AAVRadio@Radios@Devices@Windows@@@Collections@Foundation@Windows@@@Concurrency@@@Z 000000018001c380     _nodert_generated.obj
 0002:000023a8       $cppxdata$??$_MakeTToUnitFunc@V?$task@PE$AAU?$IVectorView@PE$AAVRadio@Radios@Devices@Windows@@@Collections@Foundation@Windows@@@Concurrency@@@details@Concurrency@@YA?AV?$function@$$A6AEV?$task@PE$AAU?$IVectorView@PE$AAVRadio@Radios@Devices@Windows@@@Collections@Foundation@Windows@@@Concurrency@@@Z@std@@AEBV?$function@$$A6AXV?$task@PE$AAU?$IVectorView@PE$AAVRadio@Radios@Devices@Windows@@@Collections@Foundation@Windows@@@Concurrency@@@Z@3@@Z 000000018001c3a8     _nodert_generated.obj
 0002:000023d0       $cppxdata$??R<lambda_73163a669fe347e5c4e2d28c36c6f8ca>@@QEBAEV?$task@PE$AAVRadio@Radios@Devices@Windows@@@Concurrency@@@Z 000000018001c3d0     _nodert_generated.obj
 0002:000023f8       $cppxdata$??$_MakeTToUnitFunc@V?$task@PE$AAVRadio@Radios@Devices@Windows@@@Concurrency@@@details@Concurrency@@YA?AV?$function@$$A6AEV?$task@PE$AAVRadio@Radios@Devices@Windows@@@Concurrency@@@Z@std@@AEBV?$function@$$A6AXV?$task@PE$AAVRadio@Radios@Devices@Windows@@@Concurrency@@@Z@3@@Z 000000018001c3f8     _nodert_generated.obj
 0002:00002420       $cppxdata$??$make_shared@U?$_Task_impl@W4RadioAccessStatus@Radios@Devices@Windows@@@details@Concurrency@@AEAPEAV_CancellationTokenState@23@AEAUscheduler_ptr@3@@std@@YA?AV?$shared_ptr@U?$_Task_impl@W4RadioAccessStatus@Radios@Devices@Windows@@@details@Concurrency@@@0@AEAPEAV_CancellationTokenState@details@Concurrency@@AEAUscheduler_ptr@4@@Z 000000018001c420     _nodert_generated.obj
 0002:00002448       $cppxdata$??$make_shared@U?$_Task_impl@PE$AAU?$IVectorView@PE$AAVRadio@Radios@Devices@Windows@@@Collections@Foundation@Windows@@@details@Concurrency@@AEAPEAV_CancellationTokenState@23@AEAUscheduler_ptr@3@@std@@YA?AV?$shared_ptr@U?$_Task_impl@PE$AAU?$IVectorView@PE$AAVRadio@Radios@Devices@Windows@@@Collections@Foundation@Windows@@@details@Concurrency@@@0@AEAPEAV_CancellationTokenState@details@Concurrency@@AEAUscheduler_ptr@4@@Z 000000018001c448     _nodert_generated.obj
 0002:00002470       $cppxdata$??$make_shared@U?$_Task_impl@PE$AAVRadio@Radios@Devices@Windows@@@details@Concurrency@@AEAPEAV_CancellationTokenState@23@AEAUscheduler_ptr@3@@std@@YA?AV?$shared_ptr@U?$_Task_impl@PE$AAVRadio@Radios@Devices@Windows@@@details@Concurrency@@@0@AEAPEAV_CancellationTokenState@details@Concurrency@@AEAUscheduler_ptr@4@@Z 000000018001c470     _nodert_generated.obj
 0002:00002498       $cppxdata$?_Perform@?$_Continuation_func_transformer@V?$task@PE$AAVRadio@Radios@Devices@Windows@@@Concurrency@@X@Concurrency@@SA?AV?$function@$$A6AEV?$task@PE$AAVRadio@Radios@Devices@Windows@@@Concurrency@@@Z@std@@V?$function@$$A6AXV?$task@PE$AAVRadio@Radios@Devices@Windows@@@Concurrency@@@Z@4@@Z 000000018001c498     _nodert_generated.obj
 0002:000024c0       $cppxdata$?_Perform@?$_Continuation_func_transformer@V?$task@PE$AAU?$IVectorView@PE$AAVRadio@Radios@Devices@Windows@@@Collections@Foundation@Windows@@@Concurrency@@X@Concurrency@@SA?AV?$function@$$A6AEV?$task@PE$AAU?$IVectorView@PE$AAVRadio@Radios@Devices@Windows@@@Collections@Foundation@Windows@@@Concurrency@@@Z@std@@V?$function@$$A6AXV?$task@PE$AAU?$IVectorView@PE$AAVRadio@Radios@Devices@Windows@@@Collections@Foundation@Windows@@@Concurrency@@@Z@4@@Z 000000018001c4c0     _nodert_generated.obj
 0002:000024e8       $cppxdata$?_Perform@?$_Continuation_func_transformer@V?$task@W4RadioAccessStatus@Radios@Devices@Windows@@@Concurrency@@X@Concurrency@@SA?AV?$function@$$A6AEV?$task@W4RadioAccessStatus@Radios@Devices@Windows@@@Concurrency@@@Z@std@@V?$function@$$A6AXV?$task@W4RadioAccessStatus@Radios@Devices@Windows@@@Concurrency@@@Z@4@@Z 000000018001c4e8     _nodert_generated.obj
 0002:00002510       $cppxdata$?_Continue@?$_ContinuationTaskHandle@W4RadioAccessStatus@Radios@Devices@Windows@@XV?$function@$$A6AXV?$task@W4RadioAccessStatus@Radios@Devices@Windows@@@Concurrency@@@Z@std@@U?$integral_constant@_N$00@6@U_TypeSelectorNoAsync@details@Concurrency@@@?$task@W4RadioAccessStatus@Radios@Devices@Windows@@@Concurrency@@QEBAXU?$integral_constant@_N$00@std@@U_TypeSelectorNoAsync@details@3@@Z 000000018001c510     _nodert_generated.obj
 0002:00002538       $cppxdata$?_Continue@?$_ContinuationTaskHandle@PE$AAU?$IVectorView@PE$AAVRadio@Radios@Devices@Windows@@@Collections@Foundation@Windows@@XV?$function@$$A6AXV?$task@PE$AAU?$IVectorView@PE$AAVRadio@Radios@Devices@Windows@@@Collections@Foundation@Windows@@@Concurrency@@@Z@std@@U?$integral_constant@_N$00@6@U_TypeSelectorNoAsync@details@Concurrency@@@?$task@PE$AAU?$IVectorView@PE$AAVRadio@Radios@Devices@Windows@@@Collections@Foundation@Windows@@@Concurrency@@QEBAXU?$integral_constant@_N$00@std@@U_TypeSelectorNoAsync@details@3@@Z 000000018001c538     _nodert_generated.obj
 0002:00002560       $cppxdata$?_Continue@?$_ContinuationTaskHandle@PE$AAVRadio@Radios@Devices@Windows@@XV?$function@$$A6AXV?$task@PE$AAVRadio@Radios@Devices@Windows@@@Concurrency@@@Z@std@@U?$integral_constant@_N$00@6@U_TypeSelectorNoAsync@details@Concurrency@@@?$task@PE$AAVRadio@Radios@Devices@Windows@@@Concurrency@@QEBAXU?$integral_constant@_N$00@std@@U_TypeSelectorNoAsync@details@3@@Z 000000018001c560     _nodert_generated.obj
 0002:00002588       $cppxdata$?_Make@?$_Task_ptr@W4RadioAccessStatus@Radios@Devices@Windows@@@details@Concurrency@@SA?AV?$shared_ptr@U?$_Task_impl@W4RadioAccessStatus@Radios@Devices@Windows@@@details@Concurrency@@@std@@PEAV_CancellationTokenState@23@Uscheduler_ptr@3@@Z 000000018001c588     _nodert_generated.obj
 0002:000025b0       $cppxdata$?_Make@?$_Task_ptr@PE$AAU?$IVectorView@PE$AAVRadio@Radios@Devices@Windows@@@Collections@Foundation@Windows@@@details@Concurrency@@SA?AV?$shared_ptr@U?$_Task_impl@PE$AAU?$IVectorView@PE$AAVRadio@Radios@Devices@Windows@@@Collections@Foundation@Windows@@@details@Concurrency@@@std@@PEAV_CancellationTokenState@23@Uscheduler_ptr@3@@Z 000000018001c5b0     _nodert_generated.obj
 0002:000025d8       $cppxdata$?_Make@?$_Task_ptr@PE$AAVRadio@Radios@Devices@Windows@@@details@Concurrency@@SA?AV?$shared_ptr@U?$_Task_impl@PE$AAVRadio@Radios@Devices@Windows@@@details@Concurrency@@@std@@PEAV_CancellationTokenState@23@Uscheduler_ptr@3@@Z 000000018001c5d8     _nodert_generated.obj
 0002:00002600       $cppxdata$??0?$_PPLTaskHandle@EU?$_ContinuationTaskHandle@W4RadioAccessStatus@Radios@Devices@Windows@@XV?$function@$$A6AXV?$task@W4RadioAccessStatus@Radios@Devices@Windows@@@Concurrency@@@Z@std@@U?$integral_constant@_N$00@6@U_TypeSelectorNoAsync@details@Concurrency@@@?$task@W4RadioAccessStatus@Radios@Devices@Windows@@@Concurrency@@U_ContinuationTaskHandleBase@details@3@@details@Concurrency@@QEAA@AEBV?$shared_ptr@U?$_Task_impl@E@details@Concurrency@@@std@@@Z 000000018001c600     _nodert_generated.obj
 0002:00002628       $cppxdata$??0?$_PPLTaskHandle@EU?$_ContinuationTaskHandle@PE$AAU?$IVectorView@PE$AAVRadio@Radios@Devices@Windows@@@Collections@Foundation@Windows@@XV?$function@$$A6AXV?$task@PE$AAU?$IVectorView@PE$AAVRadio@Radios@Devices@Windows@@@Collections@Foundation@Windows@@@Concurrency@@@Z@std@@U?$integral_constant@_N$00@6@U_TypeSelectorNoAsync@details@Concurrency@@@?$task@PE$AAU?$IVectorView@PE$AAVRadio@Radios@Devices@Windows@@@Collections@Foundation@Windows@@@Concurrency@@U_ContinuationTaskHandleBase@details@3@@details@Concurrency@@QEAA@AEBV?$shared_ptr@U?$_Task_impl@E@details@Concurrency@@@std@@@Z 000000018001c628     _nodert_generated.obj
 0002:00002650       $cppxdata$??0?$_PPLTaskHandle@EU?$_ContinuationTaskHandle@PE$AAVRadio@Radios@Devices@Windows@@XV?$function@$$A6AXV?$task@PE$AAVRadio@Radios@Devices@Windows@@@Concurrency@@@Z@std@@U?$integral_constant@_N$00@6@U_TypeSelectorNoAsync@details@Concurrency@@@?$task@PE$AAVRadio@Radios@Devices@Windows@@@Concurrency@@U_ContinuationTaskHandleBase@details@3@@details@Concurrency@@QEAA@AEBV?$shared_ptr@U?$_Task_impl@E@details@Concurrency@@@std@@@Z 000000018001c650     _nodert_generated.obj
 0002:00002678       $cppxdata$?_CreateImpl@?$task@W4RadioAccessStatus@Radios@Devices@Windows@@@Concurrency@@QEAAXPEAV_CancellationTokenState@details@2@Uscheduler_ptr@2@@Z 000000018001c678     _nodert_generated.obj
 0002:000026a0       $cppxdata$?_CreateImpl@?$task@PE$AAU?$IVectorView@PE$AAVRadio@Radios@Devices@Windows@@@Collections@Foundation@Windows@@@Concurrency@@QEAAXPEAV_CancellationTokenState@details@2@Uscheduler_ptr@2@@Z 000000018001c6a0     _nodert_generated.obj
 0002:000026c8       $cppxdata$?_CreateImpl@?$task@PE$AAVRadio@Radios@Devices@Windows@@@Concurrency@@QEAAXPEAV_CancellationTokenState@details@2@Uscheduler_ptr@2@@Z 000000018001c6c8     _nodert_generated.obj
 0002:000026f0       $cppxdata$??0?$_ContinuationTaskHandle@W4RadioAccessStatus@Radios@Devices@Windows@@XV?$function@$$A6AXV?$task@W4RadioAccessStatus@Radios@Devices@Windows@@@Concurrency@@@Z@std@@U?$integral_constant@_N$00@6@U_TypeSelectorNoAsync@details@Concurrency@@@?$task@W4RadioAccessStatus@Radios@Devices@Windows@@@Concurrency@@QEAA@AEBV?$shared_ptr@U?$_Task_impl@W4RadioAccessStatus@Radios@Devices@Windows@@@details@Concurrency@@@std@@AEBV?$shared_ptr@U?$_Task_impl@E@details@Concurrency@@@4@AEBV?$function@$$A6AXV?$task@W4RadioAccessStatus@Radios@Devices@Windows@@@Concurrency@@@Z@4@AEBVtask_continuation_context@2@W4_TaskInliningMode@details@2@@Z 000000018001c6f0     _nodert_generated.obj
 0002:00002718       $cppxdata$??1?$_ContinuationTaskHandle@W4RadioAccessStatus@Radios@Devices@Windows@@XV?$function@$$A6AXV?$task@W4RadioAccessStatus@Radios@Devices@Windows@@@Concurrency@@@Z@std@@U?$integral_constant@_N$00@6@U_TypeSelectorNoAsync@details@Concurrency@@@?$task@W4RadioAccessStatus@Radios@Devices@Windows@@@Concurrency@@UEAA@XZ 000000018001c718     _nodert_generated.obj
 0002:00002740       $cppxdata$??1?$_PPLTaskHandle@EU?$_ContinuationTaskHandle@W4RadioAccessStatus@Radios@Devices@Windows@@XV?$function@$$A6AXV?$task@W4RadioAccessStatus@Radios@Devices@Windows@@@Concurrency@@@Z@std@@U?$integral_constant@_N$00@6@U_TypeSelectorNoAsync@details@Concurrency@@@?$task@W4RadioAccessStatus@Radios@Devices@Windows@@@Concurrency@@U_ContinuationTaskHandleBase@details@3@@details@Concurrency@@UEAA@XZ 000000018001c740     _nodert_generated.obj
 0002:00002768       $cppxdata$??0?$_ContinuationTaskHandle@PE$AAU?$IVectorView@PE$AAVRadio@Radios@Devices@Windows@@@Collections@Foundation@Windows@@XV?$function@$$A6AXV?$task@PE$AAU?$IVectorView@PE$AAVRadio@Radios@Devices@Windows@@@Collections@Foundation@Windows@@@Concurrency@@@Z@std@@U?$integral_constant@_N$00@6@U_TypeSelectorNoAsync@details@Concurrency@@@?$task@PE$AAU?$IVectorView@PE$AAVRadio@Radios@Devices@Windows@@@Collections@Foundation@Windows@@@Concurrency@@QEAA@AEBV?$shared_ptr@U?$_Task_impl@PE$AAU?$IVectorView@PE$AAVRadio@Radios@Devices@Windows@@@Collections@Foundation@Windows@@@details@Concurrency@@@std@@AEBV?$shared_ptr@U?$_Task_impl@E@details@Concurrency@@@4@AEBV?$function@$$A6AXV?$task@PE$AAU?$IVectorView@PE$AAVRadio@Radios@Devices@Windows@@@Collections@Foundation@Windows@@@Concurrency@@@Z@4@AEBVtask_continuation_context@2@W4_TaskInliningMode@details@2@@Z 000000018001c768     _nodert_generated.obj
 0002:00002790       $cppxdata$??1?$_ContinuationTaskHandle@PE$AAU?$IVectorView@PE$AAVRadio@Radios@Devices@Windows@@@Collections@Foundation@Windows@@XV?$function@$$A6AXV?$task@PE$AAU?$IVectorView@PE$AAVRadio@Radios@Devices@Windows@@@Collections@Foundation@Windows@@@Concurrency@@@Z@std@@U?$integral_constant@_N$00@6@U_TypeSelectorNoAsync@details@Concurrency@@@?$task@PE$AAU?$IVectorView@PE$AAVRadio@Radios@Devices@Windows@@@Collections@Foundation@Windows@@@Concurrency@@UEAA@XZ 000000018001c790     _nodert_generated.obj
 0002:000027b8       $cppxdata$??1?$_PPLTaskHandle@EU?$_ContinuationTaskHandle@PE$AAU?$IVectorView@PE$AAVRadio@Radios@Devices@Windows@@@Collections@Foundation@Windows@@XV?$function@$$A6AXV?$task@PE$AAU?$IVectorView@PE$AAVRadio@Radios@Devices@Windows@@@Collections@Foundation@Windows@@@Concurrency@@@Z@std@@U?$integral_constant@_N$00@6@U_TypeSelectorNoAsync@details@Concurrency@@@?$task@PE$AAU?$IVectorView@PE$AAVRadio@Radios@Devices@Windows@@@Collections@Foundation@Windows@@@Concurrency@@U_ContinuationTaskHandleBase@details@3@@details@Concurrency@@UEAA@XZ 000000018001c7b8     _nodert_generated.obj
 0002:000027e0       $cppxdata$??0?$_ContinuationTaskHandle@PE$AAVRadio@Radios@Devices@Windows@@XV?$function@$$A6AXV?$task@PE$AAVRadio@Radios@Devices@Windows@@@Concurrency@@@Z@std@@U?$integral_constant@_N$00@6@U_TypeSelectorNoAsync@details@Concurrency@@@?$task@PE$AAVRadio@Radios@Devices@Windows@@@Concurrency@@QEAA@AEBV?$shared_ptr@U?$_Task_impl@PE$AAVRadio@Radios@Devices@Windows@@@details@Concurrency@@@std@@AEBV?$shared_ptr@U?$_Task_impl@E@details@Concurrency@@@4@AEBV?$function@$$A6AXV?$task@PE$AAVRadio@Radios@Devices@Windows@@@Concurrency@@@Z@4@AEBVtask_continuation_context@2@W4_TaskInliningMode@details@2@@Z 000000018001c7e0     _nodert_generated.obj
 0002:00002808       $cppxdata$??1?$_ContinuationTaskHandle@PE$AAVRadio@Radios@Devices@Windows@@XV?$function@$$A6AXV?$task@PE$AAVRadio@Radios@Devices@Windows@@@Concurrency@@@Z@std@@U?$integral_constant@_N$00@6@U_TypeSelectorNoAsync@details@Concurrency@@@?$task@PE$AAVRadio@Radios@Devices@Windows@@@Concurrency@@UEAA@XZ 000000018001c808     _nodert_generated.obj
 0002:00002830       $cppxdata$??1?$_PPLTaskHandle@EU?$_ContinuationTaskHandle@PE$AAVRadio@Radios@Devices@Windows@@XV?$function@$$A6AXV?$task@PE$AAVRadio@Radios@Devices@Windows@@@Concurrency@@@Z@std@@U?$integral_constant@_N$00@6@U_TypeSelectorNoAsync@details@Concurrency@@@?$task@PE$AAVRadio@Radios@Devices@Windows@@@Concurrency@@U_ContinuationTaskHandleBase@details@3@@details@Concurrency@@UEAA@XZ 000000018001c830     _nodert_generated.obj
 0002:00002858       $cppxdata$??$_ThenImpl@PE$AAVRadio@Radios@Devices@Windows@@V?$function@$$A6AXV?$task@PE$AAVRadio@Radios@Devices@Windows@@@Concurrency@@@Z@std@@@?$task@PE$AAVRadio@Radios@Devices@Windows@@@Concurrency@@AEBA?AV?$task@X@1@AEBV?$function@$$A6AXV?$task@PE$AAVRadio@Radios@Devices@Windows@@@Concurrency@@@Z@std@@AEAU_ThenImplOptions@details@1@@Z 000000018001c858     _nodert_generated.obj
 0002:00002880       $cppxdata$??$?0PE$AAU?$IAsyncOperation@PE$AAVRadio@Radios@Devices@Windows@@@Foundation@Windows@@@?$task@PE$AAVRadio@Radios@Devices@Windows@@@Concurrency@@QEAA@PE$AAU?$IAsyncOperation@PE$AAVRadio@Radios@Devices@Windows@@@Foundation@Windows@@AEBVtask_options@1@@Z 000000018001c880     _nodert_generated.obj
 0002:000028a8       $cppxdata$??$_ThenImpl@PE$AAU?$IVectorView@PE$AAVRadio@Radios@Devices@Windows@@@Collections@Foundation@Windows@@V?$function@$$A6AXV?$task@PE$AAU?$IVectorView@PE$AAVRadio@Radios@Devices@Windows@@@Collections@Foundation@Windows@@@Concurrency@@@Z@std@@@?$task@PE$AAU?$IVectorView@PE$AAVRadio@Radios@Devices@Windows@@@Collections@Foundation@Windows@@@Concurrency@@AEBA?AV?$task@X@1@AEBV?$function@$$A6AXV?$task@PE$AAU?$IVectorView@PE$AAVRadio@Radios@Devices@Windows@@@Collections@Foundation@Windows@@@Concurrency@@@Z@std@@AEAU_ThenImplOptions@details@1@@Z 000000018001c8a8     _nodert_generated.obj
 0002:000028d0       $cppxdata$??$?0PE$AAU?$IAsyncOperation@PE$AAU?$IVectorView@PE$AAVRadio@Radios@Devices@Windows@@@Collections@Foundation@Windows@@@Foundation@Windows@@@?$task@PE$AAU?$IVectorView@PE$AAVRadio@Radios@Devices@Windows@@@Collections@Foundation@Windows@@@Concurrency@@QEAA@PE$AAU?$IAsyncOperation@PE$AAU?$IVectorView@PE$AAVRadio@Radios@Devices@Windows@@@Collections@Foundation@Windows@@@Foundation@Windows@@AEBVtask_options@1@@Z 000000018001c8d0     _nodert_generated.obj
 0002:000028f8       $cppxdata$??$_ThenImpl@W4RadioAccessStatus@Radios@Devices@Windows@@V?$function@$$A6AXV?$task@W4RadioAccessStatus@Radios@Devices@Windows@@@Concurrency@@@Z@std@@@?$task@W4RadioAccessStatus@Radios@Devices@Windows@@@Concurrency@@AEBA?AV?$task@X@1@AEBV?$function@$$A6AXV?$task@W4RadioAccessStatus@Radios@Devices@Windows@@@Concurrency@@@Z@std@@AEAU_ThenImplOptions@details@1@@Z 000000018001c8f8     _nodert_generated.obj
 0002:00002920       $cppxdata$??$?0PE$AAU?$IAsyncOperation@W4RadioAccessStatus@Radios@Devices@Windows@@@Foundation@Windows@@@?$task@W4RadioAccessStatus@Radios@Devices@Windows@@@Concurrency@@QEAA@PE$AAU?$IAsyncOperation@W4RadioAccessStatus@Radios@Devices@Windows@@@Foundation@Windows@@AEBVtask_options@1@@Z 000000018001c920     _nodert_generated.obj
 0002:00002948       $cppxdata$??1?$__abi_FunctorCapture@V<lambda_4826e3b284b53b5a99fdf233406a9e9a>@@XPE$AAU?$IAsyncOperation@PE$AAVRadio@Radios@Devices@Windows@@@Foundation@Windows@@W4AsyncStatus@34@@Details@Platform@@UEAA@XZ 000000018001c948     _nodert_generated.obj
 0002:00002948       $cppxdata$??1?$__abi_FunctorCapture@V<lambda_fa493edce1d787976b8ef791772f712d>@@XPE$AAVRadio@Radios@Devices@Windows@@PE$AAVObject@Platform@@@Details@Platform@@UEAA@XZ 000000018001c948     _nodert_generated.obj
 0002:00002948       $cppxdata$??1?$__abi_FunctorCapture@V<lambda_74b109aa04c410395ed1b84aaba96129>@@XPE$AAU?$IAsyncOperation@PE$AAU?$IVectorView@PE$AAVRadio@Radios@Devices@Windows@@@Collections@Foundation@Windows@@@Foundation@Windows@@W4AsyncStatus@34@@Details@Platform@@UEAA@XZ 000000018001c948     _nodert_generated.obj
 0002:00002948       $cppxdata$??1?$__abi_FunctorCapture@V<lambda_76b0dc5acfdd88e398543629657656f2>@@XPE$AAU?$IAsyncOperation@W4RadioAccessStatus@Radios@Devices@Windows@@@Foundation@Windows@@W4AsyncStatus@34@@Details@Platform@@UEAA@XZ 000000018001c948     _nodert_generated.obj
 0002:00002970       $cppxdata$??B?$Box@_J@Platform@@QE$AAA_JXZ 000000018001c970     _nodert_generated.obj
 0002:00002998       $cppxdata$??$IsWinRtWrapperOf@PE$AAU?$IIterator@PE$AAVRadio@Radios@Devices@Windows@@@Collections@Foundation@Windows@@@Utils@NodeRT@@YA_NV?$Local@VValue@v8@@@v8@@@Z 000000018001c998     _nodert_generated.obj
 0002:000029c0       $cppxdata$??$IsWinRtWrapperOf@PE$AAU?$IVectorView@PE$AAVRadio@Radios@Devices@Windows@@@Collections@Foundation@Windows@@@Utils@NodeRT@@YA_NV?$Local@VValue@v8@@@v8@@@Z 000000018001c9c0     _nodert_generated.obj
 0002:000029e8       $cppxdata$??$make_shared@U?$_Task_impl@E@details@Concurrency@@AEAPEAV_CancellationTokenState@23@AEAUscheduler_ptr@3@@std@@YA?AV?$shared_ptr@U?$_Task_impl@E@details@Concurrency@@@0@AEAPEAV_CancellationTokenState@details@Concurrency@@AEAUscheduler_ptr@4@@Z 000000018001c9e8     _nodert_generated.obj
 0002:00002a10       $cppxdata$??$?0V<lambda_fa493edce1d787976b8ef791772f712d>@@@?$TypedEventHandler@PE$AAVRadio@Radios@Devices@Windows@@PE$AAVObject@Platform@@@Foundation@Windows@@QE$AAA@V<lambda_fa493edce1d787976b8ef791772f712d>@@W4CallbackContext@Platform@@_N@Z 000000018001ca10     _nodert_generated.obj
 0002:00002a38       $cppxdata$??$then@V<lambda_84fe49f24ae8de4bd96cfe7e2e397527>@@@?$task@W4RadioAccessStatus@Radios@Devices@Windows@@@Concurrency@@QEBA?AV?$task@X@1@AEBV<lambda_84fe49f24ae8de4bd96cfe7e2e397527>@@@Z 000000018001ca38     _nodert_generated.obj
 0002:00002a60       $cppxdata$??$then@V<lambda_ae69dad4f0eec31d1194edef18f14e48>@@@?$task@PE$AAVRadio@Radios@Devices@Windows@@@Concurrency@@QEBA?AV?$task@X@1@AEBV<lambda_ae69dad4f0eec31d1194edef18f14e48>@@@Z 000000018001ca60     _nodert_generated.obj
 0002:00002a88       $cppxdata$??$create_task@PE$AAU?$IAsyncOperation@PE$AAVRadio@Radios@Devices@Windows@@@Foundation@Windows@@@Concurrency@@YA?AV?$task@PE$AAVRadio@Radios@Devices@Windows@@@0@PE$AAU?$IAsyncOperation@PE$AAVRadio@Radios@Devices@Windows@@@Foundation@Windows@@Vtask_options@0@@Z 000000018001ca88     _nodert_generated.obj
 0002:00002ab0       $cppxdata$??$then@V<lambda_6b3d546cb33cb2be9b0a401ff7fba40f>@@@?$task@PE$AAU?$IVectorView@PE$AAVRadio@Radios@Devices@Windows@@@Collections@Foundation@Windows@@@Concurrency@@QEBA?AV?$task@X@1@AEBV<lambda_6b3d546cb33cb2be9b0a401ff7fba40f>@@@Z 000000018001cab0     _nodert_generated.obj
 0002:00002ad8       $cppxdata$??$create_task@PE$AAU?$IAsyncOperation@PE$AAU?$IVectorView@PE$AAVRadio@Radios@Devices@Windows@@@Collections@Foundation@Windows@@@Foundation@Windows@@@Concurrency@@YA?AV?$task@PE$AAU?$IVectorView@PE$AAVRadio@Radios@Devices@Windows@@@Collections@Foundation@Windows@@@0@PE$AAU?$IAsyncOperation@PE$AAU?$IVectorView@PE$AAVRadio@Radios@Devices@Windows@@@Collections@Foundation@Windows@@@Foundation@Windows@@Vtask_options@0@@Z 000000018001cad8     _nodert_generated.obj
 0002:00002b00       $cppxdata$??$then@V<lambda_f62ce569bcbb190725394d954e43b37a>@@@?$task@W4RadioAccessStatus@Radios@Devices@Windows@@@Concurrency@@QEBA?AV?$task@X@1@AEBV<lambda_f62ce569bcbb190725394d954e43b37a>@@@Z 000000018001cb00     _nodert_generated.obj
 0002:00002b28       $cppxdata$??$create_task@PE$AAU?$IAsyncOperation@W4RadioAccessStatus@Radios@Devices@Windows@@@Foundation@Windows@@@Concurrency@@YA?AV?$task@W4RadioAccessStatus@Radios@Devices@Windows@@@0@PE$AAU?$IAsyncOperation@W4RadioAccessStatus@Radios@Devices@Windows@@@Foundation@Windows@@Vtask_options@0@@Z 000000018001cb28     _nodert_generated.obj
 0002:00002b50       $cppxdata$??$IsWinRtWrapperOf@PE$AAVRadio@Radios@Devices@Windows@@@Utils@NodeRT@@YA_NV?$Local@VValue@v8@@@v8@@@Z 000000018001cb50     _nodert_generated.obj
 0002:00002b78       $cppxdata$??$SetMethod@VObject@v8@@VLocal@2@@Nan@@YAXV?$Local@VObject@v8@@@v8@@PEBDP6AXAEBV?$FunctionCallbackInfo@VValue@v8@@@0@@Z@Z 000000018001cb78     _nodert_generated.obj
 0002:00002ba0       $cppxdata$??$?4AEAV?$function@$$A6AXXZ@std@@XX@?$function@$$A6AXXZ@std@@QEAAAEAV01@AEAV01@@Z 000000018001cba0     _nodert_generated.obj
 0002:00002bc8       $cppxdata$??$make_shared@U_ExceptionHolder@details@Concurrency@@AEBVexception_ptr@std@@V_TaskCreationCallstack@23@@std@@YA?AV?$shared_ptr@U_ExceptionHolder@details@Concurrency@@@0@AEBVexception_ptr@0@$$QEAV_TaskCreationCallstack@details@Concurrency@@@Z 000000018001cbc8     _nodert_generated.obj
 0002:00002bf0       $cppxdata$?First@?$IIterable@PE$AAVRadio@Radios@Devices@Windows@@@Collections@Foundation@Windows@@UE$AAAPE$AAU?$IIterator@PE$AAVRadio@Radios@Devices@Windows@@@234@XZ 000000018001cbf0     _nodert_generated.obj
 0002:00002c18       $cppxdata$?GetAt@?$IVectorView@PE$AAVRadio@Radios@Devices@Windows@@@Collections@Foundation@Windows@@UE$AAAPE$AAVRadio@Radios@Devices@4@I@Z 000000018001cc18     _nodert_generated.obj
 0002:00002c18       $cppxdata$?SetStateAsync@IRadio@Radios@Devices@Windows@@UE$AAAPE$AAU?$IAsyncOperation@W4RadioAccessStatus@Radios@Devices@Windows@@@Foundation@4@W4RadioState@234@@Z 000000018001cc18     _nodert_generated.obj
 0002:00002c40       $cppxdata$?get@Name@IRadio@Radios@Devices@Windows@@UE$AAAPE$AAVString@Platform@@XZ 000000018001cc40     _nodert_generated.obj
 0002:00002c68       $cppxdata$?MoveNext@?$IteratorWrapper@PE$AAVRadio@Radios@Devices@Windows@@@Collections@NodeRT@@CAXAEBV?$FunctionCallbackInfo@VValue@v8@@@Nan@@@Z 000000018001cc68     _nodert_generated.obj
 0002:00002c90       $cppxdata$?CurrentGetter@?$IteratorWrapper@PE$AAVRadio@Radios@Devices@Windows@@@Collections@NodeRT@@CAXV?$Local@VString@v8@@@v8@@AEBV?$PropertyCallbackInfo@VValue@v8@@@Nan@@@Z 000000018001cc90     _nodert_generated.obj
 0002:00002cb8       $cppxdata$?HasCurrentGetter@?$IteratorWrapper@PE$AAVRadio@Radios@Devices@Windows@@@Collections@NodeRT@@CAXV?$Local@VString@v8@@@v8@@AEBV?$PropertyCallbackInfo@VValue@v8@@@Nan@@@Z 000000018001ccb8     _nodert_generated.obj
 0002:00002ce0       $cppxdata$??1?$IteratorWrapper@PE$AAVRadio@Radios@Devices@Windows@@@Collections@NodeRT@@UEAA@XZ 000000018001cce0     _nodert_generated.obj
 0002:00002d08       $cppxdata$?Init@?$IteratorWrapper@PE$AAVRadio@Radios@Devices@Windows@@@Collections@NodeRT@@SAXXZ 000000018001cd08     _nodert_generated.obj
 0002:00002d30       $cppxdata$??0?$IteratorWrapper@PE$AAVRadio@Radios@Devices@Windows@@@Collections@NodeRT@@AEAA@PE$AAU?$IIterator@PE$AAVRadio@Radios@Devices@Windows@@@1Foundation@Windows@@AEBV?$function@$$A6A?AV?$Local@VValue@v8@@@v8@@PE$AAVRadio@Radios@Devices@Windows@@@Z@std@@@Z 000000018001cd30     _nodert_generated.obj
 0002:00002d58       $cppxdata$??R?$_Func_class@V?$Local@VValue@v8@@@v8@@PE$AAVRadio@Radios@Devices@Windows@@@std@@QEBA?AV?$Local@VValue@v8@@@v8@@PE$AAVRadio@Radios@Devices@Windows@@@Z 000000018001cd58     _nodert_generated.obj
 0002:00002d80       $cppxdata$??R?$_Func_class@PE$AAVRadio@Radios@Devices@Windows@@V?$Local@VValue@v8@@@v8@@@std@@QEBAPE$AAVRadio@Radios@Devices@Windows@@V?$Local@VValue@v8@@@v8@@@Z 000000018001cd80     _nodert_generated.obj
 0002:00002da8       $cppxdata$?Get@?$Agile@PE$AAU?$IVectorView@PE$AAVRadio@Radios@Devices@Windows@@@Collections@Foundation@Windows@@$00@Platform@@QEBAPE$AAU?$IVectorView@PE$AAVRadio@Radios@Devices@Windows@@@Collections@Foundation@Windows@@XZ 000000018001cda8     _nodert_generated.obj
 0002:00002dd0       $cppxdata$?CreateIteratorWrapper@?$IteratorWrapper@PE$AAVRadio@Radios@Devices@Windows@@@Collections@NodeRT@@SA?AV?$Local@VValue@v8@@@v8@@PE$AAU?$IIterator@PE$AAVRadio@Radios@Devices@Windows@@@2Foundation@Windows@@AEBV?$function@$$A6A?AV?$Local@VValue@v8@@@v8@@PE$AAVRadio@Radios@Devices@Windows@@@Z@std@@@Z 000000018001cdd0     _nodert_generated.obj
 0002:00002df8       $cppxdata$?Get@?$VectorViewWrapper@PE$AAVRadio@Radios@Devices@Windows@@@Collections@NodeRT@@CAXIAEBV?$PropertyCallbackInfo@VValue@v8@@@Nan@@@Z 000000018001cdf8     _nodert_generated.obj
 0002:00002e20       $cppxdata$?GetAt@?$VectorViewWrapper@PE$AAVRadio@Radios@Devices@Windows@@@Collections@NodeRT@@CAXAEBV?$FunctionCallbackInfo@VValue@v8@@@Nan@@@Z 000000018001ce20     _nodert_generated.obj
 0002:00002e48       $cppxdata$?GetMany@?$VectorViewWrapper@PE$AAVRadio@Radios@Devices@Windows@@@Collections@NodeRT@@CAXAEBV?$FunctionCallbackInfo@VValue@v8@@@Nan@@@Z 000000018001ce48     _nodert_generated.obj
 0002:00002e48       $cppxdata$?GetMany@?$IteratorWrapper@PE$AAVRadio@Radios@Devices@Windows@@@Collections@NodeRT@@CAXAEBV?$FunctionCallbackInfo@VValue@v8@@@Nan@@@Z 000000018001ce48     _nodert_generated.obj
 0002:00002e70       $cppxdata$?First@?$VectorViewWrapper@PE$AAVRadio@Radios@Devices@Windows@@@Collections@NodeRT@@CAXAEBV?$FunctionCallbackInfo@VValue@v8@@@Nan@@@Z 000000018001ce70     _nodert_generated.obj
 0002:00002e98       $cppxdata$?IndexOf@?$VectorViewWrapper@PE$AAVRadio@Radios@Devices@Windows@@@Collections@NodeRT@@CAXAEBV?$FunctionCallbackInfo@VValue@v8@@@Nan@@@Z 000000018001ce98     _nodert_generated.obj
 0002:00002ec0       $cppxdata$?SizeGetter@?$VectorViewWrapper@PE$AAVRadio@Radios@Devices@Windows@@@Collections@NodeRT@@CAXV?$Local@VString@v8@@@v8@@AEBV?$PropertyCallbackInfo@VValue@v8@@@Nan@@@Z 000000018001cec0     _nodert_generated.obj
 0002:00002ee8       $cppxdata$??_G?$_Task_impl@W4RadioAccessStatus@Radios@Devices@Windows@@@details@Concurrency@@UEAAPEAXI@Z 000000018001cee8     _nodert_generated.obj
 0002:00002f10       $cppxdata$??1?$VectorViewWrapper@PE$AAVRadio@Radios@Devices@Windows@@@Collections@NodeRT@@UEAA@XZ 000000018001cf10     _nodert_generated.obj
 0002:00002f38       $cppxdata$?_Make@?$_Task_ptr@E@details@Concurrency@@SA?AV?$shared_ptr@U?$_Task_impl@E@details@Concurrency@@@std@@PEAV_CancellationTokenState@23@Uscheduler_ptr@3@@Z 000000018001cf38     _nodert_generated.obj
 0002:00002f60       $cppxdata$?_CancelAndRunContinuations@?$_Task_impl@W4RadioAccessStatus@Radios@Devices@Windows@@@details@Concurrency@@UEAA_N_N00AEBV?$shared_ptr@U_ExceptionHolder@details@Concurrency@@@std@@@Z 000000018001cf60     _nodert_generated.obj
 0002:00002f88       $cppxdata$??1?$_Task_impl@PE$AAU?$IVectorView@PE$AAVRadio@Radios@Devices@Windows@@@Collections@Foundation@Windows@@@details@Concurrency@@UEAA@XZ 000000018001cf88     _nodert_generated.obj
