 binding

 Timestamp is 5ab51cf8 (Fri Mar 23 16:27:52 2018)

 Preferred load address is 10000000

 Start         Length     Name                   Class
 0001:00000000 000000a0H .text$di                CODE
 0001:000000a0 00016750H .text$mn                CODE
 0001:000167f0 000025f0H .text$x                 CODE
 0001:00018de0 0000016bH .text$yd                CODE
 0002:00000000 0000036cH .idata$5                DATA
 0002:0000036c 00000004H .00cfg                  DATA
 0002:00000370 00000004H .CRT$XCA                DATA
 0002:00000374 00000004H .CRT$XCL                DATA
 0002:00000378 00000018H .CRT$XCU                DATA
 0002:00000390 00000004H .CRT$XCZ                DATA
 0002:00000394 00000004H .CRT$XIA                DATA
 0002:00000398 00000004H .CRT$XIC                DATA
 0002:0000039c 00000004H .CRT$XIYB               DATA
 0002:000003a0 00000004H .CRT$XIZ                DATA
 0002:000003a4 00000004H .CRT$XLA                DATA
 0002:000003a8 00000004H .CRT$XLZ                DATA
 0002:000003ac 00000004H .CRT$XPA                DATA
 0002:000003b0 00000004H .CRT$XPZ                DATA
 0002:000003b4 00000004H .CRT$XTA                DATA
 0002:000003b8 00000008H .CRT$XTZ                DATA
 0002:000003c0 000010b4H .rdata                  DATA
 0002:00001474 00000018H .rdata$T                DATA
 0002:0000148c 000002a4H .rdata$r                DATA
 0002:00001730 000002a0H .rdata$sxdata           DATA
 0002:000019d0 0000043cH .rdata$zzzdbg           DATA
 0002:00001e0c 00000004H .rtc$IAA                DATA
 0002:00001e10 00000004H .rtc$IZZ                DATA
 0002:00001e14 00000004H .rtc$TAA                DATA
 0002:00001e18 00000008H .rtc$TZZ                DATA
 0002:00001e20 00002d00H .xdata$x                DATA
 0002:00004b20 00000054H .edata                  DATA
 0002:00004b74 000000c8H .idata$2                DATA
 0002:00004c3c 00000014H .idata$3                DATA
 0002:00004c50 0000036cH .idata$4                DATA
 0002:00004fbc 00002782H .idata$6                DATA
 0003:00000000 000007a8H .data                   DATA
 0003:000007a8 000009f8H .data$r                 DATA
 0003:000011a0 00000414H .bss                    DATA
 0004:00000000 00000004H minATL$__a              DATA
 0004:00000004 00000004H minATL$__m              DATA
 0004:00000008 00000004H minATL$__z              DATA
 0005:00000000 000000c4H .gfids$y                DATA
 0006:00000000 00000004H .tls                    DATA
 0006:00000004 00000004H .tls$                   DATA
 0006:00000008 00000001H .tls$ZZZ                DATA
 0007:00000000 00000060H .rsrc$01                DATA
 0007:00000060 00000180H .rsrc$02                DATA

  Address         Publics by Value              Rva+Base       Lib:Object

 0000:00000000       ___guard_longjmp_count     00000000     <absolute>
 0000:00000000       ___guard_longjmp_table     00000000     <absolute>
 0000:00000000       ___guard_iat_table         00000000     <absolute>
 0000:00000000       ___guard_iat_count         00000000     <absolute>
 0000:00000000       ___dynamic_value_reloc_table 00000000     <absolute>
 0000:00000000       ___guard_fids_table        00000000     <absolute>
 0000:00000000       ___guard_fids_count        00000000     <absolute>
 0000:0000002c       __tls_array                0000002c     <absolute>
 0000:000000a8       ___safe_se_handler_count   000000a8     <absolute>
 0000:00000100       ___guard_flags             00000100     <absolute>
 0000:00000000       ___ImageBase               10000000     <linker-defined>
 0001:000000a0       ?__abi_winrt_ptr_dtor@@YAXQ$ADVObject@Platform@@@Z 100010a0 f i _nodert_generated.obj
 0001:000000b0       ?__abi_winrt_ptr_assign@@YAPAXPAPAXP$ADVObject@Platform@@@Z 100010b0 f i _nodert_generated.obj
 0001:000000e0       ?__abi_winrt_ptrto_string_dtor@@YAXQ$ADVString@Platform@@@Z 100010e0 f i _nodert_generated.obj
 0001:000000f0       ?__abi_dtor@__abi_FTMWeakRefData@@QAEXXZ 100010f0 f i _nodert_generated.obj
 0001:00000170       ??_G__abi_CaptureBase@Details@Platform@@MAEPAXI@Z 10001170 f i _nodert_generated.obj
 0001:00000170       ??_E__abi_CaptureBase@Details@Platform@@MAEPAXI@Z 10001170 f i * CIL library *:* CIL module *
 0001:000001a0       ??1__abi_CapturePtr@Details@Platform@@QAE@XZ 100011a0 f i _nodert_generated.obj
 0001:000001f0       ?__abi_WinRTraiseException@@YGXJ@Z 100011f0 f i _nodert_generated.obj
 0001:000002d0       ?__abi_winrt_ptrto_string_ctor@@YAPAXP$ADVString@Platform@@@Z 100012d0 f i _nodert_generated.obj
 0001:00000300       ?_Doraise@exception@stdext@@MBEXXZ 10001300 f i _nodert_generated.obj
 0001:00000300       @_guard_check_icall_nop@4  10001300 f i MSVCRT:guard_support.obj
 0001:00000300       ?PlacementFree@Heap@Details@Platform@@SAXPAX0@Z 10001300 f i _nodert_generated.obj
 0001:00000300       ??3@YAXPAX0@Z              10001300 f i _nodert_generated.obj
 0001:00000310       ?__abi_QueryInterface@__abi_FTMWeakRefData@@QAGJAAVGuid@Platform@@PAPAX@Z 10001310 f i _nodert_generated.obj
 0001:000003a0       ??0String@Platform@@Q$AAA@PB_W@Z 100013a0 f i _nodert_generated.obj
 0001:000003e0       ?what@exception@stdext@@UBEPBDXZ 100013e0 f i _nodert_generated.obj
 0001:000003f0       ?_Raise@exception@stdext@@QBEXXZ 100013f0 f i _nodert_generated.obj
 0001:00000420       ??_Eexception@stdext@@UAEPAXI@Z 10001420 f i * CIL library *:* CIL module *
 0001:00000420       ??_Gruntime_error@std@@UAEPAXI@Z 10001420 f i _nodert_generated.obj
 0001:00000420       ??_Ginvalid_operation@Concurrency@@UAEPAXI@Z 10001420 f i _nodert_generated.obj
 0001:00000420       ??_Einvalid_operation@Concurrency@@UAEPAXI@Z 10001420 f i * CIL library *:* CIL module *
 0001:00000420       ??_Gexception@stdext@@UAEPAXI@Z 10001420 f i _nodert_generated.obj
 0001:00000420       ??_Etask_canceled@Concurrency@@UAEPAXI@Z 10001420 f i * CIL library *:* CIL module *
 0001:00000420       ??_Gtask_canceled@Concurrency@@UAEPAXI@Z 10001420 f i _nodert_generated.obj
 0001:00000420       ??_Eruntime_error@std@@UAEPAXI@Z 10001420 f i * CIL library *:* CIL module *
 0001:00000450       ??1exception_ptr@std@@QAE@XZ 10001450 f i _nodert_generated.obj
 0001:00000460       ?_Current_exception@exception_ptr@std@@SA?AV12@XZ 10001460 f i _nodert_generated.obj
 0001:00000480       ?_Copy_exception@exception_ptr@std@@SA?AV12@PAXPBX@Z 10001480 f i _nodert_generated.obj
 0001:00000510       ?current_exception@std@@YA?AVexception_ptr@1@XZ 10001510 f i _nodert_generated.obj
 0001:00000520       ??1_Ref_count_base@std@@UAE@XZ 10001520 f i _nodert_generated.obj
 0001:00000530       ?_Get_deleter@_Ref_count_base@std@@UBEPAXABVtype_info@@@Z 10001530 f i _nodert_generated.obj
 0001:00000540       ??_G_Ref_count_base@std@@UAEPAXI@Z 10001540 f i _nodert_generated.obj
 0001:00000540       ??_E_Ref_count_base@std@@UAEPAXI@Z 10001540 f i * CIL library *:* CIL module *
 0001:00000570       ?_Doraise@runtime_error@std@@MBEXXZ 10001570 f i _nodert_generated.obj
 0001:00000590       ??1invalid_operation@Concurrency@@UAE@XZ 10001590 f i _nodert_generated.obj
 0001:00000590       ??1runtime_error@std@@UAE@XZ 10001590 f i _nodert_generated.obj
 0001:00000590       ??1task_canceled@Concurrency@@UAE@XZ 10001590 f i _nodert_generated.obj
 0001:00000710       ?Equals@Nan@@YA?AV?$Maybe@_N@v8@@V?$Local@VValue@v8@@@3@0@Z 10001710 f i _nodert_generated.obj
 0001:00000790       ?NewInstance@Nan@@YA?AV?$MaybeLocal@VObject@v8@@@v8@@V?$Local@VFunction@v8@@@3@HQAV?$Local@VValue@v8@@@3@@Z 10001790 f i _nodert_generated.obj
 0001:00000830       ?NewInstance@Nan@@YA?AV?$MaybeLocal@VObject@v8@@@v8@@V?$Local@VObjectTemplate@v8@@@3@@Z 10001830 f i _nodert_generated.obj
 0001:000008c0       ?GetFunction@Nan@@YA?AV?$MaybeLocal@VFunction@v8@@@v8@@V?$Local@VFunctionTemplate@v8@@@3@@Z 100018c0 f i _nodert_generated.obj
 0001:00000950       ?Set@Nan@@YA?AV?$Maybe@_N@v8@@V?$Local@VObject@v8@@@3@V?$Local@VValue@v8@@@3@1@Z 10001950 f i _nodert_generated.obj
 0001:000009d0       ?Get@Nan@@YA?AV?$MaybeLocal@VValue@v8@@@v8@@V?$Local@VObject@v8@@@3@V?$Local@VValue@v8@@@3@@Z 100019d0 f i _nodert_generated.obj
 0001:00000a60       ?Delete@Nan@@YA?AV?$Maybe@_N@v8@@V?$Local@VObject@v8@@@3@V?$Local@VString@v8@@@3@@Z 10001a60 f i _nodert_generated.obj
 0001:00000af0       ?SetPrototype@Nan@@YA?AV?$Maybe@_N@v8@@V?$Local@VObject@v8@@@3@V?$Local@VValue@v8@@@3@@Z 10001af0 f i _nodert_generated.obj
 0001:00000b70       ?convert@?$ToFactory@VString@v8@@@imp@Nan@@SA?AV?$MaybeLocal@VString@v8@@@v8@@V?$Local@VValue@v8@@@5@@Z 10001b70 f i _nodert_generated.obj
 0001:00000c00       ?convert@?$ToFactory@VObject@v8@@@imp@Nan@@SA?AV?$MaybeLocal@VObject@v8@@@v8@@V?$Local@VValue@v8@@@5@@Z 10001c00 f i _nodert_generated.obj
 0001:00000c90       ?convert@?$ToFactory@VInteger@v8@@@imp@Nan@@SA?AV?$MaybeLocal@VInteger@v8@@@v8@@V?$Local@VValue@v8@@@5@@Z 10001c90 f i _nodert_generated.obj
 0001:00000d20       ?convert@?$ToFactory@H@imp@Nan@@SA?AV?$Maybe@H@v8@@V?$Local@VValue@v8@@@5@@Z 10001d20 f i _nodert_generated.obj
 0001:00000da0       ?New@?$Factory@VFunctionTemplate@v8@@@imp@Nan@@SA?AV?$Local@VFunctionTemplate@v8@@@v8@@P6AXABV?$FunctionCallbackInfo@VValue@v8@@@3@@ZV?$Local@VValue@v8@@@5@V?$Local@VSignature@v8@@@5@@Z 10001da0 f i _nodert_generated.obj
 0001:00000ee0       ??1EscapableHandleScope@Nan@@QAE@XZ 10001ee0 f i _nodert_generated.obj
 0001:00000ee0       ??1HandleScope@Nan@@QAE@XZ 10001ee0 f i _nodert_generated.obj
 0001:00000ef0       ?ThrowError@Nan@@YAXV?$Local@VValue@v8@@@v8@@@Z 10001ef0 f i _nodert_generated.obj
 0001:00000f10       ?SetPrototypeMethod@Nan@@YAXV?$Local@VFunctionTemplate@v8@@@v8@@PBDP6AXABV?$FunctionCallbackInfo@VValue@v8@@@1@@Z@Z 10001f10 f i _nodert_generated.obj
 0001:00000ff0       ?SetAccessor@Nan@@YAXV?$Local@VObjectTemplate@v8@@@v8@@V?$Local@VString@v8@@@3@P6AX1ABV?$PropertyCallbackInfo@VValue@v8@@@1@@ZP6AX1V?$Local@VValue@v8@@@3@ABV?$PropertyCallbackInfo@X@1@@Z4W4AccessControl@3@W4PropertyAttribute@3@V?$Local@VAccessorSignature@v8@@@3@@Z 10001ff0 f i _nodert_generated.obj
 0001:000010e0       ?SetIndexedPropertyHandler@Nan@@YAXV?$Local@VObjectTemplate@v8@@@v8@@P6AXIABV?$PropertyCallbackInfo@VValue@v8@@@1@@ZP6AXIV?$Local@VValue@v8@@@3@1@ZP6AXIABV?$PropertyCallbackInfo@VInteger@v8@@@1@@ZP6AXIABV?$PropertyCallbackInfo@VBoolean@v8@@@1@@ZP6AXABV?$PropertyCallbackInfo@VArray@v8@@@1@@Z3@Z 100020e0 f i _nodert_generated.obj
 0001:00001200       ??1ObjectWrap@Nan@@UAE@XZ  10002200 f i _nodert_generated.obj
 0001:000012b0       ?Wrap@ObjectWrap@Nan@@IAEXV?$Local@VObject@v8@@@v8@@@Z 100022b0 f i _nodert_generated.obj
 0001:00001360       ?Ref@ObjectWrap@Nan@@MAEXXZ 10002360 f i _nodert_generated.obj
 0001:00001390       ?Unref@ObjectWrap@Nan@@MAEXXZ 10002390 f i _nodert_generated.obj
 0001:00001420       ?WeakCallback@ObjectWrap@Nan@@CAXABV?$WeakCallbackInfo@VObjectWrap@Nan@@@v8@@@Z 10002420 f i _nodert_generated.obj
 0001:00001490       ??_GObjectWrap@Nan@@UAEPAXI@Z 10002490 f i _nodert_generated.obj
 0001:00001490       ??_EObjectWrap@Nan@@UAEPAXI@Z 10002490 f i * CIL library *:* CIL module *
 0001:000014b0       ?_Atomic_compare_exchange_strong_4@std@@YAHPCKPAKKW4memory_order@1@2@Z 100024b0 f i _nodert_generated.obj
 0001:00001520       ?_Callback@_PPLTaskChore@_DefaultPPLTaskScheduler@details@Concurrency@@CAXPAX@Z 10002520 f i _nodert_generated.obj
 0001:00001590       ?schedule@_DefaultPPLTaskScheduler@details@Concurrency@@UAEXP6AXPAX@Z0@Z 10002590 f i _nodert_generated.obj
 0001:00001640       ?_GetStaticAmbientSchedulerRef@details@Concurrency@@YAAAV?$shared_ptr@Uscheduler_interface@Concurrency@@@std@@XZ 10002640 f i _nodert_generated.obj
 0001:000016b0       ?_Destroy@_RefCounter@details@Concurrency@@MAEXXZ 100026b0 f i _nodert_generated.obj
 0001:000016c0       ??_G_RefCounter@details@Concurrency@@UAEPAXI@Z 100026c0 f i _nodert_generated.obj
 0001:000016c0       ??_E_RefCounter@details@Concurrency@@UAEPAXI@Z 100026c0 f i * CIL library *:* CIL module *
 0001:000016f0       ?_Invoke@_CancellationTokenRegistration@details@Concurrency@@AAEXXZ 100026f0 f i _nodert_generated.obj
 0001:000017c0       ??_G_CancellationTokenRegistration@details@Concurrency@@MAEPAXI@Z 100027c0 f i _nodert_generated.obj
 0001:000017c0       ??_E_CancellationTokenRegistration@details@Concurrency@@MAEPAXI@Z 100027c0 f i * CIL library *:* CIL module *
 0001:00001800       ?remove@TokenRegistrationContainer@_CancellationTokenState@details@Concurrency@@QAEXPAV_CancellationTokenRegistration@34@@Z 10002800 f i _nodert_generated.obj
 0001:00001850       ?_RegisterCallback@_CancellationTokenState@details@Concurrency@@QAEXPAV_CancellationTokenRegistration@23@@Z 10002850 f i _nodert_generated.obj
 0001:00001940       ?_DeregisterCallback@_CancellationTokenState@details@Concurrency@@QAEXPAV_CancellationTokenRegistration@23@@Z 10002940 f i _nodert_generated.obj
 0001:00001ac0       ?none@cancellation_token@Concurrency@@SA?AV12@XZ 10002ac0 f i _nodert_generated.obj
 0001:00001ad0       ??1cancellation_token@Concurrency@@QAE@XZ 10002ad0 f i _nodert_generated.obj
 0001:00001b40       ??1_TaskProcHandle@details@Concurrency@@UAE@XZ 10002b40 f i _nodert_generated.obj
 0001:00001b50       ?_RunChoreBridge@_TaskProcHandle@details@Concurrency@@SAXPAX@Z 10002b50 f i _nodert_generated.obj
 0001:00001ba0       ??_G_TaskProcHandle@details@Concurrency@@UAEPAXI@Z 10002ba0 f i _nodert_generated.obj
 0001:00001ba0       ??_E_TaskProcHandle@details@Concurrency@@UAEPAXI@Z 10002ba0 f i * CIL library *:* CIL module *
 0001:00001bd0       ?WaitUntilStateChangedTo@_TaskCollectionBaseImpl@details@Concurrency@@IAEXW4_TaskCollectionState@123@@Z 10002bd0 f i _nodert_generated.obj
 0001:00001c80       ??0_TaskCollectionBaseImpl@details@Concurrency@@QAE@Uscheduler_ptr@2@@Z 10002c80 f i _nodert_generated.obj
 0001:00001d50       ?_ScheduleTask@_TaskCollectionBaseImpl@details@Concurrency@@QAEXPAU_TaskProcHandle@23@W4_TaskInliningMode@23@@Z 10002d50 f i _nodert_generated.obj
 0001:00001df0       ?_Complete@_TaskCollectionBaseImpl@details@Concurrency@@QAEXXZ 10002df0 f i _nodert_generated.obj
 0001:00001e50       ?_GetScheduler@_TaskCollectionBaseImpl@details@Concurrency@@QBE?AUscheduler_ptr@3@XZ 10002e50 f i _nodert_generated.obj
 0001:00001ec0       ?_RunTask@_TaskCollectionBaseImpl@details@Concurrency@@SAXP6AXPAX@Z0W4_TaskInliningMode@23@@Z 10002ec0 f i _nodert_generated.obj
 0001:00001f70       ??1scheduler_ptr@Concurrency@@QAE@XZ 10002f70 f i _nodert_generated.obj
 0001:00001f70       ??1?$task@P$AAVRadio@Radios@Devices@Windows@@@Concurrency@@QAE@XZ 10002f70 f i _nodert_generated.obj
 0001:00001f70       ??1?$task@P$AAU?$IVectorView@P$AAVRadio@Radios@Devices@Windows@@@Collections@Foundation@Windows@@@Concurrency@@QAE@XZ 10002f70 f i _nodert_generated.obj
 0001:00001f70       ??1?$task@X@Concurrency@@QAE@XZ 10002f70 f i _nodert_generated.obj
 0001:00001f70       ??1?$task@W4RadioAccessStatus@Radios@Devices@Windows@@@Concurrency@@QAE@XZ 10002f70 f i _nodert_generated.obj
 0001:00001fd0       ??0scheduler_ptr@Concurrency@@QAE@ABU01@@Z 10002fd0 f i _nodert_generated.obj
 0001:00002070       ?_NoCallOnDefaultTask_ErrorImpl@_DefaultTaskHelper@details@Concurrency@@SAXXZ 10003070 f i _nodert_generated.obj
 0001:000020c0       ?_CaptureSingleFrameCallstack@_TaskCreationCallstack@details@Concurrency@@SA?AV123@PAX@Z 100030c0 f i _nodert_generated.obj
 0001:000020e0       ??1_TaskCreationCallstack@details@Concurrency@@QAE@XZ 100030e0 f i _nodert_generated.obj
 0001:00002110       ?_Bridge@_TaskProcThunk@details@Concurrency@@SAXPAX@Z 10003110 f i _nodert_generated.obj
 0001:00002190       ??1_Holder@_TaskProcThunk@details@Concurrency@@QAE@XZ 10003190 f i _nodert_generated.obj
 0001:00002290       ?_CaptureCurrent@_ContextCallback@details@Concurrency@@SA?AV123@XZ 10003290 f i _nodert_generated.obj
 0001:000022f0       ??1_ContextCallback@details@Concurrency@@QAE@XZ 100032f0 f i _nodert_generated.obj
 0001:00002330       ?_CallInContext@_ContextCallback@details@Concurrency@@QBEXV?$function@$$A6AXXZ@std@@@Z 10003330 f i _nodert_generated.obj
 0001:000023c0       ??1_ExceptionHolder@details@Concurrency@@QAE@XZ 100033c0 f i _nodert_generated.obj
 0001:00002440       ?_RethrowUserException@_ExceptionHolder@details@Concurrency@@QAEXXZ 10003440 f i _nodert_generated.obj
 0001:000024a0       ?use_default@task_continuation_context@Concurrency@@SA?AV12@XZ 100034a0 f i _nodert_generated.obj
 0001:000024c0       ??1task_continuation_context@Concurrency@@QAE@XZ 100034c0 f i _nodert_generated.obj
 0001:00002500       ??0task_options@Concurrency@@QAE@XZ 10003500 f i _nodert_generated.obj
 0001:000025a0       ?get_cancellation_token@task_options@Concurrency@@QBE?AVcancellation_token@2@XZ 100035a0 f i _nodert_generated.obj
 0001:000025c0       ?get_continuation_context@task_options@Concurrency@@QBE?AVtask_continuation_context@2@XZ 100035c0 f i _nodert_generated.obj
 0001:000025f0       ?get_scheduler@task_options@Concurrency@@QBE?AUscheduler_ptr@2@XZ 100035f0 f i _nodert_generated.obj
 0001:00002660       ??1_Internal_task_options@details@Concurrency@@QAE@XZ 10003660 f i _nodert_generated.obj
 0001:00002690       ??0_ThenImplOptions@details@Concurrency@@QAE@PAV_CancellationTokenState@12@PBVtask_continuation_context@2@Uscheduler_ptr@2@V_TaskCreationCallstack@12@W4_TaskInliningMode@12@@Z 10003690 f i _nodert_generated.obj
 0001:000027b0       ?_CreateOptions@_ThenImplOptions@details@Concurrency@@SA?AU123@ABVtask_options@3@ABVtask_continuation_context@3@ABUscheduler_ptr@3@@Z 100037b0 f i _nodert_generated.obj
 0001:00002b00       ??1_ThenImplOptions@details@Concurrency@@QAE@XZ 10003b00 f i _nodert_generated.obj
 0001:00002b90       ??_E_ContinuationTaskHandleBase@details@Concurrency@@UAEPAXI@Z 10003b90 f i * CIL library *:* CIL module *
 0001:00002b90       ??_G_ContinuationTaskHandleBase@details@Concurrency@@UAEPAXI@Z 10003b90 f i _nodert_generated.obj
 0001:00002c00       ??1_TaskWorkItemRAIILogger@details@Concurrency@@QAE@XZ 10003c00 f i _nodert_generated.obj
 0001:00002c40       ??0_Task_impl_base@details@Concurrency@@QAE@PAV_CancellationTokenState@12@Uscheduler_ptr@2@@Z 10003c40 f i _nodert_generated.obj
 0001:00002d70       ??1_Task_impl_base@details@Concurrency@@UAE@XZ 10003d70 f i _nodert_generated.obj
 0001:00002e80       ?_Wait@_Task_impl_base@details@Concurrency@@QAE?AW4task_group_status@3@XZ 10003e80 f i _nodert_generated.obj
 0001:00002f30       ?_CancelWithException@_Task_impl_base@details@Concurrency@@QAE_NABVexception_ptr@std@@@Z 10003f30 f i _nodert_generated.obj
 0001:00002ff0       ?_RegisterCancellation@_Task_impl_base@details@Concurrency@@QAEXV?$weak_ptr@U_Task_impl_base@details@Concurrency@@@std@@@Z 10003ff0 f i _nodert_generated.obj
 0001:000030b0       ?_GetTaskCreationCallstack@_Task_impl_base@details@Concurrency@@QAE?AV_TaskCreationCallstack@23@XZ 100040b0 f i _nodert_generated.obj
 0001:000030e0       ?_ScheduleContinuationTask@_Task_impl_base@details@Concurrency@@QAEXPAU_ContinuationTaskHandleBase@23@@Z 100040e0 f i _nodert_generated.obj
 0001:00003350       ?_ScheduleContinuation@_Task_impl_base@details@Concurrency@@QAEXPAU_ContinuationTaskHandleBase@23@@Z 10004350 f i _nodert_generated.obj
 0001:00003540       ?_RunTaskContinuations@_Task_impl_base@details@Concurrency@@QAEXXZ 10004540 f i _nodert_generated.obj
 0001:00003860       ?_GetScheduler@_Task_impl_base@details@Concurrency@@QBE?AUscheduler_ptr@3@XZ 10004860 f i _nodert_generated.obj
 0001:00003880       ??_G_Task_impl_base@details@Concurrency@@UAEPAXI@Z 10004880 f i _nodert_generated.obj
 0001:00003880       ??_E_Task_impl_base@details@Concurrency@@UAEPAXI@Z 10004880 f i * CIL library *:* CIL module *
 0001:00003900       ?_CreateImpl@?$task@X@Concurrency@@QAEXPAV_CancellationTokenState@details@2@Uscheduler_ptr@2@@Z 10004900 f i _nodert_generated.obj
 0001:000039e0       ??1task_options@Concurrency@@QAE@XZ 100049e0 f i _nodert_generated.obj
 0001:00003ac0       ?IsOpaqueWrapper@OpaqueWrapper@NodeRT@@SA_NV?$Local@VValue@v8@@@v8@@@Z 10004ac0 f i _nodert_generated.obj
 0001:00003b70       ??1WrapperBase@NodeRT@@UAE@XZ 10004b70 f i _nodert_generated.obj
 0001:00003b80       ?NewAsyncToken@TokenData@Async@NodeUtils@@SAPAUuv_async_s@@V?$Local@VFunction@v8@@@v8@@V?$Local@VValue@v8@@@6@@Z 10004b80 f i _nodert_generated.obj
 0001:00003c20       ?RunOnMain@Async@NodeUtils@@SAXV?$function@$$A6AXXZ@std@@@Z 10004c20 f i _nodert_generated.obj
 0001:00003d20       ?RunCallbackOnMain@Async@NodeUtils@@SAXPAUuv_async_s@@V?$function@$$A6AXV?$function@$$A6AXHPAV?$Local@VValue@v8@@@v8@@@Z@std@@@Z@std@@@Z 10004d20 f i _nodert_generated.obj
 0001:00004000       ?CreateCallbackData@Async@NodeUtils@@CA?AV?$Local@VObject@v8@@@v8@@V?$Local@VFunction@v8@@@4@V?$Local@VValue@v8@@@4@@Z 10005000 f i _nodert_generated.obj
 0001:00004220       ?AyncCloseCb@Async@NodeUtils@@CAXPAUuv_handle_s@@@Z 10005220 f i _nodert_generated.obj
 0001:00004240       ?AsyncCb@Async@NodeUtils@@CAXPAUuv_async_s@@@Z 10005240 f i _nodert_generated.obj
 0001:00004280       ??_ETokenData@Async@NodeUtils@@UAEPAXI@Z 10005280 f i * CIL library *:* CIL module *
 0001:00004280       ??_GTokenData@Async@NodeUtils@@UAEPAXI@Z 10005280 f i _nodert_generated.obj
 0001:00004ab0       ?Init@Radio@Radios@Devices@Windows@NodeRT@@SAXV?$Local@VObject@v8@@@v8@@@Z 10005ab0 f i _nodert_generated.obj
 0001:00004ea0       ?GetObjectInstance@?$VectorViewWrapper@P$AAVRadio@Radios@Devices@Windows@@@Collections@NodeRT@@UBEP$AAVObject@Platform@@XZ 10005ea0 f i _nodert_generated.obj
 0001:00004ea0       ?GetObjectInstance@Radio@Radios@Devices@Windows@NodeRT@@UBEP$AAVObject@Platform@@XZ 10005ea0 f i _nodert_generated.obj
 0001:00004ea0       ?GetObjectInstance@?$IteratorWrapper@P$AAVRadio@Radios@Devices@Windows@@@Collections@NodeRT@@UBEP$AAVObject@Platform@@XZ 10005ea0 f i _nodert_generated.obj
 0001:00004ea0       ?GetObjectInstance@OpaqueWrapper@NodeRT@@UBEP$AAVObject@Platform@@XZ 10005ea0 f i OpaqueWrapper.obj
 0001:00004ec0       ??0Radio@Radios@Devices@Windows@NodeRT@@AAE@P$AAV0123@@Z 10005ec0 f i _nodert_generated.obj
 0001:00004f50       ?New@Radio@Radios@Devices@Windows@NodeRT@@CAXABV?$FunctionCallbackInfo@VValue@v8@@@Nan@@@Z 10005f50 f i _nodert_generated.obj
 0001:00005310       ?CastFrom@Radio@Radios@Devices@Windows@NodeRT@@CAXABV?$FunctionCallbackInfo@VValue@v8@@@Nan@@@Z 10006310 f i _nodert_generated.obj
 0001:000054d0       ?SetStateAsync@Radio@Radios@Devices@Windows@NodeRT@@CAXABV?$FunctionCallbackInfo@VValue@v8@@@Nan@@@Z 100064d0 f i _nodert_generated.obj
 0001:00005a10       ?GetRadiosAsync@Radio@Radios@Devices@Windows@NodeRT@@CAXABV?$FunctionCallbackInfo@VValue@v8@@@Nan@@@Z 10006a10 f i _nodert_generated.obj
 0001:00005f90       ?FromIdAsync@Radio@Radios@Devices@Windows@NodeRT@@CAXABV?$FunctionCallbackInfo@VValue@v8@@@Nan@@@Z 10006f90 f i _nodert_generated.obj
 0001:00006430       ?RequestAccessAsync@Radio@Radios@Devices@Windows@NodeRT@@CAXABV?$FunctionCallbackInfo@VValue@v8@@@Nan@@@Z 10007430 f i _nodert_generated.obj
 0001:00006780       ?GetDeviceSelector@Radio@Radios@Devices@Windows@NodeRT@@CAXABV?$FunctionCallbackInfo@VValue@v8@@@Nan@@@Z 10007780 f i _nodert_generated.obj
 0001:000068e0       ?KindGetter@Radio@Radios@Devices@Windows@NodeRT@@CAXV?$Local@VString@v8@@@v8@@ABV?$PropertyCallbackInfo@VValue@v8@@@Nan@@@Z 100078e0 f i _nodert_generated.obj
 0001:000069e0       ?NameGetter@Radio@Radios@Devices@Windows@NodeRT@@CAXV?$Local@VString@v8@@@v8@@ABV?$PropertyCallbackInfo@VValue@v8@@@Nan@@@Z 100079e0 f i _nodert_generated.obj
 0001:00006b10       ?StateGetter@Radio@Radios@Devices@Windows@NodeRT@@CAXV?$Local@VString@v8@@@v8@@ABV?$PropertyCallbackInfo@VValue@v8@@@Nan@@@Z 10007b10 f i _nodert_generated.obj
 0001:00006c20       ?AddListener@Radio@Radios@Devices@Windows@NodeRT@@CAXABV?$FunctionCallbackInfo@VValue@v8@@@Nan@@@Z 10007c20 f i _nodert_generated.obj
 0001:00007320       ?RemoveListener@Radio@Radios@Devices@Windows@NodeRT@@CAXABV?$FunctionCallbackInfo@VValue@v8@@@Nan@@@Z 10008320 f i _nodert_generated.obj
 0001:00007720       ??_GRadio@Radios@Devices@Windows@NodeRT@@UAEPAXI@Z 10008720 f i _nodert_generated.obj
 0001:00007720       ??_ERadio@Radios@Devices@Windows@NodeRT@@UAEPAXI@Z 10008720 f i * CIL library *:* CIL module *
 0001:00007720       ??_GOpaqueWrapper@NodeRT@@UAEPAXI@Z 10008720 f i OpaqueWrapper.obj
 0001:00007720       ??_EOpaqueWrapper@NodeRT@@UAEPAXI@Z 10008720 f i * CIL library *:* CIL module *
 0001:00007790       ??1TryCatch@Nan@@QAE@XZ    10008790 f i _nodert_generated.obj
 0001:000077a0       ?WrapRadio@Radios@Devices@Windows@NodeRT@@YA?AV?$Local@VValue@v8@@@v8@@P$AAVRadio@123@@Z 100087a0 f   _nodert_generated.obj
 0001:00007890       ?init@@YAXV?$Local@VObject@v8@@@v8@@@Z 10008890 f   _nodert_generated.obj
 0001:000078e0       ?__abi_Windows_Foundation_?$TypedEventHandler@P$AAVRadio@Radios@Devices@Windows@@P$AAVObject@Platform@@___abi_IDelegate____abi_Invoke@?Q__abi_IDelegate@?$TypedEventHandler@P$AAVRadio@Radios@Devices@Windows@@P$AAVObject@Platform@@@Foundation@Windows@@234@U$AAGJP$AAVRadio@Radios@Devices@4@P$AAVObject@Platform@@@Z 100088e0 f i _nodert_generated.obj
 0001:00007970       ?__abi_QueryInterface@?$TypedEventHandler@P$AAVRadio@Radios@Devices@Windows@@P$AAVObject@Platform@@@Foundation@Windows@@U$AAGJAAVGuid@Platform@@PAPAX@Z 10008970 f i _nodert_generated.obj
 0001:00007a90       ?__abi_AddRef@?$AsyncOperationCompletedHandler@W4RadioAccessStatus@Radios@Devices@Windows@@@Foundation@Windows@@U$AAGKXZ 10008a90 f i _nodert_generated.obj
 0001:00007a90       ?__abi_AddRef@?$AsyncOperationCompletedHandler@P$AAU?$IVectorView@P$AAVRadio@Radios@Devices@Windows@@@Collections@Foundation@Windows@@@Foundation@Windows@@U$AAGKXZ 10008a90 f i _nodert_generated.obj
 0001:00007a90       ?__abi_AddRef@?$AsyncOperationCompletedHandler@P$AAVRadio@Radios@Devices@Windows@@@Foundation@Windows@@U$AAGKXZ 10008a90 f i _nodert_generated.obj
 0001:00007a90       ?__abi_AddRef@?$TypedEventHandler@P$AAVRadio@Radios@Devices@Windows@@P$AAVObject@Platform@@@Foundation@Windows@@U$AAGKXZ 10008a90 f i _nodert_generated.obj
 0001:00007ac0       ?__abi_Release@?$AsyncOperationCompletedHandler@P$AAU?$IVectorView@P$AAVRadio@Radios@Devices@Windows@@@Collections@Foundation@Windows@@@Foundation@Windows@@U$AAGKXZ 10008ac0 f i _nodert_generated.obj
 0001:00007ac0       ?__abi_Release@?$AsyncOperationCompletedHandler@P$AAVRadio@Radios@Devices@Windows@@@Foundation@Windows@@U$AAGKXZ 10008ac0 f i _nodert_generated.obj
 0001:00007ac0       ?__abi_Release@?$TypedEventHandler@P$AAVRadio@Radios@Devices@Windows@@P$AAVObject@Platform@@@Foundation@Windows@@U$AAGKXZ 10008ac0 f i _nodert_generated.obj
 0001:00007ac0       ?__abi_Release@?$AsyncOperationCompletedHandler@W4RadioAccessStatus@Radios@Devices@Windows@@@Foundation@Windows@@U$AAGKXZ 10008ac0 f i _nodert_generated.obj
 0001:00007be0       ?__abi_GetIids@?$TypedEventHandler@P$AAVRadio@Radios@Devices@Windows@@P$AAVObject@Platform@@@Foundation@Windows@@U$AAGJPAKPAPAVGuid@Platform@@@Z 10008be0 f i _nodert_generated.obj
 0001:00007c40       ?__abi_GetRuntimeClassName@?$TypedEventHandler@P$AAVRadio@Radios@Devices@Windows@@P$AAVObject@Platform@@@Foundation@Windows@@U$AAGJPAPAUHSTRING__@@@Z 10008c40 f i _nodert_generated.obj
 0001:00007c60       ?__abi_GetTrustLevel@?$AsyncOperationCompletedHandler@P$AAVRadio@Radios@Devices@Windows@@@Foundation@Windows@@U$AAGJPAW4__abi_TrustLevel@@@Z 10008c60 f i _nodert_generated.obj
 0001:00007c60       ?__abi_GetTrustLevel@?$AsyncOperationCompletedHandler@W4RadioAccessStatus@Radios@Devices@Windows@@@Foundation@Windows@@U$AAGJPAW4__abi_TrustLevel@@@Z 10008c60 f i _nodert_generated.obj
 0001:00007c60       ?__abi_GetTrustLevel@?$AsyncOperationCompletedHandler@P$AAU?$IVectorView@P$AAVRadio@Radios@Devices@Windows@@@Collections@Foundation@Windows@@@Foundation@Windows@@U$AAGJPAW4__abi_TrustLevel@@@Z 10008c60 f i _nodert_generated.obj
 0001:00007c60       ?__abi_GetTrustLevel@?$TypedEventHandler@P$AAVRadio@Radios@Devices@Windows@@P$AAVObject@Platform@@@Foundation@Windows@@U$AAGJPAW4__abi_TrustLevel@@@Z 10008c60 f i _nodert_generated.obj
 0001:00007c70       ?Invoke@?$TypedEventHandler@P$AAVRadio@Radios@Devices@Windows@@P$AAVObject@Platform@@@Foundation@Windows@@U$AAAXP$AAVRadio@Radios@Devices@3@P$AAVObject@Platform@@@Z 10008c70 f i _nodert_generated.obj
 0001:00007cb0       ?GetRadiosAsync@Radio@Radios@Devices@Windows@@SAP$AAU?$IAsyncOperation@P$AAU?$IVectorView@P$AAVRadio@Radios@Devices@Windows@@@Collections@Foundation@Windows@@@Foundation@4@XZ 10008cb0 f i _nodert_generated.obj
 0001:00007d70       ?GetDeviceSelector@Radio@Radios@Devices@Windows@@SAP$AAVString@Platform@@XZ 10008d70 f i _nodert_generated.obj
 0001:00007e40       ?FromIdAsync@Radio@Radios@Devices@Windows@@SAP$AAU?$IAsyncOperation@P$AAVRadio@Radios@Devices@Windows@@@Foundation@4@P$AAVString@Platform@@@Z 10008e40 f i _nodert_generated.obj
 0001:00007f00       ?RequestAccessAsync@Radio@Radios@Devices@Windows@@SAP$AAU?$IAsyncOperation@W4RadioAccessStatus@Radios@Devices@Windows@@@Foundation@4@XZ 10008f00 f i _nodert_generated.obj
 0001:00007fc0       ?CreateInt64@PropertyValue@Foundation@Windows@@SAP$AAVObject@Platform@@_J@Z 10008fc0 f i _nodert_generated.obj
 0001:00008080       ??1?$shared_ptr@Uscheduler_interface@Concurrency@@@std@@QAE@XZ 10009080 f i _nodert_generated.obj
 0001:00008080       ??1?$shared_ptr@U_Task_impl_base@details@Concurrency@@@std@@QAE@XZ 10009080 f i _nodert_generated.obj
 0001:00008080       ??1?$shared_ptr@U_ExceptionHolder@details@Concurrency@@@std@@QAE@XZ 10009080 f i _nodert_generated.obj
 0001:00008080       ??1?$shared_ptr@U?$_Task_impl@P$AAU?$IVectorView@P$AAVRadio@Radios@Devices@Windows@@@Collections@Foundation@Windows@@@details@Concurrency@@@std@@QAE@XZ 10009080 f i _nodert_generated.obj
 0001:00008080       ??1?$shared_ptr@U?$_Task_impl@P$AAVRadio@Radios@Devices@Windows@@@details@Concurrency@@@std@@QAE@XZ 10009080 f i _nodert_generated.obj
 0001:00008080       ??1?$shared_ptr@U?$_Task_impl@E@details@Concurrency@@@std@@QAE@XZ 10009080 f i _nodert_generated.obj
 0001:00008080       ??1?$shared_ptr@V?$Persistent@VObject@v8@@V?$NonCopyablePersistentTraits@VObject@v8@@@2@@Nan@@@std@@QAE@XZ 10009080 f i _nodert_generated.obj
 0001:00008080       ??1?$shared_ptr@U?$_Task_impl@W4RadioAccessStatus@Radios@Devices@Windows@@@details@Concurrency@@@std@@QAE@XZ 10009080 f i _nodert_generated.obj
 0001:000080b0       ?get@?$task@P$AAVRadio@Radios@Devices@Windows@@@Concurrency@@QBEP$AAVRadio@Radios@Devices@Windows@@XZ 100090b0 f i _nodert_generated.obj
 0001:00008150       ??1?$_Func_class@P$AAVRadio@Radios@Devices@Windows@@V?$Local@VValue@v8@@@v8@@@std@@QAE@XZ 10009150 f i _nodert_generated.obj
 0001:00008150       ??1?$function@$$A6AP$AAVRadio@Radios@Devices@Windows@@V?$Local@VValue@v8@@@v8@@@Z@std@@QAE@XZ 10009150 f i _nodert_generated.obj
 0001:000081a0       ??1?$_Func_class@V?$Local@VValue@v8@@@v8@@P$AAVRadio@Radios@Devices@Windows@@@std@@QAE@XZ 100091a0 f i _nodert_generated.obj
 0001:000081a0       ??1?$function@$$A6A?AV?$Local@VValue@v8@@@v8@@P$AAVRadio@Radios@Devices@Windows@@@Z@std@@QAE@XZ 100091a0 f i _nodert_generated.obj
 0001:000081f0       ?CreateVectorViewWrapper@?$VectorViewWrapper@P$AAVRadio@Radios@Devices@Windows@@@Collections@NodeRT@@SA?AV?$Local@VValue@v8@@@v8@@P$AAU?$IVectorView@P$AAVRadio@Radios@Devices@Windows@@@2Foundation@Windows@@ABV?$function@$$A6A?AV?$Local@VValue@v8@@@v8@@P$AAVRadio@Radios@Devices@Windows@@@Z@std@@ABV?$function@$$A6A_NV?$Local@VValue@v8@@@v8@@@Z@std@@ABV?$function@$$A6AP$AAVRadio@Radios@Devices@Windows@@V?$Local@VValue@v8@@@v8@@@Z@std@@@Z 100091f0 f i _nodert_generated.obj
 0001:00008360       ?get@?$task@P$AAU?$IVectorView@P$AAVRadio@Radios@Devices@Windows@@@Collections@Foundation@Windows@@@Concurrency@@QBEP$AAU?$IVectorView@P$AAVRadio@Radios@Devices@Windows@@@Collections@Foundation@Windows@@XZ 10009360 f i _nodert_generated.obj
 0001:00008400       ??1?$unique_ptr@$$BY0A@V?$Local@VValue@v8@@@v8@@U?$default_delete@$$BY0A@V?$Local@VValue@v8@@@v8@@@std@@@std@@QAE@XZ 10009400 f i _nodert_generated.obj
 0001:00008410       ??1?$function@$$A6AXV?$task@W4RadioAccessStatus@Radios@Devices@Windows@@@Concurrency@@@Z@std@@QAE@XZ 10009410 f i _nodert_generated.obj
 0001:00008410       ??1?$function@$$A6AXXZ@std@@QAE@XZ 10009410 f i _nodert_generated.obj
 0001:00008410       ??1?$function@$$A6AXV?$function@$$A6AXHPAV?$Local@VValue@v8@@@v8@@@Z@std@@@Z@std@@QAE@XZ 10009410 f i _nodert_generated.obj
 0001:00008410       ??1?$_Func_class@XV?$function@$$A6AXHPAV?$Local@VValue@v8@@@v8@@@Z@std@@@std@@QAE@XZ 10009410 f i _nodert_generated.obj
 0001:00008410       ??1?$_Func_class@_NV?$Local@VValue@v8@@@v8@@@std@@QAE@XZ 10009410 f i _nodert_generated.obj
 0001:00008410       ??1?$function@$$A6A_NV?$Local@VValue@v8@@@v8@@@Z@std@@QAE@XZ 10009410 f i _nodert_generated.obj
 0001:00008410       ??1?$_Func_class@XV?$task@W4RadioAccessStatus@Radios@Devices@Windows@@@Concurrency@@@std@@QAE@XZ 10009410 f i _nodert_generated.obj
 0001:00008410       ??1?$_Func_class@X$$V@std@@QAE@XZ 10009410 f i _nodert_generated.obj
 0001:00008440       ??1?$function@$$A6AXHPAV?$Local@VValue@v8@@@v8@@@Z@std@@QAE@XZ 10009440 f i _nodert_generated.obj
 0001:00008470       ?_CreateImpl@?$task@E@Concurrency@@QAEXPAV_CancellationTokenState@details@2@Uscheduler_ptr@2@@Z 10009470 f i _nodert_generated.obj
 0001:00008610       ?_CancelAndRunContinuations@?$_Task_impl@E@details@Concurrency@@UAE_N_N00ABV?$shared_ptr@U_ExceptionHolder@details@Concurrency@@@std@@@Z 10009610 f i _nodert_generated.obj
 0001:000087f0       ??1?$_Task_impl@E@details@Concurrency@@UAE@XZ 100097f0 f i _nodert_generated.obj
 0001:000088a0       ?_Exec@?$_CancellationTokenCallback@V<lambda_3b8ab8d2629adf61a42ee3fe177a046b>@@@details@Concurrency@@MAEXXZ 100098a0 f i _nodert_generated.obj
 0001:00008930       ??0?$_CancellationTokenCallback@V<lambda_3b8ab8d2629adf61a42ee3fe177a046b>@@@details@Concurrency@@QAE@ABV<lambda_3b8ab8d2629adf61a42ee3fe177a046b>@@@Z 10009930 f i _nodert_generated.obj
 0001:000089c0       ?lock@?$weak_ptr@U_Task_impl_base@details@Concurrency@@@std@@QBE?AV?$shared_ptr@U_Task_impl_base@details@Concurrency@@@2@XZ 100099c0 f i _nodert_generated.obj
 0001:000089f0       ??1?$weak_ptr@U_Task_impl_base@details@Concurrency@@@std@@QAE@XZ 100099f0 f i _nodert_generated.obj
 0001:00008a10       ??4?$vector@PAXV?$allocator@PAX@std@@@std@@QAEAAV01@ABV01@@Z 10009a10 f i _nodert_generated.obj
 0001:00008b10       ??0?$vector@PAXV?$allocator@PAX@std@@@std@@QAE@ABV01@@Z 10009b10 f i _nodert_generated.obj
 0001:00008ba0       ??1?$unique_ptr@U_TaskProcHandle@details@Concurrency@@U?$default_delete@U_TaskProcHandle@details@Concurrency@@@std@@@std@@QAE@XZ 10009ba0 f i _nodert_generated.obj
 0001:00008bb0       ??1?$unique_ptr@V_PPLTaskChore@_DefaultPPLTaskScheduler@details@Concurrency@@U?$default_delete@V_PPLTaskChore@_DefaultPPLTaskScheduler@details@Concurrency@@@std@@@std@@QAE@XZ 10009bb0 f i _nodert_generated.obj
 0001:00008c10       ??1?$lock_guard@Vmutex@std@@@std@@QAE@XZ 10009c10 f i _nodert_generated.obj
 0001:00008c30       ??1?$unique_lock@Vmutex@std@@@std@@QAE@XZ 10009c30 f i _nodert_generated.obj
 0001:00008c50       ??A?$FunctionCallbackInfo@VValue@v8@@@Nan@@QBE?AV?$Local@VValue@v8@@@v8@@H@Z 10009c50 f i _nodert_generated.obj
 0001:00008c90       ??_E?$_Task_impl@E@details@Concurrency@@UAEPAXI@Z 10009c90 f i * CIL library *:* CIL module *
 0001:00008c90       ??_G?$_Task_impl@E@details@Concurrency@@UAEPAXI@Z 10009c90 f i _nodert_generated.obj
 0001:00008cc0       ??_G?$_CancellationTokenCallback@V<lambda_3b8ab8d2629adf61a42ee3fe177a046b>@@@details@Concurrency@@UAEPAXI@Z 10009cc0 f i _nodert_generated.obj
 0001:00008cc0       ??_E?$_CancellationTokenCallback@V<lambda_3b8ab8d2629adf61a42ee3fe177a046b>@@@details@Concurrency@@UAEPAXI@Z 10009cc0 f i * CIL library *:* CIL module *
 0001:00008d50       ??1?$ComPtr@UIAgileObject@@@WRL@Microsoft@@QAE@XZ 10009d50 f i _nodert_generated.obj
 0001:00008d70       ?_CancelAndRunContinuations@?$_Task_impl@P$AAVRadio@Radios@Devices@Windows@@@details@Concurrency@@UAE_N_N00ABV?$shared_ptr@U_ExceptionHolder@details@Concurrency@@@std@@@Z 10009d70 f i _nodert_generated.obj
 0001:00008f50       ??1?$_Task_impl@P$AAVRadio@Radios@Devices@Windows@@@details@Concurrency@@UAE@XZ 10009f50 f i _nodert_generated.obj
 0001:00009020       ??0?$VectorViewWrapper@P$AAVRadio@Radios@Devices@Windows@@@Collections@NodeRT@@AAE@P$AAU?$IVectorView@P$AAVRadio@Radios@Devices@Windows@@@1Foundation@Windows@@ABV?$function@$$A6A?AV?$Local@VValue@v8@@@v8@@P$AAVRadio@Radios@Devices@Windows@@@Z@std@@ABV?$function@$$A6A_NV?$Local@VValue@v8@@@v8@@@Z@7@ABV?$function@$$A6AP$AAVRadio@Radios@Devices@Windows@@V?$Local@VValue@v8@@@v8@@@Z@7@@Z 1000a020 f i _nodert_generated.obj
 0001:00009120       ?Init@?$VectorViewWrapper@P$AAVRadio@Radios@Devices@Windows@@@Collections@NodeRT@@SAXXZ 1000a120 f i _nodert_generated.obj
 0001:00009310       ?_CancelAndRunContinuations@?$_Task_impl@P$AAU?$IVectorView@P$AAVRadio@Radios@Devices@Windows@@@Collections@Foundation@Windows@@@details@Concurrency@@UAE_N_N00ABV?$shared_ptr@U_ExceptionHolder@details@Concurrency@@@std@@@Z 1000a310 f i _nodert_generated.obj
 0001:000094f0       ??1?$_Task_impl@P$AAU?$IVectorView@P$AAVRadio@Radios@Devices@Windows@@@Collections@Foundation@Windows@@@details@Concurrency@@UAE@XZ 1000a4f0 f i _nodert_generated.obj
 0001:000095d0       ?_CancelAndRunContinuations@?$_Task_impl@W4RadioAccessStatus@Radios@Devices@Windows@@@details@Concurrency@@UAE_N_N00ABV?$shared_ptr@U_ExceptionHolder@details@Concurrency@@@std@@@Z 1000a5d0 f i _nodert_generated.obj
 0001:000097b0       ??1?$_Task_impl@W4RadioAccessStatus@Radios@Devices@Windows@@@details@Concurrency@@UAE@XZ 1000a7b0 f i _nodert_generated.obj
 0001:00009860       ?_FinalizeAndRunContinuations@?$_Task_impl@E@details@Concurrency@@QAEXE@Z 1000a860 f i _nodert_generated.obj
 0001:000098e0       ?_Make@?$_Task_ptr@E@details@Concurrency@@SA?AV?$shared_ptr@U?$_Task_impl@E@details@Concurrency@@@std@@PAV_CancellationTokenState@23@Uscheduler_ptr@3@@Z 1000a8e0 f i _nodert_generated.obj
 0001:00009970       ?deallocate@?$_Wrap_alloc@V?$allocator@PAX@std@@@std@@QAEXPAPAXI@Z 1000a970 f i _nodert_generated.obj
 0001:000099d0       ?_Buy@?$vector@PAXV?$allocator@PAX@std@@@std@@IAE_NI@Z 1000a9d0 f i _nodert_generated.obj
 0001:00009a30       ??4?$ComPtr@UIUnknown@@@WRL@Microsoft@@QAEAAV012@$$T@Z 1000aa30 f i _nodert_generated.obj
 0001:00009a50       ??_G?$_Task_impl@P$AAVRadio@Radios@Devices@Windows@@@details@Concurrency@@UAEPAXI@Z 1000aa50 f i _nodert_generated.obj
 0001:00009a50       ??_E?$_Task_impl@P$AAVRadio@Radios@Devices@Windows@@@details@Concurrency@@UAEPAXI@Z 1000aa50 f i * CIL library *:* CIL module *
 0001:00009a80       ??_E?$VectorViewWrapper@P$AAVRadio@Radios@Devices@Windows@@@Collections@NodeRT@@UAEPAXI@Z 1000aa80 f i * CIL library *:* CIL module *
 0001:00009a80       ??_G?$VectorViewWrapper@P$AAVRadio@Radios@Devices@Windows@@@Collections@NodeRT@@UAEPAXI@Z 1000aa80 f i _nodert_generated.obj
 0001:00009ab0       ??1?$VectorViewWrapper@P$AAVRadio@Radios@Devices@Windows@@@Collections@NodeRT@@UAE@XZ 1000aab0 f i _nodert_generated.obj
 0001:00009ba0       ??_E?$_Task_impl@P$AAU?$IVectorView@P$AAVRadio@Radios@Devices@Windows@@@Collections@Foundation@Windows@@@details@Concurrency@@UAEPAXI@Z 1000aba0 f i * CIL library *:* CIL module *
 0001:00009ba0       ??_G?$_Task_impl@P$AAU?$IVectorView@P$AAVRadio@Radios@Devices@Windows@@@Collections@Foundation@Windows@@@details@Concurrency@@UAEPAXI@Z 1000aba0 f i _nodert_generated.obj
 0001:00009bd0       ??_G?$_Task_impl@W4RadioAccessStatus@Radios@Devices@Windows@@@details@Concurrency@@UAEPAXI@Z 1000abd0 f i _nodert_generated.obj
 0001:00009bd0       ??_E?$_Task_impl@W4RadioAccessStatus@Radios@Devices@Windows@@@details@Concurrency@@UAEPAXI@Z 1000abd0 f i * CIL library *:* CIL module *
 0001:00009c00       ?SizeGetter@?$VectorViewWrapper@P$AAVRadio@Radios@Devices@Windows@@@Collections@NodeRT@@CAXV?$Local@VString@v8@@@v8@@ABV?$PropertyCallbackInfo@VValue@v8@@@Nan@@@Z 1000ac00 f i _nodert_generated.obj
 0001:00009d00       ?IndexOf@?$VectorViewWrapper@P$AAVRadio@Radios@Devices@Windows@@@Collections@NodeRT@@CAXABV?$FunctionCallbackInfo@VValue@v8@@@Nan@@@Z 1000ad00 f i _nodert_generated.obj
 0001:00009f80       ?First@?$VectorViewWrapper@P$AAVRadio@Radios@Devices@Windows@@@Collections@NodeRT@@CAXABV?$FunctionCallbackInfo@VValue@v8@@@Nan@@@Z 1000af80 f i _nodert_generated.obj
 0001:0000a110       ?GetMany@?$VectorViewWrapper@P$AAVRadio@Radios@Devices@Windows@@@Collections@NodeRT@@CAXABV?$FunctionCallbackInfo@VValue@v8@@@Nan@@@Z 1000b110 f i _nodert_generated.obj
 0001:0000a110       ?GetMany@?$IteratorWrapper@P$AAVRadio@Radios@Devices@Windows@@@Collections@NodeRT@@CAXABV?$FunctionCallbackInfo@VValue@v8@@@Nan@@@Z 1000b110 f i _nodert_generated.obj
 0001:0000a1b0       ?GetAt@?$VectorViewWrapper@P$AAVRadio@Radios@Devices@Windows@@@Collections@NodeRT@@CAXABV?$FunctionCallbackInfo@VValue@v8@@@Nan@@@Z 1000b1b0 f i _nodert_generated.obj
 0001:0000a390       ?Get@?$VectorViewWrapper@P$AAVRadio@Radios@Devices@Windows@@@Collections@NodeRT@@CAXIABV?$PropertyCallbackInfo@VValue@v8@@@Nan@@@Z 1000b390 f i _nodert_generated.obj
 0001:0000a4b0       ?New@?$VectorViewWrapper@P$AAVRadio@Radios@Devices@Windows@@@Collections@NodeRT@@CAXABV?$FunctionCallbackInfo@VValue@v8@@@Nan@@@Z 1000b4b0 f i _nodert_generated.obj
 0001:0000a4b0       ?New@?$IteratorWrapper@P$AAVRadio@Radios@Devices@Windows@@@Collections@NodeRT@@CAXABV?$FunctionCallbackInfo@VValue@v8@@@Nan@@@Z 1000b4b0 f i _nodert_generated.obj
 0001:0000a530       ?allocate@?$_Wrap_alloc@V?$allocator@PAX@std@@@std@@QAEPAPAXI@Z 1000b530 f i _nodert_generated.obj
 0001:0000a590       ?CreateIteratorWrapper@?$IteratorWrapper@P$AAVRadio@Radios@Devices@Windows@@@Collections@NodeRT@@SA?AV?$Local@VValue@v8@@@v8@@P$AAU?$IIterator@P$AAVRadio@Radios@Devices@Windows@@@2Foundation@Windows@@ABV?$function@$$A6A?AV?$Local@VValue@v8@@@v8@@P$AAVRadio@Radios@Devices@Windows@@@Z@std@@@Z 1000b590 f i _nodert_generated.obj
 0001:0000a6c0       ?Release@?$Agile@P$AAU?$IVectorView@P$AAVRadio@Radios@Devices@Windows@@@Collections@Foundation@Windows@@$00@Platform@@QAEXXZ 1000b6c0 f i _nodert_generated.obj
 0001:0000a740       ?Get@?$Agile@P$AAU?$IVectorView@P$AAVRadio@Radios@Devices@Windows@@@Collections@Foundation@Windows@@$00@Platform@@QBEP$AAU?$IVectorView@P$AAVRadio@Radios@Devices@Windows@@@Collections@Foundation@Windows@@XZ 1000b740 f i _nodert_generated.obj
 0001:0000a8d0       ??R?$_Func_class@P$AAVRadio@Radios@Devices@Windows@@V?$Local@VValue@v8@@@v8@@@std@@QBEP$AAVRadio@Radios@Devices@Windows@@V?$Local@VValue@v8@@@v8@@@Z 1000b8d0 f i _nodert_generated.obj
 0001:0000a950       ??R?$_Func_class@V?$Local@VValue@v8@@@v8@@P$AAVRadio@Radios@Devices@Windows@@@std@@QBE?AV?$Local@VValue@v8@@@v8@@P$AAVRadio@Radios@Devices@Windows@@@Z 1000b950 f i _nodert_generated.obj
 0001:0000a9f0       ??0?$IteratorWrapper@P$AAVRadio@Radios@Devices@Windows@@@Collections@NodeRT@@AAE@P$AAU?$IIterator@P$AAVRadio@Radios@Devices@Windows@@@1Foundation@Windows@@ABV?$function@$$A6A?AV?$Local@VValue@v8@@@v8@@P$AAVRadio@Radios@Devices@Windows@@@Z@std@@@Z 1000b9f0 f i _nodert_generated.obj
 0001:0000aaa0       ?Init@?$IteratorWrapper@P$AAVRadio@Radios@Devices@Windows@@@Collections@NodeRT@@SAXXZ 1000baa0 f i _nodert_generated.obj
 0001:0000ac50       ??_G?$IteratorWrapper@P$AAVRadio@Radios@Devices@Windows@@@Collections@NodeRT@@UAEPAXI@Z 1000bc50 f i _nodert_generated.obj
 0001:0000ac50       ??_E?$IteratorWrapper@P$AAVRadio@Radios@Devices@Windows@@@Collections@NodeRT@@UAEPAXI@Z 1000bc50 f i * CIL library *:* CIL module *
 0001:0000ad00       ?HasCurrentGetter@?$IteratorWrapper@P$AAVRadio@Radios@Devices@Windows@@@Collections@NodeRT@@CAXV?$Local@VString@v8@@@v8@@ABV?$PropertyCallbackInfo@VValue@v8@@@Nan@@@Z 1000bd00 f i _nodert_generated.obj
 0001:0000ade0       ?CurrentGetter@?$IteratorWrapper@P$AAVRadio@Radios@Devices@Windows@@@Collections@NodeRT@@CAXV?$Local@VString@v8@@@v8@@ABV?$PropertyCallbackInfo@VValue@v8@@@Nan@@@Z 1000bde0 f i _nodert_generated.obj
 0001:0000af00       ?MoveNext@?$IteratorWrapper@P$AAVRadio@Radios@Devices@Windows@@@Collections@NodeRT@@CAXABV?$FunctionCallbackInfo@VValue@v8@@@Nan@@@Z 1000bf00 f i _nodert_generated.obj
 0001:0000b030       ?get@Name@IRadio@Radios@Devices@Windows@@U$AAAP$AAVString@Platform@@XZ 1000c030 f i _nodert_generated.obj
 0001:0000b0c0       ?add@StateChanged@IRadio@Radios@Devices@Windows@@U$AAA?AVEventRegistrationToken@Foundation@5@P$AAV?$TypedEventHandler@P$AAVRadio@Radios@Devices@Windows@@P$AAVObject@Platform@@@75@@Z 1000c0c0 f i _nodert_generated.obj
 0001:0000b0f0       ?remove@StateChanged@IRadio@Radios@Devices@Windows@@U$AAAXVEventRegistrationToken@Foundation@5@@Z 1000c0f0 f i _nodert_generated.obj
 0001:0000b110       ?SetStateAsync@IRadio@Radios@Devices@Windows@@U$AAAP$AAU?$IAsyncOperation@W4RadioAccessStatus@Radios@Devices@Windows@@@Foundation@4@W4RadioState@234@@Z 1000c110 f i _nodert_generated.obj
 0001:0000b110       ?GetAt@?$IVectorView@P$AAVRadio@Radios@Devices@Windows@@@Collections@Foundation@Windows@@U$AAAP$AAVRadio@Radios@Devices@4@I@Z 1000c110 f i _nodert_generated.obj
 0001:0000b1a0       ?First@?$IIterable@P$AAVRadio@Radios@Devices@Windows@@@Collections@Foundation@Windows@@U$AAAP$AAU?$IIterator@P$AAVRadio@Radios@Devices@Windows@@@234@XZ 1000c1a0 f i _nodert_generated.obj
 0001:0000b1a0       ?get@Current@?$IIterator@P$AAVRadio@Radios@Devices@Windows@@@Collections@Foundation@Windows@@U$AAAP$AAVRadio@Radios@Devices@5@XZ 1000c1a0 f i _nodert_generated.obj
 0001:0000b1a0       ?GetRadiosAsync@IRadioStatics@Radios@Devices@Windows@@U$AAAP$AAU?$IAsyncOperation@P$AAU?$IVectorView@P$AAVRadio@Radios@Devices@Windows@@@Collections@Foundation@Windows@@@Foundation@4@XZ 1000c1a0 f i _nodert_generated.obj
 0001:0000b220       ?GetDeviceSelector@IRadioStatics@Radios@Devices@Windows@@U$AAAP$AAVString@Platform@@XZ 1000c220 f i _nodert_generated.obj
 0001:0000b2b0       ?FromIdAsync@IRadioStatics@Radios@Devices@Windows@@U$AAAP$AAU?$IAsyncOperation@P$AAVRadio@Radios@Devices@Windows@@@Foundation@4@P$AAVString@Platform@@@Z 1000c2b0 f i _nodert_generated.obj
 0001:0000b340       ?RequestAccessAsync@IRadioStatics@Radios@Devices@Windows@@U$AAAP$AAU?$IAsyncOperation@W4RadioAccessStatus@Radios@Devices@Windows@@@Foundation@4@XZ 1000c340 f i _nodert_generated.obj
 0001:0000b3c0       ?IndexOf@?$IVectorView@P$AAVRadio@Radios@Devices@Windows@@@Collections@Foundation@Windows@@U$AAA_NP$AAVRadio@Radios@Devices@4@PAI@Z 1000c3c0 f i _nodert_generated.obj
 0001:0000b400       ?CreateInt64@IPropertyValueStatics@Foundation@Windows@@U$AAAP$AAVObject@Platform@@_J@Z 1000c400 f i _nodert_generated.obj
 0001:0000b490       ??$New@VBoolean@v8@@_N@Nan@@YA?AV?$Local@VBoolean@v8@@@v8@@_N@Z 1000c490 f i _nodert_generated.obj
 0001:0000b4c0       ??$New@VObject@v8@@@Nan@@YA?AV?$Local@VObject@v8@@@v8@@XZ 1000c4c0 f i _nodert_generated.obj
 0001:0000b4e0       ??$Reset@VObject@v8@@@?$Persistent@VObject@v8@@V?$NonCopyablePersistentTraits@VObject@v8@@@2@@Nan@@QAEXABV?$Local@VObject@v8@@@v8@@@Z 1000c4e0 f i _nodert_generated.obj
 0001:0000b520       ??$wait@V<lambda_cf8f1d893b3a87da856048d6f694e263>@@@condition_variable@std@@QAEXAAV?$unique_lock@Vmutex@std@@@1@V<lambda_cf8f1d893b3a87da856048d6f694e263>@@@Z 1000c520 f i _nodert_generated.obj
 0001:0000b570       ??$make_shared@U_ExceptionHolder@details@Concurrency@@ABVexception_ptr@std@@V_TaskCreationCallstack@23@@std@@YA?AV?$shared_ptr@U_ExceptionHolder@details@Concurrency@@@0@ABVexception_ptr@0@$$QAV_TaskCreationCallstack@details@Concurrency@@@Z 1000c570 f i _nodert_generated.obj
 0001:0000b5f0       ??$?4AAV?$function@$$A6AXXZ@std@@XX@?$function@$$A6AXXZ@std@@QAEAAV01@AAV01@@Z 1000c5f0 f i _nodert_generated.obj
 0001:0000b690       ??$?0V<lambda_847758569c482b5c3071d04a93fd5a03>@@XX@?$function@$$A6AXXZ@std@@QAE@V<lambda_847758569c482b5c3071d04a93fd5a03>@@@Z 1000c690 f i _nodert_generated.obj
 0001:0000b760       ??$SetMethod@VObject@v8@@VLocal@2@@Nan@@YAXV?$Local@VObject@v8@@@v8@@PBDP6AXABV?$FunctionCallbackInfo@VValue@v8@@@0@@Z@Z 1000c760 f i _nodert_generated.obj
 0001:0000b820       ??$IsWinRtWrapperOf@P$AAVRadio@Radios@Devices@Windows@@@Utils@NodeRT@@YA_NV?$Local@VValue@v8@@@v8@@@Z 1000c820 f i _nodert_generated.obj
 0001:0000b970       ??$Unwrap@V?$IteratorWrapper@P$AAVRadio@Radios@Devices@Windows@@@Collections@NodeRT@@@ObjectWrap@Nan@@SAPAV?$IteratorWrapper@P$AAVRadio@Radios@Devices@Windows@@@Collections@NodeRT@@V?$Local@VObject@v8@@@v8@@@Z 1000c970 f i _nodert_generated.obj
 0001:0000b970       ??$Unwrap@VWrapperBase@NodeRT@@@ObjectWrap@Nan@@SAPAVWrapperBase@NodeRT@@V?$Local@VObject@v8@@@v8@@@Z 1000c970 f i _nodert_generated.obj
 0001:0000b970       ??$Unwrap@VOpaqueWrapper@NodeRT@@@ObjectWrap@Nan@@SAPAVOpaqueWrapper@NodeRT@@V?$Local@VObject@v8@@@v8@@@Z 1000c970 f i _nodert_generated.obj
 0001:0000b970       ??$Unwrap@V?$VectorViewWrapper@P$AAVRadio@Radios@Devices@Windows@@@Collections@NodeRT@@@ObjectWrap@Nan@@SAPAV?$VectorViewWrapper@P$AAVRadio@Radios@Devices@Windows@@@Collections@NodeRT@@V?$Local@VObject@v8@@@v8@@@Z 1000c970 f i _nodert_generated.obj
 0001:0000b970       ??$Unwrap@VRadio@Radios@Devices@Windows@NodeRT@@@ObjectWrap@Nan@@SAPAVRadio@Radios@Devices@Windows@NodeRT@@V?$Local@VObject@v8@@@v8@@@Z 1000c970 f i _nodert_generated.obj
 0001:0000b9e0       ??$create_task@P$AAU?$IAsyncOperation@W4RadioAccessStatus@Radios@Devices@Windows@@@Foundation@Windows@@@Concurrency@@YA?AV?$task@W4RadioAccessStatus@Radios@Devices@Windows@@@0@P$AAU?$IAsyncOperation@W4RadioAccessStatus@Radios@Devices@Windows@@@Foundation@Windows@@Vtask_options@0@@Z 1000c9e0 f i _nodert_generated.obj
 0001:0000ba90       ??$?0V<lambda_0532bc16f263f6a2ba7cd1d0d3d2a0cd>@@XX@?$function@$$A6AXV?$function@$$A6AXHPAV?$Local@VValue@v8@@@v8@@@Z@std@@@Z@std@@QAE@V<lambda_0532bc16f263f6a2ba7cd1d0d3d2a0cd>@@@Z 1000ca90 f i _nodert_generated.obj
 0001:0000bb10       ??$then@V<lambda_ae54f703fcaa92a2870449d47fe035a7>@@@?$task@W4RadioAccessStatus@Radios@Devices@Windows@@@Concurrency@@QBE?AV?$task@X@1@ABV<lambda_ae54f703fcaa92a2870449d47fe035a7>@@@Z 1000cb10 f i _nodert_generated.obj
 0001:0000bce0       ??$create_task@P$AAU?$IAsyncOperation@P$AAU?$IVectorView@P$AAVRadio@Radios@Devices@Windows@@@Collections@Foundation@Windows@@@Foundation@Windows@@@Concurrency@@YA?AV?$task@P$AAU?$IVectorView@P$AAVRadio@Radios@Devices@Windows@@@Collections@Foundation@Windows@@@0@P$AAU?$IAsyncOperation@P$AAU?$IVectorView@P$AAVRadio@Radios@Devices@Windows@@@Collections@Foundation@Windows@@@Foundation@Windows@@Vtask_options@0@@Z 1000cce0 f i _nodert_generated.obj
 0001:0000bd90       ??$?0V<lambda_0ba1884422591f985dd5dd2788d28634>@@XX@?$function@$$A6AXV?$function@$$A6AXHPAV?$Local@VValue@v8@@@v8@@@Z@std@@@Z@std@@QAE@V<lambda_0ba1884422591f985dd5dd2788d28634>@@@Z 1000cd90 f i _nodert_generated.obj
 0001:0000be10       ??$then@V<lambda_a1381f9626a8165312049276d1590ea7>@@@?$task@P$AAU?$IVectorView@P$AAVRadio@Radios@Devices@Windows@@@Collections@Foundation@Windows@@@Concurrency@@QBE?AV?$task@X@1@ABV<lambda_a1381f9626a8165312049276d1590ea7>@@@Z 1000ce10 f i _nodert_generated.obj
 0001:0000c010       ??$create_task@P$AAU?$IAsyncOperation@P$AAVRadio@Radios@Devices@Windows@@@Foundation@Windows@@@Concurrency@@YA?AV?$task@P$AAVRadio@Radios@Devices@Windows@@@0@P$AAU?$IAsyncOperation@P$AAVRadio@Radios@Devices@Windows@@@Foundation@Windows@@Vtask_options@0@@Z 1000d010 f i _nodert_generated.obj
 0001:0000c0c0       ??$?0V<lambda_c3befff5426f7ddaa4e03d53f00d3a42>@@XX@?$function@$$A6AXV?$function@$$A6AXHPAV?$Local@VValue@v8@@@v8@@@Z@std@@@Z@std@@QAE@V<lambda_c3befff5426f7ddaa4e03d53f00d3a42>@@@Z 1000d0c0 f i _nodert_generated.obj
 0001:0000c140       ??$then@V<lambda_2ba0bef8cbfba8f1d7cf652ae95a0f98>@@@?$task@P$AAVRadio@Radios@Devices@Windows@@@Concurrency@@QBE?AV?$task@X@1@ABV<lambda_2ba0bef8cbfba8f1d7cf652ae95a0f98>@@@Z 1000d140 f i _nodert_generated.obj
 0001:0000c340       ??$?0V<lambda_a114a708d63a441febc5f755bac609dc>@@XX@?$function@$$A6AXV?$function@$$A6AXHPAV?$Local@VValue@v8@@@v8@@@Z@std@@@Z@std@@QAE@V<lambda_a114a708d63a441febc5f755bac609dc>@@@Z 1000d340 f i _nodert_generated.obj
 0001:0000c3c0       ??$then@V<lambda_9eef212b7bb2525a1146c82a12593753>@@@?$task@W4RadioAccessStatus@Radios@Devices@Windows@@@Concurrency@@QBE?AV?$task@X@1@ABV<lambda_9eef212b7bb2525a1146c82a12593753>@@@Z 1000d3c0 f i _nodert_generated.obj
 0001:0000c590       ??$?0V?$Persistent@VObject@v8@@V?$NonCopyablePersistentTraits@VObject@v8@@@2@@Nan@@V<lambda_b131c92a30a0c8f1df37bf42f562abce>@@@?$shared_ptr@V?$Persistent@VObject@v8@@V?$NonCopyablePersistentTraits@VObject@v8@@@2@@Nan@@@std@@QAE@PAV?$Persistent@VObject@v8@@V?$NonCopyablePersistentTraits@VObject@v8@@@2@@Nan@@V<lambda_b131c92a30a0c8f1df37bf42f562abce>@@@Z 1000d590 f i _nodert_generated.obj
 0001:0000c610       ??$?0V<lambda_ec396201b7e4f2b701f72af9664eb55a>@@XX@?$function@$$A6AXXZ@std@@QAE@V<lambda_ec396201b7e4f2b701f72af9664eb55a>@@@Z 1000d610 f i _nodert_generated.obj
 0001:0000c700       ??$?0V<lambda_8abf72d2c54f8bb80c09b205f4cfafdd>@@@?$TypedEventHandler@P$AAVRadio@Radios@Devices@Windows@@P$AAVObject@Platform@@@Foundation@Windows@@Q$AAA@V<lambda_8abf72d2c54f8bb80c09b205f4cfafdd>@@W4CallbackContext@Platform@@_N@Z 1000d700 f i _nodert_generated.obj
 0001:0000c840       ??$__abi_winrt_ptrto_delegate_dtor@V?$AsyncOperationCompletedHandler@W4RadioAccessStatus@Radios@Devices@Windows@@@Foundation@Windows@@@@YAXP$ADV?$AsyncOperationCompletedHandler@W4RadioAccessStatus@Radios@Devices@Windows@@@Foundation@Windows@@@Z 1000d840 f i _nodert_generated.obj
 0001:0000c840       ??$__abi_winrt_ptrto_delegate_dtor@V?$AsyncOperationCompletedHandler@P$AAVRadio@Radios@Devices@Windows@@@Foundation@Windows@@@@YAXP$ADV?$AsyncOperationCompletedHandler@P$AAVRadio@Radios@Devices@Windows@@@Foundation@Windows@@@Z 1000d840 f i _nodert_generated.obj
 0001:0000c840       ??$__abi_winrt_ptrto_delegate_dtor@V?$TypedEventHandler@P$AAVRadio@Radios@Devices@Windows@@P$AAVObject@Platform@@@Foundation@Windows@@@@YAXP$ADV?$TypedEventHandler@P$AAVRadio@Radios@Devices@Windows@@P$AAVObject@Platform@@@Foundation@Windows@@@Z 1000d840 f i _nodert_generated.obj
 0001:0000c840       ??$__abi_winrt_ptrto_delegate_dtor@V?$AsyncOperationCompletedHandler@P$AAU?$IVectorView@P$AAVRadio@Radios@Devices@Windows@@@Collections@Foundation@Windows@@@Foundation@Windows@@@@YAXP$ADV?$AsyncOperationCompletedHandler@P$AAU?$IVectorView@P$AAVRadio@Radios@Devices@Windows@@@Collections@Foundation@Windows@@@Foundation@Windows@@@Z 1000d840 f i _nodert_generated.obj
 0001:0000c850       ??$__abi_unbox@_J@@YA_JP$AAVObject@Platform@@@Z 1000d850 f i _nodert_generated.obj
 0001:0000c8e0       ??$make_shared@U?$_Task_impl@E@details@Concurrency@@AAPAV_CancellationTokenState@23@AAUscheduler_ptr@3@@std@@YA?AV?$shared_ptr@U?$_Task_impl@E@details@Concurrency@@@0@AAPAV_CancellationTokenState@details@Concurrency@@AAUscheduler_ptr@4@@Z 1000d8e0 f i _nodert_generated.obj
 0001:0000c980       ??$IsWinRtWrapperOf@P$AAU?$IVectorView@P$AAVRadio@Radios@Devices@Windows@@@Collections@Foundation@Windows@@@Utils@NodeRT@@YA_NV?$Local@VValue@v8@@@v8@@@Z 1000d980 f i _nodert_generated.obj
 0001:0000cad0       ??$New@VInteger@v8@@I@Nan@@YA?AV?$Local@VInteger@v8@@@v8@@I@Z 1000dad0 f i _nodert_generated.obj
 0001:0000cb10       ??$IsWinRtWrapperOf@P$AAU?$IIterator@P$AAVRadio@Radios@Devices@Windows@@@Collections@Foundation@Windows@@@Utils@NodeRT@@YA_NV?$Local@VValue@v8@@@v8@@@Z 1000db10 f i _nodert_generated.obj
 0001:0000cc60       ?_Delete_this@?$_Ref_count_del@V?$Persistent@VObject@v8@@V?$NonCopyablePersistentTraits@VObject@v8@@@2@@Nan@@V<lambda_b131c92a30a0c8f1df37bf42f562abce>@@@std@@EAEXXZ 1000dc60 f i _nodert_generated.obj
 0001:0000cc60       ?_Delete_this@?$_Ref_count_obj@U?$_Task_impl@W4RadioAccessStatus@Radios@Devices@Windows@@@details@Concurrency@@@std@@EAEXXZ 1000dc60 f i _nodert_generated.obj
 0001:0000cc60       ?_Delete_this@?$_Ref_count_obj@U?$_Task_impl@E@details@Concurrency@@@std@@EAEXXZ 1000dc60 f i _nodert_generated.obj
 0001:0000cc60       ?_Delete_this@?$_Ref_count_obj@U_ExceptionHolder@details@Concurrency@@@std@@EAEXXZ 1000dc60 f i _nodert_generated.obj
 0001:0000cc60       ?_Delete_this@?$_Ref_count_obj@U?$_Task_impl@P$AAU?$IVectorView@P$AAVRadio@Radios@Devices@Windows@@@Collections@Foundation@Windows@@@details@Concurrency@@@std@@EAEXXZ 1000dc60 f i _nodert_generated.obj
 0001:0000cc60       ?_Delete_this@?$_Ref_count_obj@U?$_Task_impl@P$AAVRadio@Radios@Devices@Windows@@@details@Concurrency@@@std@@EAEXXZ 1000dc60 f i _nodert_generated.obj
 0001:0000cc70       ?_Destroy@?$_Ref_count_obj@U?$_Task_impl@W4RadioAccessStatus@Radios@Devices@Windows@@@details@Concurrency@@@std@@EAEXXZ 1000dc70 f i _nodert_generated.obj
 0001:0000cc70       ?_Destroy@?$_Ref_count_obj@U?$_Task_impl@P$AAU?$IVectorView@P$AAVRadio@Radios@Devices@Windows@@@Collections@Foundation@Windows@@@details@Concurrency@@@std@@EAEXXZ 1000dc70 f i _nodert_generated.obj
 0001:0000cc70       ?_Destroy@?$_Ref_count_obj@U?$_Task_impl@E@details@Concurrency@@@std@@EAEXXZ 1000dc70 f i _nodert_generated.obj
 0001:0000cc70       ?_Destroy@?$_Ref_count_obj@U?$_Task_impl@P$AAVRadio@Radios@Devices@Windows@@@details@Concurrency@@@std@@EAEXXZ 1000dc70 f i _nodert_generated.obj
 0001:0000cc80       ??B?$Box@_J@Platform@@Q$AAA_JXZ 1000dc80 f i _nodert_generated.obj
 0001:0000cd50       ?Invoke@?$__abi_FunctorCapture@V<lambda_8abf72d2c54f8bb80c09b205f4cfafdd>@@XP$AAVRadio@Radios@Devices@Windows@@P$AAVObject@Platform@@@Details@Platform@@UAGXP$AAVRadio@Radios@Devices@Windows@@P$AAVObject@3@@Z 1000dd50 f i _nodert_generated.obj
 0001:0000cd70       ??0?$__abi_FunctorCapture@V<lambda_8abf72d2c54f8bb80c09b205f4cfafdd>@@XP$AAVRadio@Radios@Devices@Windows@@P$AAVObject@Platform@@@Details@Platform@@QAE@V<lambda_8abf72d2c54f8bb80c09b205f4cfafdd>@@@Z 1000dd70 f i _nodert_generated.obj
 0001:0000ce20       ?_Destroy@?$_Ref_count_obj@U_ExceptionHolder@details@Concurrency@@@std@@EAEXXZ 1000de20 f i _nodert_generated.obj
 0001:0000ce30       ??1?$function@$$A6AXV?$task@P$AAVRadio@Radios@Devices@Windows@@@Concurrency@@@Z@std@@QAE@XZ 1000de30 f i _nodert_generated.obj
 0001:0000ce30       ??1?$_Func_class@XV?$task@P$AAVRadio@Radios@Devices@Windows@@@Concurrency@@@std@@QAE@XZ 1000de30 f i _nodert_generated.obj
 0001:0000ce80       ??1?$_Func_class@XV?$task@P$AAU?$IVectorView@P$AAVRadio@Radios@Devices@Windows@@@Collections@Foundation@Windows@@@Concurrency@@@std@@QAE@XZ 1000de80 f i _nodert_generated.obj
 0001:0000ce80       ??1?$function@$$A6AXV?$task@P$AAU?$IVectorView@P$AAVRadio@Radios@Devices@Windows@@@Collections@Foundation@Windows@@@Concurrency@@@Z@std@@QAE@XZ 1000de80 f i _nodert_generated.obj
 0001:0000ced0       ??_G?$__abi_FunctorCapture@V<lambda_85b3af6e5f21e2dfbb949cdd8ca000ff>@@XP$AAU?$IAsyncOperation@P$AAU?$IVectorView@P$AAVRadio@Radios@Devices@Windows@@@Collections@Foundation@Windows@@@Foundation@Windows@@W4AsyncStatus@34@@Details@Platform@@UAEPAXI@Z 1000ded0 f i _nodert_generated.obj
 0001:0000ced0       ??_G?$__abi_FunctorCapture@V<lambda_1d4db423df950a9db6d5162d107d760e>@@XP$AAU?$IAsyncOperation@P$AAVRadio@Radios@Devices@Windows@@@Foundation@Windows@@W4AsyncStatus@34@@Details@Platform@@UAEPAXI@Z 1000ded0 f i _nodert_generated.obj
 0001:0000ced0       ??_G?$__abi_FunctorCapture@V<lambda_8abf72d2c54f8bb80c09b205f4cfafdd>@@XP$AAVRadio@Radios@Devices@Windows@@P$AAVObject@Platform@@@Details@Platform@@UAEPAXI@Z 1000ded0 f i _nodert_generated.obj
 0001:0000ced0       ??_G?$__abi_FunctorCapture@V<lambda_da728ca663148a39a15f0482357f5ab9>@@XP$AAU?$IAsyncOperation@W4RadioAccessStatus@Radios@Devices@Windows@@@Foundation@Windows@@W4AsyncStatus@34@@Details@Platform@@UAEPAXI@Z 1000ded0 f i _nodert_generated.obj
 0001:0000ced0       ??_E?$__abi_FunctorCapture@V<lambda_85b3af6e5f21e2dfbb949cdd8ca000ff>@@XP$AAU?$IAsyncOperation@P$AAU?$IVectorView@P$AAVRadio@Radios@Devices@Windows@@@Collections@Foundation@Windows@@@Foundation@Windows@@W4AsyncStatus@34@@Details@Platform@@UAEPAXI@Z 1000ded0 f i * CIL library *:* CIL module *
 0001:0000ced0       ??_E?$__abi_FunctorCapture@V<lambda_da728ca663148a39a15f0482357f5ab9>@@XP$AAU?$IAsyncOperation@W4RadioAccessStatus@Radios@Devices@Windows@@@Foundation@Windows@@W4AsyncStatus@34@@Details@Platform@@UAEPAXI@Z 1000ded0 f i * CIL library *:* CIL module *
 0001:0000ced0       ??_E?$__abi_FunctorCapture@V<lambda_1d4db423df950a9db6d5162d107d760e>@@XP$AAU?$IAsyncOperation@P$AAVRadio@Radios@Devices@Windows@@@Foundation@Windows@@W4AsyncStatus@34@@Details@Platform@@UAEPAXI@Z 1000ded0 f i * CIL library *:* CIL module *
 0001:0000ced0       ??_E?$__abi_FunctorCapture@V<lambda_8abf72d2c54f8bb80c09b205f4cfafdd>@@XP$AAVRadio@Radios@Devices@Windows@@P$AAVObject@Platform@@@Details@Platform@@UAEPAXI@Z 1000ded0 f i * CIL library *:* CIL module *
 0001:0000cf50       ?_Reset0@?$_Ptr_base@U_Task_impl_base@details@Concurrency@@@std@@QAEXPAU_Task_impl_base@details@Concurrency@@PAV_Ref_count_base@2@@Z 1000df50 f i _nodert_generated.obj
 0001:0000cfb0       ?_Swap@?$_Func_class@X$$V@std@@IAEXAAV12@@Z 1000dfb0 f i _nodert_generated.obj
 0001:0000d0d0       ??$?0ABVexception_ptr@std@@V_TaskCreationCallstack@details@Concurrency@@@?$_Ref_count_obj@U_ExceptionHolder@details@Concurrency@@@std@@QAE@ABVexception_ptr@1@$$QAV_TaskCreationCallstack@details@Concurrency@@@Z 1000e0d0 f i _nodert_generated.obj
 0001:0000d170       ??$SetMethodAux@V?$Local@VObject@v8@@@v8@@@imp@Nan@@YAXV?$Local@VObject@v8@@@v8@@V?$Local@VString@v8@@@3@V?$Local@VFunctionTemplate@v8@@@3@ZZ 1000e170 f i _nodert_generated.obj
 0001:0000d1b0       ??$?0P$AAU?$IAsyncOperation@W4RadioAccessStatus@Radios@Devices@Windows@@@Foundation@Windows@@@?$task@W4RadioAccessStatus@Radios@Devices@Windows@@@Concurrency@@QAE@P$AAU?$IAsyncOperation@W4RadioAccessStatus@Radios@Devices@Windows@@@Foundation@Windows@@ABVtask_options@1@@Z 1000e1b0 f i _nodert_generated.obj
 0001:0000d350       ??$_ThenImpl@W4RadioAccessStatus@Radios@Devices@Windows@@V?$function@$$A6AXV?$task@W4RadioAccessStatus@Radios@Devices@Windows@@@Concurrency@@@Z@std@@@?$task@W4RadioAccessStatus@Radios@Devices@Windows@@@Concurrency@@ABE?AV?$task@X@1@ABV?$function@$$A6AXV?$task@W4RadioAccessStatus@Radios@Devices@Windows@@@Concurrency@@@Z@std@@AAU_ThenImplOptions@details@1@@Z 1000e350 f i _nodert_generated.obj
 0001:0000d4a0       ??$?0P$AAU?$IAsyncOperation@P$AAU?$IVectorView@P$AAVRadio@Radios@Devices@Windows@@@Collections@Foundation@Windows@@@Foundation@Windows@@@?$task@P$AAU?$IVectorView@P$AAVRadio@Radios@Devices@Windows@@@Collections@Foundation@Windows@@@Concurrency@@QAE@P$AAU?$IAsyncOperation@P$AAU?$IVectorView@P$AAVRadio@Radios@Devices@Windows@@@Collections@Foundation@Windows@@@Foundation@Windows@@ABVtask_options@1@@Z 1000e4a0 f i _nodert_generated.obj
 0001:0000d640       ??$_ThenImpl@P$AAU?$IVectorView@P$AAVRadio@Radios@Devices@Windows@@@Collections@Foundation@Windows@@V?$function@$$A6AXV?$task@P$AAU?$IVectorView@P$AAVRadio@Radios@Devices@Windows@@@Collections@Foundation@Windows@@@Concurrency@@@Z@std@@@?$task@P$AAU?$IVectorView@P$AAVRadio@Radios@Devices@Windows@@@Collections@Foundation@Windows@@@Concurrency@@ABE?AV?$task@X@1@ABV?$function@$$A6AXV?$task@P$AAU?$IVectorView@P$AAVRadio@Radios@Devices@Windows@@@Collections@Foundation@Windows@@@Concurrency@@@Z@std@@AAU_ThenImplOptions@details@1@@Z 1000e640 f i _nodert_generated.obj
 0001:0000d790       ??$?0P$AAU?$IAsyncOperation@P$AAVRadio@Radios@Devices@Windows@@@Foundation@Windows@@@?$task@P$AAVRadio@Radios@Devices@Windows@@@Concurrency@@QAE@P$AAU?$IAsyncOperation@P$AAVRadio@Radios@Devices@Windows@@@Foundation@Windows@@ABVtask_options@1@@Z 1000e790 f i _nodert_generated.obj
 0001:0000d930       ??$_ThenImpl@P$AAVRadio@Radios@Devices@Windows@@V?$function@$$A6AXV?$task@P$AAVRadio@Radios@Devices@Windows@@@Concurrency@@@Z@std@@@?$task@P$AAVRadio@Radios@Devices@Windows@@@Concurrency@@ABE?AV?$task@X@1@ABV?$function@$$A6AXV?$task@P$AAVRadio@Radios@Devices@Windows@@@Concurrency@@@Z@std@@AAU_ThenImplOptions@details@1@@Z 1000e930 f i _nodert_generated.obj
 0001:0000da80       ??$make_exception_ptr@P$AAVException@Platform@@@std@@YA?AVexception_ptr@0@P$AAVException@Platform@@@Z 1000ea80 f i _nodert_generated.obj
 0001:0000dac0       ??_G?$_Ref_count_obj@U_ExceptionHolder@details@Concurrency@@@std@@UAEPAXI@Z 1000eac0 f i _nodert_generated.obj
 0001:0000dac0       ??_E?$_Ref_count_obj@U_ExceptionHolder@details@Concurrency@@@std@@UAEPAXI@Z 1000eac0 f i * CIL library *:* CIL module *
 0001:0000daf0       ??_G?$_Ref_count_obj@U?$_Task_impl@P$AAVRadio@Radios@Devices@Windows@@@details@Concurrency@@@std@@UAEPAXI@Z 1000eaf0 f i _nodert_generated.obj
 0001:0000daf0       ??_E?$_Ref_count_obj@U?$_Task_impl@P$AAVRadio@Radios@Devices@Windows@@@details@Concurrency@@@std@@UAEPAXI@Z 1000eaf0 f i * CIL library *:* CIL module *
 0001:0000daf0       ??_G?$_Ref_count_obj@U?$_Task_impl@W4RadioAccessStatus@Radios@Devices@Windows@@@details@Concurrency@@@std@@UAEPAXI@Z 1000eaf0 f i _nodert_generated.obj
 0001:0000daf0       ??_E?$_Ref_count_obj@U?$_Task_impl@W4RadioAccessStatus@Radios@Devices@Windows@@@details@Concurrency@@@std@@UAEPAXI@Z 1000eaf0 f i * CIL library *:* CIL module *
 0001:0000daf0       ??_E?$_Ref_count_obj@U?$_Task_impl@E@details@Concurrency@@@std@@UAEPAXI@Z 1000eaf0 f i * CIL library *:* CIL module *
 0001:0000daf0       ??_G?$_Ref_count_obj@U?$_Task_impl@E@details@Concurrency@@@std@@UAEPAXI@Z 1000eaf0 f i _nodert_generated.obj
 0001:0000db20       ?_Destroy@?$_Ref_count_del@V?$Persistent@VObject@v8@@V?$NonCopyablePersistentTraits@VObject@v8@@@2@@Nan@@V<lambda_b131c92a30a0c8f1df37bf42f562abce>@@@std@@EAEXXZ 1000eb20 f i _nodert_generated.obj
 0001:0000db40       ?_Get_deleter@?$_Ref_count_del@V?$Persistent@VObject@v8@@V?$NonCopyablePersistentTraits@VObject@v8@@@2@@Nan@@V<lambda_b131c92a30a0c8f1df37bf42f562abce>@@@std@@UBEPAXABVtype_info@@@Z 1000eb40 f i _nodert_generated.obj
 0001:0000db70       ?_GetTaskImplBase@?$_PPLTaskHandle@EU?$_ContinuationTaskHandle@W4RadioAccessStatus@Radios@Devices@Windows@@XV?$function@$$A6AXV?$task@W4RadioAccessStatus@Radios@Devices@Windows@@@Concurrency@@@Z@std@@U?$integral_constant@_N$00@6@U_TypeSelectorNoAsync@details@Concurrency@@@?$task@W4RadioAccessStatus@Radios@Devices@Windows@@@Concurrency@@U_ContinuationTaskHandleBase@details@3@@details@Concurrency@@UBE?AV?$shared_ptr@U_Task_impl_base@details@Concurrency@@@std@@XZ 1000eb70 f i _nodert_generated.obj
 0001:0000db70       ?_GetTaskImplBase@?$_PPLTaskHandle@EU?$_ContinuationTaskHandle@P$AAU?$IVectorView@P$AAVRadio@Radios@Devices@Windows@@@Collections@Foundation@Windows@@XV?$function@$$A6AXV?$task@P$AAU?$IVectorView@P$AAVRadio@Radios@Devices@Windows@@@Collections@Foundation@Windows@@@Concurrency@@@Z@std@@U?$integral_constant@_N$00@6@U_TypeSelectorNoAsync@details@Concurrency@@@?$task@P$AAU?$IVectorView@P$AAVRadio@Radios@Devices@Windows@@@Collections@Foundation@Windows@@@Concurrency@@U_ContinuationTaskHandleBase@details@3@@details@Concurrency@@UBE?AV?$shared_ptr@U_Task_impl_base@details@Concurrency@@@std@@XZ 1000eb70 f i _nodert_generated.obj
 0001:0000db70       ?_GetTaskImplBase@?$_PPLTaskHandle@EU?$_ContinuationTaskHandle@P$AAVRadio@Radios@Devices@Windows@@XV?$function@$$A6AXV?$task@P$AAVRadio@Radios@Devices@Windows@@@Concurrency@@@Z@std@@U?$integral_constant@_N$00@6@U_TypeSelectorNoAsync@details@Concurrency@@@?$task@P$AAVRadio@Radios@Devices@Windows@@@Concurrency@@U_ContinuationTaskHandleBase@details@3@@details@Concurrency@@UBE?AV?$shared_ptr@U_Task_impl_base@details@Concurrency@@@std@@XZ 1000eb70 f i _nodert_generated.obj
 0001:0000dbe0       ?invoke@?$_PPLTaskHandle@EU?$_ContinuationTaskHandle@P$AAVRadio@Radios@Devices@Windows@@XV?$function@$$A6AXV?$task@P$AAVRadio@Radios@Devices@Windows@@@Concurrency@@@Z@std@@U?$integral_constant@_N$00@6@U_TypeSelectorNoAsync@details@Concurrency@@@?$task@P$AAVRadio@Radios@Devices@Windows@@@Concurrency@@U_ContinuationTaskHandleBase@details@3@@details@Concurrency@@UBEXXZ 1000ebe0 f i _nodert_generated.obj
 0001:0000dca0       ??1?$_PPLTaskHandle@EU?$_ContinuationTaskHandle@P$AAVRadio@Radios@Devices@Windows@@XV?$function@$$A6AXV?$task@P$AAVRadio@Radios@Devices@Windows@@@Concurrency@@@Z@std@@U?$integral_constant@_N$00@6@U_TypeSelectorNoAsync@details@Concurrency@@@?$task@P$AAVRadio@Radios@Devices@Windows@@@Concurrency@@U_ContinuationTaskHandleBase@details@3@@details@Concurrency@@UAE@XZ 1000eca0 f i _nodert_generated.obj
 0001:0000dd40       ??1?$_ContinuationTaskHandle@P$AAVRadio@Radios@Devices@Windows@@XV?$function@$$A6AXV?$task@P$AAVRadio@Radios@Devices@Windows@@@Concurrency@@@Z@std@@U?$integral_constant@_N$00@6@U_TypeSelectorNoAsync@details@Concurrency@@@?$task@P$AAVRadio@Radios@Devices@Windows@@@Concurrency@@UAE@XZ 1000ed40 f i _nodert_generated.obj
 0001:0000de40       ??0?$_ContinuationTaskHandle@P$AAVRadio@Radios@Devices@Windows@@XV?$function@$$A6AXV?$task@P$AAVRadio@Radios@Devices@Windows@@@Concurrency@@@Z@std@@U?$integral_constant@_N$00@6@U_TypeSelectorNoAsync@details@Concurrency@@@?$task@P$AAVRadio@Radios@Devices@Windows@@@Concurrency@@QAE@ABV?$shared_ptr@U?$_Task_impl@P$AAVRadio@Radios@Devices@Windows@@@details@Concurrency@@@std@@ABV?$shared_ptr@U?$_Task_impl@E@details@Concurrency@@@4@ABV?$function@$$A6AXV?$task@P$AAVRadio@Radios@Devices@Windows@@@Concurrency@@@Z@4@ABVtask_continuation_context@2@W4_TaskInliningMode@details@2@@Z 1000ee40 f i _nodert_generated.obj
 0001:0000df90       ?invoke@?$_PPLTaskHandle@EU?$_ContinuationTaskHandle@P$AAU?$IVectorView@P$AAVRadio@Radios@Devices@Windows@@@Collections@Foundation@Windows@@XV?$function@$$A6AXV?$task@P$AAU?$IVectorView@P$AAVRadio@Radios@Devices@Windows@@@Collections@Foundation@Windows@@@Concurrency@@@Z@std@@U?$integral_constant@_N$00@6@U_TypeSelectorNoAsync@details@Concurrency@@@?$task@P$AAU?$IVectorView@P$AAVRadio@Radios@Devices@Windows@@@Collections@Foundation@Windows@@@Concurrency@@U_ContinuationTaskHandleBase@details@3@@details@Concurrency@@UBEXXZ 1000ef90 f i _nodert_generated.obj
 0001:0000e050       ??1?$_PPLTaskHandle@EU?$_ContinuationTaskHandle@P$AAU?$IVectorView@P$AAVRadio@Radios@Devices@Windows@@@Collections@Foundation@Windows@@XV?$function@$$A6AXV?$task@P$AAU?$IVectorView@P$AAVRadio@Radios@Devices@Windows@@@Collections@Foundation@Windows@@@Concurrency@@@Z@std@@U?$integral_constant@_N$00@6@U_TypeSelectorNoAsync@details@Concurrency@@@?$task@P$AAU?$IVectorView@P$AAVRadio@Radios@Devices@Windows@@@Collections@Foundation@Windows@@@Concurrency@@U_ContinuationTaskHandleBase@details@3@@details@Concurrency@@UAE@XZ 1000f050 f i _nodert_generated.obj
 0001:0000e0f0       ??1?$_ContinuationTaskHandle@P$AAU?$IVectorView@P$AAVRadio@Radios@Devices@Windows@@@Collections@Foundation@Windows@@XV?$function@$$A6AXV?$task@P$AAU?$IVectorView@P$AAVRadio@Radios@Devices@Windows@@@Collections@Foundation@Windows@@@Concurrency@@@Z@std@@U?$integral_constant@_N$00@6@U_TypeSelectorNoAsync@details@Concurrency@@@?$task@P$AAU?$IVectorView@P$AAVRadio@Radios@Devices@Windows@@@Collections@Foundation@Windows@@@Concurrency@@UAE@XZ 1000f0f0 f i _nodert_generated.obj
 0001:0000e1f0       ??0?$_ContinuationTaskHandle@P$AAU?$IVectorView@P$AAVRadio@Radios@Devices@Windows@@@Collections@Foundation@Windows@@XV?$function@$$A6AXV?$task@P$AAU?$IVectorView@P$AAVRadio@Radios@Devices@Windows@@@Collections@Foundation@Windows@@@Concurrency@@@Z@std@@U?$integral_constant@_N$00@6@U_TypeSelectorNoAsync@details@Concurrency@@@?$task@P$AAU?$IVectorView@P$AAVRadio@Radios@Devices@Windows@@@Collections@Foundation@Windows@@@Concurrency@@QAE@ABV?$shared_ptr@U?$_Task_impl@P$AAU?$IVectorView@P$AAVRadio@Radios@Devices@Windows@@@Collections@Foundation@Windows@@@details@Concurrency@@@std@@ABV?$shared_ptr@U?$_Task_impl@E@details@Concurrency@@@4@ABV?$function@$$A6AXV?$task@P$AAU?$IVectorView@P$AAVRadio@Radios@Devices@Windows@@@Collections@Foundation@Windows@@@Concurrency@@@Z@4@ABVtask_continuation_context@2@W4_TaskInliningMode@details@2@@Z 1000f1f0 f i _nodert_generated.obj
 0001:0000e340       ?invoke@?$_PPLTaskHandle@EU?$_ContinuationTaskHandle@W4RadioAccessStatus@Radios@Devices@Windows@@XV?$function@$$A6AXV?$task@W4RadioAccessStatus@Radios@Devices@Windows@@@Concurrency@@@Z@std@@U?$integral_constant@_N$00@6@U_TypeSelectorNoAsync@details@Concurrency@@@?$task@W4RadioAccessStatus@Radios@Devices@Windows@@@Concurrency@@U_ContinuationTaskHandleBase@details@3@@details@Concurrency@@UBEXXZ 1000f340 f i _nodert_generated.obj
 0001:0000e400       ??1?$_PPLTaskHandle@EU?$_ContinuationTaskHandle@W4RadioAccessStatus@Radios@Devices@Windows@@XV?$function@$$A6AXV?$task@W4RadioAccessStatus@Radios@Devices@Windows@@@Concurrency@@@Z@std@@U?$integral_constant@_N$00@6@U_TypeSelectorNoAsync@details@Concurrency@@@?$task@W4RadioAccessStatus@Radios@Devices@Windows@@@Concurrency@@U_ContinuationTaskHandleBase@details@3@@details@Concurrency@@UAE@XZ 1000f400 f i _nodert_generated.obj
 0001:0000e4a0       ??1?$_ContinuationTaskHandle@W4RadioAccessStatus@Radios@Devices@Windows@@XV?$function@$$A6AXV?$task@W4RadioAccessStatus@Radios@Devices@Windows@@@Concurrency@@@Z@std@@U?$integral_constant@_N$00@6@U_TypeSelectorNoAsync@details@Concurrency@@@?$task@W4RadioAccessStatus@Radios@Devices@Windows@@@Concurrency@@UAE@XZ 1000f4a0 f i _nodert_generated.obj
 0001:0000e590       ??0?$_ContinuationTaskHandle@W4RadioAccessStatus@Radios@Devices@Windows@@XV?$function@$$A6AXV?$task@W4RadioAccessStatus@Radios@Devices@Windows@@@Concurrency@@@Z@std@@U?$integral_constant@_N$00@6@U_TypeSelectorNoAsync@details@Concurrency@@@?$task@W4RadioAccessStatus@Radios@Devices@Windows@@@Concurrency@@QAE@ABV?$shared_ptr@U?$_Task_impl@W4RadioAccessStatus@Radios@Devices@Windows@@@details@Concurrency@@@std@@ABV?$shared_ptr@U?$_Task_impl@E@details@Concurrency@@@4@ABV?$function@$$A6AXV?$task@W4RadioAccessStatus@Radios@Devices@Windows@@@Concurrency@@@Z@4@ABVtask_continuation_context@2@W4_TaskInliningMode@details@2@@Z 1000f590 f i _nodert_generated.obj
 0001:0000e6c0       ?_CreateImpl@?$task@P$AAVRadio@Radios@Devices@Windows@@@Concurrency@@QAEXPAV_CancellationTokenState@details@2@Uscheduler_ptr@2@@Z 1000f6c0 f i _nodert_generated.obj
 0001:0000e860       ?_CreateImpl@?$task@P$AAU?$IVectorView@P$AAVRadio@Radios@Devices@Windows@@@Collections@Foundation@Windows@@@Concurrency@@QAEXPAV_CancellationTokenState@details@2@Uscheduler_ptr@2@@Z 1000f860 f i _nodert_generated.obj
 0001:0000ea00       ?_CreateImpl@?$task@W4RadioAccessStatus@Radios@Devices@Windows@@@Concurrency@@QAEXPAV_CancellationTokenState@details@2@Uscheduler_ptr@2@@Z 1000fa00 f i _nodert_generated.obj
 0001:0000eba0       ??0?$_Task_impl@E@details@Concurrency@@QAE@PAV_CancellationTokenState@12@Uscheduler_ptr@2@@Z 1000fba0 f i _nodert_generated.obj
 0001:0000ec60       ?_Reset@?$_Ptr_base@U_Task_impl_base@details@Concurrency@@@std@@QAEXPAU_Task_impl_base@details@Concurrency@@PAV_Ref_count_base@2@_N@Z 1000fc60 f i _nodert_generated.obj
 0001:0000ece0       ??_G?$_Ref_count_del@V?$Persistent@VObject@v8@@V?$NonCopyablePersistentTraits@VObject@v8@@@2@@Nan@@V<lambda_b131c92a30a0c8f1df37bf42f562abce>@@@std@@UAEPAXI@Z 1000fce0 f i _nodert_generated.obj
 0001:0000ece0       ??_E?$_Ref_count_del@V?$Persistent@VObject@v8@@V?$NonCopyablePersistentTraits@VObject@v8@@@2@@Nan@@V<lambda_b131c92a30a0c8f1df37bf42f562abce>@@@std@@UAEPAXI@Z 1000fce0 f i * CIL library *:* CIL module *
 0001:0000ed10       ??_E?$_PPLTaskHandle@EU?$_ContinuationTaskHandle@P$AAVRadio@Radios@Devices@Windows@@XV?$function@$$A6AXV?$task@P$AAVRadio@Radios@Devices@Windows@@@Concurrency@@@Z@std@@U?$integral_constant@_N$00@6@U_TypeSelectorNoAsync@details@Concurrency@@@?$task@P$AAVRadio@Radios@Devices@Windows@@@Concurrency@@U_ContinuationTaskHandleBase@details@3@@details@Concurrency@@UAEPAXI@Z 1000fd10 f i * CIL library *:* CIL module *
 0001:0000ed10       ??_G?$_PPLTaskHandle@EU?$_ContinuationTaskHandle@P$AAVRadio@Radios@Devices@Windows@@XV?$function@$$A6AXV?$task@P$AAVRadio@Radios@Devices@Windows@@@Concurrency@@@Z@std@@U?$integral_constant@_N$00@6@U_TypeSelectorNoAsync@details@Concurrency@@@?$task@P$AAVRadio@Radios@Devices@Windows@@@Concurrency@@U_ContinuationTaskHandleBase@details@3@@details@Concurrency@@UAEPAXI@Z 1000fd10 f i _nodert_generated.obj
 0001:0000edc0       ??_G?$_ContinuationTaskHandle@P$AAVRadio@Radios@Devices@Windows@@XV?$function@$$A6AXV?$task@P$AAVRadio@Radios@Devices@Windows@@@Concurrency@@@Z@std@@U?$integral_constant@_N$00@6@U_TypeSelectorNoAsync@details@Concurrency@@@?$task@P$AAVRadio@Radios@Devices@Windows@@@Concurrency@@UAEPAXI@Z 1000fdc0 f i _nodert_generated.obj
 0001:0000edc0       ??_E?$_ContinuationTaskHandle@P$AAVRadio@Radios@Devices@Windows@@XV?$function@$$A6AXV?$task@P$AAVRadio@Radios@Devices@Windows@@@Concurrency@@@Z@std@@U?$integral_constant@_N$00@6@U_TypeSelectorNoAsync@details@Concurrency@@@?$task@P$AAVRadio@Radios@Devices@Windows@@@Concurrency@@UAEPAXI@Z 1000fdc0 f i * CIL library *:* CIL module *
 0001:0000ede0       ??_E?$_PPLTaskHandle@EU?$_ContinuationTaskHandle@P$AAU?$IVectorView@P$AAVRadio@Radios@Devices@Windows@@@Collections@Foundation@Windows@@XV?$function@$$A6AXV?$task@P$AAU?$IVectorView@P$AAVRadio@Radios@Devices@Windows@@@Collections@Foundation@Windows@@@Concurrency@@@Z@std@@U?$integral_constant@_N$00@6@U_TypeSelectorNoAsync@details@Concurrency@@@?$task@P$AAU?$IVectorView@P$AAVRadio@Radios@Devices@Windows@@@Collections@Foundation@Windows@@@Concurrency@@U_ContinuationTaskHandleBase@details@3@@details@Concurrency@@UAEPAXI@Z 1000fde0 f i * CIL library *:* CIL module *
 0001:0000ede0       ??_G?$_PPLTaskHandle@EU?$_ContinuationTaskHandle@P$AAU?$IVectorView@P$AAVRadio@Radios@Devices@Windows@@@Collections@Foundation@Windows@@XV?$function@$$A6AXV?$task@P$AAU?$IVectorView@P$AAVRadio@Radios@Devices@Windows@@@Collections@Foundation@Windows@@@Concurrency@@@Z@std@@U?$integral_constant@_N$00@6@U_TypeSelectorNoAsync@details@Concurrency@@@?$task@P$AAU?$IVectorView@P$AAVRadio@Radios@Devices@Windows@@@Collections@Foundation@Windows@@@Concurrency@@U_ContinuationTaskHandleBase@details@3@@details@Concurrency@@UAEPAXI@Z 1000fde0 f i _nodert_generated.obj
 0001:0000ee90       ??_E?$_ContinuationTaskHandle@P$AAU?$IVectorView@P$AAVRadio@Radios@Devices@Windows@@@Collections@Foundation@Windows@@XV?$function@$$A6AXV?$task@P$AAU?$IVectorView@P$AAVRadio@Radios@Devices@Windows@@@Collections@Foundation@Windows@@@Concurrency@@@Z@std@@U?$integral_constant@_N$00@6@U_TypeSelectorNoAsync@details@Concurrency@@@?$task@P$AAU?$IVectorView@P$AAVRadio@Radios@Devices@Windows@@@Collections@Foundation@Windows@@@Concurrency@@UAEPAXI@Z 1000fe90 f i * CIL library *:* CIL module *
 0001:0000ee90       ??_G?$_ContinuationTaskHandle@P$AAU?$IVectorView@P$AAVRadio@Radios@Devices@Windows@@@Collections@Foundation@Windows@@XV?$function@$$A6AXV?$task@P$AAU?$IVectorView@P$AAVRadio@Radios@Devices@Windows@@@Collections@Foundation@Windows@@@Concurrency@@@Z@std@@U?$integral_constant@_N$00@6@U_TypeSelectorNoAsync@details@Concurrency@@@?$task@P$AAU?$IVectorView@P$AAVRadio@Radios@Devices@Windows@@@Collections@Foundation@Windows@@@Concurrency@@UAEPAXI@Z 1000fe90 f i _nodert_generated.obj
 0001:0000eeb0       ??_E?$_PPLTaskHandle@EU?$_ContinuationTaskHandle@W4RadioAccessStatus@Radios@Devices@Windows@@XV?$function@$$A6AXV?$task@W4RadioAccessStatus@Radios@Devices@Windows@@@Concurrency@@@Z@std@@U?$integral_constant@_N$00@6@U_TypeSelectorNoAsync@details@Concurrency@@@?$task@W4RadioAccessStatus@Radios@Devices@Windows@@@Concurrency@@U_ContinuationTaskHandleBase@details@3@@details@Concurrency@@UAEPAXI@Z 1000feb0 f i * CIL library *:* CIL module *
 0001:0000eeb0       ??_G?$_PPLTaskHandle@EU?$_ContinuationTaskHandle@W4RadioAccessStatus@Radios@Devices@Windows@@XV?$function@$$A6AXV?$task@W4RadioAccessStatus@Radios@Devices@Windows@@@Concurrency@@@Z@std@@U?$integral_constant@_N$00@6@U_TypeSelectorNoAsync@details@Concurrency@@@?$task@W4RadioAccessStatus@Radios@Devices@Windows@@@Concurrency@@U_ContinuationTaskHandleBase@details@3@@details@Concurrency@@UAEPAXI@Z 1000feb0 f i _nodert_generated.obj
 0001:0000ef60       ??_G?$_ContinuationTaskHandle@W4RadioAccessStatus@Radios@Devices@Windows@@XV?$function@$$A6AXV?$task@W4RadioAccessStatus@Radios@Devices@Windows@@@Concurrency@@@Z@std@@U?$integral_constant@_N$00@6@U_TypeSelectorNoAsync@details@Concurrency@@@?$task@W4RadioAccessStatus@Radios@Devices@Windows@@@Concurrency@@UAEPAXI@Z 1000ff60 f i _nodert_generated.obj
 0001:0000ef60       ??_E?$_ContinuationTaskHandle@W4RadioAccessStatus@Radios@Devices@Windows@@XV?$function@$$A6AXV?$task@W4RadioAccessStatus@Radios@Devices@Windows@@@Concurrency@@@Z@std@@U?$integral_constant@_N$00@6@U_TypeSelectorNoAsync@details@Concurrency@@@?$task@W4RadioAccessStatus@Radios@Devices@Windows@@@Concurrency@@UAEPAXI@Z 1000ff60 f i * CIL library *:* CIL module *
 0001:0000ef80       ??0?$_PPLTaskHandle@EU?$_ContinuationTaskHandle@P$AAVRadio@Radios@Devices@Windows@@XV?$function@$$A6AXV?$task@P$AAVRadio@Radios@Devices@Windows@@@Concurrency@@@Z@std@@U?$integral_constant@_N$00@6@U_TypeSelectorNoAsync@details@Concurrency@@@?$task@P$AAVRadio@Radios@Devices@Windows@@@Concurrency@@U_ContinuationTaskHandleBase@details@3@@details@Concurrency@@QAE@ABV?$shared_ptr@U?$_Task_impl@E@details@Concurrency@@@std@@@Z 1000ff80 f i _nodert_generated.obj
 0001:0000f050       ??0?$_PPLTaskHandle@EU?$_ContinuationTaskHandle@P$AAU?$IVectorView@P$AAVRadio@Radios@Devices@Windows@@@Collections@Foundation@Windows@@XV?$function@$$A6AXV?$task@P$AAU?$IVectorView@P$AAVRadio@Radios@Devices@Windows@@@Collections@Foundation@Windows@@@Concurrency@@@Z@std@@U?$integral_constant@_N$00@6@U_TypeSelectorNoAsync@details@Concurrency@@@?$task@P$AAU?$IVectorView@P$AAVRadio@Radios@Devices@Windows@@@Collections@Foundation@Windows@@@Concurrency@@U_ContinuationTaskHandleBase@details@3@@details@Concurrency@@QAE@ABV?$shared_ptr@U?$_Task_impl@E@details@Concurrency@@@std@@@Z 10010050 f i _nodert_generated.obj
 0001:0000f120       ??0?$_PPLTaskHandle@EU?$_ContinuationTaskHandle@W4RadioAccessStatus@Radios@Devices@Windows@@XV?$function@$$A6AXV?$task@W4RadioAccessStatus@Radios@Devices@Windows@@@Concurrency@@@Z@std@@U?$integral_constant@_N$00@6@U_TypeSelectorNoAsync@details@Concurrency@@@?$task@W4RadioAccessStatus@Radios@Devices@Windows@@@Concurrency@@U_ContinuationTaskHandleBase@details@3@@details@Concurrency@@QAE@ABV?$shared_ptr@U?$_Task_impl@E@details@Concurrency@@@std@@@Z 10010120 f i _nodert_generated.obj
 0001:0000f1f0       ?_Make@?$_Task_ptr@P$AAVRadio@Radios@Devices@Windows@@@details@Concurrency@@SA?AV?$shared_ptr@U?$_Task_impl@P$AAVRadio@Radios@Devices@Windows@@@details@Concurrency@@@std@@PAV_CancellationTokenState@23@Uscheduler_ptr@3@@Z 100101f0 f i _nodert_generated.obj
 0001:0000f280       ?_Make@?$_Task_ptr@P$AAU?$IVectorView@P$AAVRadio@Radios@Devices@Windows@@@Collections@Foundation@Windows@@@details@Concurrency@@SA?AV?$shared_ptr@U?$_Task_impl@P$AAU?$IVectorView@P$AAVRadio@Radios@Devices@Windows@@@Collections@Foundation@Windows@@@details@Concurrency@@@std@@PAV_CancellationTokenState@23@Uscheduler_ptr@3@@Z 10010280 f i _nodert_generated.obj
 0001:0000f310       ?_Make@?$_Task_ptr@W4RadioAccessStatus@Radios@Devices@Windows@@@details@Concurrency@@SA?AV?$shared_ptr@U?$_Task_impl@W4RadioAccessStatus@Radios@Devices@Windows@@@details@Concurrency@@@std@@PAV_CancellationTokenState@23@Uscheduler_ptr@3@@Z 10010310 f i _nodert_generated.obj
 0001:0000f3a0       ?_Continue@?$_ContinuationTaskHandle@P$AAVRadio@Radios@Devices@Windows@@XV?$function@$$A6AXV?$task@P$AAVRadio@Radios@Devices@Windows@@@Concurrency@@@Z@std@@U?$integral_constant@_N$00@6@U_TypeSelectorNoAsync@details@Concurrency@@@?$task@P$AAVRadio@Radios@Devices@Windows@@@Concurrency@@QBEXU?$integral_constant@_N$00@std@@U_TypeSelectorNoAsync@details@3@@Z 100103a0 f i _nodert_generated.obj
 0001:0000f4e0       ?_Continue@?$_ContinuationTaskHandle@P$AAU?$IVectorView@P$AAVRadio@Radios@Devices@Windows@@@Collections@Foundation@Windows@@XV?$function@$$A6AXV?$task@P$AAU?$IVectorView@P$AAVRadio@Radios@Devices@Windows@@@Collections@Foundation@Windows@@@Concurrency@@@Z@std@@U?$integral_constant@_N$00@6@U_TypeSelectorNoAsync@details@Concurrency@@@?$task@P$AAU?$IVectorView@P$AAVRadio@Radios@Devices@Windows@@@Collections@Foundation@Windows@@@Concurrency@@QBEXU?$integral_constant@_N$00@std@@U_TypeSelectorNoAsync@details@3@@Z 100104e0 f i _nodert_generated.obj
 0001:0000f620       ?_Continue@?$_ContinuationTaskHandle@W4RadioAccessStatus@Radios@Devices@Windows@@XV?$function@$$A6AXV?$task@W4RadioAccessStatus@Radios@Devices@Windows@@@Concurrency@@@Z@std@@U?$integral_constant@_N$00@6@U_TypeSelectorNoAsync@details@Concurrency@@@?$task@W4RadioAccessStatus@Radios@Devices@Windows@@@Concurrency@@QBEXU?$integral_constant@_N$00@std@@U_TypeSelectorNoAsync@details@3@@Z 10010620 f i _nodert_generated.obj
 0001:0000f770       ??1?$function@$$A6AEV?$task@W4RadioAccessStatus@Radios@Devices@Windows@@@Concurrency@@@Z@std@@QAE@XZ 10010770 f i _nodert_generated.obj
 0001:0000f770       ??1?$_Func_class@EV?$task@W4RadioAccessStatus@Radios@Devices@Windows@@@Concurrency@@@std@@QAE@XZ 10010770 f i _nodert_generated.obj
 0001:0000f7c0       ?_Perform@?$_Continuation_func_transformer@V?$task@W4RadioAccessStatus@Radios@Devices@Windows@@@Concurrency@@X@Concurrency@@SA?AV?$function@$$A6AEV?$task@W4RadioAccessStatus@Radios@Devices@Windows@@@Concurrency@@@Z@std@@V?$function@$$A6AXV?$task@W4RadioAccessStatus@Radios@Devices@Windows@@@Concurrency@@@Z@4@@Z 100107c0 f i _nodert_generated.obj
 0001:0000f840       ??1?$_Func_class@EV?$task@P$AAU?$IVectorView@P$AAVRadio@Radios@Devices@Windows@@@Collections@Foundation@Windows@@@Concurrency@@@std@@QAE@XZ 10010840 f i _nodert_generated.obj
 0001:0000f840       ??1?$function@$$A6AEV?$task@P$AAU?$IVectorView@P$AAVRadio@Radios@Devices@Windows@@@Collections@Foundation@Windows@@@Concurrency@@@Z@std@@QAE@XZ 10010840 f i _nodert_generated.obj
 0001:0000f870       ?_Perform@?$_Continuation_func_transformer@V?$task@P$AAU?$IVectorView@P$AAVRadio@Radios@Devices@Windows@@@Collections@Foundation@Windows@@@Concurrency@@X@Concurrency@@SA?AV?$function@$$A6AEV?$task@P$AAU?$IVectorView@P$AAVRadio@Radios@Devices@Windows@@@Collections@Foundation@Windows@@@Concurrency@@@Z@std@@V?$function@$$A6AXV?$task@P$AAU?$IVectorView@P$AAVRadio@Radios@Devices@Windows@@@Collections@Foundation@Windows@@@Concurrency@@@Z@4@@Z 10010870 f i _nodert_generated.obj
 0001:0000f920       ??1?$_Func_class@EV?$task@P$AAVRadio@Radios@Devices@Windows@@@Concurrency@@@std@@QAE@XZ 10010920 f i _nodert_generated.obj
 0001:0000f920       ??1?$function@$$A6AEV?$task@P$AAVRadio@Radios@Devices@Windows@@@Concurrency@@@Z@std@@QAE@XZ 10010920 f i _nodert_generated.obj
 0001:0000f950       ?_Perform@?$_Continuation_func_transformer@V?$task@P$AAVRadio@Radios@Devices@Windows@@@Concurrency@@X@Concurrency@@SA?AV?$function@$$A6AEV?$task@P$AAVRadio@Radios@Devices@Windows@@@Concurrency@@@Z@std@@V?$function@$$A6AXV?$task@P$AAVRadio@Radios@Devices@Windows@@@Concurrency@@@Z@4@@Z 10010950 f i _nodert_generated.obj
 0001:0000fa00       ??$make_shared@U?$_Task_impl@P$AAVRadio@Radios@Devices@Windows@@@details@Concurrency@@AAPAV_CancellationTokenState@23@AAUscheduler_ptr@3@@std@@YA?AV?$shared_ptr@U?$_Task_impl@P$AAVRadio@Radios@Devices@Windows@@@details@Concurrency@@@0@AAPAV_CancellationTokenState@details@Concurrency@@AAUscheduler_ptr@4@@Z 10010a00 f i _nodert_generated.obj
 0001:0000faa0       ??$make_shared@U?$_Task_impl@P$AAU?$IVectorView@P$AAVRadio@Radios@Devices@Windows@@@Collections@Foundation@Windows@@@details@Concurrency@@AAPAV_CancellationTokenState@23@AAUscheduler_ptr@3@@std@@YA?AV?$shared_ptr@U?$_Task_impl@P$AAU?$IVectorView@P$AAVRadio@Radios@Devices@Windows@@@Collections@Foundation@Windows@@@details@Concurrency@@@0@AAPAV_CancellationTokenState@details@Concurrency@@AAUscheduler_ptr@4@@Z 10010aa0 f i _nodert_generated.obj
 0001:0000fb40       ??$make_shared@U?$_Task_impl@W4RadioAccessStatus@Radios@Devices@Windows@@@details@Concurrency@@AAPAV_CancellationTokenState@23@AAUscheduler_ptr@3@@std@@YA?AV?$shared_ptr@U?$_Task_impl@W4RadioAccessStatus@Radios@Devices@Windows@@@details@Concurrency@@@0@AAPAV_CancellationTokenState@details@Concurrency@@AAUscheduler_ptr@4@@Z 10010b40 f i _nodert_generated.obj
 0001:0000fbe0       ??$_MakeTToUnitFunc@V?$task@P$AAVRadio@Radios@Devices@Windows@@@Concurrency@@@details@Concurrency@@YA?AV?$function@$$A6AEV?$task@P$AAVRadio@Radios@Devices@Windows@@@Concurrency@@@Z@std@@ABV?$function@$$A6AXV?$task@P$AAVRadio@Radios@Devices@Windows@@@Concurrency@@@Z@3@@Z 10010be0 f i _nodert_generated.obj
 0001:0000fd60       ??$_MakeTToUnitFunc@V?$task@P$AAU?$IVectorView@P$AAVRadio@Radios@Devices@Windows@@@Collections@Foundation@Windows@@@Concurrency@@@details@Concurrency@@YA?AV?$function@$$A6AEV?$task@P$AAU?$IVectorView@P$AAVRadio@Radios@Devices@Windows@@@Collections@Foundation@Windows@@@Concurrency@@@Z@std@@ABV?$function@$$A6AXV?$task@P$AAU?$IVectorView@P$AAVRadio@Radios@Devices@Windows@@@Collections@Foundation@Windows@@@Concurrency@@@Z@3@@Z 10010d60 f i _nodert_generated.obj
 0001:0000fe00       ??$_MakeTToUnitFunc@V?$task@W4RadioAccessStatus@Radios@Devices@Windows@@@Concurrency@@@details@Concurrency@@YA?AV?$function@$$A6AEV?$task@W4RadioAccessStatus@Radios@Devices@Windows@@@Concurrency@@@Z@std@@ABV?$function@$$A6AXV?$task@W4RadioAccessStatus@Radios@Devices@Windows@@@Concurrency@@@Z@3@@Z 10010e00 f i _nodert_generated.obj
 0001:000100a0       ?_Delete_this@?$_Func_impl@V<lambda_e5cd2abdf1428fe462fe99badc249452>@@V?$allocator@H@std@@X$$V@std@@EAEX_N@Z 100110a0 f i _nodert_generated.obj
 0001:000100a0       ?_Delete_this@?$_Func_impl@V<lambda_2115abd8794008df6b65a528e9ce87dd>@@V?$allocator@H@std@@X$$V@std@@EAEX_N@Z 100110a0 f i _nodert_generated.obj
 0001:000100a0       ?_Delete_this@?$_Func_impl@V<lambda_aab2ebd78256abe6d7eb9e9ef0ce6177>@@V?$allocator@H@std@@X$$V@std@@EAEX_N@Z 100110a0 f i _nodert_generated.obj
 0001:000100a0       ?_Delete_this@?$_Func_impl@V<lambda_0456396a71e3abd88ede77bdd2823d8e>@@V?$allocator@H@std@@X$$V@std@@EAEX_N@Z 100110a0 f i _nodert_generated.obj
 0001:000100a0       ?_Delete_this@?$_Func_impl@V<lambda_9424168985048637711009d87425da23>@@V?$allocator@H@std@@X$$V@std@@EAEX_N@Z 100110a0 f i _nodert_generated.obj
 0001:000100a0       ?_Delete_this@?$_Func_impl@V<lambda_ec696d6df7687b7d7482072b028188ef>@@V?$allocator@H@std@@X$$V@std@@EAEX_N@Z 100110a0 f i _nodert_generated.obj
 0001:000100c0       ?_Get@?$_Func_impl@V<lambda_0fb43142ddbb33ec4e8b38dc9cda485a>@@V?$allocator@H@std@@XV?$function@$$A6AXHPAV?$Local@VValue@v8@@@v8@@@Z@3@@std@@EBEPBXXZ 100110c0 f i _nodert_generated.obj
 0001:000100c0       ?_Get@?$_Func_impl@V<lambda_5e5ab22ea98f4361dbf159481d01f54d>@@V?$allocator@H@std@@X$$V@std@@EBEPBXXZ 100110c0 f i _nodert_generated.obj
 0001:000100c0       ?_Get@?$_Func_impl@V<lambda_c3befff5426f7ddaa4e03d53f00d3a42>@@V?$allocator@H@std@@XV?$function@$$A6AXHPAV?$Local@VValue@v8@@@v8@@@Z@3@@std@@EBEPBXXZ 100110c0 f i _nodert_generated.obj
 0001:000100c0       ?_Get@?$_Func_impl@V<lambda_9424168985048637711009d87425da23>@@V?$allocator@H@std@@X$$V@std@@EBEPBXXZ 100110c0 f i _nodert_generated.obj
 0001:000100c0       ?_Get@?$_Func_impl@V<lambda_3e6a614902430e1d627bb2376f9fa385>@@V?$allocator@H@std@@V?$Local@VValue@v8@@@v8@@P$AAVRadio@Radios@Devices@Windows@@@std@@EBEPBXXZ 100110c0 f i _nodert_generated.obj
 0001:000100c0       ?_Get@?$_Func_impl@V<lambda_fa83efc75490756721b16c8797d488d3>@@V?$allocator@H@std@@XV?$function@$$A6AXHPAV?$Local@VValue@v8@@@v8@@@Z@3@@std@@EBEPBXXZ 100110c0 f i _nodert_generated.obj
 0001:000100c0       ?_Get@?$_Func_impl@V<lambda_ce7ee830788d0d86ae4c2908836cc097>@@V?$allocator@H@std@@P$AAVRadio@Radios@Devices@Windows@@V?$Local@VValue@v8@@@v8@@@std@@EBEPBXXZ 100110c0 f i _nodert_generated.obj
 0001:000100c0       ?_Get@?$_Func_impl@V<lambda_9eef212b7bb2525a1146c82a12593753>@@V?$allocator@H@std@@XV?$task@W4RadioAccessStatus@Radios@Devices@Windows@@@Concurrency@@@std@@EBEPBXXZ 100110c0 f i _nodert_generated.obj
 0001:000100c0       ?_Get@?$_Func_impl@V<lambda_2115abd8794008df6b65a528e9ce87dd>@@V?$allocator@H@std@@X$$V@std@@EBEPBXXZ 100110c0 f i _nodert_generated.obj
 0001:000100c0       ?_Get@?$_Func_impl@V<lambda_e5cd2abdf1428fe462fe99badc249452>@@V?$allocator@H@std@@X$$V@std@@EBEPBXXZ 100110c0 f i _nodert_generated.obj
 0001:000100c0       ?_Get@?$_Func_impl@V<lambda_aab2ebd78256abe6d7eb9e9ef0ce6177>@@V?$allocator@H@std@@X$$V@std@@EBEPBXXZ 100110c0 f i _nodert_generated.obj
 0001:000100c0       ?_Get@?$_Func_impl@V<lambda_2ba0bef8cbfba8f1d7cf652ae95a0f98>@@V?$allocator@H@std@@XV?$task@P$AAVRadio@Radios@Devices@Windows@@@Concurrency@@@std@@EBEPBXXZ 100110c0 f i _nodert_generated.obj
 0001:000100c0       ?_Get@?$_Func_impl@V<lambda_a1381f9626a8165312049276d1590ea7>@@V?$allocator@H@std@@XV?$task@P$AAU?$IVectorView@P$AAVRadio@Radios@Devices@Windows@@@Collections@Foundation@Windows@@@Concurrency@@@std@@EBEPBXXZ 100110c0 f i _nodert_generated.obj
 0001:000100c0       ?_Get@?$_Func_impl@V<lambda_a114a708d63a441febc5f755bac609dc>@@V?$allocator@H@std@@XV?$function@$$A6AXHPAV?$Local@VValue@v8@@@v8@@@Z@3@@std@@EBEPBXXZ 100110c0 f i _nodert_generated.obj
 0001:000100c0       ?_Get@?$_Func_impl@V<lambda_ae54f703fcaa92a2870449d47fe035a7>@@V?$allocator@H@std@@XV?$task@W4RadioAccessStatus@Radios@Devices@Windows@@@Concurrency@@@std@@EBEPBXXZ 100110c0 f i _nodert_generated.obj
 0001:000100c0       ?_Get@?$_Func_impl@V<lambda_35b15a041fdff25694358386f486c371>@@V?$allocator@H@std@@X$$V@std@@EBEPBXXZ 100110c0 f i _nodert_generated.obj
 0001:000100c0       ?_Get@?$_Func_impl@V<lambda_d9306928c1bd470a6e42b27630d148ed>@@V?$allocator@H@std@@X$$V@std@@EBEPBXXZ 100110c0 f i _nodert_generated.obj
 0001:000100c0       ?_Get@?$_Func_impl@V<lambda_0532bc16f263f6a2ba7cd1d0d3d2a0cd>@@V?$allocator@H@std@@XV?$function@$$A6AXHPAV?$Local@VValue@v8@@@v8@@@Z@3@@std@@EBEPBXXZ 100110c0 f i _nodert_generated.obj
 0001:000100c0       ?_Get@?$_Func_impl@V<lambda_938fa980b0b5f876be0458d9a1d6acb0>@@V?$allocator@H@std@@XHPAV?$Local@VValue@v8@@@v8@@@std@@EBEPBXXZ 100110c0 f i _nodert_generated.obj
 0001:000100c0       ?_Get@?$_Func_impl@V<lambda_ec396201b7e4f2b701f72af9664eb55a>@@V?$allocator@H@std@@X$$V@std@@EBEPBXXZ 100110c0 f i _nodert_generated.obj
 0001:000100c0       ?_Get@?$_Func_impl@V<lambda_0456396a71e3abd88ede77bdd2823d8e>@@V?$allocator@H@std@@X$$V@std@@EBEPBXXZ 100110c0 f i _nodert_generated.obj
 0001:000100c0       ?_Get@?$_Func_impl@V<lambda_55912aef2455062065036d52cc631bbd>@@V?$allocator@H@std@@XV?$function@$$A6AXHPAV?$Local@VValue@v8@@@v8@@@Z@3@@std@@EBEPBXXZ 100110c0 f i _nodert_generated.obj
 0001:000100c0       ?_Get@?$_Func_impl@V<lambda_f08ec446ca8b33299a4e48e3172e9b8c>@@V?$allocator@H@std@@X$$V@std@@EBEPBXXZ 100110c0 f i _nodert_generated.obj
 0001:000100c0       ?_Get@?$_Func_impl@V<lambda_e0dbd117428a5d4905794ac0bcda5e4e>@@V?$allocator@H@std@@_NV?$Local@VValue@v8@@@v8@@@std@@EBEPBXXZ 100110c0 f i _nodert_generated.obj
 0001:000100c0       ?_Get@?$_Func_impl@V<lambda_0ba1884422591f985dd5dd2788d28634>@@V?$allocator@H@std@@XV?$function@$$A6AXHPAV?$Local@VValue@v8@@@v8@@@Z@3@@std@@EBEPBXXZ 100110c0 f i _nodert_generated.obj
 0001:000100c0       ?_Get@?$_Func_impl@V<lambda_ec696d6df7687b7d7482072b028188ef>@@V?$allocator@H@std@@X$$V@std@@EBEPBXXZ 100110c0 f i _nodert_generated.obj
 0001:000100c0       ?_Get@?$_Func_impl@V<lambda_bf7f2b711a6b55b30dfb35db79500e56>@@V?$allocator@H@std@@_NV?$Local@VValue@v8@@@v8@@@std@@EBEPBXXZ 100110c0 f i _nodert_generated.obj
 0001:000100c0       ?_Get@?$_Func_impl@V<lambda_caefe64cc4a3c37b2308a74735f93772>@@V?$allocator@H@std@@XV?$function@$$A6AXHPAV?$Local@VValue@v8@@@v8@@@Z@3@@std@@EBEPBXXZ 100110c0 f i _nodert_generated.obj
 0001:000100d0       ?_Target_type@?$_Func_impl@V<lambda_9424168985048637711009d87425da23>@@V?$allocator@H@std@@X$$V@std@@EBEABVtype_info@@XZ 100110d0 f i _nodert_generated.obj
 0001:000100e0       ?_Do_call@?$_Func_impl@V<lambda_2115abd8794008df6b65a528e9ce87dd>@@V?$allocator@H@std@@X$$V@std@@EAEXXZ 100110e0 f i _nodert_generated.obj
 0001:000100e0       ?_Do_call@?$_Func_impl@V<lambda_e5cd2abdf1428fe462fe99badc249452>@@V?$allocator@H@std@@X$$V@std@@EAEXXZ 100110e0 f i _nodert_generated.obj
 0001:000100e0       ?_Do_call@?$_Func_impl@V<lambda_0456396a71e3abd88ede77bdd2823d8e>@@V?$allocator@H@std@@X$$V@std@@EAEXXZ 100110e0 f i _nodert_generated.obj
 0001:000100e0       ?_Do_call@?$_Func_impl@V<lambda_9424168985048637711009d87425da23>@@V?$allocator@H@std@@X$$V@std@@EAEXXZ 100110e0 f i _nodert_generated.obj
 0001:000100f0       ?_Copy@?$_Func_impl@V<lambda_9424168985048637711009d87425da23>@@V?$allocator@H@std@@X$$V@std@@EBEPAV?$_Func_base@X$$V@2@PAX@Z 100110f0 f i _nodert_generated.obj
 0001:000100f0       ?_Move@?$_Func_impl@V<lambda_9424168985048637711009d87425da23>@@V?$allocator@H@std@@X$$V@std@@EAEPAV?$_Func_base@X$$V@2@PAX@Z 100110f0 f i _nodert_generated.obj
 0001:00010110       ?_Target_type@?$_Func_impl@V<lambda_e5cd2abdf1428fe462fe99badc249452>@@V?$allocator@H@std@@X$$V@std@@EBEABVtype_info@@XZ 10011110 f i _nodert_generated.obj
 0001:00010120       ?_Copy@?$_Func_impl@V<lambda_e5cd2abdf1428fe462fe99badc249452>@@V?$allocator@H@std@@X$$V@std@@EBEPAV?$_Func_base@X$$V@2@PAX@Z 10011120 f i _nodert_generated.obj
 0001:00010120       ?_Move@?$_Func_impl@V<lambda_e5cd2abdf1428fe462fe99badc249452>@@V?$allocator@H@std@@X$$V@std@@EAEPAV?$_Func_base@X$$V@2@PAX@Z 10011120 f i _nodert_generated.obj
 0001:00010140       ?_Target_type@?$_Func_impl@V<lambda_2115abd8794008df6b65a528e9ce87dd>@@V?$allocator@H@std@@X$$V@std@@EBEABVtype_info@@XZ 10011140 f i _nodert_generated.obj
 0001:00010150       ?_Move@?$_Func_impl@V<lambda_2115abd8794008df6b65a528e9ce87dd>@@V?$allocator@H@std@@X$$V@std@@EAEPAV?$_Func_base@X$$V@2@PAX@Z 10011150 f i _nodert_generated.obj
 0001:00010150       ?_Copy@?$_Func_impl@V<lambda_2115abd8794008df6b65a528e9ce87dd>@@V?$allocator@H@std@@X$$V@std@@EBEPAV?$_Func_base@X$$V@2@PAX@Z 10011150 f i _nodert_generated.obj
 0001:00010170       ?_Target_type@?$_Func_impl@V<lambda_0456396a71e3abd88ede77bdd2823d8e>@@V?$allocator@H@std@@X$$V@std@@EBEABVtype_info@@XZ 10011170 f i _nodert_generated.obj
 0001:00010180       ?_Copy@?$_Func_impl@V<lambda_0456396a71e3abd88ede77bdd2823d8e>@@V?$allocator@H@std@@X$$V@std@@EBEPAV?$_Func_base@X$$V@2@PAX@Z 10011180 f i _nodert_generated.obj
 0001:00010180       ?_Move@?$_Func_impl@V<lambda_0456396a71e3abd88ede77bdd2823d8e>@@V?$allocator@H@std@@X$$V@std@@EAEPAV?$_Func_base@X$$V@2@PAX@Z 10011180 f i _nodert_generated.obj
 0001:000101a0       ?_Delete_this@?$_Func_impl@V<lambda_ec396201b7e4f2b701f72af9664eb55a>@@V?$allocator@H@std@@X$$V@std@@EAEX_N@Z 100111a0 f i _nodert_generated.obj
 0001:00010240       ?_Target_type@?$_Func_impl@V<lambda_ec396201b7e4f2b701f72af9664eb55a>@@V?$allocator@H@std@@X$$V@std@@EBEABVtype_info@@XZ 10011240 f i _nodert_generated.obj
 0001:00010250       ?_Do_call@?$_Func_impl@V<lambda_ec396201b7e4f2b701f72af9664eb55a>@@V?$allocator@H@std@@X$$V@std@@EAEXXZ 10011250 f i _nodert_generated.obj
 0001:00010260       ?_Move@?$_Func_impl@V<lambda_ec396201b7e4f2b701f72af9664eb55a>@@V?$allocator@H@std@@X$$V@std@@EAEPAV?$_Func_base@X$$V@2@PAX@Z 10011260 f i _nodert_generated.obj
 0001:000102f0       ?_Copy@?$_Func_impl@V<lambda_ec396201b7e4f2b701f72af9664eb55a>@@V?$allocator@H@std@@X$$V@std@@EBEPAV?$_Func_base@X$$V@2@PAX@Z 100112f0 f i _nodert_generated.obj
 0001:00010320       ?_Target_type@?$_Func_impl@V<lambda_ec696d6df7687b7d7482072b028188ef>@@V?$allocator@H@std@@X$$V@std@@EBEABVtype_info@@XZ 10011320 f i _nodert_generated.obj
 0001:00010330       ?_Do_call@?$_Func_impl@V<lambda_ec696d6df7687b7d7482072b028188ef>@@V?$allocator@H@std@@X$$V@std@@EAEXXZ 10011330 f i _nodert_generated.obj
 0001:000103a0       ?_Copy@?$_Func_impl@V<lambda_ec696d6df7687b7d7482072b028188ef>@@V?$allocator@H@std@@X$$V@std@@EBEPAV?$_Func_base@X$$V@2@PAX@Z 100113a0 f i _nodert_generated.obj
 0001:000103a0       ?_Move@?$_Func_impl@V<lambda_ec696d6df7687b7d7482072b028188ef>@@V?$allocator@H@std@@X$$V@std@@EAEPAV?$_Func_base@X$$V@2@PAX@Z 100113a0 f i _nodert_generated.obj
 0001:000103c0       ?_Delete_this@?$_Func_impl@V<lambda_a114a708d63a441febc5f755bac609dc>@@V?$allocator@H@std@@XV?$function@$$A6AXHPAV?$Local@VValue@v8@@@v8@@@Z@3@@std@@EAEX_N@Z 100113c0 f i _nodert_generated.obj
 0001:00010430       ?_Target_type@?$_Func_impl@V<lambda_a114a708d63a441febc5f755bac609dc>@@V?$allocator@H@std@@XV?$function@$$A6AXHPAV?$Local@VValue@v8@@@v8@@@Z@3@@std@@EBEABVtype_info@@XZ 10011430 f i _nodert_generated.obj
 0001:00010440       ?_Do_call@?$_Func_impl@V<lambda_0532bc16f263f6a2ba7cd1d0d3d2a0cd>@@V?$allocator@H@std@@XV?$function@$$A6AXHPAV?$Local@VValue@v8@@@v8@@@Z@3@@std@@EAEX$$QAV?$function@$$A6AXHPAV?$Local@VValue@v8@@@v8@@@Z@2@@Z 10011440 f i _nodert_generated.obj
 0001:00010440       ?_Do_call@?$_Func_impl@V<lambda_a114a708d63a441febc5f755bac609dc>@@V?$allocator@H@std@@XV?$function@$$A6AXHPAV?$Local@VValue@v8@@@v8@@@Z@3@@std@@EAEX$$QAV?$function@$$A6AXHPAV?$Local@VValue@v8@@@v8@@@Z@2@@Z 10011440 f i _nodert_generated.obj
 0001:00010440       ?_Do_call@?$_Func_impl@V<lambda_0ba1884422591f985dd5dd2788d28634>@@V?$allocator@H@std@@XV?$function@$$A6AXHPAV?$Local@VValue@v8@@@v8@@@Z@3@@std@@EAEX$$QAV?$function@$$A6AXHPAV?$Local@VValue@v8@@@v8@@@Z@2@@Z 10011440 f i _nodert_generated.obj
 0001:00010440       ?_Do_call@?$_Func_impl@V<lambda_c3befff5426f7ddaa4e03d53f00d3a42>@@V?$allocator@H@std@@XV?$function@$$A6AXHPAV?$Local@VValue@v8@@@v8@@@Z@3@@std@@EAEX$$QAV?$function@$$A6AXHPAV?$Local@VValue@v8@@@v8@@@Z@2@@Z 10011440 f i _nodert_generated.obj
 0001:00010450       ?_Copy@?$_Func_impl@V<lambda_a114a708d63a441febc5f755bac609dc>@@V?$allocator@H@std@@XV?$function@$$A6AXHPAV?$Local@VValue@v8@@@v8@@@Z@3@@std@@EBEPAV?$_Func_base@XV?$function@$$A6AXHPAV?$Local@VValue@v8@@@v8@@@Z@std@@@2@PAX@Z 10011450 f i _nodert_generated.obj
 0001:00010450       ?_Move@?$_Func_impl@V<lambda_a114a708d63a441febc5f755bac609dc>@@V?$allocator@H@std@@XV?$function@$$A6AXHPAV?$Local@VValue@v8@@@v8@@@Z@3@@std@@EAEPAV?$_Func_base@XV?$function@$$A6AXHPAV?$Local@VValue@v8@@@v8@@@Z@std@@@2@PAX@Z 10011450 f i _nodert_generated.obj
 0001:000104b0       ?_Delete_this@?$_Func_impl@V<lambda_fa83efc75490756721b16c8797d488d3>@@V?$allocator@H@std@@XV?$function@$$A6AXHPAV?$Local@VValue@v8@@@v8@@@Z@3@@std@@EAEX_N@Z 100114b0 f i _nodert_generated.obj
 0001:000104b0       ?_Delete_this@?$_Func_impl@V<lambda_caefe64cc4a3c37b2308a74735f93772>@@V?$allocator@H@std@@XV?$function@$$A6AXHPAV?$Local@VValue@v8@@@v8@@@Z@3@@std@@EAEX_N@Z 100114b0 f i _nodert_generated.obj
 0001:000104d0       ?_Target_type@?$_Func_impl@V<lambda_fa83efc75490756721b16c8797d488d3>@@V?$allocator@H@std@@XV?$function@$$A6AXHPAV?$Local@VValue@v8@@@v8@@@Z@3@@std@@EBEABVtype_info@@XZ 100114d0 f i _nodert_generated.obj
 0001:000104e0       ?_Do_call@?$_Func_impl@V<lambda_caefe64cc4a3c37b2308a74735f93772>@@V?$allocator@H@std@@XV?$function@$$A6AXHPAV?$Local@VValue@v8@@@v8@@@Z@3@@std@@EAEX$$QAV?$function@$$A6AXHPAV?$Local@VValue@v8@@@v8@@@Z@2@@Z 100114e0 f i _nodert_generated.obj
 0001:000104e0       ?_Do_call@?$_Func_impl@V<lambda_fa83efc75490756721b16c8797d488d3>@@V?$allocator@H@std@@XV?$function@$$A6AXHPAV?$Local@VValue@v8@@@v8@@@Z@3@@std@@EAEX$$QAV?$function@$$A6AXHPAV?$Local@VValue@v8@@@v8@@@Z@2@@Z 100114e0 f i _nodert_generated.obj
 0001:000104f0       ?_Copy@?$_Func_impl@V<lambda_fa83efc75490756721b16c8797d488d3>@@V?$allocator@H@std@@XV?$function@$$A6AXHPAV?$Local@VValue@v8@@@v8@@@Z@3@@std@@EBEPAV?$_Func_base@XV?$function@$$A6AXHPAV?$Local@VValue@v8@@@v8@@@Z@std@@@2@PAX@Z 100114f0 f i _nodert_generated.obj
 0001:000104f0       ?_Move@?$_Func_impl@V<lambda_fa83efc75490756721b16c8797d488d3>@@V?$allocator@H@std@@XV?$function@$$A6AXHPAV?$Local@VValue@v8@@@v8@@@Z@3@@std@@EAEPAV?$_Func_base@XV?$function@$$A6AXHPAV?$Local@VValue@v8@@@v8@@@Z@std@@@2@PAX@Z 100114f0 f i _nodert_generated.obj
 0001:00010510       ?_Delete_this@?$_Func_impl@V<lambda_c3befff5426f7ddaa4e03d53f00d3a42>@@V?$allocator@H@std@@XV?$function@$$A6AXHPAV?$Local@VValue@v8@@@v8@@@Z@3@@std@@EAEX_N@Z 10011510 f i _nodert_generated.obj
 0001:00010580       ?_Target_type@?$_Func_impl@V<lambda_c3befff5426f7ddaa4e03d53f00d3a42>@@V?$allocator@H@std@@XV?$function@$$A6AXHPAV?$Local@VValue@v8@@@v8@@@Z@3@@std@@EBEABVtype_info@@XZ 10011580 f i _nodert_generated.obj
 0001:00010590       ?_Move@?$_Func_impl@V<lambda_c3befff5426f7ddaa4e03d53f00d3a42>@@V?$allocator@H@std@@XV?$function@$$A6AXHPAV?$Local@VValue@v8@@@v8@@@Z@3@@std@@EAEPAV?$_Func_base@XV?$function@$$A6AXHPAV?$Local@VValue@v8@@@v8@@@Z@std@@@2@PAX@Z 10011590 f i _nodert_generated.obj
 0001:00010590       ?_Copy@?$_Func_impl@V<lambda_c3befff5426f7ddaa4e03d53f00d3a42>@@V?$allocator@H@std@@XV?$function@$$A6AXHPAV?$Local@VValue@v8@@@v8@@@Z@3@@std@@EBEPAV?$_Func_base@XV?$function@$$A6AXHPAV?$Local@VValue@v8@@@v8@@@Z@std@@@2@PAX@Z 10011590 f i _nodert_generated.obj
 0001:000105f0       ?_Delete_this@?$_Func_impl@V<lambda_0fb43142ddbb33ec4e8b38dc9cda485a>@@V?$allocator@H@std@@XV?$function@$$A6AXHPAV?$Local@VValue@v8@@@v8@@@Z@3@@std@@EAEX_N@Z 100115f0 f i _nodert_generated.obj
 0001:00010660       ?_Target_type@?$_Func_impl@V<lambda_0fb43142ddbb33ec4e8b38dc9cda485a>@@V?$allocator@H@std@@XV?$function@$$A6AXHPAV?$Local@VValue@v8@@@v8@@@Z@3@@std@@EBEABVtype_info@@XZ 10011660 f i _nodert_generated.obj
 0001:00010670       ?_Do_call@?$_Func_impl@V<lambda_0fb43142ddbb33ec4e8b38dc9cda485a>@@V?$allocator@H@std@@XV?$function@$$A6AXHPAV?$Local@VValue@v8@@@v8@@@Z@3@@std@@EAEX$$QAV?$function@$$A6AXHPAV?$Local@VValue@v8@@@v8@@@Z@2@@Z 10011670 f i _nodert_generated.obj
 0001:00010680       ?_Move@?$_Func_impl@V<lambda_0fb43142ddbb33ec4e8b38dc9cda485a>@@V?$allocator@H@std@@XV?$function@$$A6AXHPAV?$Local@VValue@v8@@@v8@@@Z@3@@std@@EAEPAV?$_Func_base@XV?$function@$$A6AXHPAV?$Local@VValue@v8@@@v8@@@Z@std@@@2@PAX@Z 10011680 f i _nodert_generated.obj
 0001:00010680       ?_Copy@?$_Func_impl@V<lambda_0fb43142ddbb33ec4e8b38dc9cda485a>@@V?$allocator@H@std@@XV?$function@$$A6AXHPAV?$Local@VValue@v8@@@v8@@@Z@3@@std@@EBEPAV?$_Func_base@XV?$function@$$A6AXHPAV?$Local@VValue@v8@@@v8@@@Z@std@@@2@PAX@Z 10011680 f i _nodert_generated.obj
 0001:000106e0       ?_Delete_this@?$_Func_impl@V<lambda_0ba1884422591f985dd5dd2788d28634>@@V?$allocator@H@std@@XV?$function@$$A6AXHPAV?$Local@VValue@v8@@@v8@@@Z@3@@std@@EAEX_N@Z 100116e0 f i _nodert_generated.obj
 0001:00010750       ?_Target_type@?$_Func_impl@V<lambda_0ba1884422591f985dd5dd2788d28634>@@V?$allocator@H@std@@XV?$function@$$A6AXHPAV?$Local@VValue@v8@@@v8@@@Z@3@@std@@EBEABVtype_info@@XZ 10011750 f i _nodert_generated.obj
 0001:00010760       ?_Copy@?$_Func_impl@V<lambda_0ba1884422591f985dd5dd2788d28634>@@V?$allocator@H@std@@XV?$function@$$A6AXHPAV?$Local@VValue@v8@@@v8@@@Z@3@@std@@EBEPAV?$_Func_base@XV?$function@$$A6AXHPAV?$Local@VValue@v8@@@v8@@@Z@std@@@2@PAX@Z 10011760 f i _nodert_generated.obj
 0001:00010760       ?_Move@?$_Func_impl@V<lambda_0ba1884422591f985dd5dd2788d28634>@@V?$allocator@H@std@@XV?$function@$$A6AXHPAV?$Local@VValue@v8@@@v8@@@Z@3@@std@@EAEPAV?$_Func_base@XV?$function@$$A6AXHPAV?$Local@VValue@v8@@@v8@@@Z@std@@@2@PAX@Z 10011760 f i _nodert_generated.obj
 0001:000107c0       ?_Delete_this@?$_Func_impl@V<lambda_55912aef2455062065036d52cc631bbd>@@V?$allocator@H@std@@XV?$function@$$A6AXHPAV?$Local@VValue@v8@@@v8@@@Z@3@@std@@EAEX_N@Z 100117c0 f i _nodert_generated.obj
 0001:00010830       ?_Target_type@?$_Func_impl@V<lambda_55912aef2455062065036d52cc631bbd>@@V?$allocator@H@std@@XV?$function@$$A6AXHPAV?$Local@VValue@v8@@@v8@@@Z@3@@std@@EBEABVtype_info@@XZ 10011830 f i _nodert_generated.obj
 0001:00010840       ?_Do_call@?$_Func_impl@V<lambda_55912aef2455062065036d52cc631bbd>@@V?$allocator@H@std@@XV?$function@$$A6AXHPAV?$Local@VValue@v8@@@v8@@@Z@3@@std@@EAEX$$QAV?$function@$$A6AXHPAV?$Local@VValue@v8@@@v8@@@Z@2@@Z 10011840 f i _nodert_generated.obj
 0001:00010850       ?_Move@?$_Func_impl@V<lambda_55912aef2455062065036d52cc631bbd>@@V?$allocator@H@std@@XV?$function@$$A6AXHPAV?$Local@VValue@v8@@@v8@@@Z@3@@std@@EAEPAV?$_Func_base@XV?$function@$$A6AXHPAV?$Local@VValue@v8@@@v8@@@Z@std@@@2@PAX@Z 10011850 f i _nodert_generated.obj
 0001:00010850       ?_Copy@?$_Func_impl@V<lambda_55912aef2455062065036d52cc631bbd>@@V?$allocator@H@std@@XV?$function@$$A6AXHPAV?$Local@VValue@v8@@@v8@@@Z@3@@std@@EBEPAV?$_Func_base@XV?$function@$$A6AXHPAV?$Local@VValue@v8@@@v8@@@Z@std@@@2@PAX@Z 10011850 f i _nodert_generated.obj
 0001:000108b0       ?_Delete_this@?$_Func_impl@V<lambda_ce7ee830788d0d86ae4c2908836cc097>@@V?$allocator@H@std@@P$AAVRadio@Radios@Devices@Windows@@V?$Local@VValue@v8@@@v8@@@std@@EAEX_N@Z 100118b0 f i _nodert_generated.obj
 0001:000108d0       ?_Target_type@?$_Func_impl@V<lambda_ce7ee830788d0d86ae4c2908836cc097>@@V?$allocator@H@std@@P$AAVRadio@Radios@Devices@Windows@@V?$Local@VValue@v8@@@v8@@@std@@EBEABVtype_info@@XZ 100118d0 f i _nodert_generated.obj
 0001:000108e0       ?_Do_call@?$_Func_impl@V<lambda_ce7ee830788d0d86ae4c2908836cc097>@@V?$allocator@H@std@@P$AAVRadio@Radios@Devices@Windows@@V?$Local@VValue@v8@@@v8@@@std@@EAEP$AAVRadio@Radios@Devices@Windows@@$$QAV?$Local@VValue@v8@@@v8@@@Z 100118e0 f i _nodert_generated.obj
 0001:00010980       ?_Copy@?$_Func_impl@V<lambda_ce7ee830788d0d86ae4c2908836cc097>@@V?$allocator@H@std@@P$AAVRadio@Radios@Devices@Windows@@V?$Local@VValue@v8@@@v8@@@std@@EBEPAV?$_Func_base@P$AAVRadio@Radios@Devices@Windows@@V?$Local@VValue@v8@@@v8@@@2@PAX@Z 10011980 f i _nodert_generated.obj
 0001:00010980       ?_Move@?$_Func_impl@V<lambda_ce7ee830788d0d86ae4c2908836cc097>@@V?$allocator@H@std@@P$AAVRadio@Radios@Devices@Windows@@V?$Local@VValue@v8@@@v8@@@std@@EAEPAV?$_Func_base@P$AAVRadio@Radios@Devices@Windows@@V?$Local@VValue@v8@@@v8@@@2@PAX@Z 10011980 f i _nodert_generated.obj
 0001:000109a0       ?_Delete_this@?$_Func_impl@V<lambda_bf7f2b711a6b55b30dfb35db79500e56>@@V?$allocator@H@std@@_NV?$Local@VValue@v8@@@v8@@@std@@EAEX_N@Z 100119a0 f i _nodert_generated.obj
 0001:000109a0       ?_Delete_this@?$_Func_impl@V<lambda_e0dbd117428a5d4905794ac0bcda5e4e>@@V?$allocator@H@std@@_NV?$Local@VValue@v8@@@v8@@@std@@EAEX_N@Z 100119a0 f i _nodert_generated.obj
 0001:000109c0       ?_Target_type@?$_Func_impl@V<lambda_e0dbd117428a5d4905794ac0bcda5e4e>@@V?$allocator@H@std@@_NV?$Local@VValue@v8@@@v8@@@std@@EBEABVtype_info@@XZ 100119c0 f i _nodert_generated.obj
 0001:000109d0       ?_Do_call@?$_Func_impl@V<lambda_e0dbd117428a5d4905794ac0bcda5e4e>@@V?$allocator@H@std@@_NV?$Local@VValue@v8@@@v8@@@std@@EAE_N$$QAV?$Local@VValue@v8@@@v8@@@Z 100119d0 f i _nodert_generated.obj
 0001:000109f0       ?_Copy@?$_Func_impl@V<lambda_e0dbd117428a5d4905794ac0bcda5e4e>@@V?$allocator@H@std@@_NV?$Local@VValue@v8@@@v8@@@std@@EBEPAV?$_Func_base@_NV?$Local@VValue@v8@@@v8@@@2@PAX@Z 100119f0 f i _nodert_generated.obj
 0001:000109f0       ?_Move@?$_Func_impl@V<lambda_e0dbd117428a5d4905794ac0bcda5e4e>@@V?$allocator@H@std@@_NV?$Local@VValue@v8@@@v8@@@std@@EAEPAV?$_Func_base@_NV?$Local@VValue@v8@@@v8@@@2@PAX@Z 100119f0 f i _nodert_generated.obj
 0001:00010a10       ?_Delete_this@?$_Func_impl@V<lambda_3e6a614902430e1d627bb2376f9fa385>@@V?$allocator@H@std@@V?$Local@VValue@v8@@@v8@@P$AAVRadio@Radios@Devices@Windows@@@std@@EAEX_N@Z 10011a10 f i _nodert_generated.obj
 0001:00010a30       ?_Target_type@?$_Func_impl@V<lambda_3e6a614902430e1d627bb2376f9fa385>@@V?$allocator@H@std@@V?$Local@VValue@v8@@@v8@@P$AAVRadio@Radios@Devices@Windows@@@std@@EBEABVtype_info@@XZ 10011a30 f i _nodert_generated.obj
 0001:00010a40       ?_Do_call@?$_Func_impl@V<lambda_3e6a614902430e1d627bb2376f9fa385>@@V?$allocator@H@std@@V?$Local@VValue@v8@@@v8@@P$AAVRadio@Radios@Devices@Windows@@@std@@EAE?AV?$Local@VValue@v8@@@v8@@$$QAP$AAVRadio@Radios@Devices@Windows@@@Z 10011a40 f i _nodert_generated.obj
 0001:00010a60       ?_Copy@?$_Func_impl@V<lambda_3e6a614902430e1d627bb2376f9fa385>@@V?$allocator@H@std@@V?$Local@VValue@v8@@@v8@@P$AAVRadio@Radios@Devices@Windows@@@std@@EBEPAV?$_Func_base@V?$Local@VValue@v8@@@v8@@P$AAVRadio@Radios@Devices@Windows@@@2@PAX@Z 10011a60 f i _nodert_generated.obj
 0001:00010a60       ?_Move@?$_Func_impl@V<lambda_3e6a614902430e1d627bb2376f9fa385>@@V?$allocator@H@std@@V?$Local@VValue@v8@@@v8@@P$AAVRadio@Radios@Devices@Windows@@@std@@EAEPAV?$_Func_base@V?$Local@VValue@v8@@@v8@@P$AAVRadio@Radios@Devices@Windows@@@2@PAX@Z 10011a60 f i _nodert_generated.obj
 0001:00010a80       ?_Delete_this@?$_Func_impl@V<lambda_0532bc16f263f6a2ba7cd1d0d3d2a0cd>@@V?$allocator@H@std@@XV?$function@$$A6AXHPAV?$Local@VValue@v8@@@v8@@@Z@3@@std@@EAEX_N@Z 10011a80 f i _nodert_generated.obj
 0001:00010af0       ?_Target_type@?$_Func_impl@V<lambda_0532bc16f263f6a2ba7cd1d0d3d2a0cd>@@V?$allocator@H@std@@XV?$function@$$A6AXHPAV?$Local@VValue@v8@@@v8@@@Z@3@@std@@EBEABVtype_info@@XZ 10011af0 f i _nodert_generated.obj
 0001:00010b00       ?_Copy@?$_Func_impl@V<lambda_0532bc16f263f6a2ba7cd1d0d3d2a0cd>@@V?$allocator@H@std@@XV?$function@$$A6AXHPAV?$Local@VValue@v8@@@v8@@@Z@3@@std@@EBEPAV?$_Func_base@XV?$function@$$A6AXHPAV?$Local@VValue@v8@@@v8@@@Z@std@@@2@PAX@Z 10011b00 f i _nodert_generated.obj
 0001:00010b00       ?_Move@?$_Func_impl@V<lambda_0532bc16f263f6a2ba7cd1d0d3d2a0cd>@@V?$allocator@H@std@@XV?$function@$$A6AXHPAV?$Local@VValue@v8@@@v8@@@Z@3@@std@@EAEPAV?$_Func_base@XV?$function@$$A6AXHPAV?$Local@VValue@v8@@@v8@@@Z@std@@@2@PAX@Z 10011b00 f i _nodert_generated.obj
 0001:00010b60       ?_Target_type@?$_Func_impl@V<lambda_caefe64cc4a3c37b2308a74735f93772>@@V?$allocator@H@std@@XV?$function@$$A6AXHPAV?$Local@VValue@v8@@@v8@@@Z@3@@std@@EBEABVtype_info@@XZ 10011b60 f i _nodert_generated.obj
 0001:00010b70       ?_Move@?$_Func_impl@V<lambda_caefe64cc4a3c37b2308a74735f93772>@@V?$allocator@H@std@@XV?$function@$$A6AXHPAV?$Local@VValue@v8@@@v8@@@Z@3@@std@@EAEPAV?$_Func_base@XV?$function@$$A6AXHPAV?$Local@VValue@v8@@@v8@@@Z@std@@@2@PAX@Z 10011b70 f i _nodert_generated.obj
 0001:00010b70       ?_Copy@?$_Func_impl@V<lambda_caefe64cc4a3c37b2308a74735f93772>@@V?$allocator@H@std@@XV?$function@$$A6AXHPAV?$Local@VValue@v8@@@v8@@@Z@3@@std@@EBEPAV?$_Func_base@XV?$function@$$A6AXHPAV?$Local@VValue@v8@@@v8@@@Z@std@@@2@PAX@Z 10011b70 f i _nodert_generated.obj
 0001:00010b90       ?_Delete_this@?$_Func_impl@V<lambda_847758569c482b5c3071d04a93fd5a03>@@V?$allocator@H@std@@X$$V@std@@EAEX_N@Z 10011b90 f i _nodert_generated.obj
 0001:00010c00       ?_Get@?$_Func_impl@V<lambda_847758569c482b5c3071d04a93fd5a03>@@V?$allocator@H@std@@X$$V@std@@EBEPBXXZ 10011c00 f i _nodert_generated.obj
 0001:00010c00       ?_Get@?$_Func_impl@V<lambda_0ca07c6226f46e76875b5e248892ce5b>@@V?$allocator@H@std@@EV?$task@W4RadioAccessStatus@Radios@Devices@Windows@@@Concurrency@@@std@@EBEPBXXZ 10011c00 f i _nodert_generated.obj
 0001:00010c00       ?_Get@?$_Func_impl@V<lambda_c27880a56ba3ded47134e23bf355db13>@@V?$allocator@H@std@@EV?$task@P$AAVRadio@Radios@Devices@Windows@@@Concurrency@@@std@@EBEPBXXZ 10011c00 f i _nodert_generated.obj
 0001:00010c00       ?_Get@?$_Func_impl@V<lambda_b790627109c9d7e4b89a786d55a0c462>@@V?$allocator@H@std@@EV?$task@P$AAU?$IVectorView@P$AAVRadio@Radios@Devices@Windows@@@Collections@Foundation@Windows@@@Concurrency@@@std@@EBEPBXXZ 10011c00 f i _nodert_generated.obj
 0001:00010c10       ?_Target_type@?$_Func_impl@V<lambda_847758569c482b5c3071d04a93fd5a03>@@V?$allocator@H@std@@X$$V@std@@EBEABVtype_info@@XZ 10011c10 f i _nodert_generated.obj
 0001:00010c20       ?_Do_call@?$_Func_impl@V<lambda_847758569c482b5c3071d04a93fd5a03>@@V?$allocator@H@std@@X$$V@std@@EAEXXZ 10011c20 f i _nodert_generated.obj
 0001:00010c30       ?_Move@?$_Func_impl@V<lambda_847758569c482b5c3071d04a93fd5a03>@@V?$allocator@H@std@@X$$V@std@@EAEPAV?$_Func_base@X$$V@2@PAX@Z 10011c30 f i _nodert_generated.obj
 0001:00010ca0       ?_Copy@?$_Func_impl@V<lambda_847758569c482b5c3071d04a93fd5a03>@@V?$allocator@H@std@@X$$V@std@@EBEPAV?$_Func_base@X$$V@2@PAX@Z 10011ca0 f i _nodert_generated.obj
 0001:00010d00       ?_Delete_this@?$_Func_impl@V<lambda_938fa980b0b5f876be0458d9a1d6acb0>@@V?$allocator@H@std@@XHPAV?$Local@VValue@v8@@@v8@@@std@@EAEX_N@Z 10011d00 f i _nodert_generated.obj
 0001:00010d20       ?_Target_type@?$_Func_impl@V<lambda_938fa980b0b5f876be0458d9a1d6acb0>@@V?$allocator@H@std@@XHPAV?$Local@VValue@v8@@@v8@@@std@@EBEABVtype_info@@XZ 10011d20 f i _nodert_generated.obj
 0001:00010d30       ?_Do_call@?$_Func_impl@V<lambda_938fa980b0b5f876be0458d9a1d6acb0>@@V?$allocator@H@std@@XHPAV?$Local@VValue@v8@@@v8@@@std@@EAEX$$QAH$$QAPAV?$Local@VValue@v8@@@v8@@@Z 10011d30 f i _nodert_generated.obj
 0001:00010d50       ?_Move@?$_Func_impl@V<lambda_938fa980b0b5f876be0458d9a1d6acb0>@@V?$allocator@H@std@@XHPAV?$Local@VValue@v8@@@v8@@@std@@EAEPAV?$_Func_base@XHPAV?$Local@VValue@v8@@@v8@@@2@PAX@Z 10011d50 f i _nodert_generated.obj
 0001:00010d50       ?_Copy@?$_Func_impl@V<lambda_938fa980b0b5f876be0458d9a1d6acb0>@@V?$allocator@H@std@@XHPAV?$Local@VValue@v8@@@v8@@@std@@EBEPAV?$_Func_base@XHPAV?$Local@VValue@v8@@@v8@@@2@PAX@Z 10011d50 f i _nodert_generated.obj
 0001:00010d70       ?_Target_type@?$_Func_impl@V<lambda_bf7f2b711a6b55b30dfb35db79500e56>@@V?$allocator@H@std@@_NV?$Local@VValue@v8@@@v8@@@std@@EBEABVtype_info@@XZ 10011d70 f i _nodert_generated.obj
 0001:00010d80       ?_Do_call@?$_Func_impl@V<lambda_bf7f2b711a6b55b30dfb35db79500e56>@@V?$allocator@H@std@@_NV?$Local@VValue@v8@@@v8@@@std@@EAE_N$$QAV?$Local@VValue@v8@@@v8@@@Z 10011d80 f i _nodert_generated.obj
 0001:00010dc0       ?_Move@?$_Func_impl@V<lambda_bf7f2b711a6b55b30dfb35db79500e56>@@V?$allocator@H@std@@_NV?$Local@VValue@v8@@@v8@@@std@@EAEPAV?$_Func_base@_NV?$Local@VValue@v8@@@v8@@@2@PAX@Z 10011dc0 f i _nodert_generated.obj
 0001:00010dc0       ?_Copy@?$_Func_impl@V<lambda_bf7f2b711a6b55b30dfb35db79500e56>@@V?$allocator@H@std@@_NV?$Local@VValue@v8@@@v8@@@std@@EBEPAV?$_Func_base@_NV?$Local@VValue@v8@@@v8@@@2@PAX@Z 10011dc0 f i _nodert_generated.obj
 0001:00010de0       ?_Target_type@?$_Func_impl@V<lambda_aab2ebd78256abe6d7eb9e9ef0ce6177>@@V?$allocator@H@std@@X$$V@std@@EBEABVtype_info@@XZ 10011de0 f i _nodert_generated.obj
 0001:00010df0       ?_Do_call@?$_Func_impl@V<lambda_aab2ebd78256abe6d7eb9e9ef0ce6177>@@V?$allocator@H@std@@X$$V@std@@EAEXXZ 10011df0 f i _nodert_generated.obj
 0001:00010e00       ?_Copy@?$_Func_impl@V<lambda_aab2ebd78256abe6d7eb9e9ef0ce6177>@@V?$allocator@H@std@@X$$V@std@@EBEPAV?$_Func_base@X$$V@2@PAX@Z 10011e00 f i _nodert_generated.obj
 0001:00010e00       ?_Move@?$_Func_impl@V<lambda_aab2ebd78256abe6d7eb9e9ef0ce6177>@@V?$allocator@H@std@@X$$V@std@@EAEPAV?$_Func_base@X$$V@2@PAX@Z 10011e00 f i _nodert_generated.obj
 0001:00010e20       ?_Delete_this@?$_Func_impl@V<lambda_5e5ab22ea98f4361dbf159481d01f54d>@@V?$allocator@H@std@@X$$V@std@@EAEX_N@Z 10011e20 f i _nodert_generated.obj
 0001:00010e70       ?_Target_type@?$_Func_impl@V<lambda_5e5ab22ea98f4361dbf159481d01f54d>@@V?$allocator@H@std@@X$$V@std@@EBEABVtype_info@@XZ 10011e70 f i _nodert_generated.obj
 0001:00010e80       ?_Do_call@?$_Func_impl@V<lambda_5e5ab22ea98f4361dbf159481d01f54d>@@V?$allocator@H@std@@X$$V@std@@EAEXXZ 10011e80 f i _nodert_generated.obj
 0001:00010ed0       ?_Move@?$_Func_impl@V<lambda_5e5ab22ea98f4361dbf159481d01f54d>@@V?$allocator@H@std@@X$$V@std@@EAEPAV?$_Func_base@X$$V@2@PAX@Z 10011ed0 f i _nodert_generated.obj
 0001:00010f10       ?_Copy@?$_Func_impl@V<lambda_5e5ab22ea98f4361dbf159481d01f54d>@@V?$allocator@H@std@@X$$V@std@@EBEPAV?$_Func_base@X$$V@2@PAX@Z 10011f10 f i _nodert_generated.obj
 0001:00010f40       ??R?$_Func_class@EV?$task@W4RadioAccessStatus@Radios@Devices@Windows@@@Concurrency@@@std@@QBEEV?$task@W4RadioAccessStatus@Radios@Devices@Windows@@@Concurrency@@@Z 10011f40 f i _nodert_generated.obj
 0001:00010ff0       ??R?$_Func_class@EV?$task@P$AAVRadio@Radios@Devices@Windows@@@Concurrency@@@std@@QBEEV?$task@P$AAVRadio@Radios@Devices@Windows@@@Concurrency@@@Z 10011ff0 f i _nodert_generated.obj
 0001:00010ff0       ??R?$_Func_class@EV?$task@P$AAU?$IVectorView@P$AAVRadio@Radios@Devices@Windows@@@Collections@Foundation@Windows@@@Concurrency@@@std@@QBEEV?$task@P$AAU?$IVectorView@P$AAVRadio@Radios@Devices@Windows@@@Collections@Foundation@Windows@@@Concurrency@@@Z 10011ff0 f i _nodert_generated.obj
 0001:000110a0       ??R?$_Func_class@XV?$task@P$AAU?$IVectorView@P$AAVRadio@Radios@Devices@Windows@@@Collections@Foundation@Windows@@@Concurrency@@@std@@QBEXV?$task@P$AAU?$IVectorView@P$AAVRadio@Radios@Devices@Windows@@@Collections@Foundation@Windows@@@Concurrency@@@Z 100120a0 f i _nodert_generated.obj
 0001:000110a0       ??R?$_Func_class@XV?$task@P$AAVRadio@Radios@Devices@Windows@@@Concurrency@@@std@@QBEXV?$task@P$AAVRadio@Radios@Devices@Windows@@@Concurrency@@@Z 100120a0 f i _nodert_generated.obj
 0001:00011130       ??R?$_Func_class@XV?$task@W4RadioAccessStatus@Radios@Devices@Windows@@@Concurrency@@@std@@QBEXV?$task@W4RadioAccessStatus@Radios@Devices@Windows@@@Concurrency@@@Z 10012130 f i _nodert_generated.obj
 0001:000111c0       ??$?0ABV?$allocator@H@std@@@?$_Wrap_alloc@V?$allocator@V?$_Func_impl@V<lambda_bf7f2b711a6b55b30dfb35db79500e56>@@V?$allocator@H@std@@_NV?$Local@VValue@v8@@@v8@@@std@@@std@@@std@@QAE@ABV?$allocator@H@1@@Z 100121c0 f i _nodert_generated.obj
 0001:000111d0       ??$?0V<lambda_c27880a56ba3ded47134e23bf355db13>@@EX@?$function@$$A6AEV?$task@P$AAVRadio@Radios@Devices@Windows@@@Concurrency@@@Z@std@@QAE@V<lambda_c27880a56ba3ded47134e23bf355db13>@@@Z 100121d0 f i _nodert_generated.obj
 0001:000112d0       ??$?0V<lambda_b790627109c9d7e4b89a786d55a0c462>@@EX@?$function@$$A6AEV?$task@P$AAU?$IVectorView@P$AAVRadio@Radios@Devices@Windows@@@Collections@Foundation@Windows@@@Concurrency@@@Z@std@@QAE@V<lambda_b790627109c9d7e4b89a786d55a0c462>@@@Z 100122d0 f i _nodert_generated.obj
 0001:000113d0       ??$?0V<lambda_0ca07c6226f46e76875b5e248892ce5b>@@EX@?$function@$$A6AEV?$task@W4RadioAccessStatus@Radios@Devices@Windows@@@Concurrency@@@Z@std@@QAE@V<lambda_0ca07c6226f46e76875b5e248892ce5b>@@@Z 100123d0 f i _nodert_generated.obj
 0001:00011490       ??$_AsyncInit@P$AAVRadio@Radios@Devices@Windows@@P$AAV1234@@_Task_impl_base@details@Concurrency@@SAXABV?$shared_ptr@U?$_Task_impl@P$AAVRadio@Radios@Devices@Windows@@@details@Concurrency@@@std@@P$AAU?$IAsyncOperation@P$AAVRadio@Radios@Devices@Windows@@@Foundation@Windows@@@Z 10012490 f i _nodert_generated.obj
 0001:00011740       ?__abi_Windows_Foundation_?$AsyncOperationCompletedHandler@P$AAVRadio@Radios@Devices@Windows@@___abi_IDelegate____abi_Invoke@?Q__abi_IDelegate@?$AsyncOperationCompletedHandler@P$AAVRadio@Radios@Devices@Windows@@@Foundation@Windows@@234@U$AAGJP$AAU?$IAsyncOperation@P$AAVRadio@Radios@Devices@Windows@@@34@W4AsyncStatus@34@@Z 10012740 f i _nodert_generated.obj
 0001:000117d0       ?__abi_QueryInterface@?$AsyncOperationCompletedHandler@P$AAVRadio@Radios@Devices@Windows@@@Foundation@Windows@@U$AAGJAAVGuid@Platform@@PAPAX@Z 100127d0 f i _nodert_generated.obj
 0001:000118f0       ?__abi_GetIids@?$AsyncOperationCompletedHandler@P$AAU?$IVectorView@P$AAVRadio@Radios@Devices@Windows@@@Collections@Foundation@Windows@@@Foundation@Windows@@U$AAGJPAKPAPAVGuid@Platform@@@Z 100128f0 f i _nodert_generated.obj
 0001:000118f0       ?__abi_GetIids@?$AsyncOperationCompletedHandler@W4RadioAccessStatus@Radios@Devices@Windows@@@Foundation@Windows@@U$AAGJPAKPAPAVGuid@Platform@@@Z 100128f0 f i _nodert_generated.obj
 0001:000118f0       ?__abi_GetIids@?$AsyncOperationCompletedHandler@P$AAVRadio@Radios@Devices@Windows@@@Foundation@Windows@@U$AAGJPAKPAPAVGuid@Platform@@@Z 100128f0 f i _nodert_generated.obj
 0001:00011950       ?__abi_GetRuntimeClassName@?$AsyncOperationCompletedHandler@P$AAVRadio@Radios@Devices@Windows@@@Foundation@Windows@@U$AAGJPAPAUHSTRING__@@@Z 10012950 f i _nodert_generated.obj
 0001:00011970       ?Invoke@?$AsyncOperationCompletedHandler@P$AAVRadio@Radios@Devices@Windows@@@Foundation@Windows@@U$AAAXP$AAU?$IAsyncOperation@P$AAVRadio@Radios@Devices@Windows@@@23@W4AsyncStatus@23@@Z 10012970 f i _nodert_generated.obj
 0001:000119b0       ??$_AsyncInit@P$AAU?$IVectorView@P$AAVRadio@Radios@Devices@Windows@@@Collections@Foundation@Windows@@P$AAU1234@@_Task_impl_base@details@Concurrency@@SAXABV?$shared_ptr@U?$_Task_impl@P$AAU?$IVectorView@P$AAVRadio@Radios@Devices@Windows@@@Collections@Foundation@Windows@@@details@Concurrency@@@std@@P$AAU?$IAsyncOperation@P$AAU?$IVectorView@P$AAVRadio@Radios@Devices@Windows@@@Collections@Foundation@Windows@@@Foundation@Windows@@@Z 100129b0 f i _nodert_generated.obj
 0001:00011c60       ?__abi_Windows_Foundation_?$AsyncOperationCompletedHandler@P$AAU?$IVectorView@P$AAVRadio@Radios@Devices@Windows@@@Collections@Foundation@Windows@@___abi_IDelegate____abi_Invoke@?Q__abi_IDelegate@?$AsyncOperationCompletedHandler@P$AAU?$IVectorView@P$AAVRadio@Radios@Devices@Windows@@@Collections@Foundation@Windows@@@Foundation@Windows@@234@U$AAGJP$AAU?$IAsyncOperation@P$AAU?$IVectorView@P$AAVRadio@Radios@Devices@Windows@@@Collections@Foundation@Windows@@@34@W4AsyncStatus@34@@Z 10012c60 f i _nodert_generated.obj
 0001:00011cf0       ?__abi_QueryInterface@?$AsyncOperationCompletedHandler@P$AAU?$IVectorView@P$AAVRadio@Radios@Devices@Windows@@@Collections@Foundation@Windows@@@Foundation@Windows@@U$AAGJAAVGuid@Platform@@PAPAX@Z 10012cf0 f i _nodert_generated.obj
 0001:00011e10       ?__abi_GetRuntimeClassName@?$AsyncOperationCompletedHandler@P$AAU?$IVectorView@P$AAVRadio@Radios@Devices@Windows@@@Collections@Foundation@Windows@@@Foundation@Windows@@U$AAGJPAPAUHSTRING__@@@Z 10012e10 f i _nodert_generated.obj
 0001:00011e30       ?Invoke@?$AsyncOperationCompletedHandler@P$AAU?$IVectorView@P$AAVRadio@Radios@Devices@Windows@@@Collections@Foundation@Windows@@@Foundation@Windows@@U$AAAXP$AAU?$IAsyncOperation@P$AAU?$IVectorView@P$AAVRadio@Radios@Devices@Windows@@@Collections@Foundation@Windows@@@23@W4AsyncStatus@23@@Z 10012e30 f i _nodert_generated.obj
 0001:00011e70       ??$_AsyncInit@W4RadioAccessStatus@Radios@Devices@Windows@@W41234@@_Task_impl_base@details@Concurrency@@SAXABV?$shared_ptr@U?$_Task_impl@W4RadioAccessStatus@Radios@Devices@Windows@@@details@Concurrency@@@std@@P$AAU?$IAsyncOperation@W4RadioAccessStatus@Radios@Devices@Windows@@@Foundation@Windows@@@Z 10012e70 f i _nodert_generated.obj
 0001:00012120       ?__abi_Windows_Foundation_?$AsyncOperationCompletedHandler@W4RadioAccessStatus@Radios@Devices@Windows@@___abi_IDelegate____abi_Invoke@?Q__abi_IDelegate@?$AsyncOperationCompletedHandler@W4RadioAccessStatus@Radios@Devices@Windows@@@Foundation@Windows@@234@U$AAGJP$AAU?$IAsyncOperation@W4RadioAccessStatus@Radios@Devices@Windows@@@34@W4AsyncStatus@34@@Z 10013120 f i _nodert_generated.obj
 0001:000121b0       ?__abi_QueryInterface@?$AsyncOperationCompletedHandler@W4RadioAccessStatus@Radios@Devices@Windows@@@Foundation@Windows@@U$AAGJAAVGuid@Platform@@PAPAX@Z 100131b0 f i _nodert_generated.obj
 0001:000122d0       ?__abi_GetRuntimeClassName@?$AsyncOperationCompletedHandler@W4RadioAccessStatus@Radios@Devices@Windows@@@Foundation@Windows@@U$AAGJPAPAUHSTRING__@@@Z 100132d0 f i _nodert_generated.obj
 0001:000122f0       ?Invoke@?$AsyncOperationCompletedHandler@W4RadioAccessStatus@Radios@Devices@Windows@@@Foundation@Windows@@U$AAAXP$AAU?$IAsyncOperation@W4RadioAccessStatus@Radios@Devices@Windows@@@23@W4AsyncStatus@23@@Z 100132f0 f i _nodert_generated.obj
 0001:00012330       ??_E?$_Ref_count_obj@U?$_Task_impl@P$AAU?$IVectorView@P$AAVRadio@Radios@Devices@Windows@@@Collections@Foundation@Windows@@@details@Concurrency@@@std@@UAEPAXI@Z 10013330 f i * CIL library *:* CIL module *
 0001:00012330       ??_G?$_Ref_count_obj@U?$_Task_impl@P$AAU?$IVectorView@P$AAVRadio@Radios@Devices@Windows@@@Collections@Foundation@Windows@@@details@Concurrency@@@std@@UAEPAXI@Z 10013330 f i _nodert_generated.obj
 0001:00012360       ?_Delete_this@?$_Func_impl@V<lambda_9eef212b7bb2525a1146c82a12593753>@@V?$allocator@H@std@@XV?$task@W4RadioAccessStatus@Radios@Devices@Windows@@@Concurrency@@@std@@EAEX_N@Z 10013360 f i _nodert_generated.obj
 0001:00012360       ?_Delete_this@?$_Func_impl@V<lambda_ae54f703fcaa92a2870449d47fe035a7>@@V?$allocator@H@std@@XV?$task@W4RadioAccessStatus@Radios@Devices@Windows@@@Concurrency@@@std@@EAEX_N@Z 10013360 f i _nodert_generated.obj
 0001:00012380       ?_Target_type@?$_Func_impl@V<lambda_9eef212b7bb2525a1146c82a12593753>@@V?$allocator@H@std@@XV?$task@W4RadioAccessStatus@Radios@Devices@Windows@@@Concurrency@@@std@@EBEABVtype_info@@XZ 10013380 f i _nodert_generated.obj
 0001:00012390       ?_Do_call@?$_Func_impl@V<lambda_9eef212b7bb2525a1146c82a12593753>@@V?$allocator@H@std@@XV?$task@W4RadioAccessStatus@Radios@Devices@Windows@@@Concurrency@@@std@@EAEX$$QAV?$task@W4RadioAccessStatus@Radios@Devices@Windows@@@Concurrency@@@Z 10013390 f i _nodert_generated.obj
 0001:000123d0       ?_Move@?$_Func_impl@V<lambda_9eef212b7bb2525a1146c82a12593753>@@V?$allocator@H@std@@XV?$task@W4RadioAccessStatus@Radios@Devices@Windows@@@Concurrency@@@std@@EAEPAV?$_Func_base@XV?$task@W4RadioAccessStatus@Radios@Devices@Windows@@@Concurrency@@@2@PAX@Z 100133d0 f i _nodert_generated.obj
 0001:000123d0       ?_Copy@?$_Func_impl@V<lambda_9eef212b7bb2525a1146c82a12593753>@@V?$allocator@H@std@@XV?$task@W4RadioAccessStatus@Radios@Devices@Windows@@@Concurrency@@@std@@EBEPAV?$_Func_base@XV?$task@W4RadioAccessStatus@Radios@Devices@Windows@@@Concurrency@@@2@PAX@Z 100133d0 f i _nodert_generated.obj
 0001:000123f0       ?_Delete_this@?$_Func_impl@V<lambda_2ba0bef8cbfba8f1d7cf652ae95a0f98>@@V?$allocator@H@std@@XV?$task@P$AAVRadio@Radios@Devices@Windows@@@Concurrency@@@std@@EAEX_N@Z 100133f0 f i _nodert_generated.obj
 0001:00012410       ?_Target_type@?$_Func_impl@V<lambda_2ba0bef8cbfba8f1d7cf652ae95a0f98>@@V?$allocator@H@std@@XV?$task@P$AAVRadio@Radios@Devices@Windows@@@Concurrency@@@std@@EBEABVtype_info@@XZ 10013410 f i _nodert_generated.obj
 0001:00012420       ?_Do_call@?$_Func_impl@V<lambda_2ba0bef8cbfba8f1d7cf652ae95a0f98>@@V?$allocator@H@std@@XV?$task@P$AAVRadio@Radios@Devices@Windows@@@Concurrency@@@std@@EAEX$$QAV?$task@P$AAVRadio@Radios@Devices@Windows@@@Concurrency@@@Z 10013420 f i _nodert_generated.obj
 0001:00012460       ?_Move@?$_Func_impl@V<lambda_2ba0bef8cbfba8f1d7cf652ae95a0f98>@@V?$allocator@H@std@@XV?$task@P$AAVRadio@Radios@Devices@Windows@@@Concurrency@@@std@@EAEPAV?$_Func_base@XV?$task@P$AAVRadio@Radios@Devices@Windows@@@Concurrency@@@2@PAX@Z 10013460 f i _nodert_generated.obj
 0001:00012460       ?_Copy@?$_Func_impl@V<lambda_2ba0bef8cbfba8f1d7cf652ae95a0f98>@@V?$allocator@H@std@@XV?$task@P$AAVRadio@Radios@Devices@Windows@@@Concurrency@@@std@@EBEPAV?$_Func_base@XV?$task@P$AAVRadio@Radios@Devices@Windows@@@Concurrency@@@2@PAX@Z 10013460 f i _nodert_generated.obj
 0001:00012480       ?_Delete_this@?$_Func_impl@V<lambda_a1381f9626a8165312049276d1590ea7>@@V?$allocator@H@std@@XV?$task@P$AAU?$IVectorView@P$AAVRadio@Radios@Devices@Windows@@@Collections@Foundation@Windows@@@Concurrency@@@std@@EAEX_N@Z 10013480 f i _nodert_generated.obj
 0001:000124a0       ?_Target_type@?$_Func_impl@V<lambda_a1381f9626a8165312049276d1590ea7>@@V?$allocator@H@std@@XV?$task@P$AAU?$IVectorView@P$AAVRadio@Radios@Devices@Windows@@@Collections@Foundation@Windows@@@Concurrency@@@std@@EBEABVtype_info@@XZ 100134a0 f i _nodert_generated.obj
 0001:000124b0       ?_Do_call@?$_Func_impl@V<lambda_a1381f9626a8165312049276d1590ea7>@@V?$allocator@H@std@@XV?$task@P$AAU?$IVectorView@P$AAVRadio@Radios@Devices@Windows@@@Collections@Foundation@Windows@@@Concurrency@@@std@@EAEX$$QAV?$task@P$AAU?$IVectorView@P$AAVRadio@Radios@Devices@Windows@@@Collections@Foundation@Windows@@@Concurrency@@@Z 100134b0 f i _nodert_generated.obj
 0001:000124f0       ?_Move@?$_Func_impl@V<lambda_a1381f9626a8165312049276d1590ea7>@@V?$allocator@H@std@@XV?$task@P$AAU?$IVectorView@P$AAVRadio@Radios@Devices@Windows@@@Collections@Foundation@Windows@@@Concurrency@@@std@@EAEPAV?$_Func_base@XV?$task@P$AAU?$IVectorView@P$AAVRadio@Radios@Devices@Windows@@@Collections@Foundation@Windows@@@Concurrency@@@2@PAX@Z 100134f0 f i _nodert_generated.obj
 0001:000124f0       ?_Copy@?$_Func_impl@V<lambda_a1381f9626a8165312049276d1590ea7>@@V?$allocator@H@std@@XV?$task@P$AAU?$IVectorView@P$AAVRadio@Radios@Devices@Windows@@@Collections@Foundation@Windows@@@Concurrency@@@std@@EBEPAV?$_Func_base@XV?$task@P$AAU?$IVectorView@P$AAVRadio@Radios@Devices@Windows@@@Collections@Foundation@Windows@@@Concurrency@@@2@PAX@Z 100134f0 f i _nodert_generated.obj
 0001:00012510       ?_Target_type@?$_Func_impl@V<lambda_ae54f703fcaa92a2870449d47fe035a7>@@V?$allocator@H@std@@XV?$task@W4RadioAccessStatus@Radios@Devices@Windows@@@Concurrency@@@std@@EBEABVtype_info@@XZ 10013510 f i _nodert_generated.obj
 0001:00012520       ?_Do_call@?$_Func_impl@V<lambda_ae54f703fcaa92a2870449d47fe035a7>@@V?$allocator@H@std@@XV?$task@W4RadioAccessStatus@Radios@Devices@Windows@@@Concurrency@@@std@@EAEX$$QAV?$task@W4RadioAccessStatus@Radios@Devices@Windows@@@Concurrency@@@Z 10013520 f i _nodert_generated.obj
 0001:00012560       ?_Move@?$_Func_impl@V<lambda_ae54f703fcaa92a2870449d47fe035a7>@@V?$allocator@H@std@@XV?$task@W4RadioAccessStatus@Radios@Devices@Windows@@@Concurrency@@@std@@EAEPAV?$_Func_base@XV?$task@W4RadioAccessStatus@Radios@Devices@Windows@@@Concurrency@@@2@PAX@Z 10013560 f i _nodert_generated.obj
 0001:00012560       ?_Copy@?$_Func_impl@V<lambda_ae54f703fcaa92a2870449d47fe035a7>@@V?$allocator@H@std@@XV?$task@W4RadioAccessStatus@Radios@Devices@Windows@@@Concurrency@@@std@@EBEPAV?$_Func_base@XV?$task@W4RadioAccessStatus@Radios@Devices@Windows@@@Concurrency@@@2@PAX@Z 10013560 f i _nodert_generated.obj
 0001:00012580       ?_SetUnwrappedAsyncOp@?$_Task_impl@P$AAVRadio@Radios@Devices@Windows@@@details@Concurrency@@QAEXP$AAU?$IAsyncOperation@P$AAVRadio@Radios@Devices@Windows@@@Foundation@Windows@@@Z 10013580 f i _nodert_generated.obj
 0001:00012750       ?_FinalizeAndRunContinuations@?$_Task_impl@P$AAVRadio@Radios@Devices@Windows@@@details@Concurrency@@QAEXP$AAVRadio@Radios@Devices@Windows@@@Z 10013750 f i _nodert_generated.obj
 0001:00012850       ??0?$_Task_impl@P$AAVRadio@Radios@Devices@Windows@@@details@Concurrency@@QAE@PAV_CancellationTokenState@12@Uscheduler_ptr@2@@Z 10013850 f i _nodert_generated.obj
 0001:00012920       ?_SetUnwrappedAsyncOp@?$_Task_impl@P$AAU?$IVectorView@P$AAVRadio@Radios@Devices@Windows@@@Collections@Foundation@Windows@@@details@Concurrency@@QAEXP$AAU?$IAsyncOperation@P$AAU?$IVectorView@P$AAVRadio@Radios@Devices@Windows@@@Collections@Foundation@Windows@@@Foundation@Windows@@@Z 10013920 f i _nodert_generated.obj
 0001:00012a60       ?_FinalizeAndRunContinuations@?$_Task_impl@P$AAU?$IVectorView@P$AAVRadio@Radios@Devices@Windows@@@Collections@Foundation@Windows@@@details@Concurrency@@QAEXP$AAU?$IVectorView@P$AAVRadio@Radios@Devices@Windows@@@Collections@Foundation@Windows@@@Z 10013a60 f i _nodert_generated.obj
 0001:00012b50       ??0?$_Task_impl@P$AAU?$IVectorView@P$AAVRadio@Radios@Devices@Windows@@@Collections@Foundation@Windows@@@details@Concurrency@@QAE@PAV_CancellationTokenState@12@Uscheduler_ptr@2@@Z 10013b50 f i _nodert_generated.obj
 0001:00012c40       ?_SetUnwrappedAsyncOp@?$_Task_impl@W4RadioAccessStatus@Radios@Devices@Windows@@@details@Concurrency@@QAEXP$AAU?$IAsyncOperation@W4RadioAccessStatus@Radios@Devices@Windows@@@Foundation@Windows@@@Z 10013c40 f i _nodert_generated.obj
 0001:00012d80       ?_FinalizeAndRunContinuations@?$_Task_impl@W4RadioAccessStatus@Radios@Devices@Windows@@@details@Concurrency@@QAEXW4RadioAccessStatus@Radios@Devices@Windows@@@Z 10013d80 f i _nodert_generated.obj
 0001:00012e00       ??0?$_Task_impl@W4RadioAccessStatus@Radios@Devices@Windows@@@details@Concurrency@@QAE@PAV_CancellationTokenState@12@Uscheduler_ptr@2@@Z 10013e00 f i _nodert_generated.obj
 0001:00012ec0       ??4?$Agile@P$AAU?$IVectorView@P$AAVRadio@Radios@Devices@Windows@@@Collections@Foundation@Windows@@$00@Platform@@QAEAAV01@P$AAU?$IVectorView@P$AAVRadio@Radios@Devices@Windows@@@Collections@Foundation@Windows@@@Z 10013ec0 f i _nodert_generated.obj
 0001:00012f40       ?Swap@?$Agile@P$AAU?$IVectorView@P$AAVRadio@Radios@Devices@Windows@@@Collections@Foundation@Windows@@$00@Platform@@QAEXAAV12@@Z 10013f40 f i _nodert_generated.obj
 0001:00012fc0       ?SetObject@?$Agile@P$AAU?$IVectorView@P$AAVRadio@Radios@Devices@Windows@@@Collections@Foundation@Windows@@$00@Platform@@AAEXP$AAU?$IVectorView@P$AAVRadio@Radios@Devices@Windows@@@Collections@Foundation@Windows@@@Z 10013fc0 f i _nodert_generated.obj
 0001:000130b0       ?GetResults@?$IAsyncOperation@P$AAU?$IVectorView@P$AAVRadio@Radios@Devices@Windows@@@Collections@Foundation@Windows@@@Foundation@Windows@@U$AAAP$AAU?$IVectorView@P$AAVRadio@Radios@Devices@Windows@@@Collections@23@XZ 100140b0 f i _nodert_generated.obj
 0001:000130b0       ?GetResults@?$IAsyncOperation@P$AAVRadio@Radios@Devices@Windows@@@Foundation@Windows@@U$AAAP$AAVRadio@Radios@Devices@3@XZ 100140b0 f i _nodert_generated.obj
 0001:00013130       ??$?0V<lambda_1d4db423df950a9db6d5162d107d760e>@@@?$AsyncOperationCompletedHandler@P$AAVRadio@Radios@Devices@Windows@@@Foundation@Windows@@Q$AAA@V<lambda_1d4db423df950a9db6d5162d107d760e>@@W4CallbackContext@Platform@@_N@Z 10014130 f i _nodert_generated.obj
 0001:00013270       ??$?0V<lambda_85b3af6e5f21e2dfbb949cdd8ca000ff>@@@?$AsyncOperationCompletedHandler@P$AAU?$IVectorView@P$AAVRadio@Radios@Devices@Windows@@@Collections@Foundation@Windows@@@Foundation@Windows@@Q$AAA@V<lambda_85b3af6e5f21e2dfbb949cdd8ca000ff>@@W4CallbackContext@Platform@@_N@Z 10014270 f i _nodert_generated.obj
 0001:000133b0       ??$?0V<lambda_da728ca663148a39a15f0482357f5ab9>@@@?$AsyncOperationCompletedHandler@W4RadioAccessStatus@Radios@Devices@Windows@@@Foundation@Windows@@Q$AAA@V<lambda_da728ca663148a39a15f0482357f5ab9>@@W4CallbackContext@Platform@@_N@Z 100143b0 f i _nodert_generated.obj
 0001:000134f0       ??$?4V<lambda_f08ec446ca8b33299a4e48e3172e9b8c>@@XX@?$function@$$A6AXXZ@std@@QAEAAV01@$$QAV<lambda_f08ec446ca8b33299a4e48e3172e9b8c>@@@Z 100144f0 f i _nodert_generated.obj
 0001:000135c0       ??$?4V<lambda_d9306928c1bd470a6e42b27630d148ed>@@XX@?$function@$$A6AXXZ@std@@QAEAAV01@$$QAV<lambda_d9306928c1bd470a6e42b27630d148ed>@@@Z 100145c0 f i _nodert_generated.obj
 0001:00013690       ??$?4V<lambda_35b15a041fdff25694358386f486c371>@@XX@?$function@$$A6AXXZ@std@@QAEAAV01@$$QAV<lambda_35b15a041fdff25694358386f486c371>@@@Z 10014690 f i _nodert_generated.obj
 0001:00013760       ??$swap@P$AAU?$IVectorView@P$AAVRadio@Radios@Devices@Windows@@@Collections@Foundation@Windows@@X@std@@YAXAAP$AAU?$IVectorView@P$AAVRadio@Radios@Devices@Windows@@@Collections@Foundation@Windows@@0@Z 10014760 f i _nodert_generated.obj
 0001:00013810       ?Invoke@?$__abi_FunctorCapture@V<lambda_da728ca663148a39a15f0482357f5ab9>@@XP$AAU?$IAsyncOperation@W4RadioAccessStatus@Radios@Devices@Windows@@@Foundation@Windows@@W4AsyncStatus@34@@Details@Platform@@UAGXP$AAU?$IAsyncOperation@W4RadioAccessStatus@Radios@Devices@Windows@@@Foundation@Windows@@W4AsyncStatus@56@@Z 10014810 f i _nodert_generated.obj
 0001:00013830       ??0?$__abi_FunctorCapture@V<lambda_da728ca663148a39a15f0482357f5ab9>@@XP$AAU?$IAsyncOperation@W4RadioAccessStatus@Radios@Devices@Windows@@@Foundation@Windows@@W4AsyncStatus@34@@Details@Platform@@QAE@V<lambda_da728ca663148a39a15f0482357f5ab9>@@@Z 10014830 f i _nodert_generated.obj
 0001:000138e0       ?Invoke@?$__abi_FunctorCapture@V<lambda_85b3af6e5f21e2dfbb949cdd8ca000ff>@@XP$AAU?$IAsyncOperation@P$AAU?$IVectorView@P$AAVRadio@Radios@Devices@Windows@@@Collections@Foundation@Windows@@@Foundation@Windows@@W4AsyncStatus@34@@Details@Platform@@UAGXP$AAU?$IAsyncOperation@P$AAU?$IVectorView@P$AAVRadio@Radios@Devices@Windows@@@Collections@Foundation@Windows@@@Foundation@Windows@@W4AsyncStatus@56@@Z 100148e0 f i _nodert_generated.obj
 0001:00013900       ??0?$__abi_FunctorCapture@V<lambda_85b3af6e5f21e2dfbb949cdd8ca000ff>@@XP$AAU?$IAsyncOperation@P$AAU?$IVectorView@P$AAVRadio@Radios@Devices@Windows@@@Collections@Foundation@Windows@@@Foundation@Windows@@W4AsyncStatus@34@@Details@Platform@@QAE@V<lambda_85b3af6e5f21e2dfbb949cdd8ca000ff>@@@Z 10014900 f i _nodert_generated.obj
 0001:000139b0       ?Invoke@?$__abi_FunctorCapture@V<lambda_1d4db423df950a9db6d5162d107d760e>@@XP$AAU?$IAsyncOperation@P$AAVRadio@Radios@Devices@Windows@@@Foundation@Windows@@W4AsyncStatus@34@@Details@Platform@@UAGXP$AAU?$IAsyncOperation@P$AAVRadio@Radios@Devices@Windows@@@Foundation@Windows@@W4AsyncStatus@56@@Z 100149b0 f i _nodert_generated.obj
 0001:000139d0       ??0?$__abi_FunctorCapture@V<lambda_1d4db423df950a9db6d5162d107d760e>@@XP$AAU?$IAsyncOperation@P$AAVRadio@Radios@Devices@Windows@@@Foundation@Windows@@W4AsyncStatus@34@@Details@Platform@@QAE@V<lambda_1d4db423df950a9db6d5162d107d760e>@@@Z 100149d0 f i _nodert_generated.obj
 0001:00013a80       ??$_Call@AAV<lambda_fa83efc75490756721b16c8797d488d3>@@V?$function@$$A6AXHPAV?$Local@VValue@v8@@@v8@@@Z@std@@@_Invoker_functor@std@@SAXAAV<lambda_fa83efc75490756721b16c8797d488d3>@@$$QAV?$function@$$A6AXHPAV?$Local@VValue@v8@@@v8@@@Z@1@@Z 10014a80 f i _nodert_generated.obj
 0001:00013a80       ??$_Call@AAV<lambda_caefe64cc4a3c37b2308a74735f93772>@@V?$function@$$A6AXHPAV?$Local@VValue@v8@@@v8@@@Z@std@@@_Invoker_functor@std@@SAXAAV<lambda_caefe64cc4a3c37b2308a74735f93772>@@$$QAV?$function@$$A6AXHPAV?$Local@VValue@v8@@@v8@@@Z@1@@Z 10014a80 f i _nodert_generated.obj
 0001:00013af0       ??$_Call@AAV<lambda_c3befff5426f7ddaa4e03d53f00d3a42>@@V?$function@$$A6AXHPAV?$Local@VValue@v8@@@v8@@@Z@std@@@_Invoker_functor@std@@SAXAAV<lambda_c3befff5426f7ddaa4e03d53f00d3a42>@@$$QAV?$function@$$A6AXHPAV?$Local@VValue@v8@@@v8@@@Z@1@@Z 10014af0 f i _nodert_generated.obj
 0001:00013af0       ??$_Call@AAV<lambda_0532bc16f263f6a2ba7cd1d0d3d2a0cd>@@V?$function@$$A6AXHPAV?$Local@VValue@v8@@@v8@@@Z@std@@@_Invoker_functor@std@@SAXAAV<lambda_0532bc16f263f6a2ba7cd1d0d3d2a0cd>@@$$QAV?$function@$$A6AXHPAV?$Local@VValue@v8@@@v8@@@Z@1@@Z 10014af0 f i _nodert_generated.obj
 0001:00013af0       ??$_Call@AAV<lambda_0ba1884422591f985dd5dd2788d28634>@@V?$function@$$A6AXHPAV?$Local@VValue@v8@@@v8@@@Z@std@@@_Invoker_functor@std@@SAXAAV<lambda_0ba1884422591f985dd5dd2788d28634>@@$$QAV?$function@$$A6AXHPAV?$Local@VValue@v8@@@v8@@@Z@1@@Z 10014af0 f i _nodert_generated.obj
 0001:00013af0       ??$_Call@AAV<lambda_a114a708d63a441febc5f755bac609dc>@@V?$function@$$A6AXHPAV?$Local@VValue@v8@@@v8@@@Z@std@@@_Invoker_functor@std@@SAXAAV<lambda_a114a708d63a441febc5f755bac609dc>@@$$QAV?$function@$$A6AXHPAV?$Local@VValue@v8@@@v8@@@Z@1@@Z 10014af0 f i _nodert_generated.obj
 0001:00013b60       ??$_Call@AAV<lambda_55912aef2455062065036d52cc631bbd>@@V?$function@$$A6AXHPAV?$Local@VValue@v8@@@v8@@@Z@std@@@_Invoker_functor@std@@SAXAAV<lambda_55912aef2455062065036d52cc631bbd>@@$$QAV?$function@$$A6AXHPAV?$Local@VValue@v8@@@v8@@@Z@1@@Z 10014b60 f i _nodert_generated.obj
 0001:00013bd0       ??$_Call@AAV<lambda_0fb43142ddbb33ec4e8b38dc9cda485a>@@V?$function@$$A6AXHPAV?$Local@VValue@v8@@@v8@@@Z@std@@@_Invoker_functor@std@@SAXAAV<lambda_0fb43142ddbb33ec4e8b38dc9cda485a>@@$$QAV?$function@$$A6AXHPAV?$Local@VValue@v8@@@v8@@@Z@1@@Z 10014bd0 f i _nodert_generated.obj
 0001:00013c40       ?_Delete_this@?$_Func_impl@V<lambda_0ca07c6226f46e76875b5e248892ce5b>@@V?$allocator@H@std@@EV?$task@W4RadioAccessStatus@Radios@Devices@Windows@@@Concurrency@@@std@@EAEX_N@Z 10014c40 f i _nodert_generated.obj
 0001:00013c90       ?_Target_type@?$_Func_impl@V<lambda_0ca07c6226f46e76875b5e248892ce5b>@@V?$allocator@H@std@@EV?$task@W4RadioAccessStatus@Radios@Devices@Windows@@@Concurrency@@@std@@EBEABVtype_info@@XZ 10014c90 f i _nodert_generated.obj
 0001:00013ca0       ?_Do_call@?$_Func_impl@V<lambda_0ca07c6226f46e76875b5e248892ce5b>@@V?$allocator@H@std@@EV?$task@W4RadioAccessStatus@Radios@Devices@Windows@@@Concurrency@@@std@@EAEE$$QAV?$task@W4RadioAccessStatus@Radios@Devices@Windows@@@Concurrency@@@Z 10014ca0 f i _nodert_generated.obj
 0001:00013cd0       ?_Move@?$_Func_impl@V<lambda_0ca07c6226f46e76875b5e248892ce5b>@@V?$allocator@H@std@@EV?$task@W4RadioAccessStatus@Radios@Devices@Windows@@@Concurrency@@@std@@EAEPAV?$_Func_base@EV?$task@W4RadioAccessStatus@Radios@Devices@Windows@@@Concurrency@@@2@PAX@Z 10014cd0 f i _nodert_generated.obj
 0001:00013d50       ?_Copy@?$_Func_impl@V<lambda_0ca07c6226f46e76875b5e248892ce5b>@@V?$allocator@H@std@@EV?$task@W4RadioAccessStatus@Radios@Devices@Windows@@@Concurrency@@@std@@EBEPAV?$_Func_base@EV?$task@W4RadioAccessStatus@Radios@Devices@Windows@@@Concurrency@@@2@PAX@Z 10014d50 f i _nodert_generated.obj
 0001:00013de0       ?_Delete_this@?$_Func_impl@V<lambda_b790627109c9d7e4b89a786d55a0c462>@@V?$allocator@H@std@@EV?$task@P$AAU?$IVectorView@P$AAVRadio@Radios@Devices@Windows@@@Collections@Foundation@Windows@@@Concurrency@@@std@@EAEX_N@Z 10014de0 f i _nodert_generated.obj
 0001:00013e00       ?_Target_type@?$_Func_impl@V<lambda_b790627109c9d7e4b89a786d55a0c462>@@V?$allocator@H@std@@EV?$task@P$AAU?$IVectorView@P$AAVRadio@Radios@Devices@Windows@@@Collections@Foundation@Windows@@@Concurrency@@@std@@EBEABVtype_info@@XZ 10014e00 f i _nodert_generated.obj
 0001:00013e10       ?_Do_call@?$_Func_impl@V<lambda_c27880a56ba3ded47134e23bf355db13>@@V?$allocator@H@std@@EV?$task@P$AAVRadio@Radios@Devices@Windows@@@Concurrency@@@std@@EAEE$$QAV?$task@P$AAVRadio@Radios@Devices@Windows@@@Concurrency@@@Z 10014e10 f i _nodert_generated.obj
 0001:00013e10       ?_Do_call@?$_Func_impl@V<lambda_b790627109c9d7e4b89a786d55a0c462>@@V?$allocator@H@std@@EV?$task@P$AAU?$IVectorView@P$AAVRadio@Radios@Devices@Windows@@@Collections@Foundation@Windows@@@Concurrency@@@std@@EAEE$$QAV?$task@P$AAU?$IVectorView@P$AAVRadio@Radios@Devices@Windows@@@Collections@Foundation@Windows@@@Concurrency@@@Z 10014e10 f i _nodert_generated.obj
 0001:00013e40       ?_Move@?$_Func_impl@V<lambda_b790627109c9d7e4b89a786d55a0c462>@@V?$allocator@H@std@@EV?$task@P$AAU?$IVectorView@P$AAVRadio@Radios@Devices@Windows@@@Collections@Foundation@Windows@@@Concurrency@@@std@@EAEPAV?$_Func_base@EV?$task@P$AAU?$IVectorView@P$AAVRadio@Radios@Devices@Windows@@@Collections@Foundation@Windows@@@Concurrency@@@2@PAX@Z 10014e40 f i _nodert_generated.obj
 0001:00013e60       ?_Copy@?$_Func_impl@V<lambda_b790627109c9d7e4b89a786d55a0c462>@@V?$allocator@H@std@@EV?$task@P$AAU?$IVectorView@P$AAVRadio@Radios@Devices@Windows@@@Collections@Foundation@Windows@@@Concurrency@@@std@@EBEPAV?$_Func_base@EV?$task@P$AAU?$IVectorView@P$AAVRadio@Radios@Devices@Windows@@@Collections@Foundation@Windows@@@Concurrency@@@2@PAX@Z 10014e60 f i _nodert_generated.obj
 0001:00013e90       ?_Delete_this@?$_Func_impl@V<lambda_c27880a56ba3ded47134e23bf355db13>@@V?$allocator@H@std@@EV?$task@P$AAVRadio@Radios@Devices@Windows@@@Concurrency@@@std@@EAEX_N@Z 10014e90 f i _nodert_generated.obj
 0001:00013eb0       ?_Target_type@?$_Func_impl@V<lambda_c27880a56ba3ded47134e23bf355db13>@@V?$allocator@H@std@@EV?$task@P$AAVRadio@Radios@Devices@Windows@@@Concurrency@@@std@@EBEABVtype_info@@XZ 10014eb0 f i _nodert_generated.obj
 0001:00013ec0       ?_Move@?$_Func_impl@V<lambda_c27880a56ba3ded47134e23bf355db13>@@V?$allocator@H@std@@EV?$task@P$AAVRadio@Radios@Devices@Windows@@@Concurrency@@@std@@EAEPAV?$_Func_base@EV?$task@P$AAVRadio@Radios@Devices@Windows@@@Concurrency@@@2@PAX@Z 10014ec0 f i _nodert_generated.obj
 0001:00013ee0       ?_Copy@?$_Func_impl@V<lambda_c27880a56ba3ded47134e23bf355db13>@@V?$allocator@H@std@@EV?$task@P$AAVRadio@Radios@Devices@Windows@@@Concurrency@@@std@@EBEPAV?$_Func_base@EV?$task@P$AAVRadio@Radios@Devices@Windows@@@Concurrency@@@2@PAX@Z 10014ee0 f i _nodert_generated.obj
 0001:00013f10       ??1?$_Func_base@X$$V@std@@QAE@XZ 10014f10 f i _nodert_generated.obj
 0001:00013f20       ??$?0ABV<lambda_847758569c482b5c3071d04a93fd5a03>@@ABV?$allocator@H@std@@@?$_Func_impl@V<lambda_847758569c482b5c3071d04a93fd5a03>@@V?$allocator@H@std@@X$$V@std@@QAE@ABV<lambda_847758569c482b5c3071d04a93fd5a03>@@ABV?$allocator@H@1@@Z 10014f20 f i _nodert_generated.obj
 0001:00013fc0       ??$construct@V?$_Func_impl@V<lambda_b790627109c9d7e4b89a786d55a0c462>@@V?$allocator@H@std@@EV?$task@P$AAU?$IVectorView@P$AAVRadio@Radios@Devices@Windows@@@Collections@Foundation@Windows@@@Concurrency@@@std@@ABV<lambda_b790627109c9d7e4b89a786d55a0c462>@@ABV?$allocator@H@2@@?$allocator_traits@V?$allocator@V?$_Func_impl@V<lambda_b790627109c9d7e4b89a786d55a0c462>@@V?$allocator@H@std@@EV?$task@P$AAU?$IVectorView@P$AAVRadio@Radios@Devices@Windows@@@Collections@Foundation@Windows@@@Concurrency@@@std@@@std@@@std@@SAXAAV?$allocator@V?$_Func_impl@V<lambda_b790627109c9d7e4b89a786d55a0c462>@@V?$allocator@H@std@@EV?$task@P$AAU?$IVectorView@P$AAVRadio@Radios@Devices@Windows@@@Collections@Foundation@Windows@@@Concurrency@@@std@@@1@PAV?$_Func_impl@V<lambda_b790627109c9d7e4b89a786d55a0c462>@@V?$allocator@H@std@@EV?$task@P$AAU?$IVectorView@P$AAVRadio@Radios@Devices@Windows@@@Collections@Foundation@Windows@@@Concurrency@@@1@ABV<lambda_b790627109c9d7e4b89a786d55a0c462>@@ABV?$allocator@H@1@@Z 10014fc0 f i _nodert_generated.obj
 0001:00013fc0       ??$construct@V?$_Func_impl@V<lambda_b790627109c9d7e4b89a786d55a0c462>@@V?$allocator@H@std@@EV?$task@P$AAU?$IVectorView@P$AAVRadio@Radios@Devices@Windows@@@Collections@Foundation@Windows@@@Concurrency@@@std@@V<lambda_b790627109c9d7e4b89a786d55a0c462>@@V?$allocator@H@2@@?$allocator_traits@V?$allocator@V?$_Func_impl@V<lambda_b790627109c9d7e4b89a786d55a0c462>@@V?$allocator@H@std@@EV?$task@P$AAU?$IVectorView@P$AAVRadio@Radios@Devices@Windows@@@Collections@Foundation@Windows@@@Concurrency@@@std@@@std@@@std@@SAXAAV?$allocator@V?$_Func_impl@V<lambda_b790627109c9d7e4b89a786d55a0c462>@@V?$allocator@H@std@@EV?$task@P$AAU?$IVectorView@P$AAVRadio@Radios@Devices@Windows@@@Collections@Foundation@Windows@@@Concurrency@@@std@@@1@PAV?$_Func_impl@V<lambda_b790627109c9d7e4b89a786d55a0c462>@@V?$allocator@H@std@@EV?$task@P$AAU?$IVectorView@P$AAVRadio@Radios@Devices@Windows@@@Collections@Foundation@Windows@@@Concurrency@@@1@$$QAV<lambda_b790627109c9d7e4b89a786d55a0c462>@@$$QAV?$allocator@H@1@@Z 10014fc0 f i _nodert_generated.obj
 0001:00014060       ??$construct@V?$_Func_impl@V<lambda_c27880a56ba3ded47134e23bf355db13>@@V?$allocator@H@std@@EV?$task@P$AAVRadio@Radios@Devices@Windows@@@Concurrency@@@std@@ABV<lambda_c27880a56ba3ded47134e23bf355db13>@@ABV?$allocator@H@2@@?$allocator_traits@V?$allocator@V?$_Func_impl@V<lambda_c27880a56ba3ded47134e23bf355db13>@@V?$allocator@H@std@@EV?$task@P$AAVRadio@Radios@Devices@Windows@@@Concurrency@@@std@@@std@@@std@@SAXAAV?$allocator@V?$_Func_impl@V<lambda_c27880a56ba3ded47134e23bf355db13>@@V?$allocator@H@std@@EV?$task@P$AAVRadio@Radios@Devices@Windows@@@Concurrency@@@std@@@1@PAV?$_Func_impl@V<lambda_c27880a56ba3ded47134e23bf355db13>@@V?$allocator@H@std@@EV?$task@P$AAVRadio@Radios@Devices@Windows@@@Concurrency@@@1@ABV<lambda_c27880a56ba3ded47134e23bf355db13>@@ABV?$allocator@H@1@@Z 10015060 f i _nodert_generated.obj
 0001:00014060       ??$construct@V?$_Func_impl@V<lambda_c27880a56ba3ded47134e23bf355db13>@@V?$allocator@H@std@@EV?$task@P$AAVRadio@Radios@Devices@Windows@@@Concurrency@@@std@@V<lambda_c27880a56ba3ded47134e23bf355db13>@@V?$allocator@H@2@@?$allocator_traits@V?$allocator@V?$_Func_impl@V<lambda_c27880a56ba3ded47134e23bf355db13>@@V?$allocator@H@std@@EV?$task@P$AAVRadio@Radios@Devices@Windows@@@Concurrency@@@std@@@std@@@std@@SAXAAV?$allocator@V?$_Func_impl@V<lambda_c27880a56ba3ded47134e23bf355db13>@@V?$allocator@H@std@@EV?$task@P$AAVRadio@Radios@Devices@Windows@@@Concurrency@@@std@@@1@PAV?$_Func_impl@V<lambda_c27880a56ba3ded47134e23bf355db13>@@V?$allocator@H@std@@EV?$task@P$AAVRadio@Radios@Devices@Windows@@@Concurrency@@@1@$$QAV<lambda_c27880a56ba3ded47134e23bf355db13>@@$$QAV?$allocator@H@1@@Z 10015060 f i _nodert_generated.obj
 0001:000141e0       ?_Delete_this@?$_Func_impl@V<lambda_35b15a041fdff25694358386f486c371>@@V?$allocator@H@std@@X$$V@std@@EAEX_N@Z 100151e0 f i _nodert_generated.obj
 0001:00014250       ?_Target_type@?$_Func_impl@V<lambda_35b15a041fdff25694358386f486c371>@@V?$allocator@H@std@@X$$V@std@@EBEABVtype_info@@XZ 10015250 f i _nodert_generated.obj
 0001:00014260       ?_Do_call@?$_Func_impl@V<lambda_d9306928c1bd470a6e42b27630d148ed>@@V?$allocator@H@std@@X$$V@std@@EAEXXZ 10015260 f i _nodert_generated.obj
 0001:00014260       ?_Do_call@?$_Func_impl@V<lambda_f08ec446ca8b33299a4e48e3172e9b8c>@@V?$allocator@H@std@@X$$V@std@@EAEXXZ 10015260 f i _nodert_generated.obj
 0001:00014260       ?_Do_call@?$_Func_impl@V<lambda_35b15a041fdff25694358386f486c371>@@V?$allocator@H@std@@X$$V@std@@EAEXXZ 10015260 f i _nodert_generated.obj
 0001:00014270       ?_Copy@?$_Func_impl@V<lambda_35b15a041fdff25694358386f486c371>@@V?$allocator@H@std@@X$$V@std@@EBEPAV?$_Func_base@X$$V@2@PAX@Z 10015270 f i _nodert_generated.obj
 0001:00014270       ?_Move@?$_Func_impl@V<lambda_35b15a041fdff25694358386f486c371>@@V?$allocator@H@std@@X$$V@std@@EAEPAV?$_Func_base@X$$V@2@PAX@Z 10015270 f i _nodert_generated.obj
 0001:000142d0       ?_Delete_this@?$_Func_impl@V<lambda_d9306928c1bd470a6e42b27630d148ed>@@V?$allocator@H@std@@X$$V@std@@EAEX_N@Z 100152d0 f i _nodert_generated.obj
 0001:00014340       ?_Target_type@?$_Func_impl@V<lambda_d9306928c1bd470a6e42b27630d148ed>@@V?$allocator@H@std@@X$$V@std@@EBEABVtype_info@@XZ 10015340 f i _nodert_generated.obj
 0001:00014350       ?_Move@?$_Func_impl@V<lambda_d9306928c1bd470a6e42b27630d148ed>@@V?$allocator@H@std@@X$$V@std@@EAEPAV?$_Func_base@X$$V@2@PAX@Z 10015350 f i _nodert_generated.obj
 0001:00014350       ?_Copy@?$_Func_impl@V<lambda_d9306928c1bd470a6e42b27630d148ed>@@V?$allocator@H@std@@X$$V@std@@EBEPAV?$_Func_base@X$$V@2@PAX@Z 10015350 f i _nodert_generated.obj
 0001:000143b0       ?_Delete_this@?$_Func_impl@V<lambda_f08ec446ca8b33299a4e48e3172e9b8c>@@V?$allocator@H@std@@X$$V@std@@EAEX_N@Z 100153b0 f i _nodert_generated.obj
 0001:00014420       ?_Target_type@?$_Func_impl@V<lambda_f08ec446ca8b33299a4e48e3172e9b8c>@@V?$allocator@H@std@@X$$V@std@@EBEABVtype_info@@XZ 10015420 f i _nodert_generated.obj
 0001:00014430       ?_Copy@?$_Func_impl@V<lambda_f08ec446ca8b33299a4e48e3172e9b8c>@@V?$allocator@H@std@@X$$V@std@@EBEPAV?$_Func_base@X$$V@2@PAX@Z 10015430 f i _nodert_generated.obj
 0001:00014430       ?_Move@?$_Func_impl@V<lambda_f08ec446ca8b33299a4e48e3172e9b8c>@@V?$allocator@H@std@@X$$V@std@@EAEPAV?$_Func_base@X$$V@2@PAX@Z 10015430 f i _nodert_generated.obj
 0001:00014490       ??$?0ABV?$allocator@H@std@@V<lambda_bf7f2b711a6b55b30dfb35db79500e56>@@@?$_Compressed_pair@V?$allocator@H@std@@V<lambda_bf7f2b711a6b55b30dfb35db79500e56>@@$00@std@@QAE@U_One_then_variadic_args_t@1@ABV?$allocator@H@1@$$QAV<lambda_bf7f2b711a6b55b30dfb35db79500e56>@@@Z 10015490 f i _nodert_generated.obj
 0001:00014600       ??1?$_Func_impl@V<lambda_b790627109c9d7e4b89a786d55a0c462>@@V?$allocator@H@std@@EV?$task@P$AAU?$IVectorView@P$AAVRadio@Radios@Devices@Windows@@@Collections@Foundation@Windows@@@Concurrency@@@std@@QAE@XZ 10015600 f i _nodert_generated.obj
 0001:00014670       ??1?$_Func_impl@V<lambda_c27880a56ba3ded47134e23bf355db13>@@V?$allocator@H@std@@EV?$task@P$AAVRadio@Radios@Devices@Windows@@@Concurrency@@@std@@QAE@XZ 10015670 f i _nodert_generated.obj
 0001:000146e0       ??1?$_Func_base@EV?$task@W4RadioAccessStatus@Radios@Devices@Windows@@@Concurrency@@@std@@QAE@XZ 100156e0 f i _nodert_generated.obj
 0001:000146f0       ??1?$_Func_base@EV?$task@P$AAU?$IVectorView@P$AAVRadio@Radios@Devices@Windows@@@Collections@Foundation@Windows@@@Concurrency@@@std@@QAE@XZ 100156f0 f i _nodert_generated.obj
 0001:00014700       ??1?$_Func_base@EV?$task@P$AAVRadio@Radios@Devices@Windows@@@Concurrency@@@std@@QAE@XZ 10015700 f i _nodert_generated.obj
 0001:00014707       ?__abi_GetIids@?$AsyncOperationCompletedHandler@P$AAU?$IVectorView@P$AAVRadio@Radios@Devices@Windows@@@Collections@Foundation@Windows@@@Foundation@Windows@@W3$AAGJPAKPAPAVGuid@Platform@@@Z 10015707 f i _nodert_generated.obj
 0001:00014707       ?__abi_GetIids@?$AsyncOperationCompletedHandler@W4RadioAccessStatus@Radios@Devices@Windows@@@Foundation@Windows@@W3$AAGJPAKPAPAVGuid@Platform@@@Z 10015707 f i _nodert_generated.obj
 0001:00014707       ?__abi_GetIids@?$AsyncOperationCompletedHandler@P$AAVRadio@Radios@Devices@Windows@@@Foundation@Windows@@W3$AAGJPAKPAPAVGuid@Platform@@@Z 10015707 f i _nodert_generated.obj
 0001:00014711       ?__abi_QueryInterface@?$AsyncOperationCompletedHandler@P$AAU?$IVectorView@P$AAVRadio@Radios@Devices@Windows@@@Collections@Foundation@Windows@@@Foundation@Windows@@W3$AAGJAAVGuid@Platform@@PAPAX@Z 10015711 f i _nodert_generated.obj
 0001:0001471b       ?__abi_AddRef@?$AsyncOperationCompletedHandler@P$AAU?$IVectorView@P$AAVRadio@Radios@Devices@Windows@@@Collections@Foundation@Windows@@@Foundation@Windows@@W7$AAGKXZ 1001571b f i _nodert_generated.obj
 0001:0001471b       ?__abi_AddRef@?$AsyncOperationCompletedHandler@P$AAVRadio@Radios@Devices@Windows@@@Foundation@Windows@@W7$AAGKXZ 1001571b f i _nodert_generated.obj
 0001:0001471b       ?__abi_AddRef@?$AsyncOperationCompletedHandler@W4RadioAccessStatus@Radios@Devices@Windows@@@Foundation@Windows@@W7$AAGKXZ 1001571b f i _nodert_generated.obj
 0001:0001471b       ?__abi_AddRef@?$TypedEventHandler@P$AAVRadio@Radios@Devices@Windows@@P$AAVObject@Platform@@@Foundation@Windows@@W7$AAGKXZ 1001571b f i _nodert_generated.obj
 0001:00014725       ?__abi_GetIids@?$TypedEventHandler@P$AAVRadio@Radios@Devices@Windows@@P$AAVObject@Platform@@@Foundation@Windows@@W7$AAGJPAKPAPAVGuid@Platform@@@Z 10015725 f i _nodert_generated.obj
 0001:0001472f       ?__abi_GetIids@?$AsyncOperationCompletedHandler@W4RadioAccessStatus@Radios@Devices@Windows@@@Foundation@Windows@@W7$AAGJPAKPAPAVGuid@Platform@@@Z 1001572f f i _nodert_generated.obj
 0001:0001472f       ?__abi_GetIids@?$AsyncOperationCompletedHandler@P$AAU?$IVectorView@P$AAVRadio@Radios@Devices@Windows@@@Collections@Foundation@Windows@@@Foundation@Windows@@W7$AAGJPAKPAPAVGuid@Platform@@@Z 1001572f f i _nodert_generated.obj
 0001:0001472f       ?__abi_GetIids@?$AsyncOperationCompletedHandler@P$AAVRadio@Radios@Devices@Windows@@@Foundation@Windows@@W7$AAGJPAKPAPAVGuid@Platform@@@Z 1001572f f i _nodert_generated.obj
 0001:00014739       ?__abi_AddRef@?$AsyncOperationCompletedHandler@W4RadioAccessStatus@Radios@Devices@Windows@@@Foundation@Windows@@W3$AAGKXZ 10015739 f i _nodert_generated.obj
 0001:00014739       ?__abi_AddRef@?$AsyncOperationCompletedHandler@P$AAVRadio@Radios@Devices@Windows@@@Foundation@Windows@@W3$AAGKXZ 10015739 f i _nodert_generated.obj
 0001:00014739       ?__abi_AddRef@?$TypedEventHandler@P$AAVRadio@Radios@Devices@Windows@@P$AAVObject@Platform@@@Foundation@Windows@@W3$AAGKXZ 10015739 f i _nodert_generated.obj
 0001:00014739       ?__abi_AddRef@?$AsyncOperationCompletedHandler@P$AAU?$IVectorView@P$AAVRadio@Radios@Devices@Windows@@@Collections@Foundation@Windows@@@Foundation@Windows@@W3$AAGKXZ 10015739 f i _nodert_generated.obj
 0001:00014743       ?__abi_QueryInterface@?$AsyncOperationCompletedHandler@P$AAU?$IVectorView@P$AAVRadio@Radios@Devices@Windows@@@Collections@Foundation@Windows@@@Foundation@Windows@@W7$AAGJAAVGuid@Platform@@PAPAX@Z 10015743 f i _nodert_generated.obj
 0001:0001474d       ?__abi_Release@?$AsyncOperationCompletedHandler@P$AAU?$IVectorView@P$AAVRadio@Radios@Devices@Windows@@@Collections@Foundation@Windows@@@Foundation@Windows@@W3$AAGKXZ 1001574d f i _nodert_generated.obj
 0001:0001474d       ?__abi_Release@?$AsyncOperationCompletedHandler@P$AAVRadio@Radios@Devices@Windows@@@Foundation@Windows@@W3$AAGKXZ 1001574d f i _nodert_generated.obj
 0001:0001474d       ?__abi_Release@?$AsyncOperationCompletedHandler@W4RadioAccessStatus@Radios@Devices@Windows@@@Foundation@Windows@@W3$AAGKXZ 1001574d f i _nodert_generated.obj
 0001:0001474d       ?__abi_Release@?$TypedEventHandler@P$AAVRadio@Radios@Devices@Windows@@P$AAVObject@Platform@@@Foundation@Windows@@W3$AAGKXZ 1001574d f i _nodert_generated.obj
 0001:00014757       ?__abi_QueryInterface@?$TypedEventHandler@P$AAVRadio@Radios@Devices@Windows@@P$AAVObject@Platform@@@Foundation@Windows@@W3$AAGJAAVGuid@Platform@@PAPAX@Z 10015757 f i _nodert_generated.obj
 0001:00014761       ?__abi_Release@?$TypedEventHandler@P$AAVRadio@Radios@Devices@Windows@@P$AAVObject@Platform@@@Foundation@Windows@@W7$AAGKXZ 10015761 f i _nodert_generated.obj
 0001:00014761       ?__abi_Release@?$AsyncOperationCompletedHandler@W4RadioAccessStatus@Radios@Devices@Windows@@@Foundation@Windows@@W7$AAGKXZ 10015761 f i _nodert_generated.obj
 0001:00014761       ?__abi_Release@?$AsyncOperationCompletedHandler@P$AAVRadio@Radios@Devices@Windows@@@Foundation@Windows@@W7$AAGKXZ 10015761 f i _nodert_generated.obj
 0001:00014761       ?__abi_Release@?$AsyncOperationCompletedHandler@P$AAU?$IVectorView@P$AAVRadio@Radios@Devices@Windows@@@Collections@Foundation@Windows@@@Foundation@Windows@@W7$AAGKXZ 10015761 f i _nodert_generated.obj
 0001:0001476b       ?__abi_QueryInterface@?$TypedEventHandler@P$AAVRadio@Radios@Devices@Windows@@P$AAVObject@Platform@@@Foundation@Windows@@W7$AAGJAAVGuid@Platform@@PAPAX@Z 1001576b f i _nodert_generated.obj
 0001:00014775       ?__abi_GetTrustLevel@?$AsyncOperationCompletedHandler@W4RadioAccessStatus@Radios@Devices@Windows@@@Foundation@Windows@@W3$AAGJPAW4__abi_TrustLevel@@@Z 10015775 f i _nodert_generated.obj
 0001:00014775       ?__abi_GetTrustLevel@?$AsyncOperationCompletedHandler@P$AAVRadio@Radios@Devices@Windows@@@Foundation@Windows@@W3$AAGJPAW4__abi_TrustLevel@@@Z 10015775 f i _nodert_generated.obj
 0001:00014775       ?__abi_GetTrustLevel@?$AsyncOperationCompletedHandler@P$AAU?$IVectorView@P$AAVRadio@Radios@Devices@Windows@@@Collections@Foundation@Windows@@@Foundation@Windows@@W3$AAGJPAW4__abi_TrustLevel@@@Z 10015775 f i _nodert_generated.obj
 0001:00014775       ?__abi_GetTrustLevel@?$TypedEventHandler@P$AAVRadio@Radios@Devices@Windows@@P$AAVObject@Platform@@@Foundation@Windows@@W3$AAGJPAW4__abi_TrustLevel@@@Z 10015775 f i _nodert_generated.obj
 0001:0001477f       ?__abi_GetRuntimeClassName@?$AsyncOperationCompletedHandler@P$AAVRadio@Radios@Devices@Windows@@@Foundation@Windows@@W3$AAGJPAPAUHSTRING__@@@Z 1001577f f i _nodert_generated.obj
 0001:00014789       ?__abi_GetTrustLevel@?$AsyncOperationCompletedHandler@P$AAVRadio@Radios@Devices@Windows@@@Foundation@Windows@@W7$AAGJPAW4__abi_TrustLevel@@@Z 10015789 f i _nodert_generated.obj
 0001:00014789       ?__abi_GetTrustLevel@?$AsyncOperationCompletedHandler@W4RadioAccessStatus@Radios@Devices@Windows@@@Foundation@Windows@@W7$AAGJPAW4__abi_TrustLevel@@@Z 10015789 f i _nodert_generated.obj
 0001:00014789       ?__abi_GetTrustLevel@?$TypedEventHandler@P$AAVRadio@Radios@Devices@Windows@@P$AAVObject@Platform@@@Foundation@Windows@@W7$AAGJPAW4__abi_TrustLevel@@@Z 10015789 f i _nodert_generated.obj
 0001:00014789       ?__abi_GetTrustLevel@?$AsyncOperationCompletedHandler@P$AAU?$IVectorView@P$AAVRadio@Radios@Devices@Windows@@@Collections@Foundation@Windows@@@Foundation@Windows@@W7$AAGJPAW4__abi_TrustLevel@@@Z 10015789 f i _nodert_generated.obj
 0001:00014793       ?__abi_QueryInterface@?$AsyncOperationCompletedHandler@P$AAVRadio@Radios@Devices@Windows@@@Foundation@Windows@@W3$AAGJAAVGuid@Platform@@PAPAX@Z 10015793 f i _nodert_generated.obj
 0001:0001479d       ?__abi_GetRuntimeClassName@?$TypedEventHandler@P$AAVRadio@Radios@Devices@Windows@@P$AAVObject@Platform@@@Foundation@Windows@@W3$AAGJPAPAUHSTRING__@@@Z 1001579d f i _nodert_generated.obj
 0001:000147a7       ?__abi_QueryInterface@?$AsyncOperationCompletedHandler@W4RadioAccessStatus@Radios@Devices@Windows@@@Foundation@Windows@@W3$AAGJAAVGuid@Platform@@PAPAX@Z 100157a7 f i _nodert_generated.obj
 0001:000147b1       ?__abi_GetRuntimeClassName@?$AsyncOperationCompletedHandler@P$AAVRadio@Radios@Devices@Windows@@@Foundation@Windows@@W7$AAGJPAPAUHSTRING__@@@Z 100157b1 f i _nodert_generated.obj
 0001:000147bb       ?__abi_GetRuntimeClassName@?$AsyncOperationCompletedHandler@W4RadioAccessStatus@Radios@Devices@Windows@@@Foundation@Windows@@W3$AAGJPAPAUHSTRING__@@@Z 100157bb f i _nodert_generated.obj
 0001:000147c5       ?__abi_QueryInterface@?$AsyncOperationCompletedHandler@P$AAVRadio@Radios@Devices@Windows@@@Foundation@Windows@@W7$AAGJAAVGuid@Platform@@PAPAX@Z 100157c5 f i _nodert_generated.obj
 0001:000147cf       ?__abi_GetRuntimeClassName@?$AsyncOperationCompletedHandler@P$AAU?$IVectorView@P$AAVRadio@Radios@Devices@Windows@@@Collections@Foundation@Windows@@@Foundation@Windows@@W3$AAGJPAPAUHSTRING__@@@Z 100157cf f i _nodert_generated.obj
 0001:000147d9       ?__abi_GetRuntimeClassName@?$TypedEventHandler@P$AAVRadio@Radios@Devices@Windows@@P$AAVObject@Platform@@@Foundation@Windows@@W7$AAGJPAPAUHSTRING__@@@Z 100157d9 f i _nodert_generated.obj
 0001:000147e3       ?__abi_QueryInterface@?$AsyncOperationCompletedHandler@W4RadioAccessStatus@Radios@Devices@Windows@@@Foundation@Windows@@W7$AAGJAAVGuid@Platform@@PAPAX@Z 100157e3 f i _nodert_generated.obj
 0001:000147ed       ?__abi_GetRuntimeClassName@?$AsyncOperationCompletedHandler@W4RadioAccessStatus@Radios@Devices@Windows@@@Foundation@Windows@@W7$AAGJPAPAUHSTRING__@@@Z 100157ed f i _nodert_generated.obj
 0001:000147f7       ?__abi_GetRuntimeClassName@?$AsyncOperationCompletedHandler@P$AAU?$IVectorView@P$AAVRadio@Radios@Devices@Windows@@@Collections@Foundation@Windows@@@Foundation@Windows@@W7$AAGJPAPAUHSTRING__@@@Z 100157f7 f i _nodert_generated.obj
 0001:00014801       ?__abi_GetIids@?$TypedEventHandler@P$AAVRadio@Radios@Devices@Windows@@P$AAVObject@Platform@@@Foundation@Windows@@W3$AAGJPAKPAPAVGuid@Platform@@@Z 10015801 f i _nodert_generated.obj
 0001:00014810       ?ForceSet@Nan@@YA?AV?$Maybe@_N@v8@@V?$Local@VObject@v8@@@3@V?$Local@VValue@v8@@@3@1W4PropertyAttribute@3@@Z 10015810 f i NodeRtUtils.obj
 0001:000148a0       ?Has@Nan@@YA?AV?$Maybe@_N@v8@@V?$Local@VObject@v8@@@3@V?$Local@VString@v8@@@3@@Z 100158a0 f i NodeRtUtils.obj
 0001:00014930       ?WinRtExceptionToJsError@Utils@NodeRT@@YA?AV?$Local@VValue@v8@@@v8@@P$AAVException@Platform@@@Z 10015930 f   NodeRtUtils.obj
 0001:00014ac0       ?ThrowWinRtExceptionInJs@Utils@NodeRT@@YAXP$AAVException@Platform@@@Z 10015ac0 f   NodeRtUtils.obj
 0001:00014af0       ?CreateCallbackObjectInDomain@Utils@NodeRT@@YA?AV?$Local@VObject@v8@@@v8@@V?$Local@VFunction@v8@@@4@@Z 10015af0 f   NodeRtUtils.obj
 0001:00014d20       ?GetObjectInstance@Utils@NodeRT@@YAP$AAVObject@Platform@@V?$Local@VValue@v8@@@v8@@@Z 10015d20 f   NodeRtUtils.obj
 0001:00014dc0       ?NewString@Utils@NodeRT@@YA?AV?$Local@VString@v8@@@v8@@PB_W@Z 10015dc0 f   NodeRtUtils.obj
 0001:00014e00       ?CaseInsenstiveEquals@Utils@NodeRT@@YA_NPB_WPBG@Z 10015e00 f   NodeRtUtils.obj
 0001:00014e50       ?RegisterNameSpace@Utils@NodeRT@@YAXPBDV?$Local@VValue@v8@@@v8@@@Z 10015e50 f   NodeRtUtils.obj
 0001:00014ff0       ?IsWinRtWrapper@Utils@NodeRT@@YA_NV?$Local@VValue@v8@@@v8@@@Z 10015ff0 f   NodeRtUtils.obj
 0001:00015110       ?GetHiddenValue@Utils@NodeRT@@YA?AV?$Local@VValue@v8@@@v8@@V?$Local@VObject@v8@@@4@V?$Local@VString@v8@@@4@@Z 10016110 f   NodeRtUtils.obj
 0001:00015150       ?New@OpaqueWrapper@NodeRT@@CAXABV?$FunctionCallbackInfo@VValue@v8@@@Nan@@@Z 10016150 f   OpaqueWrapper.obj
 0001:000151d0       ?Init@OpaqueWrapper@NodeRT@@CAXXZ 100161d0 f   OpaqueWrapper.obj
 0001:000152e0       ?CreateOpaqueWrapper@NodeRT@@YA?AV?$Local@VValue@v8@@@v8@@P$AAVObject@Platform@@@Z 100162e0 f   OpaqueWrapper.obj
 0001:00015416       ?Initialize@Details@Platform@@YAHXZ 10016416 f   vccorlib:init.obj
 0001:00015450       ??1?$Module@$00VInProcModule@Details@Platform@@@WRL@Microsoft@@UAE@XZ 10016450 f i vccorlib:init.obj
 0001:0001546b       ??1InProcModule@Details@Platform@@UAE@XZ 1001646b f i vccorlib:init.obj
 0001:00015484       ??_G?$Module@$00VInProcModule@Details@Platform@@@WRL@Microsoft@@UAEPAXI@Z 10016484 f i vccorlib:init.obj
 0001:00015484       ??_E?$Module@$00VInProcModule@Details@Platform@@@WRL@Microsoft@@UAEPAXI@Z 10016484 f i vccorlib:init.obj
 0001:000154a6       ??_EInProcModule@Details@Platform@@UAEPAXI@Z 100164a6 f i vccorlib:init.obj
 0001:000154a6       ??_GInProcModule@Details@Platform@@UAEPAXI@Z 100164a6 f i vccorlib:init.obj
 0001:000154c8       ?Cleanup@Details@Platform@@YAXXZ 100164c8 f   vccorlib:init.obj
 0001:000154d5       ?Create@?$Module@$00VInProcModule@Details@Platform@@@WRL@Microsoft@@SAAAVInProcModule@Details@Platform@@XZ 100164d5 f i vccorlib:init.obj
 0001:0001551f       ?__abi_DecrementObjectCount@InProcModule@Details@Platform@@UAGKXZ 1001651f f i vccorlib:init.obj
 0001:0001551f       ?DecrementObjectCount@?$Module@$00VInProcModule@Details@Platform@@@WRL@Microsoft@@UAGKXZ 1001651f f i vccorlib:init.obj
 0001:0001552e       ?GetFirstEntryPointer@ModuleBase@Details@WRL@Microsoft@@UBGPAPBUCreatorMap@234@XZ 1001652e f i vccorlib:init.obj
 0001:00015536       ?GetLastEntryPointer@ModuleBase@Details@WRL@Microsoft@@UBGPAPBUCreatorMap@234@XZ 10016536 f i vccorlib:init.obj
 0001:0001553e       ?GetLock@ModuleBase@Details@WRL@Microsoft@@UBGPAU_RTL_SRWLOCK@@XZ 1001653e f i vccorlib:init.obj
 0001:00015546       ?GetMidEntryPointer@ModuleBase@Details@WRL@Microsoft@@UBGPAPBUCreatorMap@234@XZ 10016546 f i vccorlib:init.obj
 0001:0001554e       ?GetObjectCount@ModuleBase@Details@WRL@Microsoft@@UBGKXZ 1001654e f i vccorlib:init.obj
 0001:00015556       ?IsServerNameEqual@Details@WRL@Microsoft@@YA_NPBUCreatorMap@123@PB_W@Z 10016556 f i vccorlib:init.obj
 0001:000155a6       ?LockExclusive@SRWLock@Wrappers@WRL@Microsoft@@SA?AV?$SyncLockT@USRWLockExclusiveTraits@HandleTraits@Wrappers@WRL@Microsoft@@@Details@234@PAU_RTL_SRWLOCK@@@Z 100165a6 f i vccorlib:init.obj
 0001:000155bc       ?RegisterCOMObject@?$Module@$00VInProcModule@Details@Platform@@@WRL@Microsoft@@UAGJPB_WPAU_GUID@@PAPAUIClassFactory@@PAKI@Z 100165bc f i vccorlib:init.obj
 0001:000155c4       ?RegisterWinRTObject@?$Module@$00VInProcModule@Details@Platform@@@WRL@Microsoft@@UAGJPB_WPAPB_WPAPAU<unnamed-type-RO_REGISTRATION_COOKIE>@@I@Z 100165c4 f i vccorlib:init.obj
 0001:000155cc       ?TerminateMap@Details@WRL@Microsoft@@YA_NPAVModuleBase@123@PB_W_N@Z 100165cc f i vccorlib:init.obj
 0001:000156d9       ?UnregisterCOMObject@?$Module@$00VInProcModule@Details@Platform@@@WRL@Microsoft@@UAGJPB_WPAKI@Z 100166d9 f i vccorlib:init.obj
 0001:000156e1       ?UnregisterWinRTObject@?$Module@$00VInProcModule@Details@Platform@@@WRL@Microsoft@@UAGJPB_WPAU<unnamed-type-RO_REGISTRATION_COOKIE>@@@Z 100166e1 f i vccorlib:init.obj
 0001:000156e9       ?__abi_IncrementObjectCount@InProcModule@Details@Platform@@UAGKXZ 100166e9 f i vccorlib:init.obj
 0001:000156e9       ?IncrementObjectCount@?$Module@$00VInProcModule@Details@Platform@@@WRL@Microsoft@@UAGKXZ 100166e9 f i vccorlib:init.obj
 0001:000156f8       ?__getIids@__winRT@@YGJHPAKPBU__s_GUID@@PAPAVGuid@Platform@@@Z 100166f8 f   vccorlib:compiler.obj
 0001:00015701       ?__windowsCreateString@__winRT@@YGJPB_WHPAPAUHSTRING__@@@Z 10016701 f   vccorlib:compiler.obj
 0001:0001570a       ?__getActivationFactoryByPCWSTR@__winRT@@YGJPAXAAVGuid@Platform@@PAPAX@Z 1001670a f   vccorlib:activation.obj
 0001:00015714       ?InitializeData@Details@Platform@@YAJH@Z 10016714 f   vccorlib:vccorlib140.DLL
 0001:0001571a       ?UninitializeData@Details@Platform@@YAXH@Z 1001671a f   vccorlib:vccorlib140.DLL
 0001:00015720       ?GetIidsFn@@YGJHPAKPBU__s_GUID@@PAPAVGuid@Platform@@@Z 10016720 f   vccorlib:vccorlib140.DLL
 0001:00015726       ?GetActivationFactoryByPCWSTR@@YGJPAXAAVGuid@Platform@@PAPAX@Z 10016726 f   vccorlib:vccorlib140.DLL
 0001:0001572c       @__security_check_cookie@4 1001672c f   MSVCRT:_secchk_.obj
 0001:0001573d       ??_V@YAXPAX@Z              1001673d f   MSVCRT:delete_array.obj
 0001:00015802       ??$__crt_fast_encode_pointer@P6GXPAU_RTL_CONDITION_VARIABLE@@@Z@@YAP6GXPAU_RTL_CONDITION_VARIABLE@@@ZQ6GX0@Z@Z 10016802 f i MSVCRT:thread_safe_statics.obj
 0001:00015802       ??$__crt_fast_encode_pointer@P6GHPAU_RTL_CONDITION_VARIABLE@@PAU_RTL_CRITICAL_SECTION@@K@Z@@YAP6GHPAU_RTL_CONDITION_VARIABLE@@PAU_RTL_CRITICAL_SECTION@@K@ZQ6GH01K@Z@Z 10016802 f i MSVCRT:thread_safe_statics.obj
 0001:0001583b       __Init_thread_footer       1001683b f   MSVCRT:thread_safe_statics.obj
 0001:0001587a       __Init_thread_header       1001687a f   MSVCRT:thread_safe_statics.obj
 0001:000158c0       __Init_thread_lock         100168c0 f   MSVCRT:thread_safe_statics.obj
 0001:000158cc       __Init_thread_notify       100168cc f   MSVCRT:thread_safe_statics.obj
 0001:0001590d       __Init_thread_unlock       1001690d f   MSVCRT:thread_safe_statics.obj
 0001:00015919       __Init_thread_wait         10016919 f   MSVCRT:thread_safe_statics.obj
 0001:0001597e       ??2@YAPAXI@Z               1001697e f   MSVCRT:new_scalar.obj
 0001:000159f5       ___scrt_acquire_startup_lock 100169f5 f   MSVCRT:utility.obj
 0001:00015a2a       ___scrt_dllmain_after_initialize_c 10016a2a f   MSVCRT:utility.obj
 0001:00015a55       ___scrt_dllmain_before_initialize_c 10016a55 f   MSVCRT:utility.obj
 0001:00015a63       ___scrt_dllmain_crt_thread_attach 10016a63 f   MSVCRT:utility.obj
 0001:00015a82       ___scrt_dllmain_crt_thread_detach 10016a82 f   MSVCRT:utility.obj
 0001:00015a8f       ___scrt_dllmain_exception_filter 10016a8f f   MSVCRT:utility.obj
 0001:00015ac2       ___scrt_dllmain_uninitialize_c 10016ac2 f   MSVCRT:utility.obj
 0001:00015ae5       ___scrt_dllmain_uninitialize_critical 10016ae5 f   MSVCRT:utility.obj
 0001:00015af2       ___scrt_initialize_crt     10016af2 f   MSVCRT:utility.obj
 0001:00015b2b       ___scrt_initialize_onexit_tables 10016b2b f   MSVCRT:utility.obj
 0001:00015bc2       ___scrt_is_nonwritable_in_current_image 10016bc2 f   MSVCRT:utility.obj
 0001:00015c4c       ___scrt_release_startup_lock 10016c4c f   MSVCRT:utility.obj
 0001:00015c69       ___scrt_uninitialize_crt   10016c69 f   MSVCRT:utility.obj
 0001:00015c91       __onexit                   10016c91 f   MSVCRT:utility.obj
 0001:00015ccc       _atexit                    10016ccc f   MSVCRT:utility.obj
 0001:00015ce1       ??3@YAXPAX@Z               10016ce1 f   MSVCRT:delete_scalar.obj
 0001:00015ce6       ??3@YAXPAXI@Z              10016ce6 f   MSVCRT:delete_scalar_size.obj
 0001:00015cf4       ??_U@YAPAXI@Z              10016cf4 f   MSVCRT:new_array.obj
 0001:00015cfd       ??_Etype_info@@UAEPAXI@Z   10016cfd f i MSVCRT:std_type_info_static.obj
 0001:00015cfd       ??_Gtype_info@@UAEPAXI@Z   10016cfd f i MSVCRT:std_type_info_static.obj
 0001:00015d20       ___raise_securityfailure   10016d20 f   MSVCRT:gs_report.obj
 0001:00015d48       ___report_gsfailure        10016d48 f   MSVCRT:gs_report.obj
 0001:0001614b       __DllMainCRTStartup@12     1001714b f   MSVCRT:dll_dllmain.obj
 0001:0001616e       @_guard_check_icall@4      1001716e f i MSVCRT:checkcfg.obj
 0001:00016174       ___scrt_fastfail           10017174 f   MSVCRT:utility_desktop.obj
 0001:0001628f       ??0bad_alloc@std@@QAE@ABV01@@Z 1001728f f i MSVCRT:throw_bad_alloc.obj
 0001:000162aa       ??0bad_alloc@std@@QAE@XZ   100172aa f i MSVCRT:throw_bad_alloc.obj
 0001:000162c2       ??0bad_array_new_length@std@@QAE@ABV01@@Z 100172c2 f i MSVCRT:throw_bad_alloc.obj
 0001:000162dd       ??0bad_array_new_length@std@@QAE@XZ 100172dd f i MSVCRT:throw_bad_alloc.obj
 0001:000162f5       ??0exception@std@@QAE@ABV01@@Z 100172f5 f i MSVCRT:throw_bad_alloc.obj
 0001:00016321       ??1bad_alloc@std@@UAE@XZ   10017321 f i MSVCRT:throw_bad_alloc.obj
 0001:00016321       ??1bad_array_new_length@std@@UAE@XZ 10017321 f i MSVCRT:throw_bad_alloc.obj
 0001:00016332       ??_Gbad_alloc@std@@UAEPAXI@Z 10017332 f i MSVCRT:throw_bad_alloc.obj
 0001:00016332       ??_Gexception@std@@UAEPAXI@Z 10017332 f i MSVCRT:throw_bad_alloc.obj
 0001:00016332       ??_Ebad_array_new_length@std@@UAEPAXI@Z 10017332 f i MSVCRT:throw_bad_alloc.obj
 0001:00016332       ??_Eexception@std@@UAEPAXI@Z 10017332 f i MSVCRT:throw_bad_alloc.obj
 0001:00016332       ??_Gbad_array_new_length@std@@UAEPAXI@Z 10017332 f i MSVCRT:throw_bad_alloc.obj
 0001:00016332       ??_Ebad_alloc@std@@UAEPAXI@Z 10017332 f i MSVCRT:throw_bad_alloc.obj
 0001:0001635f       ?__scrt_throw_std_bad_alloc@@YAXXZ 1001735f f   MSVCRT:throw_bad_alloc.obj
 0001:0001637c       ?__scrt_throw_std_bad_array_new_length@@YAXXZ 1001737c f   MSVCRT:throw_bad_alloc.obj
 0001:00016399       ?what@exception@std@@UBEPBDXZ 10017399 f i MSVCRT:throw_bad_alloc.obj
 0001:000163a6       ___isa_available_init      100173a6 f   MSVCRT:_cpu_disp_.obj
 0001:00016540       __get_startup_argv_mode    10017540 f   MSVCRT:argv_mode.obj
 0001:00016544       ___scrt_is_ucrt_dll_in_use 10017544 f   MSVCRT:ucrt_detection.obj
 0001:00016550       __SEH_prolog4              10017550 f   MSVCRT:_sehprolg4_.obj
 0001:00016596       __SEH_epilog4              10017596 f   MSVCRT:_sehprolg4_.obj
 0001:000165ab       __except_handler4          100175ab f   MSVCRT:_chandler4gs_.obj
 0001:000165ce       ___security_init_cookie    100175ce f   MSVCRT:gs_support.obj
 0001:0001666a       _DllMain@12                1001766a f   MSVCRT:dll_dllmain_stub.obj
 0001:0001668c       ?__scrt_initialize_type_info@@YAXXZ 1001768c f   MSVCRT:tncleanup.obj
 0001:00016698       ?__scrt_uninitialize_type_info@@YAXXZ 10017698 f   MSVCRT:tncleanup.obj
 0001:000166a4       ___local_stdio_printf_options 100176a4 f i MSVCRT:default_local_stdio_options.obj
 0001:000166aa       ___local_stdio_scanf_options 100176aa f i MSVCRT:default_local_stdio_options.obj
 0001:000166b0       ___scrt_initialize_default_local_stdio_options 100176b0 f   MSVCRT:default_local_stdio_options.obj
 0001:000166cd       ___scrt_get_dyn_tls_init_callback 100176cd f   MSVCRT:dyn_tls_init.obj
 0001:000166d3       __RTC_Initialize           100176d3 f   MSVCRT:_initsect_.obj
 0001:000166fe       __RTC_Terminate            100176fe f   MSVCRT:_initsect_.obj
 0001:0001672a       __purecall                 1001772a f   vcruntime:VCRUNTIME140.dll
 0001:00016730       ___vcrt_InitializeCriticalSectionEx 10017730 f   vcruntime:VCRUNTIME140.dll
 0001:00016736       _memset                    10017736 f   vcruntime:VCRUNTIME140.dll
 0001:0001673c       ___std_exception_copy      1001773c f   vcruntime:VCRUNTIME140.dll
 0001:00016742       ___std_exception_destroy   10017742 f   vcruntime:VCRUNTIME140.dll
 0001:00016748       __CxxThrowException@8      10017748 f   vcruntime:VCRUNTIME140.dll
 0001:0001674e       __except_handler4_common   1001774e f   vcruntime:VCRUNTIME140.dll
 0001:00016754       ___std_type_info_destroy_list 10017754 f   vcruntime:VCRUNTIME140.dll
 0001:0001675a       _wcslen                    1001775a f   ucrt:api-ms-win-crt-string-l1-1-0.dll
 0001:0001675a       ___Platform_wcslen         1001775a f   ucrt:api-ms-win-crt-string-l1-1-0.dll
 0001:00016760       __callnewh                 10017760 f   ucrt:api-ms-win-crt-heap-l1-1-0.dll
 0001:00016766       _malloc                    10017766 f   ucrt:api-ms-win-crt-heap-l1-1-0.dll
 0001:0001676c       __seh_filter_dll           1001776c f   ucrt:api-ms-win-crt-runtime-l1-1-0.dll
 0001:00016772       __configure_narrow_argv    10017772 f   ucrt:api-ms-win-crt-runtime-l1-1-0.dll
 0001:00016778       __initialize_narrow_environment 10017778 f   ucrt:api-ms-win-crt-runtime-l1-1-0.dll
 0001:0001677e       __initialize_onexit_table  1001777e f   ucrt:api-ms-win-crt-runtime-l1-1-0.dll
 0001:00016784       __register_onexit_function 10017784 f   ucrt:api-ms-win-crt-runtime-l1-1-0.dll
 0001:0001678a       __execute_onexit_table     1001778a f   ucrt:api-ms-win-crt-runtime-l1-1-0.dll
 0001:00016790       __crt_atexit               10017790 f   ucrt:api-ms-win-crt-runtime-l1-1-0.dll
 0001:00016796       __cexit                    10017796 f   ucrt:api-ms-win-crt-runtime-l1-1-0.dll
 0001:0001679c       _free                      1001779c f   ucrt:api-ms-win-crt-heap-l1-1-0.dll
 0001:000167a2       __initterm                 100177a2 f   ucrt:api-ms-win-crt-runtime-l1-1-0.dll
 0001:000167a8       __initterm_e               100177a8 f   ucrt:api-ms-win-crt-runtime-l1-1-0.dll
 0001:000167ae       _IsProcessorFeaturePresent@4 100177ae f   kernel32:KERNEL32.dll
 0001:000167b4       ___Platform_CoCreateFreeThreadedMarshaler@8 100177b4 f   ole32:ole32.dll
 0001:000167b4       _CoCreateFreeThreadedMarshaler@8 100177b4 f   ole32:ole32.dll
 0001:000167ba       ___Platform_WindowsCreateString@12 100177ba f   runtimeobject:api-ms-win-core-winrt-string-l1-1-0.dll
 0001:000167ba       _WindowsCreateString@12    100177ba f   runtimeobject:api-ms-win-core-winrt-string-l1-1-0.dll
 0001:000167c0       _WindowsDeleteString@4     100177c0 f   runtimeobject:api-ms-win-core-winrt-string-l1-1-0.dll
 0001:000167c0       ___Platform_WindowsDeleteString@4 100177c0 f   runtimeobject:api-ms-win-core-winrt-string-l1-1-0.dll
 0001:000167c6       ___Platform_WindowsGetStringRawBuffer@8 100177c6 f   runtimeobject:api-ms-win-core-winrt-string-l1-1-0.dll
 0001:000167c6       _WindowsGetStringRawBuffer@8 100177c6 f   runtimeobject:api-ms-win-core-winrt-string-l1-1-0.dll
 0001:000167cc       _WindowsDuplicateString@8  100177cc f   runtimeobject:api-ms-win-core-winrt-string-l1-1-0.dll
 0001:000167cc       ___Platform_WindowsDuplicateString@8 100177cc f   runtimeobject:api-ms-win-core-winrt-string-l1-1-0.dll
 0001:000167d2       ___Platform_WindowsGetStringLen@4 100177d2 f   runtimeobject:api-ms-win-core-winrt-string-l1-1-0.dll
 0001:000167d2       _WindowsGetStringLen@4     100177d2 f   runtimeobject:api-ms-win-core-winrt-string-l1-1-0.dll
 0001:000167d8       ___scrt_stub_for_acrt_uninitialize 100177d8 f   MSVCRT:ucrt_stubs.obj
 0001:000167d8       ___vcrt_uninitialize       100177d8 f   MSVCRT:ucrt_stubs.obj
 0001:000167d8       ___vcrt_thread_detach      100177d8 f   MSVCRT:ucrt_stubs.obj
 0001:000167d8       ___scrt_stub_for_acrt_initialize 100177d8 f   MSVCRT:ucrt_stubs.obj
 0001:000167d8       ___scrt_stub_for_acrt_uninitialize_critical 100177d8 f   MSVCRT:ucrt_stubs.obj
 0001:000167d8       ___acrt_thread_detach      100177d8 f   MSVCRT:ucrt_stubs.obj
 0001:000167d8       ___vcrt_uninitialize_critical 100177d8 f   MSVCRT:ucrt_stubs.obj
 0001:000167d8       ___acrt_thread_attach      100177d8 f   MSVCRT:ucrt_stubs.obj
 0001:000167d8       ___scrt_stub_for_acrt_thread_detach 100177d8 f   MSVCRT:ucrt_stubs.obj
 0001:000167d8       ___acrt_uninitialize_critical 100177d8 f   MSVCRT:ucrt_stubs.obj
 0001:000167d8       ___vcrt_thread_attach      100177d8 f   MSVCRT:ucrt_stubs.obj
 0001:000167d8       ___scrt_stub_for_acrt_thread_attach 100177d8 f   MSVCRT:ucrt_stubs.obj
 0001:000167d8       ___vcrt_initialize         100177d8 f   MSVCRT:ucrt_stubs.obj
 0001:000167d8       ___acrt_initialize         100177d8 f   MSVCRT:ucrt_stubs.obj
 0001:000167d8       ___acrt_uninitialize       100177d8 f   MSVCRT:ucrt_stubs.obj
 0001:000167db       __is_c_termination_complete 100177db f   MSVCRT:ucrt_stubs.obj
 0001:000167db       ___scrt_stub_for_is_c_termination_complete 100177db f   MSVCRT:ucrt_stubs.obj
 0001:000167de       ___CxxFrameHandler3        100177de f   vcruntime:VCRUNTIME140.dll
 0001:00018de0       ??__F_S_scheduler@?1??_GetStaticAmbientSchedulerRef@details@Concurrency@@YAAAV?$shared_ptr@Uscheduler_interface@Concurrency@@@std@@XZ@YAXXZ 10019de0 f i _nodert_generated.obj
 0001:00018f41       ??__Fmodule@?1??Create@?$Module@$00VInProcModule@Details@Platform@@@WRL@Microsoft@@SAAAVInProcModule@Details@Platform@@XZ@YAXXZ 10019f41 f i vccorlib:init.obj
 0002:00000000       __imp__InitializeSListHead@4 1001a000     kernel32:KERNEL32.dll
 0002:00000004       __imp__DisableThreadLibraryCalls@4 1001a004     kernel32:KERNEL32.dll
 0002:00000008       __imp__GetSystemTimeAsFileTime@4 1001a008     kernel32:KERNEL32.dll
 0002:0000000c       __imp__GetCurrentThreadId@0 1001a00c     kernel32:KERNEL32.dll
 0002:00000010       __imp__GetCurrentProcessId@0 1001a010     kernel32:KERNEL32.dll
 0002:00000014       __imp__QueryPerformanceCounter@4 1001a014     kernel32:KERNEL32.dll
 0002:00000018       __imp__IsDebuggerPresent@0 1001a018     kernel32:KERNEL32.dll
 0002:0000001c       __imp__IsProcessorFeaturePresent@4 1001a01c     kernel32:KERNEL32.dll
 0002:00000020       __imp__TerminateProcess@8  1001a020     kernel32:KERNEL32.dll
 0002:00000024       __imp__GetCurrentProcess@0 1001a024     kernel32:KERNEL32.dll
 0002:00000028       __imp__SetUnhandledExceptionFilter@4 1001a028     kernel32:KERNEL32.dll
 0002:0000002c       __imp__UnhandledExceptionFilter@4 1001a02c     kernel32:KERNEL32.dll
 0002:00000030       __imp__GetModuleHandleW@4  1001a030     kernel32:KERNEL32.dll
 0002:00000034       __imp__CreateEventW@16     1001a034     kernel32:KERNEL32.dll
 0002:00000038       __imp__WaitForSingleObjectEx@12 1001a038     kernel32:KERNEL32.dll
 0002:0000003c       __imp__ResetEvent@4        1001a03c     kernel32:KERNEL32.dll
 0002:00000040       __imp__SetEvent@4          1001a040     kernel32:KERNEL32.dll
 0002:00000044       __imp__DeleteCriticalSection@4 1001a044     kernel32:KERNEL32.dll
 0002:00000048       __imp__LeaveCriticalSection@4 1001a048     kernel32:KERNEL32.dll
 0002:0000004c       __imp__EnterCriticalSection@4 1001a04c     kernel32:KERNEL32.dll
 0002:00000050       __imp__CloseHandle@4       1001a050     kernel32:KERNEL32.dll
 0002:00000054       __imp__GetProcAddress@8    1001a054     kernel32:KERNEL32.dll
 0002:00000058       __imp__AcquireSRWLockExclusive@4 1001a058     kernel32:KERNEL32.dll
 0002:0000005c       __imp__ReleaseSRWLockExclusive@4 1001a05c     kernel32:KERNEL32.dll
 0002:00000060       __imp__DecodePointer@4     1001a060     kernel32:KERNEL32.dll
 0002:00000064       \177KERNEL32_NULL_THUNK_DATA 1001a064     kernel32:KERNEL32.dll
 0002:00000068       __imp_?_ReportUnobservedException@details@Concurrency@@YAXXZ 1001a068     msvcprt:MSVCP140.dll
 0002:0000006c       __imp_?_Schedule_chore@details@Concurrency@@YAHPAU_Threadpool_chore@12@@Z 1001a06c     msvcprt:MSVCP140.dll
 0002:00000070       __imp_?_IsNonBlockingThread@_Task_impl_base@details@Concurrency@@SA_NXZ 1001a070     msvcprt:MSVCP140.dll
 0002:00000074       __imp_?_LogWorkItemCompleted@_TaskEventLogger@details@Concurrency@@QAEXXZ 1001a074     msvcprt:MSVCP140.dll
 0002:00000078       __imp_?_LogWorkItemStarted@_TaskEventLogger@details@Concurrency@@QAEXXZ 1001a078     msvcprt:MSVCP140.dll
 0002:0000007c       __imp_?_LogTaskExecutionCompleted@_TaskEventLogger@details@Concurrency@@QAEXXZ 1001a07c     msvcprt:MSVCP140.dll
 0002:00000080       __imp_?_LogTaskCompleted@_TaskEventLogger@details@Concurrency@@QAEXXZ 1001a080     msvcprt:MSVCP140.dll
 0002:00000084       __imp_?_LogCancelTask@_TaskEventLogger@details@Concurrency@@QAEXXZ 1001a084     msvcprt:MSVCP140.dll
 0002:00000088       __imp_?_LogScheduleTask@_TaskEventLogger@details@Concurrency@@QAEX_N@Z 1001a088     msvcprt:MSVCP140.dll
 0002:0000008c       __imp_?_Release_chore@details@Concurrency@@YAXPAU_Threadpool_chore@12@@Z 1001a08c     msvcprt:MSVCP140.dll
 0002:00000090       __imp_?ReportUnhandledError@_ExceptionHolder@details@Concurrency@@AAEXXZ 1001a090     msvcprt:MSVCP140.dll
 0002:00000094       __imp_?GetCurrentThreadId@platform@details@Concurrency@@YAJXZ 1001a094     msvcprt:MSVCP140.dll
 0002:00000098       __imp___Cnd_destroy_in_situ 1001a098     msvcprt:MSVCP140.dll
 0002:0000009c       __imp___Cnd_broadcast      1001a09c     msvcprt:MSVCP140.dll
 0002:000000a0       __imp___Mtx_unlock         1001a0a0     msvcprt:MSVCP140.dll
 0002:000000a4       __imp___Cnd_wait           1001a0a4     msvcprt:MSVCP140.dll
 0002:000000a8       __imp___Mtx_init_in_situ   1001a0a8     msvcprt:MSVCP140.dll
 0002:000000ac       __imp_?__ExceptionPtrRethrow@@YAXPBX@Z 1001a0ac     msvcprt:MSVCP140.dll
 0002:000000b0       __imp_?__ExceptionPtrCurrentException@@YAXPAX@Z 1001a0b0     msvcprt:MSVCP140.dll
 0002:000000b4       __imp___Mtx_lock           1001a0b4     msvcprt:MSVCP140.dll
 0002:000000b8       __imp_?__ExceptionPtrDestroy@@YAXPAX@Z 1001a0b8     msvcprt:MSVCP140.dll
 0002:000000bc       __imp___Mtx_destroy_in_situ 1001a0bc     msvcprt:MSVCP140.dll
 0002:000000c0       __imp_?_Xlength_error@std@@YAXPBD@Z 1001a0c0     msvcprt:MSVCP140.dll
 0002:000000c4       __imp_?_Throw_C_error@std@@YAXH@Z 1001a0c4     msvcprt:MSVCP140.dll
 0002:000000c8       __imp_?_Raise_handler@std@@3P6AXABVexception@stdext@@@ZA 1001a0c8     msvcprt:MSVCP140.dll
 0002:000000cc       __imp_?_Xbad_function_call@std@@YAXXZ 1001a0cc     msvcprt:MSVCP140.dll
 0002:000000d0       __imp_?_Xbad_alloc@std@@YAXXZ 1001a0d0     msvcprt:MSVCP140.dll
 0002:000000d4       __imp_?__ExceptionPtrCopy@@YAXPAXPBX@Z 1001a0d4     msvcprt:MSVCP140.dll
 0002:000000d8       __imp_?__ExceptionPtrCopyException@@YAXPAXPBX1@Z 1001a0d8     msvcprt:MSVCP140.dll
 0002:000000dc       __imp___Cnd_init_in_situ   1001a0dc     msvcprt:MSVCP140.dll
 0002:000000e0       __imp_?__ExceptionPtrCreate@@YAXPAX@Z 1001a0e0     msvcprt:MSVCP140.dll
 0002:000000e4       __imp_??0task_continuation_context@Concurrency@@AAE@XZ 1001a0e4     msvcprt:MSVCP140.dll
 0002:000000e8       __imp_?_CallInContext@_ContextCallback@details@Concurrency@@QBEXV?$function@$$A6AXXZ@std@@_N@Z 1001a0e8     msvcprt:MSVCP140.dll
 0002:000000ec       __imp_?_Reset@_ContextCallback@details@Concurrency@@AAEXXZ 1001a0ec     msvcprt:MSVCP140.dll
 0002:000000f0       __imp_?_Assign@_ContextCallback@details@Concurrency@@AAEXPAX@Z 1001a0f0     msvcprt:MSVCP140.dll
 0002:000000f4       __imp_?_IsCurrentOriginSTA@_ContextCallback@details@Concurrency@@CA_NXZ 1001a0f4     msvcprt:MSVCP140.dll
 0002:000000f8       __imp_?_Capture@_ContextCallback@details@Concurrency@@AAEXXZ 1001a0f8     msvcprt:MSVCP140.dll
 0002:000000fc       \177MSVCP140_NULL_THUNK_DATA 1001a0fc     msvcprt:MSVCP140.dll
 0002:00000100       __imp____std_type_info_compare 1001a100     vcruntime:VCRUNTIME140.dll
 0002:00000104       __imp___purecall           1001a104     vcruntime:VCRUNTIME140.dll
 0002:00000108       __imp____std_terminate     1001a108     vcruntime:VCRUNTIME140.dll
 0002:0000010c       __imp____vcrt_InitializeCriticalSectionEx 1001a10c     vcruntime:VCRUNTIME140.dll
 0002:00000110       __imp__memset              1001a110     vcruntime:VCRUNTIME140.dll
 0002:00000114       __imp____std_exception_copy 1001a114     vcruntime:VCRUNTIME140.dll
 0002:00000118       __imp____std_exception_destroy 1001a118     vcruntime:VCRUNTIME140.dll
 0002:0000011c       __imp___CxxThrowException@8 1001a11c     vcruntime:VCRUNTIME140.dll
 0002:00000120       __imp___except_handler4_common 1001a120     vcruntime:VCRUNTIME140.dll
 0002:00000124       __imp____std_type_info_destroy_list 1001a124     vcruntime:VCRUNTIME140.dll
 0002:00000128       __imp__memmove             1001a128     vcruntime:VCRUNTIME140.dll
 0002:0000012c       __imp____CxxFrameHandler3  1001a12c     vcruntime:VCRUNTIME140.dll
 0002:00000130       \177VCRUNTIME140_NULL_THUNK_DATA 1001a130     vcruntime:VCRUNTIME140.dll
 0002:00000134       __imp__WindowsGetStringLen@4 1001a134     runtimeobject:api-ms-win-core-winrt-string-l1-1-0.dll
 0002:00000138       __imp__WindowsGetStringRawBuffer@8 1001a138     runtimeobject:api-ms-win-core-winrt-string-l1-1-0.dll
 0002:0000013c       __imp__WindowsDeleteString@4 1001a13c     runtimeobject:api-ms-win-core-winrt-string-l1-1-0.dll
 0002:00000140       __imp__WindowsCreateString@12 1001a140     runtimeobject:api-ms-win-core-winrt-string-l1-1-0.dll
 0002:00000144       __imp__WindowsDuplicateString@8 1001a144     runtimeobject:api-ms-win-core-winrt-string-l1-1-0.dll
 0002:00000148       \177api-ms-win-core-winrt-string-l1-1-0_NULL_THUNK_DATA 1001a148     runtimeobject:api-ms-win-core-winrt-string-l1-1-0.dll
 0002:0000014c       __imp___callnewh           1001a14c     ucrt:api-ms-win-crt-heap-l1-1-0.dll
 0002:00000150       __imp__malloc              1001a150     ucrt:api-ms-win-crt-heap-l1-1-0.dll
 0002:00000154       __imp__free                1001a154     ucrt:api-ms-win-crt-heap-l1-1-0.dll
 0002:00000158       \177api-ms-win-crt-heap-l1-1-0_NULL_THUNK_DATA 1001a158     ucrt:api-ms-win-crt-heap-l1-1-0.dll
 0002:0000015c       __imp___cexit              1001a15c     ucrt:api-ms-win-crt-runtime-l1-1-0.dll
 0002:00000160       __imp___invoke_watson      1001a160     ucrt:api-ms-win-crt-runtime-l1-1-0.dll
 0002:00000164       __imp___initterm_e         1001a164     ucrt:api-ms-win-crt-runtime-l1-1-0.dll
 0002:00000168       __imp___wassert            1001a168     ucrt:api-ms-win-crt-runtime-l1-1-0.dll
 0002:0000016c       __imp___invalid_parameter_noinfo_noreturn 1001a16c     ucrt:api-ms-win-crt-runtime-l1-1-0.dll
 0002:00000170       __imp___seh_filter_dll     1001a170     ucrt:api-ms-win-crt-runtime-l1-1-0.dll
 0002:00000174       __imp___configure_narrow_argv 1001a174     ucrt:api-ms-win-crt-runtime-l1-1-0.dll
 0002:00000178       __imp___initialize_narrow_environment 1001a178     ucrt:api-ms-win-crt-runtime-l1-1-0.dll
 0002:0000017c       __imp___initialize_onexit_table 1001a17c     ucrt:api-ms-win-crt-runtime-l1-1-0.dll
 0002:00000180       __imp___register_onexit_function 1001a180     ucrt:api-ms-win-crt-runtime-l1-1-0.dll
 0002:00000184       __imp___execute_onexit_table 1001a184     ucrt:api-ms-win-crt-runtime-l1-1-0.dll
 0002:00000188       __imp___crt_atexit         1001a188     ucrt:api-ms-win-crt-runtime-l1-1-0.dll
 0002:0000018c       __imp___initterm           1001a18c     ucrt:api-ms-win-crt-runtime-l1-1-0.dll
 0002:00000190       \177api-ms-win-crt-runtime-l1-1-0_NULL_THUNK_DATA 1001a190     ucrt:api-ms-win-crt-runtime-l1-1-0.dll
 0002:00000194       __imp__wcslen              1001a194     ucrt:api-ms-win-crt-string-l1-1-0.dll
 0002:00000198       __imp___wcsnicmp           1001a198     ucrt:api-ms-win-crt-string-l1-1-0.dll
 0002:0000019c       \177api-ms-win-crt-string-l1-1-0_NULL_THUNK_DATA 1001a19c     ucrt:api-ms-win-crt-string-l1-1-0.dll
 0002:000001a0       __imp_?Global@Context@v8@@QAE?AV?$Local@VObject@v8@@@2@XZ 1001a1a0     iojs:node.dll
 0002:000001a4       __imp_?Value@External@v8@@QBEPAXXZ 1001a1a4     iojs:node.dll
 0002:000001a8       __imp_?New@External@v8@@SA?AV?$Local@VExternal@v8@@@2@PAVIsolate@2@PAX@Z 1001a1a8     iojs:node.dll
 0002:000001ac       __imp_?NewFromUnsigned@Integer@v8@@SA?AV?$Local@VInteger@v8@@@2@PAVIsolate@2@I@Z 1001a1ac     iojs:node.dll
 0002:000001b0       __imp_?New@Integer@v8@@SA?AV?$Local@VInteger@v8@@@2@PAVIsolate@2@H@Z 1001a1b0     iojs:node.dll
 0002:000001b4       __imp_?New@Signature@v8@@SA?AV?$Local@VSignature@v8@@@2@PAVIsolate@2@V?$Local@VFunctionTemplate@v8@@@2@@Z 1001a1b4     iojs:node.dll
 0002:000001b8       __imp_?ThrowException@Isolate@v8@@QAE?AV?$Local@VValue@v8@@@2@V32@@Z 1001a1b8     iojs:node.dll
 0002:000001bc       __imp_?GetCurrentContext@Isolate@v8@@QAE?AV?$Local@VContext@v8@@@2@XZ 1001a1bc     iojs:node.dll
 0002:000001c0       __imp_?GetCurrent@Isolate@v8@@SAPAV12@XZ 1001a1c0     iojs:node.dll
 0002:000001c4       __imp_?CreateHandle@HandleScope@v8@@KAPAPAVObject@internal@2@PAVIsolate@42@PAV342@@Z 1001a1c4     iojs:node.dll
 0002:000001c8       __imp_?CreateHandle@HandleScope@v8@@CAPAPAVObject@internal@2@PAVHeapObject@42@PAV342@@Z 1001a1c8     iojs:node.dll
 0002:000001cc       __imp_??1HandleScope@v8@@QAE@XZ 1001a1cc     iojs:node.dll
 0002:000001d0       __imp_??0HandleScope@v8@@QAE@PAVIsolate@1@@Z 1001a1d0     iojs:node.dll
 0002:000001d4       __imp_?Set@Template@v8@@QAEXV?$Local@VName@v8@@@2@V?$Local@VData@v8@@@2@W4PropertyAttribute@2@@Z 1001a1d4     iojs:node.dll
 0002:000001d8       __imp_?Error@Exception@v8@@SA?AV?$Local@VValue@v8@@@2@V?$Local@VString@v8@@@2@@Z 1001a1d8     iojs:node.dll
 0002:000001dc       __imp_?HasInstance@FunctionTemplate@v8@@QAE_NV?$Local@VValue@v8@@@2@@Z 1001a1dc     iojs:node.dll
 0002:000001e0       __imp_?SetClassName@FunctionTemplate@v8@@QAEXV?$Local@VString@v8@@@2@@Z 1001a1e0     iojs:node.dll
 0002:000001e4       __imp_?PrototypeTemplate@FunctionTemplate@v8@@QAE?AV?$Local@VObjectTemplate@v8@@@2@XZ 1001a1e4     iojs:node.dll
 0002:000001e8       __imp_?InstanceTemplate@FunctionTemplate@v8@@QAE?AV?$Local@VObjectTemplate@v8@@@2@XZ 1001a1e8     iojs:node.dll
 0002:000001ec       __imp_?GetFunction@FunctionTemplate@v8@@QAE?AV?$MaybeLocal@VFunction@v8@@@2@V?$Local@VContext@v8@@@2@@Z 1001a1ec     iojs:node.dll
 0002:000001f0       __imp_?New@FunctionTemplate@v8@@SA?AV?$Local@VFunctionTemplate@v8@@@2@PAVIsolate@2@P6AXABV?$FunctionCallbackInfo@VValue@v8@@@2@@ZV?$Local@VValue@v8@@@2@V?$Local@VSignature@v8@@@2@HW4ConstructorBehavior@2@@Z 1001a1f0     iojs:node.dll
 0002:000001f4       __imp_?Has@Object@v8@@QAE?AV?$Maybe@_N@2@V?$Local@VContext@v8@@@2@V?$Local@VValue@v8@@@2@@Z 1001a1f4     iojs:node.dll
 0002:000001f8       __imp_?NewFromTwoByte@String@v8@@SA?AV?$MaybeLocal@VString@v8@@@2@PAVIsolate@2@PBGW4NewStringType@2@H@Z 1001a1f8     iojs:node.dll
 0002:000001fc       __imp_?IsTrue@Value@v8@@QBE_NXZ 1001a1fc     iojs:node.dll
 0002:00000200       __imp__uv_default_loop     1001a200     iojs:node.dll
 0002:00000204       __imp__uv_async_init       1001a204     iojs:node.dll
 0002:00000208       __imp_?MakeCallback@node@@YA?AV?$Local@VValue@v8@@@v8@@PAVIsolate@3@V?$Local@VObject@v8@@@3@V?$Local@VString@v8@@@3@HPAV23@@Z 1001a208     iojs:node.dll
 0002:0000020c       __imp__node_module_register 1001a20c     iojs:node.dll
 0002:00000210       __imp__uv_close            1001a210     iojs:node.dll
 0002:00000214       __imp_?New@ObjectTemplate@v8@@SA?AV?$Local@VObjectTemplate@v8@@@2@PAVIsolate@2@V?$Local@VFunctionTemplate@v8@@@2@@Z 1001a214     iojs:node.dll
 0002:00000218       __imp_?NewInstance@ObjectTemplate@v8@@QAE?AV?$MaybeLocal@VObject@v8@@@2@V?$Local@VContext@v8@@@2@@Z 1001a218     iojs:node.dll
 0002:0000021c       __imp_?SetAccessor@ObjectTemplate@v8@@QAEXV?$Local@VName@v8@@@2@P6AX0ABV?$PropertyCallbackInfo@VValue@v8@@@2@@ZP6AX0V?$Local@VValue@v8@@@2@ABV?$PropertyCallbackInfo@X@2@@Z3W4AccessControl@2@W4PropertyAttribute@2@V?$Local@VAccessorSignature@v8@@@2@@Z 1001a21c     iojs:node.dll
 0002:00000220       __imp_?SetHandler@ObjectTemplate@v8@@QAEXABUIndexedPropertyHandlerConfiguration@2@@Z 1001a220     iojs:node.dll
 0002:00000224       __imp_?SetInternalFieldCount@ObjectTemplate@v8@@QAEXH@Z 1001a224     iojs:node.dll
 0002:00000228       __imp_?ForceSet@Object@v8@@QAE?AV?$Maybe@_N@2@V?$Local@VContext@v8@@@2@V?$Local@VValue@v8@@@2@1W4PropertyAttribute@2@@Z 1001a228     iojs:node.dll
 0002:0000022c       __imp_?Set@Object@v8@@QAE?AV?$Maybe@_N@2@V?$Local@VContext@v8@@@2@V?$Local@VValue@v8@@@2@1@Z 1001a22c     iojs:node.dll
 0002:00000230       __imp_?Set@Object@v8@@QAE_NV?$Local@VValue@v8@@@2@0@Z 1001a230     iojs:node.dll
 0002:00000234       __imp_?Get@Object@v8@@QAE?AV?$MaybeLocal@VValue@v8@@@2@V?$Local@VContext@v8@@@2@V?$Local@VValue@v8@@@2@@Z 1001a234     iojs:node.dll
 0002:00000238       __imp_?Get@Object@v8@@QAE?AV?$Local@VValue@v8@@@2@V32@@Z 1001a238     iojs:node.dll
 0002:0000023c       __imp_?Delete@Object@v8@@QAE?AV?$Maybe@_N@2@V?$Local@VContext@v8@@@2@V?$Local@VValue@v8@@@2@@Z 1001a23c     iojs:node.dll
 0002:00000240       __imp_?SetPrototype@Object@v8@@QAE?AV?$Maybe@_N@2@V?$Local@VContext@v8@@@2@V?$Local@VValue@v8@@@2@@Z 1001a240     iojs:node.dll
 0002:00000244       __imp_?InternalFieldCount@Object@v8@@QAEHXZ 1001a244     iojs:node.dll
 0002:00000248       __imp_?SetInternalField@Object@v8@@QAEXHV?$Local@VValue@v8@@@2@@Z 1001a248     iojs:node.dll
 0002:0000024c       __imp_?SetAlignedPointerInInternalField@Object@v8@@QAEXHPAX@Z 1001a24c     iojs:node.dll
 0002:00000250       __imp_?New@Object@v8@@SA?AV?$Local@VObject@v8@@@2@PAVIsolate@2@@Z 1001a250     iojs:node.dll
 0002:00000254       __imp_?SlowGetInternalField@Object@v8@@AAE?AV?$Local@VValue@v8@@@2@H@Z 1001a254     iojs:node.dll
 0002:00000258       __imp_?SlowGetAlignedPointerFromInternalField@Object@v8@@AAEPAXH@Z 1001a258     iojs:node.dll
 0002:0000025c       __imp_?NewFromUtf8@String@v8@@SA?AV?$MaybeLocal@VString@v8@@@2@PAVIsolate@2@PBDW4NewStringType@2@H@Z 1001a25c     iojs:node.dll
 0002:00000260       __imp_?Concat@String@v8@@SA?AV?$Local@VString@v8@@@2@V32@0@Z 1001a260     iojs:node.dll
 0002:00000264       __imp_??0Value@String@v8@@QAE@V?$Local@VValue@v8@@@2@@Z 1001a264     iojs:node.dll
 0002:00000268       __imp_??1Value@String@v8@@QAE@XZ 1001a268     iojs:node.dll
 0002:0000026c       __imp_??0EscapableHandleScope@v8@@QAE@PAVIsolate@1@@Z 1001a26c     iojs:node.dll
 0002:00000270       __imp_?Escape@EscapableHandleScope@v8@@AAEPAPAVObject@internal@2@PAPAV342@@Z 1001a270     iojs:node.dll
 0002:00000274       __imp_??0TryCatch@v8@@QAE@PAVIsolate@1@@Z 1001a274     iojs:node.dll
 0002:00000278       __imp_??1TryCatch@v8@@QAE@XZ 1001a278     iojs:node.dll
 0002:0000027c       __imp_?HasCaught@TryCatch@v8@@QBE_NXZ 1001a27c     iojs:node.dll
 0002:00000280       __imp_?Exception@TryCatch@v8@@QBE?AV?$Local@VValue@v8@@@2@XZ 1001a280     iojs:node.dll
 0002:00000284       __imp_?IsFunction@Value@v8@@QBE_NXZ 1001a284     iojs:node.dll
 0002:00000288       __imp_?IsObject@Value@v8@@QBE_NXZ 1001a288     iojs:node.dll
 0002:0000028c       __imp_?IsBoolean@Value@v8@@QBE_NXZ 1001a28c     iojs:node.dll
 0002:00000290       __imp_?IsInt32@Value@v8@@QBE_NXZ 1001a290     iojs:node.dll
 0002:00000294       __imp_?IsUint32@Value@v8@@QBE_NXZ 1001a294     iojs:node.dll
 0002:00000298       __imp_?ToString@Value@v8@@QBE?AV?$MaybeLocal@VString@v8@@@2@V?$Local@VContext@v8@@@2@@Z 1001a298     iojs:node.dll
 0002:0000029c       __imp_?ToObject@Value@v8@@QBE?AV?$MaybeLocal@VObject@v8@@@2@V?$Local@VContext@v8@@@2@@Z 1001a29c     iojs:node.dll
 0002:000002a0       __imp_?ToInteger@Value@v8@@QBE?AV?$MaybeLocal@VInteger@v8@@@2@V?$Local@VContext@v8@@@2@@Z 1001a2a0     iojs:node.dll
 0002:000002a4       __imp_?Uint32Value@Value@v8@@QBEIXZ 1001a2a4     iojs:node.dll
 0002:000002a8       __imp_?Int32Value@Value@v8@@QBE?AV?$Maybe@H@2@V?$Local@VContext@v8@@@2@@Z 1001a2a8     iojs:node.dll
 0002:000002ac       __imp_?Equals@Value@v8@@QBE?AV?$Maybe@_N@2@V?$Local@VContext@v8@@@2@V?$Local@VValue@v8@@@2@@Z 1001a2ac     iojs:node.dll
 0002:000002b0       __imp_?Equals@Value@v8@@QBE_NV?$Local@VValue@v8@@@2@@Z 1001a2b0     iojs:node.dll
 0002:000002b4       __imp_?GlobalizeReference@V8@v8@@CAPAPAVObject@internal@2@PAVIsolate@42@PAPAV342@@Z 1001a2b4     iojs:node.dll
 0002:000002b8       __imp_?DisposeGlobal@V8@v8@@CAXPAPAVObject@internal@2@@Z 1001a2b8     iojs:node.dll
 0002:000002bc       __imp_?MakeWeak@V8@v8@@CAXPAPAVObject@internal@2@PAXP6AXABV?$WeakCallbackInfo@X@2@@ZW4WeakCallbackType@2@@Z 1001a2bc     iojs:node.dll
 0002:000002c0       __imp_?ClearWeak@V8@v8@@CAPAXPAPAVObject@internal@2@@Z 1001a2c0     iojs:node.dll
 0002:000002c4       __imp_?ToLocalEmpty@V8@v8@@CAXXZ 1001a2c4     iojs:node.dll
 0002:000002c8       __imp_??1EscapableHandleScope@v8@@QAE@XZ 1001a2c8     iojs:node.dll
 0002:000002cc       __imp_?NewInstance@Function@v8@@QBE?AV?$MaybeLocal@VObject@v8@@@2@V?$Local@VContext@v8@@@2@HQAV?$Local@VValue@v8@@@2@@Z 1001a2cc     iojs:node.dll
 0002:000002d0       __imp__uv_async_send       1001a2d0     iojs:node.dll
 0002:000002d4       \177node_NULL_THUNK_DATA   1001a2d4     iojs:node.dll
 0002:000002d8       __imp__CoCreateFreeThreadedMarshaler@8 1001a2d8     ole32:ole32.dll
 0002:000002dc       __imp__CoInitializeEx@8    1001a2dc     ole32:ole32.dll
 0002:000002e0       __imp__CoGetContextToken@4 1001a2e0     ole32:ole32.dll
 0002:000002e4       \177ole32_NULL_THUNK_DATA  1001a2e4     ole32:ole32.dll
 0002:000002e8       __imp_?__abi_WinRTraiseObjectDisposedException@@YGXXZ 1001a2e8     vccorlib:vccorlib140.DLL
 0002:000002ec       __imp_?__abi_WinRTraiseInvalidCastException@@YGXXZ 1001a2ec     vccorlib:vccorlib140.DLL
 0002:000002f0       __imp_?__abi_WinRTraiseNotImplementedException@@YGXXZ 1001a2f0     vccorlib:vccorlib140.DLL
 0002:000002f4       __imp_??0Delegate@Platform@@Q$AAA@XZ 1001a2f4     vccorlib:vccorlib140.DLL
 0002:000002f8       __imp_?GetObjectContext@Details@Platform@@YGPAUIUnknown@@XZ 1001a2f8     vccorlib:vccorlib140.DLL
 0002:000002fc       __imp_?ReleaseInContextImpl@Details@Platform@@YGJPAUIUnknown@@0@Z 1001a2fc     vccorlib:vccorlib140.DLL
 0002:00000300       __imp_?get@Message@Exception@Platform@@Q$AAAP$AAVString@3@XZ 1001a300     vccorlib:vccorlib140.DLL
 0002:00000304       __imp_?Free@Heap@Details@Platform@@SAXPAX@Z 1001a304     vccorlib:vccorlib140.DLL
 0002:00000308       __imp_?AlignedFree@Heap@Details@Platform@@SAXPAX@Z 1001a308     vccorlib:vccorlib140.DLL
 0002:0000030c       __imp_?AllocateException@Heap@Details@Platform@@SAPAXII@Z 1001a30c     vccorlib:vccorlib140.DLL
 0002:00000310       __imp_?GetProxyImpl@Details@Platform@@YGJPAUIUnknown@@ABU_GUID@@0PAPAU3@@Z 1001a310     vccorlib:vccorlib140.DLL
 0002:00000314       __imp_?ReleaseTarget@ControlBlock@Details@Platform@@AAEXXZ 1001a314     vccorlib:vccorlib140.DLL
 0002:00000318       __imp_?ReCreateException@Exception@Platform@@SAP$AAV12@H@Z 1001a318     vccorlib:vccorlib140.DLL
 0002:0000031c       __imp_?__abi_WinRTraiseDisconnectedException@@YGXXZ 1001a31c     vccorlib:vccorlib140.DLL
 0002:00000320       __imp_?__abi_WinRTraiseFailureException@@YGXXZ 1001a320     vccorlib:vccorlib140.DLL
 0002:00000324       __imp_?__abi_WinRTraiseOperationCanceledException@@YGXXZ 1001a324     vccorlib:vccorlib140.DLL
 0002:00000328       __imp_?InitializeData@Details@Platform@@YAJH@Z 1001a328     vccorlib:vccorlib140.DLL
 0002:0000032c       __imp_?UninitializeData@Details@Platform@@YAXH@Z 1001a32c     vccorlib:vccorlib140.DLL
 0002:00000330       __imp_?GetIidsFn@@YGJHPAKPBU__s_GUID@@PAPAVGuid@Platform@@@Z 1001a330     vccorlib:vccorlib140.DLL
 0002:00000334       __imp_?GetActivationFactoryByPCWSTR@@YGJPAXAAVGuid@Platform@@PAPAX@Z 1001a334     vccorlib:vccorlib140.DLL
 0002:00000338       __imp_?Allocate@Heap@Details@Platform@@SAPAXII@Z 1001a338     vccorlib:vccorlib140.DLL
 0002:0000033c       __imp_?__abi_WinRTraiseAccessDeniedException@@YGXXZ 1001a33c     vccorlib:vccorlib140.DLL
 0002:00000340       __imp_?__abi_WinRTraiseInvalidArgumentException@@YGXXZ 1001a340     vccorlib:vccorlib140.DLL
 0002:00000344       __imp_?__abi_WinRTraiseClassNotRegisteredException@@YGXXZ 1001a344     vccorlib:vccorlib140.DLL
 0002:00000348       __imp_?__abi_WinRTraiseCOMException@@YGXJ@Z 1001a348     vccorlib:vccorlib140.DLL
 0002:0000034c       __imp_?__abi_translateCurrentException@@YGJ_N@Z 1001a34c     vccorlib:vccorlib140.DLL
 0002:00000350       __imp_?__abi_WinRTraiseNullReferenceException@@YGXXZ 1001a350     vccorlib:vccorlib140.DLL
 0002:00000354       __imp_?__abi_WinRTraiseChangedStateException@@YGXXZ 1001a354     vccorlib:vccorlib140.DLL
 0002:00000358       __imp_?__abi_WinRTraiseOutOfBoundsException@@YGXXZ 1001a358     vccorlib:vccorlib140.DLL
 0002:0000035c       __imp_?__abi_WinRTraiseWrongThreadException@@YGXXZ 1001a35c     vccorlib:vccorlib140.DLL
 0002:00000360       __imp_?__abi_WinRTraiseOutOfMemoryException@@YGXXZ 1001a360     vccorlib:vccorlib140.DLL
 0002:00000364       __imp_??0NullReferenceException@Platform@@Q$AAA@XZ 1001a364     vccorlib:vccorlib140.DLL
 0002:00000368       \177vccorlib140_NULL_THUNK_DATA 1001a368     vccorlib:vccorlib140.DLL
 0002:0000036c       ___guard_check_icall_fptr  1001a36c     MSVCRT:guard_support.obj
 0002:00000370       ___xc_a                    1001a370     MSVCRT:initializers.obj
 0002:00000378       __register_binding_        1001a378     _nodert_generated.obj
 0002:00000390       ___xc_z                    1001a390     MSVCRT:initializers.obj
 0002:00000394       ___xi_a                    1001a394     MSVCRT:initializers.obj
 0002:0000039c       ___abi__initialize         1001a39c     vccorlib:init.obj
 0002:000003a0       ___xi_z                    1001a3a0     MSVCRT:initializers.obj
 0002:000003a4       ___xl_a                    1001a3a4     MSVCRT:tlssup.obj
 0002:000003a8       ___xl_z                    1001a3a8     MSVCRT:tlssup.obj
 0002:000003ac       ___xp_a                    1001a3ac     MSVCRT:initializers.obj
 0002:000003b0       ___xp_z                    1001a3b0     MSVCRT:initializers.obj
 0002:000003b4       ___xt_a                    1001a3b4     MSVCRT:initializers.obj
 0002:000003b8       ___xt_z                    1001a3b8     MSVCRT:initializers.obj
 0002:000003c0       ??_C@_1BK@MGMFAEKH@?$AAk?$AAe?$AAr?$AAn?$AAe?$AAl?$AA3?$AA2?$AA?4?$AAd?$AAl?$AAl?$AA?$AA@ 1001a3c0     MSVCRT:thread_safe_statics.obj
 0002:000003dc       ??_C@_0BM@HLJJNPAH@InitializeConditionVariable?$AA@ 1001a3dc     MSVCRT:thread_safe_statics.obj
 0002:000003f8       ??_C@_0BJ@JEBJOJFJ@SleepConditionVariableCS?$AA@ 1001a3f8     MSVCRT:thread_safe_statics.obj
 0002:00000414       ??_C@_0BJ@PGPPEPCC@WakeAllConditionVariable?$AA@ 1001a414     MSVCRT:thread_safe_statics.obj
 0002:00000434       ??_7type_info@@6B@         1001a434     MSVCRT:std_type_info_static.obj
 0002:00000440       __pRawDllMain              1001a440     MSVCRT:dll_dllmain.obj
 0002:00000440       __pDefaultRawDllMain       1001a440     MSVCRT:dll_dllmain.obj
 0002:00000448       ??_7exception@std@@6B@     1001a448     MSVCRT:throw_bad_alloc.obj
 0002:00000450       ??_C@_0BC@EOODALEL@Unknown?5exception?$AA@ 1001a450     MSVCRT:throw_bad_alloc.obj
 0002:00000468       ??_7bad_alloc@std@@6B@     1001a468     MSVCRT:throw_bad_alloc.obj
 0002:00000470       ??_C@_0P@GHFPNOJB@bad?5allocation?$AA@ 1001a470     MSVCRT:throw_bad_alloc.obj
 0002:00000484       ??_7bad_array_new_length@std@@6B@ 1001a484     MSVCRT:throw_bad_alloc.obj
 0002:0000048c       ??_C@_0BF@KINCDENJ@bad?5array?5new?5length?$AA@ 1001a48c     MSVCRT:throw_bad_alloc.obj
 0002:000004a4       ??_C@_0BC@BDKFLDHL@unknown?5exception?$AA@ 1001a4a4     _nodert_generated.obj
 0002:000004b8       ??_C@_07CIFAGBMG@unknown?$AA@ 1001a4b8     _nodert_generated.obj
 0002:000004c0       ??_C@_1DG@OKCGPKIB@?$AAp?$AAe?$AAr?$AAs?$AAi?$AAs?$AAt?$AAe?$AAn?$AAt?$AA?$CI?$AA?$CJ?$AA?4?$AAI?$AAs?$AAN?$AAe?$AAa?$AAr?$AAD?$AAe?$AAa?$AAt?$AAh?$AA?$CI?$AA?$CJ?$AA?$AA@ 1001a4c0     _nodert_generated.obj
 0002:000004f8       ??_C@_1CO@EGNPJLKI@?$AAp?$AAe?$AAr?$AAs?$AAi?$AAs?$AAt?$AAe?$AAn?$AAt?$AA?$CI?$AA?$CJ?$AA?4?$AAI?$AAs?$AAE?$AAm?$AAp?$AAt?$AAy?$AA?$CI?$AA?$CJ?$AA?$AA@ 1001a4f8     _nodert_generated.obj
 0002:00000528       ??_C@_1DA@FBGAEOIO@?$AA?$CB?$AAp?$AAe?$AAr?$AAs?$AAi?$AAs?$AAt?$AAe?$AAn?$AAt?$AA?$CI?$AA?$CJ?$AA?4?$AAI?$AAs?$AAE?$AAm?$AAp?$AAt?$AAy?$AA?$CI?$AA?$CJ?$AA?$AA@ 1001a528     _nodert_generated.obj
 0002:00000558       ??_C@_1CO@JCKLEFMA@?$AA?$CB?$AAp?$AAe?$AAr?$AAs?$AAi?$AAs?$AAt?$AAe?$AAn?$AAt?$AA?$CI?$AA?$CJ?$AA?4?$AAI?$AAs?$AAW?$AAe?$AAa?$AAk?$AA?$CI?$AA?$CJ?$AA?$AA@ 1001a558     _nodert_generated.obj
 0002:00000588       ??_C@_1BE@GMLLOIPJ@?$AAr?$AAe?$AAf?$AAs?$AA_?$AA?5?$AA?$DO?$AA?5?$AA0?$AA?$AA@ 1001a588     _nodert_generated.obj
 0002:0000059c       ??_C@_1CC@GBFLAAPF@?$AAw?$AAr?$AAa?$AAp?$AA?9?$AA?$DO?$AAr?$AAe?$AAf?$AAs?$AA_?$AA?5?$AA?$DN?$AA?$DN?$AA?5?$AA0?$AA?$AA@ 1001a59c     _nodert_generated.obj
 0002:000005c0       ??_C@_1KC@OALINNKN@?$AAc?$AA?3?$AA?2?$AAu?$AAs?$AAe?$AAr?$AAs?$AA?2?$AAj?$AAd?$AA?2?$AAd?$AAe?$AAs?$AAk?$AAt?$AAo?$AAp?$AA?2?$AAt?$AAo?$AAk?$AAy?$AAl?$AAa?$AAb?$AAs?$AA?2?$AAt?$AAo?$AAk@ 1001a5c0     _nodert_generated.obj
 0002:00000668       ??_C@_1EC@MGGLMBLC@?$AAo?$AAb?$AAj?$AAe?$AAc?$AAt?$AA?9?$AA?$DO?$AAI?$AAn?$AAt?$AAe?$AAr?$AAn?$AAa?$AAl?$AAF?$AAi?$AAe?$AAl?$AAd?$AAC?$AAo?$AAu?$AAn?$AAt?$AA?$CI?$AA?$CJ?$AA?5?$AA?$DO?$AA?5?$AA0@ 1001a668     _nodert_generated.obj
 0002:000006ac       ??_C@_1DI@ELDBKNAK@?$AAw?$AAr?$AAa?$AAp?$AA?9?$AA?$DO?$AAh?$AAa?$AAn?$AAd?$AAl?$AAe?$AA_?$AA?4?$AAI?$AAs?$AAN?$AAe?$AAa?$AAr?$AAD?$AAe?$AAa?$AAt?$AAh?$AA?$CI?$AA?$CJ?$AA?$AA@ 1001a6ac     _nodert_generated.obj
 0002:000006e4       ??_C@_0BM@DMDJGFCM@Fail?5to?5schedule?5the?5chore?$CB?$AA@ 1001a6e4     _nodert_generated.obj
 0002:00000700       ??_C@_0DN@ELCPICKL@This?5function?5cannot?5be?5called?5o@ 1001a700     _nodert_generated.obj
 0002:00000740       ??_C@_0DD@NJEIIHCG@Illegal?5to?5wait?5on?5a?5task?5in?5a?5W@ 1001a740     _nodert_generated.obj
 0002:00000774       ??_C@_0BH@LAEGKBN@__winrtOpaqueWrapper__?$AA@ 1001a774     _nodert_generated.obj
 0002:0000078c       ??_C@_08PPIJGMPL@callback?$AA@ 1001a78c     _nodert_generated.obj
 0002:00000798       ??_C@_07DEBHDLBL@process?$AA@ 1001a798     _nodert_generated.obj
 0002:000007a0       ??_C@_06LKIIGAOE@domain?$AA@ 1001a7a0     _nodert_generated.obj
 0002:000007a8       ??_C@_0BJ@LJPDLIMA@__registrationTokenMap__?$AA@ 1001a7a8     _nodert_generated.obj
 0002:000007c4       ??_C@_0L@HHPKOBNC@RadioState?$AA@ 1001a7c4     _nodert_generated.obj
 0002:000007d0       ??_C@_02LIELOMNJ@on?$AA@   1001a7d0     _nodert_generated.obj
 0002:000007d4       ??_C@_03MCADLMAF@off?$AA@  1001a7d4     _nodert_generated.obj
 0002:000007d8       ??_C@_08BEHKFNNO@disabled?$AA@ 1001a7d8     _nodert_generated.obj
 0002:000007e4       ??_C@_09HDHENHLL@RadioKind?$AA@ 1001a7e4     _nodert_generated.obj
 0002:000007f0       ??_C@_05BGEKGIIP@other?$AA@ 1001a7f0     _nodert_generated.obj
 0002:000007f8       ??_C@_04PECJKNCI@wiFi?$AA@ 1001a7f8     _nodert_generated.obj
 0002:00000800       ??_C@_0BA@NDCAFMN@mobileBroadband?$AA@ 1001a800     _nodert_generated.obj
 0002:00000810       ??_C@_09FIEGKEPP@bluetooth?$AA@ 1001a810     _nodert_generated.obj
 0002:0000081c       ??_C@_02JDDKADH@fM?$AA@    1001a81c     _nodert_generated.obj
 0002:00000820       ??_C@_0BC@EAFPLGKK@RadioAccessStatus?$AA@ 1001a820     _nodert_generated.obj
 0002:00000834       ??_C@_0M@MFMDLEDN@unspecified?$AA@ 1001a834     _nodert_generated.obj
 0002:00000840       ??_C@_07BHLLLGNC@allowed?$AA@ 1001a840     _nodert_generated.obj
 0002:00000848       ??_C@_0N@MGOAIPKM@deniedByUser?$AA@ 1001a848     _nodert_generated.obj
 0002:00000858       ??_C@_0P@OJHKJMDH@deniedBySystem?$AA@ 1001a858     _nodert_generated.obj
 0002:00000868       ??_C@_05LKAOEOMO@Radio?$AA@ 1001a868     _nodert_generated.obj
 0002:00000870       ??_C@_0O@EIHAEGOG@setStateAsync?$AA@ 1001a870     _nodert_generated.obj
 0002:00000880       ??_C@_0M@GMNDPMBH@addListener?$AA@ 1001a880     _nodert_generated.obj
 0002:0000088c       ??_C@_0P@NPMHMMOM@removeListener?$AA@ 1001a88c     _nodert_generated.obj
 0002:0000089c       ??_C@_04NCMJLOLO@kind?$AA@ 1001a89c     _nodert_generated.obj
 0002:000008a4       ??_C@_04MEMAJGDJ@name?$AA@ 1001a8a4     _nodert_generated.obj
 0002:000008ac       ??_C@_05HDBKIDE@state?$AA@ 1001a8ac     _nodert_generated.obj
 0002:000008b4       ??_C@_08KIDHCPHN@castFrom?$AA@ 1001a8b4     _nodert_generated.obj
 0002:000008c0       ??_C@_0BC@KIEAEFCG@getDeviceSelector?$AA@ 1001a8c0     _nodert_generated.obj
 0002:000008d4       ??_C@_0P@FOGFFFAG@getRadiosAsync?$AA@ 1001a8d4     _nodert_generated.obj
 0002:000008e4       ??_C@_0M@EBDIOBPK@fromIdAsync?$AA@ 1001a8e4     _nodert_generated.obj
 0002:000008f0       ??_C@_0BD@CADIHGEO@requestAccessAsync?$AA@ 1001a8f0     _nodert_generated.obj
 0002:00000908       ??_C@_1GC@KBHNNFGK@?$AAI?$AAn?$AAv?$AAa?$AAl?$AAi?$AAd?$AA?5?$AAa?$AAr?$AAg?$AAu?$AAm?$AAe?$AAn?$AAt?$AAs?$AA?0?$AA?5?$AAn?$AAo?$AA?5?$AAs?$AAu?$AAi?$AAt?$AAa?$AAb?$AAl?$AAe?$AA?5?$AAc@ 1001a908     _nodert_generated.obj
 0002:0000096c       ??_C@_0BC@HNKGPEBE@__winRtInstance__?$AA@ 1001a96c     _nodert_generated.obj
 0002:00000980       ??_C@_1LK@MDDHJJID@?$AAI?$AAn?$AAv?$AAa?$AAl?$AAi?$AAd?$AA?5?$AAa?$AAr?$AAg?$AAu?$AAm?$AAe?$AAn?$AAt?$AAs?$AA?0?$AA?5?$AAn?$AAo?$AA?5?$AAo?$AAb?$AAj?$AAe?$AAc?$AAt?$AA?5?$AAp?$AAr?$AAo@ 1001a980     _nodert_generated.obj
 0002:00000a40       ??_C@_1EK@NFKCAPKC@?$AAB?$AAa?$AAd?$AA?5?$AAa?$AAr?$AAg?$AAu?$AAm?$AAe?$AAn?$AAt?$AAs?$AA?3?$AA?5?$AAN?$AAo?$AA?5?$AAc?$AAa?$AAl?$AAl?$AAb?$AAa?$AAc?$AAk?$AA?5?$AAw?$AAa?$AAs?$AA?5?$AAg@ 1001aa40     _nodert_generated.obj
 0002:00000a90       ??_C@_1FE@FAFBJCBD@?$AAB?$AAa?$AAd?$AA?5?$AAa?$AAr?$AAg?$AAu?$AAm?$AAe?$AAn?$AAt?$AAs?$AA?3?$AA?5?$AAn?$AAo?$AA?5?$AAs?$AAu?$AAi?$AAt?$AAa?$AAb?$AAl?$AAe?$AA?5?$AAo?$AAv?$AAe?$AAr?$AAl@ 1001aa90     _nodert_generated.obj
 0002:00000ae8       ??_C@_1JK@DNJLCGHE@?$AAw?$AAr?$AAo?$AAn?$AAg?$AA?5?$AAa?$AAr?$AAg?$AAu?$AAm?$AAe?$AAn?$AAt?$AAs?$AA?0?$AA?5?$AAe?$AAx?$AAp?$AAe?$AAc?$AAt?$AAe?$AAd?$AA?5?$AAa?$AAr?$AAg?$AAu?$AAm?$AAe@ 1001aae8     _nodert_generated.obj
 0002:00000b84       ??_C@_1BK@KICBJJMM@?$AAs?$AAt?$AAa?$AAt?$AAe?$AAC?$AAh?$AAa?$AAn?$AAg?$AAe?$AAd?$AA?$AA@ 1001ab84     _nodert_generated.obj
 0002:00000ba0       ??_C@_1LG@DAHPAPIM@?$AAT?$AAh?$AAe?$AA?5?$AAc?$AAa?$AAl?$AAl?$AAe?$AAr?$AA?5?$AAo?$AAf?$AA?5?$AAt?$AAh?$AAi?$AAs?$AA?5?$AAm?$AAe?$AAt?$AAh?$AAo?$AAd?$AA?5?$AAi?$AAs?$AAn?$AA?8?$AAt?$AA?5@ 1001aba0     _nodert_generated.obj
 0002:00000c58       ??_C@_1EG@KBCEIIBD@?$AAg?$AAi?$AAv?$AAe?$AAn?$AA?5?$AAe?$AAv?$AAe?$AAn?$AAt?$AA?5?$AAn?$AAa?$AAm?$AAe?$AA?5?$AAi?$AAs?$AAn?$AA?8?$AAt?$AA?5?$AAs?$AAu?$AAp?$AAp?$AAo?$AAr?$AAt?$AAe?$AAd@ 1001ac58     _nodert_generated.obj
 0002:00000ca0       ??_C@_1GE@DOIICCMG@?$AAw?$AAr?$AAo?$AAn?$AAg?$AA?5?$AAa?$AAr?$AAg?$AAu?$AAm?$AAe?$AAn?$AAt?$AAs?$AA?0?$AA?5?$AAe?$AAx?$AAp?$AAe?$AAc?$AAt?$AAe?$AAd?$AA?5?$AAa?$AA?5?$AAs?$AAt?$AAr?$AAi@ 1001aca0     _nodert_generated.obj
 0002:00000d04       ??_C@_0BH@OEPDILCB@Windows?4Devices?4Radios?$AA@ 1001ad04     _nodert_generated.obj
 0002:00000d1c       ??_C@_0BJ@CIOFOAKP@?4?4?2_nodert_generated?4cpp?$AA@ 1001ad1c     _nodert_generated.obj
 0002:00000d38       ??_C@_07GGKKJCAC@binding?$AA@ 1001ad38     _nodert_generated.obj
 0002:00000d40       ??_C@_1JK@FKNKGECC@?$AAW?$AAi?$AAn?$AAd?$AAo?$AAw?$AAs?$AA?4?$AAF?$AAo?$AAu?$AAn?$AAd?$AAa?$AAt?$AAi?$AAo?$AAn?$AA?4?$AAT?$AAy?$AAp?$AAe?$AAd?$AAE?$AAv?$AAe?$AAn?$AAt?$AAH?$AAa?$AAn@ 1001ad40     _nodert_generated.obj
 0002:00000ddc       ??_C@_1DK@PEFIBCGI@?$AAW?$AAi?$AAn?$AAd?$AAo?$AAw?$AAs?$AA?4?$AAD?$AAe?$AAv?$AAi?$AAc?$AAe?$AAs?$AA?4?$AAR?$AAa?$AAd?$AAi?$AAo?$AAs?$AA?4?$AAR?$AAa?$AAd?$AAi?$AAo?$AA?$AA@ 1001addc     _nodert_generated.obj
 0002:00000e18       ??_C@_1EC@HNHEILEH@?$AAW?$AAi?$AAn?$AAd?$AAo?$AAw?$AAs?$AA?4?$AAF?$AAo?$AAu?$AAn?$AAd?$AAa?$AAt?$AAi?$AAo?$AAn?$AA?4?$AAP?$AAr?$AAo?$AAp?$AAe?$AAr?$AAt?$AAy?$AAV?$AAa?$AAl?$AAu?$AAe@ 1001ae18     _nodert_generated.obj
 0002:00000e5c       ??_C@_0CN@CFDLBABJ@Windows?3?3Foundation?3?3Collections@ 1001ae5c     _nodert_generated.obj
 0002:00000e8c       ??_C@_07JGIDINKK@getMany?$AA@ 1001ae8c     _nodert_generated.obj
 0002:00000e94       ??_C@_05NEEIPFEN@getAt?$AA@ 1001ae94     _nodert_generated.obj
 0002:00000e9c       ??_C@_07KKKNJHGA@indexOf?$AA@ 1001ae9c     _nodert_generated.obj
 0002:00000ea4       ??_C@_05NIGAKFML@first?$AA@ 1001aea4     _nodert_generated.obj
 0002:00000eac       ??_C@_04IAGNFIBA@size?$AA@ 1001aeac     _nodert_generated.obj
 0002:00000eb4       ??_C@_06IJDLPEM@length?$AA@ 1001aeb4     _nodert_generated.obj
 0002:00000ebc       ??_C@_1CO@CKJHFEP@?$AAM?$AAe?$AAt?$AAh?$AAo?$AAd?$AA?5?$AAi?$AAs?$AAn?$AA?8?$AAt?$AA?5?$AAs?$AAu?$AAp?$AAp?$AAo?$AAr?$AAt?$AAe?$AAd?$AA?$AA@ 1001aebc     _nodert_generated.obj
 0002:00000eec       ??_C@_07GOBOHMJA@boolean?$AA@ 1001aeec     _nodert_generated.obj
 0002:00000ef4       ??_C@_05FKHKFDID@index?$AA@ 1001aef4     _nodert_generated.obj
 0002:00000efc       ??_C@_1CA@EIFFEMAD@?$AAN?$AAo?$AAt?$AA?5?$AAi?$AAm?$AAp?$AAl?$AAe?$AAm?$AAe?$AAn?$AAt?$AAe?$AAd?$AA?$AA@ 1001aefc     _nodert_generated.obj
 0002:00000f1c       ??_C@_0BD@OLBABOEK@vector?$DMT?$DO?5too?5long?$AA@ 1001af1c     _nodert_generated.obj
 0002:00000f30       ??_C@_0CL@EPAAJAFM@Windows?3?3Foundation?3?3Collections@ 1001af30     _nodert_generated.obj
 0002:00000f5c       ??_C@_08JABKCAEO@moveNext?$AA@ 1001af5c     _nodert_generated.obj
 0002:00000f68       ??_C@_07LKPDDKMO@current?$AA@ 1001af68     _nodert_generated.obj
 0002:00000f70       ??_C@_0L@FADMNBDO@hasCurrent?$AA@ 1001af70     _nodert_generated.obj
 0002:00000f7c       ??_C@_1CE@LNAGEONJ@?$AA?$CB?$AAo?$AAb?$AAj?$AAe?$AAc?$AAt?$AA?4?$AAI?$AAs?$AAE?$AAm?$AAp?$AAt?$AAy?$AA?$CI?$AA?$CJ?$AA?$AA@ 1001af7c     _nodert_generated.obj
 0002:00000fa0       ??_C@_1KE@PCDCOCGC@?$AAW?$AAi?$AAn?$AAd?$AAo?$AAw?$AAs?$AA?4?$AAF?$AAo?$AAu?$AAn?$AAd?$AAa?$AAt?$AAi?$AAo?$AAn?$AA?4?$AAA?$AAs?$AAy?$AAn?$AAc?$AAO?$AAp?$AAe?$AAr?$AAa?$AAt?$AAi?$AAo@ 1001afa0     _nodert_generated.obj
 0002:00001048       ??_C@_1BAA@OPHGBHFM@?$AAW?$AAi?$AAn?$AAd?$AAo?$AAw?$AAs?$AA?4?$AAF?$AAo?$AAu?$AAn?$AAd?$AAa?$AAt?$AAi?$AAo?$AAn?$AA?4?$AAA?$AAs?$AAy?$AAn?$AAc?$AAO?$AAp?$AAe?$AAr?$AAa?$AAt?$AAi?$AAo@ 1001b048     _nodert_generated.obj
 0002:00001148       ??_C@_1LM@MMDEBKG@?$AAW?$AAi?$AAn?$AAd?$AAo?$AAw?$AAs?$AA?4?$AAF?$AAo?$AAu?$AAn?$AAd?$AAa?$AAt?$AAi?$AAo?$AAn?$AA?4?$AAA?$AAs?$AAy?$AAn?$AAc?$AAO?$AAp?$AAe?$AAr?$AAa?$AAt?$AAi?$AAo@ 1001b148     _nodert_generated.obj
 0002:00001204       ___uuidof_?AV?$AsyncOperationCompletedHandler@P$AAU?$IVectorView@P$AAVRadio@Radios@Devices@Windows@@@Collections@Foundation@Windows@@@Foundation@Windows@@ 1001b204     _nodert_generated.obj
 0002:00001214       ?REGISTRATION_TOKEN_MAP_PROPERTY_NAME@@3PBDB 1001b214     _nodert_generated.obj
 0002:00001218       ___uuidof_?AU__abi_IDelegate@?$TypedEventHandler@P$AAVRadio@Radios@Devices@Windows@@P$AAVObject@Platform@@@Foundation@Windows@@ 1001b218     _nodert_generated.obj
 0002:00001228       ___uuidof_?AUIAgileObject@Details@Platform@@ 1001b228     _nodert_generated.obj
 0002:00001228       __GUID_94ea2b94_e9cc_49e0_c0ff_ee64ca8f5b90 1001b228     _nodert_generated.obj
 0002:00001238       ___uuidof_?AU?$IVectorView@P$AAVRadio@Radios@Devices@Windows@@@Collections@Foundation@Windows@@ 1001b238     _nodert_generated.obj
 0002:00001248       ___uuidof_?AU?$IIterator@P$AAVRadio@Radios@Devices@Windows@@@Collections@Foundation@Windows@@ 1001b248     _nodert_generated.obj
 0002:00001258       ___uuidof_?AU?$IIterable@P$AAVRadio@Radios@Devices@Windows@@@Collections@Foundation@Windows@@ 1001b258     _nodert_generated.obj
 0002:00001268       ___uuidof_?AV?$AsyncOperationCompletedHandler@W4RadioAccessStatus@Radios@Devices@Windows@@@Foundation@Windows@@ 1001b268     _nodert_generated.obj
 0002:00001278       __GUID_00000000_0000_0000_c000_000000000046 1001b278     _nodert_generated.obj
 0002:00001288       __GUID_00000003_0000_0000_c000_000000000046 1001b288     _nodert_generated.obj
 0002:00001298       ?_Upper@?1??_Memory_order_upper_bound@std@@YA?AW4memory_order@2@W432@0@Z@4QAY05$$CBW432@A 1001b298     _nodert_generated.obj
 0002:00001328       ___uuidof_?AVRadio@Radios@Devices@Windows@@ 1001b328     _nodert_generated.obj
 0002:00001338       ___uuidof_?AUIAsyncInfo@Foundation@Windows@@ 1001b338     _nodert_generated.obj
 0002:00001348       ___uuidof_?AU__abi_IDelegate@?$AsyncOperationCompletedHandler@P$AAU?$IVectorView@P$AAVRadio@Radios@Devices@Windows@@@Collections@Foundation@Windows@@@Foundation@Windows@@ 1001b348     _nodert_generated.obj
 0002:00001348       ___uuidof_?AU__abi_IDelegate@?$AsyncOperationCompletedHandler@W4RadioAccessStatus@Radios@Devices@Windows@@@Foundation@Windows@@ 1001b348     _nodert_generated.obj
 0002:00001348       ___uuidof_?AU__abi_IDelegate@?$AsyncOperationCompletedHandler@P$AAVRadio@Radios@Devices@Windows@@@Foundation@Windows@@ 1001b348     _nodert_generated.obj
 0002:00001358       ___uuidof_?AV?$TypedEventHandler@P$AAVRadio@Radios@Devices@Windows@@P$AAVObject@Platform@@@Foundation@Windows@@ 1001b358     _nodert_generated.obj
 0002:00001368       ___uuidof_?AU?$IBox@_J@Platform@@ 1001b368     _nodert_generated.obj
 0002:00001368       ___uuidof_?AV?$Box@_J@Platform@@ 1001b368     _nodert_generated.obj
 0002:00001378       ___uuidof_?AV?$AsyncOperationCompletedHandler@P$AAVRadio@Radios@Devices@Windows@@@Foundation@Windows@@ 1001b378     _nodert_generated.obj
 0002:00001388       ??_C@_07KPENDMPA@HRESULT?$AA@ 1001b388     NodeRtUtils.obj
 0002:00001390       ??_C@_0BE@FOACCDKJ@__winRtNamespaces__?$AA@ 1001b390     NodeRtUtils.obj
 0002:000013a4       ??_C@_0O@CPBGCLBG@OpaqueWrapper?$AA@ 1001b3a4     OpaqueWrapper.obj
 0002:00001418       __load_config_used         1001b418     MSVCRT:loadcfg.obj
 0002:00001474       __tls_used                 1001b474     MSVCRT:tlssup.obj
 0002:0000148c       ??_R3ModuleBase@Details@WRL@Microsoft@@8 1001b48c     vccorlib:init.obj
 0002:0000149c       ??_R2ModuleBase@Details@WRL@Microsoft@@8 1001b49c     vccorlib:init.obj
 0002:000014a4       ??_R1A@?0A@EA@ModuleBase@Details@WRL@Microsoft@@8 1001b4a4     vccorlib:init.obj
 0002:000014c0       ??_R4InProcModule@Details@Platform@@6B?$Module@$04VInProcModule@Details@Platform@@@WRL@Microsoft@@@ 1001b4c0     vccorlib:init.obj
 0002:000014d4       ??_R3InProcModule@Details@Platform@@8 1001b4d4     vccorlib:init.obj
 0002:000014e4       ??_R2InProcModule@Details@Platform@@8 1001b4e4     vccorlib:init.obj
 0002:000014fc       ??_R1A@?0A@EA@InProcModule@Details@Platform@@8 1001b4fc     vccorlib:init.obj
 0002:00001518       ??_R1A@?0A@EA@?$Module@$04VInProcModule@Details@Platform@@@WRL@Microsoft@@8 1001b518     vccorlib:init.obj
 0002:00001534       ??_R3?$Module@$04VInProcModule@Details@Platform@@@WRL@Microsoft@@8 1001b534     vccorlib:init.obj
 0002:00001544       ??_R2?$Module@$04VInProcModule@Details@Platform@@@WRL@Microsoft@@8 1001b544     vccorlib:init.obj
 0002:00001554       ??_R1A@?0A@EA@?$Module@$00VInProcModule@Details@Platform@@@WRL@Microsoft@@8 1001b554     vccorlib:init.obj
 0002:00001570       ??_R3?$Module@$00VInProcModule@Details@Platform@@@WRL@Microsoft@@8 1001b570     vccorlib:init.obj
 0002:00001580       ??_R2?$Module@$00VInProcModule@Details@Platform@@@WRL@Microsoft@@8 1001b580     vccorlib:init.obj
 0002:0000158c       ??_R13?0A@EA@__abi_Module@@8 1001b58c     vccorlib:init.obj
 0002:000015a8       ??_R3__abi_Module@@8       1001b5a8     vccorlib:init.obj
 0002:000015b8       ??_R2__abi_Module@@8       1001b5b8     vccorlib:init.obj
 0002:000015c0       ??_R1A@?0A@EA@__abi_Module@@8 1001b5c0     vccorlib:init.obj
 0002:000015dc       ??_R4InProcModule@Details@Platform@@6B__abi_Module@@@ 1001b5dc     vccorlib:init.obj
 0002:000015f0       ??_R4?$Module@$00VInProcModule@Details@Platform@@@WRL@Microsoft@@6B@ 1001b5f0     vccorlib:init.obj
 0002:00001604       ??_R4type_info@@6B@        1001b604     MSVCRT:std_type_info_static.obj
 0002:00001618       ??_R3type_info@@8          1001b618     MSVCRT:std_type_info_static.obj
 0002:00001628       ??_R2type_info@@8          1001b628     MSVCRT:std_type_info_static.obj
 0002:00001630       ??_R1A@?0A@EA@type_info@@8 1001b630     MSVCRT:std_type_info_static.obj
 0002:0000164c       ??_R4exception@std@@6B@    1001b64c     MSVCRT:throw_bad_alloc.obj
 0002:00001660       ??_R3exception@std@@8      1001b660     MSVCRT:throw_bad_alloc.obj
 0002:00001670       ??_R2exception@std@@8      1001b670     MSVCRT:throw_bad_alloc.obj
 0002:00001678       ??_R1A@?0A@EA@exception@std@@8 1001b678     MSVCRT:throw_bad_alloc.obj
 0002:00001694       ??_R4bad_alloc@std@@6B@    1001b694     MSVCRT:throw_bad_alloc.obj
 0002:000016a8       ??_R3bad_alloc@std@@8      1001b6a8     MSVCRT:throw_bad_alloc.obj
 0002:000016b8       ??_R2bad_alloc@std@@8      1001b6b8     MSVCRT:throw_bad_alloc.obj
 0002:000016c4       ??_R1A@?0A@EA@bad_alloc@std@@8 1001b6c4     MSVCRT:throw_bad_alloc.obj
 0002:000016e0       ??_R4bad_array_new_length@std@@6B@ 1001b6e0     MSVCRT:throw_bad_alloc.obj
 0002:000016f4       ??_R3bad_array_new_length@std@@8 1001b6f4     MSVCRT:throw_bad_alloc.obj
 0002:00001704       ??_R2bad_array_new_length@std@@8 1001b704     MSVCRT:throw_bad_alloc.obj
 0002:00001714       ??_R1A@?0A@EA@bad_array_new_length@std@@8 1001b714     MSVCRT:throw_bad_alloc.obj
 0002:00001730       ___safe_se_handler_table   1001b730     <linker-defined>
 0002:00001e0c       ___rtc_iaa                 1001be0c     MSVCRT:_initsect_.obj
 0002:00001e10       ___rtc_izz                 1001be10     MSVCRT:_initsect_.obj
 0002:00001e14       ___rtc_taa                 1001be14     MSVCRT:_initsect_.obj
 0002:00001e18       ___rtc_tzz                 1001be18     MSVCRT:_initsect_.obj
 0002:000048e4       __TI2?AVbad_alloc@std@@    1001e8e4     MSVCRT:throw_bad_alloc.obj
 0002:000048f4       __CTA2?AVbad_alloc@std@@   1001e8f4     MSVCRT:throw_bad_alloc.obj
 0002:00004900       __CT??_R0?AVbad_alloc@std@@@8??0bad_alloc@std@@QAE@ABV01@@Z12 1001e900     MSVCRT:throw_bad_alloc.obj
 0002:0000491c       __CT??_R0?AVexception@std@@@8??0exception@std@@QAE@ABV01@@Z12 1001e91c     MSVCRT:throw_bad_alloc.obj
 0002:00004938       __TI3?AVbad_array_new_length@std@@ 1001e938     MSVCRT:throw_bad_alloc.obj
 0002:00004948       __CTA3?AVbad_array_new_length@std@@ 1001e948     MSVCRT:throw_bad_alloc.obj
 0002:00004958       __CT??_R0?AVbad_array_new_length@std@@@8??0bad_array_new_length@std@@QAE@ABV01@@Z12 1001e958     MSVCRT:throw_bad_alloc.obj
 0002:00004974       __CT??_R0P$AAVNullReferenceException@Platform@@@84 1001e974     _nodert_generated.obj
 0002:00004990       __CT??_R0P$AAVObject@Platform@@@8412 1001e990     _nodert_generated.obj
 0002:000049ac       __CT??_R0PAX@84            1001e9ac     _nodert_generated.obj
 0002:000049c8       __CT??_R0P$AAVCOMException@Platform@@@84 1001e9c8     _nodert_generated.obj
 0002:000049e4       __CT??_R0P$AAUIEquatable@Details@Platform@@@848 1001e9e4     _nodert_generated.obj
 0002:00004a00       __CTA9P$AAVException@Platform@@ 1001ea00     _nodert_generated.obj
 0002:00004a28       __CT??_R0P$AAUIPrintable@Details@Platform@@@844 1001ea28     _nodert_generated.obj
 0002:00004a44       __CTA11P$AAVNullReferenceException@Platform@@ 1001ea44     _nodert_generated.obj
 0002:00004a74       __CT??_R0P$AAVException@Platform@@@84 1001ea74     _nodert_generated.obj
 0002:00004a90       __CT??_R0P$AAVObject@Platform@@@844 1001ea90     _nodert_generated.obj
 0002:00004aac       __CT??_R0P$AAUIDisposable@Platform@@@8412 1001eaac     _nodert_generated.obj
 0002:00004ac8       __TI9P$AAVException@Platform@@ 1001eac8     _nodert_generated.obj
 0002:00004ad8       __TI11P$AAVNullReferenceException@Platform@@ 1001ead8     _nodert_generated.obj
 0002:00004ae8       __CT??_R0P$AAVObject@Platform@@@848 1001eae8     _nodert_generated.obj
 0002:00004b04       __CT??_R0P$AAVObject@Platform@@@84 1001eb04     _nodert_generated.obj
 0002:00004b74       __IMPORT_DESCRIPTOR_KERNEL32 1001eb74     kernel32:KERNEL32.dll
 0002:00004b88       __IMPORT_DESCRIPTOR_ole32  1001eb88     ole32:ole32.dll
 0002:00004b9c       __IMPORT_DESCRIPTOR_node   1001eb9c     iojs:node.dll
 0002:00004bb0       __IMPORT_DESCRIPTOR_vccorlib140 1001ebb0     vccorlib:vccorlib140.DLL
 0002:00004bc4       __IMPORT_DESCRIPTOR_MSVCP140 1001ebc4     msvcprt:MSVCP140.dll
 0002:00004bd8       __IMPORT_DESCRIPTOR_VCRUNTIME140 1001ebd8     vcruntime:VCRUNTIME140.dll
 0002:00004bec       __IMPORT_DESCRIPTOR_api-ms-win-crt-runtime-l1-1-0 1001ebec     ucrt:api-ms-win-crt-runtime-l1-1-0.dll
 0002:00004c00       __IMPORT_DESCRIPTOR_api-ms-win-crt-string-l1-1-0 1001ec00     ucrt:api-ms-win-crt-string-l1-1-0.dll
 0002:00004c14       __IMPORT_DESCRIPTOR_api-ms-win-crt-heap-l1-1-0 1001ec14     ucrt:api-ms-win-crt-heap-l1-1-0.dll
 0002:00004c28       __IMPORT_DESCRIPTOR_api-ms-win-core-winrt-string-l1-1-0 1001ec28     runtimeobject:api-ms-win-core-winrt-string-l1-1-0.dll
 0002:00004c3c       __NULL_IMPORT_DESCRIPTOR   1001ec3c     kernel32:KERNEL32.dll
 0003:00000004       ??_7?$Module@$00VInProcModule@Details@Platform@@@WRL@Microsoft@@6B@ 10022004     vccorlib:init.obj
 0003:00000038       ??_7InProcModule@Details@Platform@@6B?$Module@$04VInProcModule@Details@Platform@@@WRL@Microsoft@@@ 10022038     vccorlib:init.obj
 0003:0000006c       ??_7InProcModule@Details@Platform@@6B__abi_Module@@@ 1002206c     vccorlib:init.obj
 0003:00000074       __Init_global_epoch        10022074     MSVCRT:thread_safe_statics.obj
 0003:00000078       ___scrt_native_dllmain_reason 10022078     MSVCRT:utility.obj
 0003:0000007c       ___security_cookie_complement 1002207c     MSVCRT:gs_cookie.obj
 0003:00000080       ___security_cookie         10022080     MSVCRT:gs_cookie.obj
 0003:00000084       ___isa_enabled             10022084     MSVCRT:_cpu_disp_.obj
 0003:00000090       ___scrt_ucrt_dll_is_in_use 10022090     MSVCRT:ucrt_stubs.obj
 0003:00000094       ??_7?$_Func_impl@V<lambda_fa83efc75490756721b16c8797d488d3>@@V?$allocator@H@std@@XV?$function@$$A6AXHPAV?$Local@VValue@v8@@@v8@@@Z@3@@std@@6B@ 10022094     _nodert_generated.obj
 0003:000000ac       ??_7?$_ContinuationTaskHandle@P$AAU?$IVectorView@P$AAVRadio@Radios@Devices@Windows@@@Collections@Foundation@Windows@@XV?$function@$$A6AXV?$task@P$AAU?$IVectorView@P$AAVRadio@Radios@Devices@Windows@@@Collections@Foundation@Windows@@@Concurrency@@@Z@std@@U?$integral_constant@_N$00@6@U_TypeSelectorNoAsync@details@Concurrency@@@?$task@P$AAU?$IVectorView@P$AAVRadio@Radios@Devices@Windows@@@Collections@Foundation@Windows@@@Concurrency@@6B@ 100220ac     _nodert_generated.obj
 0003:000000b8       ??_7?$_Func_impl@V<lambda_c3befff5426f7ddaa4e03d53f00d3a42>@@V?$allocator@H@std@@XV?$function@$$A6AXHPAV?$Local@VValue@v8@@@v8@@@Z@3@@std@@6B@ 100220b8     _nodert_generated.obj
 0003:000000d0       ??_7?$_Func_base@P$AAVRadio@Radios@Devices@Windows@@V?$Local@VValue@v8@@@v8@@@std@@6B@ 100220d0     _nodert_generated.obj
 0003:000000e8       ??_7?$_ContinuationTaskHandle@W4RadioAccessStatus@Radios@Devices@Windows@@XV?$function@$$A6AXV?$task@W4RadioAccessStatus@Radios@Devices@Windows@@@Concurrency@@@Z@std@@U?$integral_constant@_N$00@6@U_TypeSelectorNoAsync@details@Concurrency@@@?$task@W4RadioAccessStatus@Radios@Devices@Windows@@@Concurrency@@6B@ 100220e8     _nodert_generated.obj
 0003:000000f4       ??_7_DefaultPPLTaskScheduler@details@Concurrency@@6B@ 100220f4     _nodert_generated.obj
 0003:000000f8       ??_7?$_Func_impl@V<lambda_55912aef2455062065036d52cc631bbd>@@V?$allocator@H@std@@XV?$function@$$A6AXHPAV?$Local@VValue@v8@@@v8@@@Z@3@@std@@6B@ 100220f8     _nodert_generated.obj
 0003:00000110       ??_7?$__abi_FunctorCapture@V<lambda_da728ca663148a39a15f0482357f5ab9>@@XP$AAU?$IAsyncOperation@W4RadioAccessStatus@Radios@Devices@Windows@@@Foundation@Windows@@W4AsyncStatus@34@@Details@Platform@@6B@ 10022110     _nodert_generated.obj
 0003:00000118       ??_7TokenData@Async@NodeUtils@@6B@ 10022118     _nodert_generated.obj
 0003:0000011c       ??_7?$TypedEventHandler@P$AAVRadio@Radios@Devices@Windows@@P$AAVObject@Platform@@@Foundation@Windows@@6BObject@Platform@@@ 1002211c     _nodert_generated.obj
 0003:00000134       ??_7?$_ContinuationTaskHandle@P$AAVRadio@Radios@Devices@Windows@@XV?$function@$$A6AXV?$task@P$AAVRadio@Radios@Devices@Windows@@@Concurrency@@@Z@std@@U?$integral_constant@_N$00@6@U_TypeSelectorNoAsync@details@Concurrency@@@?$task@P$AAVRadio@Radios@Devices@Windows@@@Concurrency@@6B@ 10022134     _nodert_generated.obj
 0003:00000140       ??_7?$_Func_base@EV?$task@P$AAU?$IVectorView@P$AAVRadio@Radios@Devices@Windows@@@Collections@Foundation@Windows@@@Concurrency@@@std@@6B@ 10022140     _nodert_generated.obj
 0003:00000158       ??_7?$AsyncOperationCompletedHandler@W4RadioAccessStatus@Radios@Devices@Windows@@@Foundation@Windows@@6B@ 10022158     _nodert_generated.obj
 0003:00000170       ??_7?$__abi_FunctorCapture@V<lambda_1d4db423df950a9db6d5162d107d760e>@@XP$AAU?$IAsyncOperation@P$AAVRadio@Radios@Devices@Windows@@@Foundation@Windows@@W4AsyncStatus@34@@Details@Platform@@6B@ 10022170     _nodert_generated.obj
 0003:00000178       ??_7_CancellationTokenRegistration@details@Concurrency@@6B@ 10022178     _nodert_generated.obj
 0003:00000184       ??_7?$_Func_impl@V<lambda_f08ec446ca8b33299a4e48e3172e9b8c>@@V?$allocator@H@std@@X$$V@std@@6B@ 10022184     _nodert_generated.obj
 0003:0000019c       ??_7?$_Func_impl@V<lambda_9eef212b7bb2525a1146c82a12593753>@@V?$allocator@H@std@@XV?$task@W4RadioAccessStatus@Radios@Devices@Windows@@@Concurrency@@@std@@6B@ 1002219c     _nodert_generated.obj
 0003:000001b4       ??_7?$_Func_impl@V<lambda_d9306928c1bd470a6e42b27630d148ed>@@V?$allocator@H@std@@X$$V@std@@6B@ 100221b4     _nodert_generated.obj
 0003:000001cc       ??_7?$IteratorWrapper@P$AAVRadio@Radios@Devices@Windows@@@Collections@NodeRT@@6B@ 100221cc     _nodert_generated.obj
 0003:000001dc       ??_7?$_Func_impl@V<lambda_3e6a614902430e1d627bb2376f9fa385>@@V?$allocator@H@std@@V?$Local@VValue@v8@@@v8@@P$AAVRadio@Radios@Devices@Windows@@@std@@6B@ 100221dc     _nodert_generated.obj
 0003:000001f4       ??_7?$_Ref_count_obj@U_ExceptionHolder@details@Concurrency@@@std@@6B@ 100221f4     _nodert_generated.obj
 0003:00000204       ??_7_RefCounter@details@Concurrency@@6B@ 10022204     _nodert_generated.obj
 0003:0000020c       ??_7?$AsyncOperationCompletedHandler@P$AAU?$IVectorView@P$AAVRadio@Radios@Devices@Windows@@@Collections@Foundation@Windows@@@Foundation@Windows@@6B__abi_IUnknown@@@ 1002220c     _nodert_generated.obj
 0003:00000220       ??_7?$_Func_impl@V<lambda_0ca07c6226f46e76875b5e248892ce5b>@@V?$allocator@H@std@@EV?$task@W4RadioAccessStatus@Radios@Devices@Windows@@@Concurrency@@@std@@6B@ 10022220     _nodert_generated.obj
 0003:00000238       ??_7?$_Func_impl@V<lambda_a1381f9626a8165312049276d1590ea7>@@V?$allocator@H@std@@XV?$task@P$AAU?$IVectorView@P$AAVRadio@Radios@Devices@Windows@@@Collections@Foundation@Windows@@@Concurrency@@@std@@6B@ 10022238     _nodert_generated.obj
 0003:00000250       ??_7?$_Func_impl@V<lambda_2ba0bef8cbfba8f1d7cf652ae95a0f98>@@V?$allocator@H@std@@XV?$task@P$AAVRadio@Radios@Devices@Windows@@@Concurrency@@@std@@6B@ 10022250     _nodert_generated.obj
 0003:00000268       ??_7?$_Func_base@_NV?$Local@VValue@v8@@@v8@@@std@@6B@ 10022268     _nodert_generated.obj
 0003:00000280       ??_7?$_Func_base@V?$Local@VValue@v8@@@v8@@P$AAVRadio@Radios@Devices@Windows@@@std@@6B@ 10022280     _nodert_generated.obj
 0003:00000298       ??_7?$_Func_impl@V<lambda_938fa980b0b5f876be0458d9a1d6acb0>@@V?$allocator@H@std@@XHPAV?$Local@VValue@v8@@@v8@@@std@@6B@ 10022298     _nodert_generated.obj
 0003:000002b0       ??_7?$AsyncOperationCompletedHandler@W4RadioAccessStatus@Radios@Devices@Windows@@@Foundation@Windows@@6BObject@Platform@@@ 100222b0     _nodert_generated.obj
 0003:000002c8       ??_7?$_PPLTaskHandle@EU?$_ContinuationTaskHandle@P$AAU?$IVectorView@P$AAVRadio@Radios@Devices@Windows@@@Collections@Foundation@Windows@@XV?$function@$$A6AXV?$task@P$AAU?$IVectorView@P$AAVRadio@Radios@Devices@Windows@@@Collections@Foundation@Windows@@@Concurrency@@@Z@std@@U?$integral_constant@_N$00@6@U_TypeSelectorNoAsync@details@Concurrency@@@?$task@P$AAU?$IVectorView@P$AAVRadio@Radios@Devices@Windows@@@Collections@Foundation@Windows@@@Concurrency@@U_ContinuationTaskHandleBase@details@3@@details@Concurrency@@6B@ 100222c8     _nodert_generated.obj
 0003:000002d4       ??_7?$AsyncOperationCompletedHandler@P$AAU?$IVectorView@P$AAVRadio@Radios@Devices@Windows@@@Collections@Foundation@Windows@@@Foundation@Windows@@6BObject@Platform@@@ 100222d4     _nodert_generated.obj
 0003:000002ec       ??_7?$_Func_impl@V<lambda_2115abd8794008df6b65a528e9ce87dd>@@V?$allocator@H@std@@X$$V@std@@6B@ 100222ec     _nodert_generated.obj
 0003:00000304       ??_7?$_Func_impl@V<lambda_5e5ab22ea98f4361dbf159481d01f54d>@@V?$allocator@H@std@@X$$V@std@@6B@ 10022304     _nodert_generated.obj
 0003:0000031c       ??_7?$TypedEventHandler@P$AAVRadio@Radios@Devices@Windows@@P$AAVObject@Platform@@@Foundation@Windows@@6B__abi_IUnknown@@@ 1002231c     _nodert_generated.obj
 0003:00000330       ??_7?$_Func_base@X$$V@std@@6B@ 10022330     _nodert_generated.obj
 0003:00000348       ??_7_Ref_count_base@std@@6B@ 10022348     _nodert_generated.obj
 0003:00000358       ??_7?$_Func_impl@V<lambda_847758569c482b5c3071d04a93fd5a03>@@V?$allocator@H@std@@X$$V@std@@6B@ 10022358     _nodert_generated.obj
 0003:00000370       ??_7?$_PPLTaskHandle@EU?$_ContinuationTaskHandle@W4RadioAccessStatus@Radios@Devices@Windows@@XV?$function@$$A6AXV?$task@W4RadioAccessStatus@Radios@Devices@Windows@@@Concurrency@@@Z@std@@U?$integral_constant@_N$00@6@U_TypeSelectorNoAsync@details@Concurrency@@@?$task@W4RadioAccessStatus@Radios@Devices@Windows@@@Concurrency@@U_ContinuationTaskHandleBase@details@3@@details@Concurrency@@6B@ 10022370     _nodert_generated.obj
 0003:0000037c       ??_7?$_Func_impl@V<lambda_aab2ebd78256abe6d7eb9e9ef0ce6177>@@V?$allocator@H@std@@X$$V@std@@6B@ 1002237c     _nodert_generated.obj
 0003:00000394       ??_7exception@stdext@@6B@  10022394     _nodert_generated.obj
 0003:000003a0       ??_7__abi_CaptureBase@Details@Platform@@6B@ 100223a0     _nodert_generated.obj
 0003:000003a4       ??_7Radio@Radios@Devices@Windows@NodeRT@@6B@ 100223a4     _nodert_generated.obj
 0003:000003b4       ??_7?$_Task_impl@W4RadioAccessStatus@Radios@Devices@Windows@@@details@Concurrency@@6B@ 100223b4     _nodert_generated.obj
 0003:000003bc       ??_7?$_Ref_count_obj@U?$_Task_impl@P$AAU?$IVectorView@P$AAVRadio@Radios@Devices@Windows@@@Collections@Foundation@Windows@@@details@Concurrency@@@std@@6B@ 100223bc     _nodert_generated.obj
 0003:000003cc       ??_7?$AsyncOperationCompletedHandler@W4RadioAccessStatus@Radios@Devices@Windows@@@Foundation@Windows@@6B__abi_IUnknown@@@ 100223cc     _nodert_generated.obj
 0003:000003e0       ??_7?$_Func_base@EV?$task@W4RadioAccessStatus@Radios@Devices@Windows@@@Concurrency@@@std@@6B@ 100223e0     _nodert_generated.obj
 0003:000003f8       ??_7?$_Func_base@XV?$task@P$AAU?$IVectorView@P$AAVRadio@Radios@Devices@Windows@@@Collections@Foundation@Windows@@@Concurrency@@@std@@6B@ 100223f8     _nodert_generated.obj
 0003:00000434       ??_7?$AsyncOperationCompletedHandler@P$AAVRadio@Radios@Devices@Windows@@@Foundation@Windows@@6B__abi_IUnknown@@@ 10022434     _nodert_generated.obj
 0003:00000448       ??_7?$__abi_FunctorCapture@V<lambda_85b3af6e5f21e2dfbb949cdd8ca000ff>@@XP$AAU?$IAsyncOperation@P$AAU?$IVectorView@P$AAVRadio@Radios@Devices@Windows@@@Collections@Foundation@Windows@@@Foundation@Windows@@W4AsyncStatus@34@@Details@Platform@@6B@ 10022448     _nodert_generated.obj
 0003:00000450       ??_7?$_Func_impl@V<lambda_bf7f2b711a6b55b30dfb35db79500e56>@@V?$allocator@H@std@@_NV?$Local@VValue@v8@@@v8@@@std@@6B@ 10022450     _nodert_generated.obj
 0003:00000468       ??_7?$AsyncOperationCompletedHandler@P$AAU?$IVectorView@P$AAVRadio@Radios@Devices@Windows@@@Collections@Foundation@Windows@@@Foundation@Windows@@6B@ 10022468     _nodert_generated.obj
 0003:00000480       ??_7?$_Func_impl@V<lambda_ec396201b7e4f2b701f72af9664eb55a>@@V?$allocator@H@std@@X$$V@std@@6B@ 10022480     _nodert_generated.obj
 0003:00000498       ??_7?$_Func_impl@V<lambda_a114a708d63a441febc5f755bac609dc>@@V?$allocator@H@std@@XV?$function@$$A6AXHPAV?$Local@VValue@v8@@@v8@@@Z@3@@std@@6B@ 10022498     _nodert_generated.obj
 0003:000004b0       ??_7?$_Func_base@EV?$task@P$AAVRadio@Radios@Devices@Windows@@@Concurrency@@@std@@6B@ 100224b0     _nodert_generated.obj
 0003:000004c8       ??_7_TaskProcHandle@details@Concurrency@@6B@ 100224c8     _nodert_generated.obj
 0003:000004d0       ??_7runtime_error@std@@6B@ 100224d0     _nodert_generated.obj
 0003:000004dc       ??_7?$_Func_impl@V<lambda_0ba1884422591f985dd5dd2788d28634>@@V?$allocator@H@std@@XV?$function@$$A6AXHPAV?$Local@VValue@v8@@@v8@@@Z@3@@std@@6B@ 100224dc     _nodert_generated.obj
 0003:000004f4       ??_7task_canceled@Concurrency@@6B@ 100224f4     _nodert_generated.obj
 0003:00000500       ??_7ObjectWrap@Nan@@6B@    10022500     _nodert_generated.obj
 0003:0000050c       ??_7?$_Func_impl@V<lambda_0532bc16f263f6a2ba7cd1d0d3d2a0cd>@@V?$allocator@H@std@@XV?$function@$$A6AXHPAV?$Local@VValue@v8@@@v8@@@Z@3@@std@@6B@ 1002250c     _nodert_generated.obj
 0003:00000524       ??_7?$_Func_impl@V<lambda_ae54f703fcaa92a2870449d47fe035a7>@@V?$allocator@H@std@@XV?$task@W4RadioAccessStatus@Radios@Devices@Windows@@@Concurrency@@@std@@6B@ 10022524     _nodert_generated.obj
 0003:0000053c       ??_7?$_CancellationTokenCallback@V<lambda_3b8ab8d2629adf61a42ee3fe177a046b>@@@details@Concurrency@@6B@ 1002253c     _nodert_generated.obj
 0003:00000548       ??_7?$VectorViewWrapper@P$AAVRadio@Radios@Devices@Windows@@@Collections@NodeRT@@6B@ 10022548     _nodert_generated.obj
 0003:00000558       ??_7?$_Func_impl@V<lambda_ce7ee830788d0d86ae4c2908836cc097>@@V?$allocator@H@std@@P$AAVRadio@Radios@Devices@Windows@@V?$Local@VValue@v8@@@v8@@@std@@6B@ 10022558     _nodert_generated.obj
 0003:00000570       ??_7?$_Func_impl@V<lambda_e0dbd117428a5d4905794ac0bcda5e4e>@@V?$allocator@H@std@@_NV?$Local@VValue@v8@@@v8@@@std@@6B@ 10022570     _nodert_generated.obj
 0003:00000588       ??_7?$_Ref_count_obj@U?$_Task_impl@P$AAVRadio@Radios@Devices@Windows@@@details@Concurrency@@@std@@6B@ 10022588     _nodert_generated.obj
 0003:00000598       ??_7?$_Task_impl@E@details@Concurrency@@6B@ 10022598     _nodert_generated.obj
 0003:000005a0       ??_7?$_Func_impl@V<lambda_c27880a56ba3ded47134e23bf355db13>@@V?$allocator@H@std@@EV?$task@P$AAVRadio@Radios@Devices@Windows@@@Concurrency@@@std@@6B@ 100225a0     _nodert_generated.obj
 0003:000005b8       ??_7?$_Ref_count_obj@U?$_Task_impl@E@details@Concurrency@@@std@@6B@ 100225b8     _nodert_generated.obj
 0003:000005c8       ??_7?$_Func_impl@V<lambda_e5cd2abdf1428fe462fe99badc249452>@@V?$allocator@H@std@@X$$V@std@@6B@ 100225c8     _nodert_generated.obj
 0003:000005e0       ??_7?$_Func_impl@V<lambda_caefe64cc4a3c37b2308a74735f93772>@@V?$allocator@H@std@@XV?$function@$$A6AXHPAV?$Local@VValue@v8@@@v8@@@Z@3@@std@@6B@ 100225e0     _nodert_generated.obj
 0003:000005f8       ??_7?$AsyncOperationCompletedHandler@P$AAVRadio@Radios@Devices@Windows@@@Foundation@Windows@@6BObject@Platform@@@ 100225f8     _nodert_generated.obj
 0003:00000610       ??_7?$__abi_FunctorCapture@V<lambda_8abf72d2c54f8bb80c09b205f4cfafdd>@@XP$AAVRadio@Radios@Devices@Windows@@P$AAVObject@Platform@@@Details@Platform@@6B@ 10022610     _nodert_generated.obj
 0003:00000618       ??_7?$_Func_base@XV?$task@P$AAVRadio@Radios@Devices@Windows@@@Concurrency@@@std@@6B@ 10022618     _nodert_generated.obj
 0003:00000630       ??_7?$_Func_base@XHPAV?$Local@VValue@v8@@@v8@@@std@@6B@ 10022630     _nodert_generated.obj
 0003:00000648       ??_7?$AsyncOperationCompletedHandler@P$AAVRadio@Radios@Devices@Windows@@@Foundation@Windows@@6B@ 10022648     _nodert_generated.obj
 0003:00000660       ??_7?$_Func_base@XV?$function@$$A6AXHPAV?$Local@VValue@v8@@@v8@@@Z@std@@@std@@6B@ 10022660     _nodert_generated.obj
 0003:00000678       ??_7invalid_operation@Concurrency@@6B@ 10022678     _nodert_generated.obj
 0003:00000684       ??_7?$_Task_impl@P$AAVRadio@Radios@Devices@Windows@@@details@Concurrency@@6B@ 10022684     _nodert_generated.obj
 0003:0000068c       ??_7?$_Func_base@XV?$task@W4RadioAccessStatus@Radios@Devices@Windows@@@Concurrency@@@std@@6B@ 1002268c     _nodert_generated.obj
 0003:000006a4       ??_7?$_Func_impl@V<lambda_ec696d6df7687b7d7482072b028188ef>@@V?$allocator@H@std@@X$$V@std@@6B@ 100226a4     _nodert_generated.obj
 0003:000006bc       ??_7?$_PPLTaskHandle@EU?$_ContinuationTaskHandle@P$AAVRadio@Radios@Devices@Windows@@XV?$function@$$A6AXV?$task@P$AAVRadio@Radios@Devices@Windows@@@Concurrency@@@Z@std@@U?$integral_constant@_N$00@6@U_TypeSelectorNoAsync@details@Concurrency@@@?$task@P$AAVRadio@Radios@Devices@Windows@@@Concurrency@@U_ContinuationTaskHandleBase@details@3@@details@Concurrency@@6B@ 100226bc     _nodert_generated.obj
 0003:000006c8       ??_7?$_Func_impl@V<lambda_0456396a71e3abd88ede77bdd2823d8e>@@V?$allocator@H@std@@X$$V@std@@6B@ 100226c8     _nodert_generated.obj
 0003:000006e0       ??_7?$_Func_impl@V<lambda_b790627109c9d7e4b89a786d55a0c462>@@V?$allocator@H@std@@EV?$task@P$AAU?$IVectorView@P$AAVRadio@Radios@Devices@Windows@@@Collections@Foundation@Windows@@@Concurrency@@@std@@6B@ 100226e0     _nodert_generated.obj
 0003:000006f8       ??_7?$_Func_impl@V<lambda_35b15a041fdff25694358386f486c371>@@V?$allocator@H@std@@X$$V@std@@6B@ 100226f8     _nodert_generated.obj
 0003:00000710       ??_7?$_Ref_count_obj@U?$_Task_impl@W4RadioAccessStatus@Radios@Devices@Windows@@@details@Concurrency@@@std@@6B@ 10022710     _nodert_generated.obj
 0003:00000720       ??_7?$_Func_impl@V<lambda_9424168985048637711009d87425da23>@@V?$allocator@H@std@@X$$V@std@@6B@ 10022720     _nodert_generated.obj
 0003:00000738       ??_7?$_Func_impl@V<lambda_0fb43142ddbb33ec4e8b38dc9cda485a>@@V?$allocator@H@std@@XV?$function@$$A6AXHPAV?$Local@VValue@v8@@@v8@@@Z@3@@std@@6B@ 10022738     _nodert_generated.obj
 0003:00000750       ??_7?$TypedEventHandler@P$AAVRadio@Radios@Devices@Windows@@P$AAVObject@Platform@@@Foundation@Windows@@6B@ 10022750     _nodert_generated.obj
 0003:00000768       ??_7?$_Task_impl@P$AAU?$IVectorView@P$AAVRadio@Radios@Devices@Windows@@@Collections@Foundation@Windows@@@details@Concurrency@@6B@ 10022768     _nodert_generated.obj
 0003:00000770       ??_7_ContinuationTaskHandleBase@details@Concurrency@@6B@ 10022770     _nodert_generated.obj
 0003:0000077c       ??_7?$_Ref_count_del@V?$Persistent@VObject@v8@@V?$NonCopyablePersistentTraits@VObject@v8@@@2@@Nan@@V<lambda_b131c92a30a0c8f1df37bf42f562abce>@@@std@@6B@ 1002277c     _nodert_generated.obj
 0003:0000078c       ??_7_Task_impl_base@details@Concurrency@@6B@ 1002278c     _nodert_generated.obj
 0003:00000794       ??_7OpaqueWrapper@NodeRT@@6B@ 10022794     OpaqueWrapper.obj
 0003:000007a8       ??_R0?AVModuleBase@Details@WRL@Microsoft@@@8 100227a8     vccorlib:init.obj
 0003:000007d8       ??_R0?AVInProcModule@Details@Platform@@@8 100227d8     vccorlib:init.obj
 0003:00000808       ??_R0?AV?$Module@$04VInProcModule@Details@Platform@@@WRL@Microsoft@@@8 10022808     vccorlib:init.obj
 0003:00000858       ??_R0?AV?$Module@$00VInProcModule@Details@Platform@@@WRL@Microsoft@@@8 10022858     vccorlib:init.obj
 0003:000008a4       ??_R0?AU__abi_Module@@@8   100228a4     vccorlib:init.obj
 0003:000008c0       ??_R0?AVtype_info@@@8      100228c0     MSVCRT:std_type_info_static.obj
 0003:000008d8       ??_R0?AVbad_alloc@std@@@8  100228d8     MSVCRT:throw_bad_alloc.obj
 0003:000008f4       ??_R0?AVexception@std@@@8  100228f4     MSVCRT:throw_bad_alloc.obj
 0003:00000910       ??_R0?AVbad_array_new_length@std@@@8 10022910     MSVCRT:throw_bad_alloc.obj
 0003:00000938       ??_R0?AV<lambda_9424168985048637711009d87425da23>@@@8 10022938     _nodert_generated.obj
 0003:00000970       ??_R0P$AAUIPrintable@Details@Platform@@@8 10022970     _nodert_generated.obj
 0003:0000099c       ??_R0PAX@8                 1002299c     _nodert_generated.obj
 0003:000009ac       ??_R0?AV<lambda_caefe64cc4a3c37b2308a74735f93772>@@@8 100229ac     _nodert_generated.obj
 0003:000009e4       ??_R0?AV<lambda_2115abd8794008df6b65a528e9ce87dd>@@@8 100229e4     _nodert_generated.obj
 0003:00000a1c       ??_R0?AV<lambda_b131c92a30a0c8f1df37bf42f562abce>@@@8 10022a1c     _nodert_generated.obj
 0003:00000a54       ??_R0?AV<lambda_938fa980b0b5f876be0458d9a1d6acb0>@@@8 10022a54     _nodert_generated.obj
 0003:00000a8c       ??_R0?AV<lambda_0532bc16f263f6a2ba7cd1d0d3d2a0cd>@@@8 10022a8c     _nodert_generated.obj
 0003:00000ac4       ??_R0?AV<lambda_55912aef2455062065036d52cc631bbd>@@@8 10022ac4     _nodert_generated.obj
 0003:00000afc       ??_R0?AV<lambda_2ba0bef8cbfba8f1d7cf652ae95a0f98>@@@8 10022afc     _nodert_generated.obj
 0003:00000b34       ??_R0P$AAVNullReferenceException@Platform@@@8 10022b34     _nodert_generated.obj
 0003:00000b64       ??_R0?AV<lambda_b790627109c9d7e4b89a786d55a0c462>@@@8 10022b64     _nodert_generated.obj
 0003:00000b9c       ??_R0?AV<lambda_9eef212b7bb2525a1146c82a12593753>@@@8 10022b9c     _nodert_generated.obj
 0003:00000bd4       ??_R0?AV<lambda_ce7ee830788d0d86ae4c2908836cc097>@@@8 10022bd4     _nodert_generated.obj
 0003:00000c0c       ??_R0?AV<lambda_ec396201b7e4f2b701f72af9664eb55a>@@@8 10022c0c     _nodert_generated.obj
 0003:00000c44       ??_R0P$AAVObject@Platform@@@8 10022c44     _nodert_generated.obj
 0003:00000c64       ??_R0?AV<lambda_a1381f9626a8165312049276d1590ea7>@@@8 10022c64     _nodert_generated.obj
 0003:00000c9c       ??_R0?AV<lambda_e5cd2abdf1428fe462fe99badc249452>@@@8 10022c9c     _nodert_generated.obj
 0003:00000cd4       ??_R0?AV<lambda_0456396a71e3abd88ede77bdd2823d8e>@@@8 10022cd4     _nodert_generated.obj
 0003:00000d0c       ??_R0?AV<lambda_5e5ab22ea98f4361dbf159481d01f54d>@@@8 10022d0c     _nodert_generated.obj
 0003:00000d44       ??_R0?AV<lambda_c27880a56ba3ded47134e23bf355db13>@@@8 10022d44     _nodert_generated.obj
 0003:00000d7c       ??_R0?AV<lambda_e0dbd117428a5d4905794ac0bcda5e4e>@@@8 10022d7c     _nodert_generated.obj
 0003:00000db4       ??_R0?AV<lambda_fa83efc75490756721b16c8797d488d3>@@@8 10022db4     _nodert_generated.obj
 0003:00000dec       ??_R0?AV<lambda_d9306928c1bd470a6e42b27630d148ed>@@@8 10022dec     _nodert_generated.obj
 0003:00000e24       ??_R0?AV<lambda_bf7f2b711a6b55b30dfb35db79500e56>@@@8 10022e24     _nodert_generated.obj
 0003:00000e5c       ??_R0?AV<lambda_ec696d6df7687b7d7482072b028188ef>@@@8 10022e5c     _nodert_generated.obj
 0003:00000e94       ??_R0P$AAUIDisposable@Platform@@@8 10022e94     _nodert_generated.obj
 0003:00000ebc       ??_R0?AV<lambda_f08ec446ca8b33299a4e48e3172e9b8c>@@@8 10022ebc     _nodert_generated.obj
 0003:00000ef4       ??_R0?AV<lambda_ae54f703fcaa92a2870449d47fe035a7>@@@8 10022ef4     _nodert_generated.obj
 0003:00000f2c       ??_R0?AV<lambda_0ba1884422591f985dd5dd2788d28634>@@@8 10022f2c     _nodert_generated.obj
 0003:00000f64       ??_R0?AV<lambda_aab2ebd78256abe6d7eb9e9ef0ce6177>@@@8 10022f64     _nodert_generated.obj
 0003:00000f9c       ??_R0?AV<lambda_0ca07c6226f46e76875b5e248892ce5b>@@@8 10022f9c     _nodert_generated.obj
 0003:00000fd4       ??_R0P$AAVCOMException@Platform@@@8 10022fd4     _nodert_generated.obj
 0003:00000ffc       ??_R0P$AAVException@Platform@@@8 10022ffc     _nodert_generated.obj
 0003:00001020       ??_R0P$AAUIEquatable@Details@Platform@@@8 10023020     _nodert_generated.obj
 0003:0000104c       ??_R0?AV<lambda_847758569c482b5c3071d04a93fd5a03>@@@8 1002304c     _nodert_generated.obj
 0003:00001084       ??_R0?AV<lambda_3e6a614902430e1d627bb2376f9fa385>@@@8 10023084     _nodert_generated.obj
 0003:000010bc       ??_R0?AV<lambda_c3befff5426f7ddaa4e03d53f00d3a42>@@@8 100230bc     _nodert_generated.obj
 0003:000010f4       ??_R0?AV<lambda_0fb43142ddbb33ec4e8b38dc9cda485a>@@@8 100230f4     _nodert_generated.obj
 0003:0000112c       ??_R0?AV<lambda_35b15a041fdff25694358386f486c371>@@@8 1002312c     _nodert_generated.obj
 0003:00001164       ??_R0?AV<lambda_a114a708d63a441febc5f755bac609dc>@@@8 10023164     _nodert_generated.obj
 0003:000011a0       ?__abi_module@@3PAU__abi_Module@@A 100231a0     vccorlib:init.obj
 0003:000011a4       ?__abi___threading_model@@3HA 100231a4     vccorlib:init.obj
 0003:000011a8       ?bTestedRoReportUnhandledError@@3HA 100231a8     vccorlib:init.obj
 0003:000011ac       ?RoReportUnhandledErrorFunc@@3P6GJPAUIRestrictedErrorInfo@@@ZA 100231ac     vccorlib:init.obj
 0003:000011b0       ?module_@Details@Platform@@3AAVInProcModule@12@A 100231b0     vccorlib:init.obj
 0003:000011b4       ?moduleLock_@ModuleBase@Details@WRL@Microsoft@@0PAXA 100231b4     vccorlib:init.obj
 0003:000011b8       ?objectCount_@ModuleBase@Details@WRL@Microsoft@@1KC 100231b8     vccorlib:init.obj
 0003:000011bc       ?module_@ModuleBase@Details@WRL@Microsoft@@2PAV1234@A 100231bc     vccorlib:init.obj
 0003:000011c0       ?module@?1??Create@?$Module@$00VInProcModule@Details@Platform@@@WRL@Microsoft@@SAAAVInProcModule@Details@Platform@@XZ@4V567@A 100231c0     vccorlib:init.obj
 0003:000011c8       ??_B?1??Create@?$Module@$00VInProcModule@Details@Platform@@@WRL@Microsoft@@SAAAVInProcModule@Details@Platform@@XZ@51 100231c8     vccorlib:init.obj
 0003:000011f4       ___scrt_current_native_startup_state 100231f4     MSVCRT:utility.obj
 0003:000011f8       ___scrt_native_startup_lock 100231f8     MSVCRT:utility.obj
 0003:00001538       ___scrt_debugger_hook_flag 10023538     MSVCRT:utility_desktop.obj
 0003:0000153c       __tls_index                1002353c     MSVCRT:tlssup.obj
 0003:00001540       ___isa_available           10023540     MSVCRT:_cpu_disp_.obj
 0003:00001544       ___favor                   10023544     MSVCRT:_cpu_disp_.obj
 0003:00001548       ?__type_info_root_node@@3U__type_info_node@@A 10023548     MSVCRT:tncleanup.obj
 0003:00001550       ?_OptionsStorage@?1??__local_stdio_printf_options@@9@4_KA 10023550     MSVCRT:default_local_stdio_options.obj
 0003:00001558       ?_OptionsStorage@?1??__local_stdio_scanf_options@@9@4_KA 10023558     MSVCRT:default_local_stdio_options.obj
 0003:00001560       ?_S_scheduler@?1??_GetStaticAmbientSchedulerRef@details@Concurrency@@YAAAV?$shared_ptr@Uscheduler_interface@Concurrency@@@std@@XZ@4V45@A 10023560     _nodert_generated.obj
 0003:00001568       ?$TSS0@?1??_GetStaticAmbientSchedulerRef@details@Concurrency@@YAAAV?$shared_ptr@Uscheduler_interface@Concurrency@@@std@@XZ@4HA 10023568     _nodert_generated.obj
 0003:00001570       ?g_keyProp@Collections@NodeRT@@3V?$Persistent@VString@v8@@V?$NonCopyablePersistentTraits@VString@v8@@@2@@Nan@@A 10023570     _nodert_generated.obj
 0003:00001574       ?s_constructorTemplate@Radio@Radios@Devices@Windows@NodeRT@@0V?$Persistent@VFunctionTemplate@v8@@V?$NonCopyablePersistentTraits@VFunctionTemplate@v8@@@2@@Nan@@A 10023574     _nodert_generated.obj
 0003:00001578       ?g_valueProp@Collections@NodeRT@@3V?$Persistent@VString@v8@@V?$NonCopyablePersistentTraits@VString@v8@@@2@@Nan@@A 10023578     _nodert_generated.obj
 0003:0000157c       ?s_constructorTemplate@OpaqueWrapper@NodeRT@@0V?$Persistent@VFunctionTemplate@v8@@V?$NonCopyablePersistentTraits@VFunctionTemplate@v8@@@2@@Nan@@A 1002357c     OpaqueWrapper.obj
 0003:000015a8       ?s_constructorTemplate@?$VectorViewWrapper@P$AAVRadio@Radios@Devices@Windows@@@Collections@NodeRT@@0V?$Persistent@VFunctionTemplate@v8@@V?$NonCopyablePersistentTraits@VFunctionTemplate@v8@@@2@@Nan@@A 100235a8     _nodert_generated.obj
 0003:000015ac       ?s_constructorTemplate@?$IteratorWrapper@P$AAVRadio@Radios@Devices@Windows@@@Collections@NodeRT@@0V?$Persistent@VFunctionTemplate@v8@@V?$NonCopyablePersistentTraits@VFunctionTemplate@v8@@@2@@Nan@@A 100235ac     _nodert_generated.obj
 0003:000015b0       ___dyn_tls_init_callback   100235b0     <common>
 0004:00000000       ___pobjectentryfirst       10024000     vccorlib:init.obj
 0004:00000004       ___pobjectentrymid         10024004     vccorlib:init.obj
 0004:00000008       ___pobjectentrylast        10024008     vccorlib:init.obj
 0006:00000000       __tls_start                10026000     MSVCRT:tlssup.obj
 0006:00000004       __Init_thread_epoch        10026004     MSVCRT:thread_safe_statics.obj
 0006:00000008       __tls_end                  10026008     MSVCRT:tlssup.obj

 entry point at        0001:0001614b

 Static symbols

 0000:fffd5000       .debug$S                   10000000     vcruntime:VCRUNTIME140.dll
 0000:fffd5000       .debug$S                   10000000     iojs:node.dll
 0000:fffd5000       .debug$S                   10000000     iojs:node.dll
 0000:fffd5000       .debug$S                   10000000     iojs:node.dll
 0000:fffd5000       .debug$S                   10000000     iojs:node.dll
 0000:fffd5000       .debug$S                   10000000     iojs:node.dll
 0000:fffd5000       .debug$S                   10000000     iojs:node.dll
 0000:fffd5000       .debug$S                   10000000     iojs:node.dll
 0000:fffd5000       .debug$S                   10000000     iojs:node.dll
 0000:fffd5000       .debug$S                   10000000     iojs:node.dll
 0000:fffd5000       .debug$S                   10000000     iojs:node.dll
 0000:fffd5000       .debug$S                   10000000     iojs:node.dll
 0000:fffd5000       .debug$S                   10000000     iojs:node.dll
 0000:fffd5000       .debug$S                   10000000     iojs:node.dll
 0000:fffd5000       .debug$S                   10000000     iojs:node.dll
 0000:fffd5000       .debug$S                   10000000     iojs:node.dll
 0000:fffd5000       .debug$S                   10000000     iojs:node.dll
 0000:fffd5000       .debug$S                   10000000     iojs:node.dll
 0000:fffd5000       .debug$S                   10000000     iojs:node.dll
 0000:fffd5000       .debug$S                   10000000     iojs:node.dll
 0000:fffd5000       .debug$S                   10000000     iojs:node.dll
 0000:fffd5000       .debug$S                   10000000     iojs:node.dll
 0000:fffd5000       .debug$S                   10000000     iojs:node.dll
 0000:fffd5000       .debug$S                   10000000     iojs:node.dll
 0000:fffd5000       .debug$S                   10000000     iojs:node.dll
 0000:fffd5000       .debug$S                   10000000     iojs:node.dll
 0000:fffd5000       .debug$S                   10000000     iojs:node.dll
 0000:fffd5000       .debug$S                   10000000     iojs:node.dll
 0000:fffd5000       .debug$S                   10000000     iojs:node.dll
 0000:fffd5000       .debug$S                   10000000     iojs:node.dll
 0000:fffd5000       .debug$S                   10000000     iojs:node.dll
 0000:fffd5000       .debug$S                   10000000     iojs:node.dll
 0000:fffd5000       .debug$S                   10000000     iojs:node.dll
 0000:fffd5000       .debug$S                   10000000     iojs:node.dll
 0000:fffd5000       .debug$S                   10000000     iojs:node.dll
 0000:fffd5000       .debug$S                   10000000     iojs:node.dll
 0000:fffd5000       .debug$S                   10000000     iojs:node.dll
 0000:fffd5000       .debug$S                   10000000     iojs:node.dll
 0000:fffd5000       .debug$S                   10000000     iojs:node.dll
 0000:fffd5000       .debug$S                   10000000     iojs:node.dll
 0000:fffd5000       .debug$S                   10000000     iojs:node.dll
 0000:fffd5000       .debug$S                   10000000     iojs:node.dll
 0000:fffd5000       .debug$S                   10000000     iojs:node.dll
 0000:fffd5000       .debug$S                   10000000     iojs:node.dll
 0000:fffd5000       .debug$S                   10000000     iojs:node.dll
 0000:fffd5000       .debug$S                   10000000     iojs:node.dll
 0000:fffd5000       .debug$S                   10000000     iojs:node.dll
 0000:fffd5000       .debug$S                   10000000     iojs:node.dll
 0000:fffd5000       .debug$S                   10000000     iojs:node.dll
 0000:fffd5000       .debug$S                   10000000     iojs:node.dll
 0000:fffd5000       .debug$S                   10000000     iojs:node.dll
 0000:fffd5000       .debug$S                   10000000     iojs:node.dll
 0000:fffd5000       .debug$S                   10000000     iojs:node.dll
 0000:fffd5000       .debug$S                   10000000     iojs:node.dll
 0000:fffd5000       .debug$S                   10000000     iojs:node.dll
 0000:fffd5000       .debug$S                   10000000     iojs:node.dll
 0000:fffd5000       .debug$S                   10000000     iojs:node.dll
 0000:fffd5000       .debug$S                   10000000     iojs:node.dll
 0000:fffd5000       .debug$S                   10000000     iojs:node.dll
 0000:fffd5000       .debug$S                   10000000     iojs:node.dll
 0000:fffd5000       .debug$S                   10000000     iojs:node.dll
 0000:fffd5000       .debug$S                   10000000     iojs:node.dll
 0000:fffd5000       .debug$S                   10000000     iojs:node.dll
 0000:fffd5000       .debug$S                   10000000     iojs:node.dll
 0000:fffd5000       .debug$S                   10000000     iojs:node.dll
 0000:fffd5000       .debug$S                   10000000     iojs:node.dll
 0000:fffd5000       .debug$S                   10000000     iojs:node.dll
 0000:fffd5000       .debug$S                   10000000     iojs:node.dll
 0000:fffd5000       .debug$S                   10000000     iojs:node.dll
 0000:fffd5000       .debug$S                   10000000     iojs:node.dll
 0000:fffd5000       .debug$S                   10000000     iojs:node.dll
 0000:fffd5000       .debug$S                   10000000     iojs:node.dll
 0000:fffd5000       .debug$S                   10000000     iojs:node.dll
 0000:fffd5000       .debug$S                   10000000     iojs:node.dll
 0000:fffd5000       .debug$S                   10000000     iojs:node.dll
 0000:fffd5000       .debug$S                   10000000     iojs:node.dll
 0000:fffd5000       .debug$S                   10000000     iojs:node.dll
 0000:fffd5000       .debug$S                   10000000     iojs:node.dll
 0000:fffd5000       .debug$S                   10000000     iojs:node.dll
 0000:fffd5000       .debug$S                   10000000     iojs:node.dll
 0000:fffd5000       .debug$S                   10000000     iojs:node.dll
 0000:fffd5000       .debug$S                   10000000     iojs:node.dll
 0000:fffd5000       .debug$S                   10000000     iojs:node.dll
 0000:fffd5000       .debug$S                   10000000     iojs:node.dll
 0000:fffd5000       .debug$S                   10000000     iojs:node.dll
 0000:fffd5000       .debug$S                   10000000     iojs:node.dll
 0000:fffd5000       .debug$S                   10000000     iojs:node.dll
 0000:fffd5000       .debug$S                   10000000     iojs:node.dll
 0000:fffd5000       .debug$S                   10000000     iojs:node.dll
 0000:fffd5000       .debug$S                   10000000     iojs:node.dll
 0000:fffd5000       .debug$S                   10000000     iojs:node.dll
 0000:fffd5000       .debug$S                   10000000     iojs:node.dll
 0000:fffd5000       .debug$S                   10000000     ole32:ole32.dll
 0000:fffd5000       .debug$S                   10000000     ole32:ole32.dll
 0000:fffd5000       .debug$S                   10000000     ole32:ole32.dll
 0000:fffd5000       .debug$S                   10000000     ole32:ole32.dll
 0000:fffd5000       .debug$S                   10000000     ole32:ole32.dll
 0000:fffd5000       .debug$S                   10000000     ole32:ole32.dll
 0000:fffd5000       .debug$S                   10000000     iojs:node.dll
 0000:fffd5000       .debug$S                   10000000     kernel32:KERNEL32.dll
 0000:fffd5000       .debug$S                   10000000     kernel32:KERNEL32.dll
 0000:fffd5000       .debug$S                   10000000     kernel32:KERNEL32.dll
 0000:fffd5000       .debug$S                   10000000     kernel32:KERNEL32.dll
 0000:fffd5000       .debug$S                   10000000     kernel32:KERNEL32.dll
 0000:fffd5000       .debug$S                   10000000     kernel32:KERNEL32.dll
 0000:fffd5000       .debug$S                   10000000     kernel32:KERNEL32.dll
 0000:fffd5000       .debug$S                   10000000     kernel32:KERNEL32.dll
 0000:fffd5000       .debug$S                   10000000     kernel32:KERNEL32.dll
 0000:fffd5000       .debug$S                   10000000     kernel32:KERNEL32.dll
 0000:fffd5000       .debug$S                   10000000     kernel32:KERNEL32.dll
 0000:fffd5000       .debug$S                   10000000     kernel32:KERNEL32.dll
 0000:fffd5000       .debug$S                   10000000     kernel32:KERNEL32.dll
 0000:fffd5000       .debug$S                   10000000     kernel32:KERNEL32.dll
 0000:fffd5000       .debug$S                   10000000     kernel32:KERNEL32.dll
 0000:fffd5000       .debug$S                   10000000     kernel32:KERNEL32.dll
 0000:fffd5000       .debug$S                   10000000     kernel32:KERNEL32.dll
 0000:fffd5000       .debug$S                   10000000     kernel32:KERNEL32.dll
 0000:fffd5000       .debug$S                   10000000     kernel32:KERNEL32.dll
 0000:fffd5000       .debug$S                   10000000     kernel32:KERNEL32.dll
 0000:fffd5000       .debug$S                   10000000     kernel32:KERNEL32.dll
 0000:fffd5000       .debug$S                   10000000     kernel32:KERNEL32.dll
 0000:fffd5000       .debug$S                   10000000     kernel32:KERNEL32.dll
 0000:fffd5000       .debug$S                   10000000     kernel32:KERNEL32.dll
 0000:fffd5000       .debug$S                   10000000     kernel32:KERNEL32.dll
 0000:fffd5000       .debug$S                   10000000     kernel32:KERNEL32.dll
 0000:fffd5000       .debug$S                   10000000     kernel32:KERNEL32.dll
 0000:fffd5000       .debug$S                   10000000     kernel32:KERNEL32.dll
 0000:fffd5000       .debug$S                   10000000     iojs:node.dll
 0000:fffd5000       .debug$S                   10000000     iojs:node.dll
 0000:fffd5000       .debug$S                   10000000     iojs:node.dll
 0000:fffd5000       .debug$S                   10000000     iojs:node.dll
 0000:fffd5000       .debug$S                   10000000     runtimeobject:api-ms-win-core-winrt-string-l1-1-0.dll
 0000:fffd5000       .debug$S                   10000000     binding.exp
 0000:fffd5000       .debug$S                   10000000     runtimeobject:api-ms-win-core-winrt-string-l1-1-0.dll
 0000:fffd5000       .debug$S                   10000000     ucrt:api-ms-win-crt-heap-l1-1-0.dll
 0000:fffd5000       .debug$S                   10000000     runtimeobject:api-ms-win-core-winrt-string-l1-1-0.dll
 0000:fffd5000       .debug$S                   10000000     runtimeobject:api-ms-win-core-winrt-string-l1-1-0.dll
 0000:fffd5000       .debug$S                   10000000     runtimeobject:api-ms-win-core-winrt-string-l1-1-0.dll
 0000:fffd5000       .debug$S                   10000000     runtimeobject:api-ms-win-core-winrt-string-l1-1-0.dll
 0000:fffd5000       .debug$S                   10000000     ucrt:api-ms-win-crt-heap-l1-1-0.dll
 0000:fffd5000       .debug$S                   10000000     runtimeobject:api-ms-win-core-winrt-error-l1-1-0.dll
 0000:fffd5000       .debug$S                   10000000     runtimeobject:api-ms-win-core-winrt-error-l1-1-0.dll
 0002:fffe6000       .idata$6                   10000000     runtimeobject:api-ms-win-core-winrt-error-l1-1-0.dll
 0000:fffd5000       .debug$S                   10000000     ucrt:api-ms-win-crt-runtime-l1-1-0.dll
 0000:fffd5000       .debug$S                   10000000     ucrt:api-ms-win-crt-heap-l1-1-0.dll
 0000:fffd5000       .debug$S                   10000000     ucrt:api-ms-win-crt-runtime-l1-1-0.dll
 0000:fffd5000       .debug$S                   10000000     ucrt:api-ms-win-crt-runtime-l1-1-0.dll
 0000:fffd5000       .debug$S                   10000000     ucrt:api-ms-win-crt-runtime-l1-1-0.dll
 0000:fffd5000       .debug$S                   10000000     ucrt:api-ms-win-crt-runtime-l1-1-0.dll
 0000:fffd5000       .debug$S                   10000000     ucrt:api-ms-win-crt-runtime-l1-1-0.dll
 0000:fffd5000       .debug$S                   10000000     vccorlib:vccorlib140.DLL
 0000:fffd5000       .debug$S                   10000000     vccorlib:vccorlib140.DLL
 0000:fffd5000       .debug$S                   10000000     vccorlib:vccorlib140.DLL
 0000:fffd5000       .debug$S                   10000000     vccorlib:vccorlib140.DLL
 0000:fffd5000       .debug$S                   10000000     vccorlib:vccorlib140.DLL
 0000:fffd5000       .debug$S                   10000000     vccorlib:vccorlib140.DLL
 0000:fffd5000       .debug$S                   10000000     vccorlib:vccorlib140.DLL
 0000:fffd5000       .debug$S                   10000000     vccorlib:vccorlib140.DLL
 0000:fffd5000       .debug$S                   10000000     vccorlib:vccorlib140.DLL
 0000:fffd5000       .debug$S                   10000000     vccorlib:vccorlib140.DLL
 0000:fffd5000       .debug$S                   10000000     vccorlib:vccorlib140.DLL
 0000:fffd5000       .debug$S                   10000000     vccorlib:vccorlib140.DLL
 0000:fffd5000       .debug$S                   10000000     vccorlib:vccorlib140.DLL
 0000:fffd5000       .debug$S                   10000000     vccorlib:vccorlib140.DLL
 0000:fffd5000       .debug$S                   10000000     vccorlib:vccorlib140.DLL
 0000:fffd5000       .debug$S                   10000000     vccorlib:vccorlib140.DLL
 0000:fffd5000       .debug$S                   10000000     vccorlib:vccorlib140.DLL
 0000:fffd5000       .debug$S                   10000000     vccorlib:vccorlib140.DLL
 0000:fffd5000       .debug$S                   10000000     vccorlib:vccorlib140.DLL
 0000:fffd5000       .debug$S                   10000000     vccorlib:vccorlib140.DLL
 0000:fffd5000       .debug$S                   10000000     vccorlib:vccorlib140.DLL
 0000:fffd5000       .debug$S                   10000000     vccorlib:vccorlib140.DLL
 0000:fffd5000       .debug$S                   10000000     vccorlib:vccorlib140.DLL
 0000:fffd5000       .debug$S                   10000000     vccorlib:vccorlib140.DLL
 0000:fffd5000       .debug$S                   10000000     vccorlib:vccorlib140.DLL
 0000:fffd5000       .debug$S                   10000000     vccorlib:vccorlib140.DLL
 0000:fffd5000       .debug$S                   10000000     vccorlib:vccorlib140.DLL
 0000:fffd5000       .debug$S                   10000000     vccorlib:vccorlib140.DLL
 0000:fffd5000       .debug$S                   10000000     vccorlib:vccorlib140.DLL
 0000:fffd5000       .debug$S                   10000000     vccorlib:vccorlib140.DLL
 0000:fffd5000       .debug$S                   10000000     vccorlib:vccorlib140.DLL
 0000:fffd5000       .debug$S                   10000000     vccorlib:vccorlib140.DLL
 0000:fffd5000       .debug$S                   10000000     vccorlib:vccorlib140.DLL
 0000:fffd5000       .debug$S                   10000000     vccorlib:vccorlib140.DLL
 0000:fffd5000       .debug$S                   10000000     vccorlib:vccorlib140.DLL
 0000:fffd5000       .debug$S                   10000000     vccorlib:vccorlib140.DLL
 0000:fffd5000       .debug$S                   10000000     vccorlib:vccorlib140.DLL
 0000:fffd5000       .debug$S                   10000000     msvcprt:MSVCP140.dll
 0000:fffd5000       .debug$S                   10000000     msvcprt:MSVCP140.dll
 0000:fffd5000       .debug$S                   10000000     msvcprt:MSVCP140.dll
 0000:fffd5000       .debug$S                   10000000     msvcprt:MSVCP140.dll
 0000:fffd5000       .debug$S                   10000000     msvcprt:MSVCP140.dll
 0000:fffd5000       .debug$S                   10000000     msvcprt:MSVCP140.dll
 0000:fffd5000       .debug$S                   10000000     msvcprt:MSVCP140.dll
 0000:fffd5000       .debug$S                   10000000     msvcprt:MSVCP140.dll
 0000:fffd5000       .debug$S                   10000000     msvcprt:MSVCP140.dll
 0000:fffd5000       .debug$S                   10000000     msvcprt:MSVCP140.dll
 0000:fffd5000       .debug$S                   10000000     msvcprt:MSVCP140.dll
 0000:fffd5000       .debug$S                   10000000     msvcprt:MSVCP140.dll
 0000:fffd5000       .debug$S                   10000000     msvcprt:MSVCP140.dll
 0000:fffd5000       .debug$S                   10000000     msvcprt:MSVCP140.dll
 0000:fffd5000       .debug$S                   10000000     msvcprt:MSVCP140.dll
 0000:fffd5000       .debug$S                   10000000     msvcprt:MSVCP140.dll
 0000:fffd5000       .debug$S                   10000000     msvcprt:MSVCP140.dll
 0000:fffd5000       .debug$S                   10000000     msvcprt:MSVCP140.dll
 0000:fffd5000       .debug$S                   10000000     msvcprt:MSVCP140.dll
 0000:fffd5000       .debug$S                   10000000     msvcprt:MSVCP140.dll
 0000:fffd5000       .debug$S                   10000000     msvcprt:MSVCP140.dll
 0000:fffd5000       .debug$S                   10000000     msvcprt:MSVCP140.dll
 0000:fffd5000       .debug$S                   10000000     msvcprt:MSVCP140.dll
 0000:fffd5000       .debug$S                   10000000     msvcprt:MSVCP140.dll
 0000:fffd5000       .debug$S                   10000000     msvcprt:MSVCP140.dll
 0000:fffd5000       .debug$S                   10000000     msvcprt:MSVCP140.dll
 0000:fffd5000       .debug$S                   10000000     msvcprt:MSVCP140.dll
 0000:fffd5000       .debug$S                   10000000     msvcprt:MSVCP140.dll
 0000:fffd5000       .debug$S                   10000000     msvcprt:MSVCP140.dll
 0000:fffd5000       .debug$S                   10000000     msvcprt:MSVCP140.dll
 0000:fffd5000       .debug$S                   10000000     msvcprt:MSVCP140.dll
 0000:fffd5000       .debug$S                   10000000     msvcprt:MSVCP140.dll
 0000:fffd5000       .debug$S                   10000000     msvcprt:MSVCP140.dll
 0000:fffd5000       .debug$S                   10000000     msvcprt:MSVCP140.dll
 0000:fffd5000       .debug$S                   10000000     msvcprt:MSVCP140.dll
 0000:fffd5000       .debug$S                   10000000     msvcprt:MSVCP140.dll
 0000:fffd5000       .debug$S                   10000000     msvcprt:MSVCP140.dll
 0000:fffd5000       .debug$S                   10000000     msvcprt:MSVCP140.dll
 0000:fffd5000       .debug$S                   10000000     ucrt:api-ms-win-crt-runtime-l1-1-0.dll
 0000:fffd5000       .debug$S                   10000000     ucrt:api-ms-win-crt-runtime-l1-1-0.dll
 0000:fffd5000       .debug$S                   10000000     ucrt:api-ms-win-crt-runtime-l1-1-0.dll
 0000:fffd5000       .debug$S                   10000000     ucrt:api-ms-win-crt-runtime-l1-1-0.dll
 0000:fffd5000       .debug$S                   10000000     ucrt:api-ms-win-crt-runtime-l1-1-0.dll
 0000:fffd5000       .debug$S                   10000000     ucrt:api-ms-win-crt-runtime-l1-1-0.dll
 0000:fffd5000       .debug$S                   10000000     ucrt:api-ms-win-crt-runtime-l1-1-0.dll
 0000:fffd5000       .debug$S                   10000000     ucrt:api-ms-win-crt-runtime-l1-1-0.dll
 0000:fffd5000       .debug$S                   10000000     ucrt:api-ms-win-crt-runtime-l1-1-0.dll
 0000:fffd5000       .debug$S                   10000000     ucrt:api-ms-win-crt-string-l1-1-0.dll
 0000:fffd5000       .debug$S                   10000000     ucrt:api-ms-win-crt-string-l1-1-0.dll
 0000:fffd5000       .debug$S                   10000000     ucrt:api-ms-win-crt-string-l1-1-0.dll
 0000:fffd5000       .debug$S                   10000000     vcruntime:VCRUNTIME140.dll
 0000:fffd5000       .debug$S                   10000000     vcruntime:VCRUNTIME140.dll
 0000:fffd5000       .debug$S                   10000000     vcruntime:VCRUNTIME140.dll
 0000:fffd5000       .debug$S                   10000000     vcruntime:VCRUNTIME140.dll
 0000:fffd5000       .debug$S                   10000000     vcruntime:VCRUNTIME140.dll
 0000:fffd5000       .debug$S                   10000000     vcruntime:VCRUNTIME140.dll
 0000:fffd5000       .debug$S                   10000000     vcruntime:VCRUNTIME140.dll
 0000:fffd5000       .debug$S                   10000000     vcruntime:VCRUNTIME140.dll
 0000:fffd5000       .debug$S                   10000000     vcruntime:VCRUNTIME140.dll
 0000:fffd5000       .debug$S                   10000000     vcruntime:VCRUNTIME140.dll
 0000:fffd5000       .debug$S                   10000000     vcruntime:VCRUNTIME140.dll
 0000:fffd5000       .debug$S                   10000000     iojs:node.dll
 0001:00000000       ??__Eg_keyProp@Collections@NodeRT@@YAXXZ 10001000 f   _nodert_generated.obj
 0001:00000010       ??__Eg_valueProp@Collections@NodeRT@@YAXXZ 10001010 f   _nodert_generated.obj
 0001:00000020       ??__EcheckStringFunc@Collections@NodeRT@@YAXXZ 10001020 f   _nodert_generated.obj
 0001:00000070       ??__E?s_constructorTemplate@Radio@Radios@Devices@Windows@NodeRT@@0V?$Persistent@VFunctionTemplate@v8@@V?$NonCopyablePersistentTraits@VFunctionTemplate@v8@@@2@@Nan@@A@@YAXXZ 10001070 f   _nodert_generated.obj
 0001:00000080       ??__E?s_constructorTemplate@OpaqueWrapper@NodeRT@@0V?$Persistent@VFunctionTemplate@v8@@V?$NonCopyablePersistentTraits@VFunctionTemplate@v8@@@2@@Nan@@A@@YAXXZ 10001080 f   OpaqueWrapper.obj
 0001:0000008c       ??__Emodule_@Details@Platform@@YAXXZ 1000108c f   vccorlib:init.obj
 0001:000002b4       $LN24                      100012b4     _nodert_generated.obj
 0001:000005a0       ?FunctionCallbackWrapper@imp@Nan@@YAXABV?$FunctionCallbackInfo@VValue@v8@@@v8@@@Z 100015a0 f   _nodert_generated.obj
 0001:00000660       ?GetterCallbackWrapper@imp@Nan@@YAXV?$Local@VName@v8@@@v8@@ABV?$PropertyCallbackInfo@VValue@v8@@@4@@Z 10001660 f   _nodert_generated.obj
 0001:00000660       ?IndexGetterCallbackWrapper@imp@Nan@@YAXIABV?$PropertyCallbackInfo@VValue@v8@@@v8@@@Z 10001660 f   _nodert_generated.obj
 0001:00001508       $LN46                      10002508     _nodert_generated.obj
 0001:00001aa4       $LN129                     10002aa4     _nodert_generated.obj
 0001:00001f70       ??1<lambda_85b3af6e5f21e2dfbb949cdd8ca000ff>@@QAE@XZ 10002f70 f i _nodert_generated.obj
 0001:00001f70       ??1<lambda_da728ca663148a39a15f0482357f5ab9>@@QAE@XZ 10002f70 f i _nodert_generated.obj
 0001:00001f70       ??1<lambda_8abf72d2c54f8bb80c09b205f4cfafdd>@@QAE@XZ 10002f70 f i _nodert_generated.obj
 0001:00001f70       ??1<lambda_1d4db423df950a9db6d5162d107d760e>@@QAE@XZ 10002f70 f i _nodert_generated.obj
 0001:000021f0       ?_ScheduleFuncWithAutoInline@details@Concurrency@@YAXABV?$function@$$A6AXXZ@std@@W4_TaskInliningMode@12@@Z 100031f0 f   _nodert_generated.obj
 0001:000031a0       ??R<lambda_aab2ebd78256abe6d7eb9e9ef0ce6177>@@QBEXXZ 100041a0 f   _nodert_generated.obj
 0001:000032e0       ??0<lambda_5e5ab22ea98f4361dbf159481d01f54d>@@QAE@ABQAU_ContinuationTaskHandleBase@details@Concurrency@@ABV?$shared_ptr@U_Task_impl_base@details@Concurrency@@@std@@@Z 100042e0 f   _nodert_generated.obj
 0001:000038b0       ??1<lambda_3b8ab8d2629adf61a42ee3fe177a046b>@@QAE@XZ 100048b0 f   _nodert_generated.obj
 0001:00003eb0       ??R<lambda_938fa980b0b5f876be0458d9a1d6acb0>@@QBEXHPAV?$Local@VValue@v8@@@v8@@@Z 10004eb0 f   _nodert_generated.obj
 0001:00003f40       ??R<lambda_847758569c482b5c3071d04a93fd5a03>@@QBEXXZ 10004f40 f   _nodert_generated.obj
 0001:00004310       ??1<lambda_847758569c482b5c3071d04a93fd5a03>@@QAE@XZ 10005310 f   _nodert_generated.obj
 0001:00004390       ?InitRadioStateEnum@Radios@Devices@Windows@NodeRT@@YAXV?$Local@VObject@v8@@@v8@@@Z 10005390 f   _nodert_generated.obj
 0001:000045d0       ?InitRadioKindEnum@Radios@Devices@Windows@NodeRT@@YAXV?$Local@VObject@v8@@@v8@@@Z 100055d0 f   _nodert_generated.obj
 0001:00004870       ?InitRadioAccessStatusEnum@Radios@Devices@Windows@NodeRT@@YAXV?$Local@VObject@v8@@@v8@@@Z 10005870 f   _nodert_generated.obj
 0001:0000527d       __catch$?New@Radio@Radios@Devices@Windows@NodeRT@@CAXABV?$FunctionCallbackInfo@VValue@v8@@@Nan@@@Z$0 1000627d f i _nodert_generated.obj
 0001:00005444       __catch$?CastFrom@Radio@Radios@Devices@Windows@NodeRT@@CAXABV?$FunctionCallbackInfo@VValue@v8@@@Nan@@@Z$0 10006444 f i _nodert_generated.obj
 0001:00005693       __catch$?SetStateAsync@Radio@Radios@Devices@Windows@NodeRT@@CAXABV?$FunctionCallbackInfo@VValue@v8@@@Nan@@@Z$0 10006693 f i _nodert_generated.obj
 0001:00005750       ??R<lambda_ae54f703fcaa92a2870449d47fe035a7>@@QBEXV?$task@W4RadioAccessStatus@Radios@Devices@Windows@@@Concurrency@@@Z 10006750 f   _nodert_generated.obj
 0001:00005821       __catch$??R<lambda_ae54f703fcaa92a2870449d47fe035a7>@@QBEXV?$task@W4RadioAccessStatus@Radios@Devices@Windows@@@Concurrency@@@Z$0 10006821 f   _nodert_generated.obj
 0001:00005860       ??R<lambda_caefe64cc4a3c37b2308a74735f93772>@@QBEXV?$function@$$A6AXHPAV?$Local@VValue@v8@@@v8@@@Z@std@@@Z 10006860 f   _nodert_generated.obj
 0001:00005860       ??R<lambda_fa83efc75490756721b16c8797d488d3>@@QBEXV?$function@$$A6AXHPAV?$Local@VValue@v8@@@v8@@@Z@std@@@Z 10006860 f   _nodert_generated.obj
 0001:00005980       ??R<lambda_a114a708d63a441febc5f755bac609dc>@@QBEXV?$function@$$A6AXHPAV?$Local@VValue@v8@@@v8@@@Z@std@@@Z 10006980 f   _nodert_generated.obj
 0001:00005980       ??R<lambda_c3befff5426f7ddaa4e03d53f00d3a42>@@QBEXV?$function@$$A6AXHPAV?$Local@VValue@v8@@@v8@@@Z@std@@@Z 10006980 f   _nodert_generated.obj
 0001:00005980       ??R<lambda_0ba1884422591f985dd5dd2788d28634>@@QBEXV?$function@$$A6AXHPAV?$Local@VValue@v8@@@v8@@@Z@std@@@Z 10006980 f   _nodert_generated.obj
 0001:00005980       ??R<lambda_0532bc16f263f6a2ba7cd1d0d3d2a0cd>@@QBEXV?$function@$$A6AXHPAV?$Local@VValue@v8@@@v8@@@Z@std@@@Z 10006980 f   _nodert_generated.obj
 0001:00005b9c       __catch$?GetRadiosAsync@Radio@Radios@Devices@Windows@NodeRT@@CAXABV?$FunctionCallbackInfo@VValue@v8@@@Nan@@@Z$0 10006b9c f i _nodert_generated.obj
 0001:00005c50       ??R<lambda_a1381f9626a8165312049276d1590ea7>@@QBEXV?$task@P$AAU?$IVectorView@P$AAVRadio@Radios@Devices@Windows@@@Collections@Foundation@Windows@@@Concurrency@@@Z 10006c50 f   _nodert_generated.obj
 0001:00005d58       __catch$??R<lambda_a1381f9626a8165312049276d1590ea7>@@QBEXV?$task@P$AAU?$IVectorView@P$AAVRadio@Radios@Devices@Windows@@@Collections@Foundation@Windows@@@Concurrency@@@Z$0 10006d58 f   _nodert_generated.obj
 0001:00005d90       ??R<lambda_55912aef2455062065036d52cc631bbd>@@QBEXV?$function@$$A6AXHPAV?$Local@VValue@v8@@@v8@@@Z@std@@@Z 10006d90 f   _nodert_generated.obj
 0001:00006155       __catch$?FromIdAsync@Radio@Radios@Devices@Windows@NodeRT@@CAXABV?$FunctionCallbackInfo@VValue@v8@@@Nan@@@Z$0 10007155 f i _nodert_generated.obj
 0001:000061f0       ??R<lambda_2ba0bef8cbfba8f1d7cf652ae95a0f98>@@QBEXV?$task@P$AAVRadio@Radios@Devices@Windows@@@Concurrency@@@Z 100071f0 f   _nodert_generated.obj
 0001:000062f8       __catch$??R<lambda_2ba0bef8cbfba8f1d7cf652ae95a0f98>@@QBEXV?$task@P$AAVRadio@Radios@Devices@Windows@@@Concurrency@@@Z$0 100072f8 f   _nodert_generated.obj
 0001:00006330       ??R<lambda_0fb43142ddbb33ec4e8b38dc9cda485a>@@QBEXV?$function@$$A6AXHPAV?$Local@VValue@v8@@@v8@@@Z@std@@@Z 10007330 f   _nodert_generated.obj
 0001:000065bc       __catch$?RequestAccessAsync@Radio@Radios@Devices@Windows@NodeRT@@CAXABV?$FunctionCallbackInfo@VValue@v8@@@Nan@@@Z$0 100075bc f i _nodert_generated.obj
 0001:00006670       ??R<lambda_9eef212b7bb2525a1146c82a12593753>@@QBEXV?$task@W4RadioAccessStatus@Radios@Devices@Windows@@@Concurrency@@@Z 10007670 f   _nodert_generated.obj
 0001:00006741       __catch$??R<lambda_9eef212b7bb2525a1146c82a12593753>@@QBEXV?$task@W4RadioAccessStatus@Radios@Devices@Windows@@@Concurrency@@@Z$0 10007741 f   _nodert_generated.obj
 0001:0000686a       __catch$?GetDeviceSelector@Radio@Radios@Devices@Windows@NodeRT@@CAXABV?$FunctionCallbackInfo@VValue@v8@@@Nan@@@Z$0 1000786a f i _nodert_generated.obj
 0001:000069cb       __catch$?KindGetter@Radio@Radios@Devices@Windows@NodeRT@@CAXV?$Local@VString@v8@@@v8@@ABV?$PropertyCallbackInfo@VValue@v8@@@Nan@@@Z$0 100079cb f i _nodert_generated.obj
 0001:00006af8       __catch$?NameGetter@Radio@Radios@Devices@Windows@NodeRT@@CAXV?$Local@VString@v8@@@v8@@ABV?$PropertyCallbackInfo@VValue@v8@@@Nan@@@Z$0 10007af8 f i _nodert_generated.obj
 0001:00006bfb       __catch$?StateGetter@Radio@Radios@Devices@Windows@NodeRT@@CAXV?$Local@VString@v8@@@v8@@ABV?$PropertyCallbackInfo@VValue@v8@@@Nan@@@Z$0 10007bfb f i _nodert_generated.obj
 0001:00006f58       __catch$?AddListener@Radio@Radios@Devices@Windows@NodeRT@@CAXABV?$FunctionCallbackInfo@VValue@v8@@@Nan@@@Z$0 10007f58 f i _nodert_generated.obj
 0001:00007030       ??R<lambda_8abf72d2c54f8bb80c09b205f4cfafdd>@@QBEXP$AAVRadio@Radios@Devices@Windows@@P$AAVObject@Platform@@@Z 10008030 f   _nodert_generated.obj
 0001:000070e0       ??R<lambda_ec396201b7e4f2b701f72af9664eb55a>@@QBEXXZ 100080e0 f   _nodert_generated.obj
 0001:000071f0       ??0<lambda_ec396201b7e4f2b701f72af9664eb55a>@@QAE@ABV?$shared_ptr@V?$Persistent@VObject@v8@@V?$NonCopyablePersistentTraits@VObject@v8@@@2@@Nan@@@std@@ABQ$AAVRadio@Radios@Devices@Windows@@ABQ$AAVObject@Platform@@@Z 100081f0 f   _nodert_generated.obj
 0001:000072b0       ??0<lambda_8abf72d2c54f8bb80c09b205f4cfafdd>@@QAE@ABV?$shared_ptr@V?$Persistent@VObject@v8@@V?$NonCopyablePersistentTraits@VObject@v8@@@2@@Nan@@@std@@@Z 100082b0 f   _nodert_generated.obj
 0001:0000764b       __catch$?RemoveListener@Radio@Radios@Devices@Windows@NodeRT@@CAXABV?$FunctionCallbackInfo@VValue@v8@@@Nan@@@Z$0 1000864b f i _nodert_generated.obj
 0001:000078d0       __register_binding         100088d0 f   _nodert_generated.obj
 0001:0000793c       __catch$?__abi_Windows_Foundation_?$TypedEventHandler@P$AAVRadio@Radios@Devices@Windows@@P$AAVObject@Platform@@___abi_IDelegate____abi_Invoke@?Q__abi_IDelegate@?$TypedEventHandler@P$AAVRadio@Radios@Devices@Windows@@P$AAVObject@Platform@@@Foundation@Windows@@234@U$AAGJP$AAVRadio@Radios@Devices@4@P$AAVObject@Platform@@@Z$0 1000893c f i _nodert_generated.obj
 0001:00009ce7       __catch$?SizeGetter@?$VectorViewWrapper@P$AAVRadio@Radios@Devices@Windows@@@Collections@NodeRT@@CAXV?$Local@VString@v8@@@v8@@ABV?$PropertyCallbackInfo@VValue@v8@@@Nan@@@Z$0 1000ace7 f i _nodert_generated.obj
 0001:00009efd       __catch$?IndexOf@?$VectorViewWrapper@P$AAVRadio@Radios@Devices@Windows@@@Collections@NodeRT@@CAXABV?$FunctionCallbackInfo@VValue@v8@@@Nan@@@Z$0 1000aefd f i _nodert_generated.obj
 0001:0000a091       __catch$?First@?$VectorViewWrapper@P$AAVRadio@Radios@Devices@Windows@@@Collections@NodeRT@@CAXABV?$FunctionCallbackInfo@VValue@v8@@@Nan@@@Z$0 1000b091 f i _nodert_generated.obj
 0001:0000a310       __catch$?GetAt@?$VectorViewWrapper@P$AAVRadio@Radios@Devices@Windows@@@Collections@NodeRT@@CAXABV?$FunctionCallbackInfo@VValue@v8@@@Nan@@@Z$0 1000b310 f i _nodert_generated.obj
 0001:0000adc7       __catch$?HasCurrentGetter@?$IteratorWrapper@P$AAVRadio@Radios@Devices@Windows@@@Collections@NodeRT@@CAXV?$Local@VString@v8@@@v8@@ABV?$PropertyCallbackInfo@VValue@v8@@@Nan@@@Z$0 1000bdc7 f i _nodert_generated.obj
 0001:0000aeec       __catch$?CurrentGetter@?$IteratorWrapper@P$AAVRadio@Radios@Devices@Windows@@@Collections@NodeRT@@CAXV?$Local@VString@v8@@@v8@@ABV?$PropertyCallbackInfo@VValue@v8@@@Nan@@@Z$0 1000beec f i _nodert_generated.obj
 0001:0000afbd       __catch$?MoveNext@?$IteratorWrapper@P$AAVRadio@Radios@Devices@Windows@@@Collections@NodeRT@@CAXABV?$FunctionCallbackInfo@VValue@v8@@@Nan@@@Z$0 1000bfbd f i _nodert_generated.obj
 0001:0000b94b       __catch$??$IsWinRtWrapperOf@P$AAVRadio@Radios@Devices@Windows@@@Utils@NodeRT@@YA_NV?$Local@VValue@v8@@@v8@@@Z$0 1000c94b f i _nodert_generated.obj
 0001:0000caab       __catch$??$IsWinRtWrapperOf@P$AAU?$IVectorView@P$AAVRadio@Radios@Devices@Windows@@@Collections@Foundation@Windows@@@Utils@NodeRT@@YA_NV?$Local@VValue@v8@@@v8@@@Z$0 1000daab f i _nodert_generated.obj
 0001:0000cc3b       __catch$??$IsWinRtWrapperOf@P$AAU?$IIterator@P$AAVRadio@Radios@Devices@Windows@@@Collections@Foundation@Windows@@@Utils@NodeRT@@YA_NV?$Local@VValue@v8@@@v8@@@Z$0 1000dc3b f i _nodert_generated.obj
 0001:0000fc80       ??R<lambda_b790627109c9d7e4b89a786d55a0c462>@@QBEEV?$task@P$AAU?$IVectorView@P$AAVRadio@Radios@Devices@Windows@@@Collections@Foundation@Windows@@@Concurrency@@@Z 10010c80 f   _nodert_generated.obj
 0001:0000fc80       ??R<lambda_c27880a56ba3ded47134e23bf355db13>@@QBEEV?$task@P$AAVRadio@Radios@Devices@Windows@@@Concurrency@@@Z 10010c80 f   _nodert_generated.obj
 0001:0000fe80       ??R<lambda_0ca07c6226f46e76875b5e248892ce5b>@@QBEEV?$task@W4RadioAccessStatus@Radios@Devices@Windows@@@Concurrency@@@Z 10010e80 f   _nodert_generated.obj
 0001:0000ff60       ??1<lambda_c27880a56ba3ded47134e23bf355db13>@@QAE@XZ 10010f60 f   _nodert_generated.obj
 0001:0000ffd0       ??1<lambda_b790627109c9d7e4b89a786d55a0c462>@@QAE@XZ 10010fd0 f   _nodert_generated.obj
 0001:00010040       ??1<lambda_0ca07c6226f46e76875b5e248892ce5b>@@QAE@XZ 10011040 f   _nodert_generated.obj
 0001:00011580       ??R<lambda_1d4db423df950a9db6d5162d107d760e>@@QAEXP$AAU?$IAsyncOperation@P$AAVRadio@Radios@Devices@Windows@@@Foundation@Windows@@W4AsyncStatus@23@@Z 10012580 f   _nodert_generated.obj
 0001:000116b2       __catch$??R<lambda_1d4db423df950a9db6d5162d107d760e>@@QAEXP$AAU?$IAsyncOperation@P$AAVRadio@Radios@Devices@Windows@@@Foundation@Windows@@W4AsyncStatus@23@@Z$0 100126b2 f   _nodert_generated.obj
 0001:0001179c       __catch$?__abi_Windows_Foundation_?$AsyncOperationCompletedHandler@P$AAVRadio@Radios@Devices@Windows@@___abi_IDelegate____abi_Invoke@?Q__abi_IDelegate@?$AsyncOperationCompletedHandler@P$AAVRadio@Radios@Devices@Windows@@@Foundation@Windows@@234@U$AAGJP$AAU?$IAsyncOperation@P$AAVRadio@Radios@Devices@Windows@@@34@W4AsyncStatus@34@@Z$0 1001279c f i _nodert_generated.obj
 0001:00011aa0       ??R<lambda_85b3af6e5f21e2dfbb949cdd8ca000ff>@@QAEXP$AAU?$IAsyncOperation@P$AAU?$IVectorView@P$AAVRadio@Radios@Devices@Windows@@@Collections@Foundation@Windows@@@Foundation@Windows@@W4AsyncStatus@23@@Z 10012aa0 f   _nodert_generated.obj
 0001:00011bd2       __catch$??R<lambda_85b3af6e5f21e2dfbb949cdd8ca000ff>@@QAEXP$AAU?$IAsyncOperation@P$AAU?$IVectorView@P$AAVRadio@Radios@Devices@Windows@@@Collections@Foundation@Windows@@@Foundation@Windows@@W4AsyncStatus@23@@Z$0 10012bd2 f   _nodert_generated.obj
 0001:00011cbc       __catch$?__abi_Windows_Foundation_?$AsyncOperationCompletedHandler@P$AAU?$IVectorView@P$AAVRadio@Radios@Devices@Windows@@@Collections@Foundation@Windows@@___abi_IDelegate____abi_Invoke@?Q__abi_IDelegate@?$AsyncOperationCompletedHandler@P$AAU?$IVectorView@P$AAVRadio@Radios@Devices@Windows@@@Collections@Foundation@Windows@@@Foundation@Windows@@234@U$AAGJP$AAU?$IAsyncOperation@P$AAU?$IVectorView@P$AAVRadio@Radios@Devices@Windows@@@Collections@Foundation@Windows@@@34@W4AsyncStatus@34@@Z$0 10012cbc f i _nodert_generated.obj
 0001:00011f60       ??R<lambda_da728ca663148a39a15f0482357f5ab9>@@QAEXP$AAU?$IAsyncOperation@W4RadioAccessStatus@Radios@Devices@Windows@@@Foundation@Windows@@W4AsyncStatus@23@@Z 10012f60 f   _nodert_generated.obj
 0001:00012090       __catch$??R<lambda_da728ca663148a39a15f0482357f5ab9>@@QAEXP$AAU?$IAsyncOperation@W4RadioAccessStatus@Radios@Devices@Windows@@@Foundation@Windows@@W4AsyncStatus@23@@Z$0 10013090 f   _nodert_generated.obj
 0001:0001217c       __catch$?__abi_Windows_Foundation_?$AsyncOperationCompletedHandler@W4RadioAccessStatus@Radios@Devices@Windows@@___abi_IDelegate____abi_Invoke@?Q__abi_IDelegate@?$AsyncOperationCompletedHandler@W4RadioAccessStatus@Radios@Devices@Windows@@@Foundation@Windows@@234@U$AAGJP$AAU?$IAsyncOperation@W4RadioAccessStatus@Radios@Devices@Windows@@@34@W4AsyncStatus@34@@Z$0 1001317c f i _nodert_generated.obj
 0001:000126c0       ??R<lambda_f08ec446ca8b33299a4e48e3172e9b8c>@@QBEXXZ 100136c0 f   _nodert_generated.obj
 0001:000126c0       ??R<lambda_35b15a041fdff25694358386f486c371>@@QBEXXZ 100136c0 f   _nodert_generated.obj
 0001:000126c0       ??R<lambda_d9306928c1bd470a6e42b27630d148ed>@@QBEXXZ 100136c0 f   _nodert_generated.obj
 0001:00014100       ??0<lambda_847758569c482b5c3071d04a93fd5a03>@@QAE@$$QAV0@@Z 10015100 f   _nodert_generated.obj
 0001:000144a0       ??0<lambda_ec396201b7e4f2b701f72af9664eb55a>@@QAE@ABV0@@Z 100154a0 f   _nodert_generated.obj
 0001:00014560       ??0<lambda_5e5ab22ea98f4361dbf159481d01f54d>@@QAE@ABV0@@Z 10015560 f   _nodert_generated.obj
 0001:00015742       ?__scrt_initialize_thread_safe_statics@@YAHXZ 10016742 f   MSVCRT:thread_safe_statics.obj
 0001:0001581f       ?__scrt_uninitialize_thread_safe_statics@@YAXXZ 1001681f f   MSVCRT:thread_safe_statics.obj
 0001:000159b1       ?find_pe_section@@YAPAU_IMAGE_SECTION_HEADER@@QAEI@Z 100169b1 f   MSVCRT:utility.obj
 0001:00015e43       ?dllmain_crt_dispatch@@YGHQAUHINSTANCE__@@KQAX@Z 10016e43 f   MSVCRT:dll_dllmain.obj
 0001:00015e96       ?dllmain_crt_process_attach@@YAHQAUHINSTANCE__@@QAX@Z 10016e96 f   MSVCRT:dll_dllmain.obj
 0001:00015fa8       ?dllmain_crt_process_detach@@YAH_N@Z 10016fa8 f   MSVCRT:dll_dllmain.obj
 0001:00016025       ?dllmain_dispatch@@YAHQAUHINSTANCE__@@KQAX@Z 10017025 f   MSVCRT:dll_dllmain.obj
 0001:00016121       ?dllmain_raw@@YGHQAUHINSTANCE__@@KQAX@Z 10017121 f   MSVCRT:dll_dllmain.obj
 0001:00016550       $$000000                   10017550     MSVCRT:_sehprolg4_.obj
 0001:000167f0       __ehhandler$??1<lambda_c27880a56ba3ded47134e23bf355db13>@@QAE@XZ 100177f0 f   _nodert_generated.obj
 0001:000167f0       __ehhandler$??1scheduler_ptr@Concurrency@@QAE@XZ 100177f0 f   _nodert_generated.obj
 0001:000167f0       __ehhandler$??1<lambda_b790627109c9d7e4b89a786d55a0c462>@@QAE@XZ 100177f0 f   _nodert_generated.obj
 0001:000167f0       __ehhandler$??1?$task@P$AAU?$IVectorView@P$AAVRadio@Radios@Devices@Windows@@@Collections@Foundation@Windows@@@Concurrency@@QAE@XZ 100177f0 f   _nodert_generated.obj
 0001:000167f0       __ehhandler$??1cancellation_token@Concurrency@@QAE@XZ 100177f0 f   _nodert_generated.obj
 0001:000167f0       __ehhandler$??1?$task@W4RadioAccessStatus@Radios@Devices@Windows@@@Concurrency@@QAE@XZ 100177f0 f   _nodert_generated.obj
 0001:000167f0       __ehhandler$??1?$task@P$AAVRadio@Radios@Devices@Windows@@@Concurrency@@QAE@XZ 100177f0 f   _nodert_generated.obj
 0001:000167f0       __ehhandler$??1<lambda_8abf72d2c54f8bb80c09b205f4cfafdd>@@QAE@XZ 100177f0 f   _nodert_generated.obj
 0001:000167f0       __ehhandler$??1_ThenImplOptions@details@Concurrency@@QAE@XZ 100177f0 f   _nodert_generated.obj
 0001:000167f0       __ehhandler$??1<lambda_da728ca663148a39a15f0482357f5ab9>@@QAE@XZ 100177f0 f   _nodert_generated.obj
 0001:000167f0       __ehhandler$??1?$task@X@Concurrency@@QAE@XZ 100177f0 f   _nodert_generated.obj
 0001:000167f0       __ehhandler$??1<lambda_85b3af6e5f21e2dfbb949cdd8ca000ff>@@QAE@XZ 100177f0 f   _nodert_generated.obj
 0001:000167f0       __ehhandler$??1__abi_CapturePtr@Details@Platform@@QAE@XZ 100177f0 f   _nodert_generated.obj
 0001:000167f0       __ehhandler$??1<lambda_1d4db423df950a9db6d5162d107d760e>@@QAE@XZ 100177f0 f   _nodert_generated.obj
 0001:000167f0       __ehhandler$??1<lambda_847758569c482b5c3071d04a93fd5a03>@@QAE@XZ 100177f0 f   _nodert_generated.obj
 0001:00016810       __unwindfunclet$?_Copy_exception@exception_ptr@std@@SA?AV12@PAXPBX@Z$0 10017810 f   _nodert_generated.obj
 0001:00016818       __ehhandler$?_Copy_exception@exception_ptr@std@@SA?AV12@PAXPBX@Z 10017818 f   _nodert_generated.obj
 0001:00016840       __unwindfunclet$?Equals@Nan@@YA?AV?$Maybe@_N@v8@@V?$Local@VValue@v8@@@3@0@Z$0 10017840 f   _nodert_generated.obj
 0001:00016840       __unwindfunclet$?SetPrototype@Nan@@YA?AV?$Maybe@_N@v8@@V?$Local@VObject@v8@@@3@V?$Local@VValue@v8@@@3@@Z$0 10017840 f   _nodert_generated.obj
 0001:00016840       __unwindfunclet$?Delete@Nan@@YA?AV?$Maybe@_N@v8@@V?$Local@VObject@v8@@@3@V?$Local@VString@v8@@@3@@Z$0 10017840 f   _nodert_generated.obj
 0001:00016840       __unwindfunclet$?ForceSet@Nan@@YA?AV?$Maybe@_N@v8@@V?$Local@VObject@v8@@@3@V?$Local@VValue@v8@@@3@1W4PropertyAttribute@3@@Z$0 10017840 f   NodeRtUtils.obj
 0001:00016840       __unwindfunclet$?Set@Nan@@YA?AV?$Maybe@_N@v8@@V?$Local@VObject@v8@@@3@V?$Local@VValue@v8@@@3@1@Z$0 10017840 f   _nodert_generated.obj
 0001:00016840       __unwindfunclet$?convert@?$ToFactory@H@imp@Nan@@SA?AV?$Maybe@H@v8@@V?$Local@VValue@v8@@@5@@Z$0 10017840 f   _nodert_generated.obj
 0001:00016840       __unwindfunclet$?Has@Nan@@YA?AV?$Maybe@_N@v8@@V?$Local@VObject@v8@@@3@V?$Local@VString@v8@@@3@@Z$0 10017840 f   NodeRtUtils.obj
 0001:00016849       __ehhandler$?Has@Nan@@YA?AV?$Maybe@_N@v8@@V?$Local@VObject@v8@@@3@V?$Local@VString@v8@@@3@@Z 10017849 f   NodeRtUtils.obj
 0001:00016849       __ehhandler$?ForceSet@Nan@@YA?AV?$Maybe@_N@v8@@V?$Local@VObject@v8@@@3@V?$Local@VValue@v8@@@3@1W4PropertyAttribute@3@@Z 10017849 f   NodeRtUtils.obj
 0001:00016849       __ehhandler$?Equals@Nan@@YA?AV?$Maybe@_N@v8@@V?$Local@VValue@v8@@@3@0@Z 10017849 f   _nodert_generated.obj
 0001:00016849       __ehhandler$?Set@Nan@@YA?AV?$Maybe@_N@v8@@V?$Local@VObject@v8@@@3@V?$Local@VValue@v8@@@3@1@Z 10017849 f   _nodert_generated.obj
 0001:00016849       __ehhandler$?Delete@Nan@@YA?AV?$Maybe@_N@v8@@V?$Local@VObject@v8@@@3@V?$Local@VString@v8@@@3@@Z 10017849 f   _nodert_generated.obj
 0001:00016849       __ehhandler$?SetPrototype@Nan@@YA?AV?$Maybe@_N@v8@@V?$Local@VObject@v8@@@3@V?$Local@VValue@v8@@@3@@Z 10017849 f   _nodert_generated.obj
 0001:00016849       __ehhandler$?convert@?$ToFactory@H@imp@Nan@@SA?AV?$Maybe@H@v8@@V?$Local@VValue@v8@@@5@@Z 10017849 f   _nodert_generated.obj
 0001:00016870       __unwindfunclet$?NewInstance@Nan@@YA?AV?$MaybeLocal@VObject@v8@@@v8@@V?$Local@VFunction@v8@@@3@HQAV?$Local@VValue@v8@@@3@@Z$0 10017870 f   _nodert_generated.obj
 0001:00016879       __ehhandler$?NewInstance@Nan@@YA?AV?$MaybeLocal@VObject@v8@@@v8@@V?$Local@VFunction@v8@@@3@HQAV?$Local@VValue@v8@@@3@@Z 10017879 f   _nodert_generated.obj
 0001:000168a0       __unwindfunclet$?Get@Nan@@YA?AV?$MaybeLocal@VValue@v8@@@v8@@V?$Local@VObject@v8@@@3@V?$Local@VValue@v8@@@3@@Z$0 100178a0 f   _nodert_generated.obj
 0001:000168a0       __unwindfunclet$?GetFunction@Nan@@YA?AV?$MaybeLocal@VFunction@v8@@@v8@@V?$Local@VFunctionTemplate@v8@@@3@@Z$0 100178a0 f   _nodert_generated.obj
 0001:000168a0       __unwindfunclet$?NewInstance@Nan@@YA?AV?$MaybeLocal@VObject@v8@@@v8@@V?$Local@VObjectTemplate@v8@@@3@@Z$0 100178a0 f   _nodert_generated.obj
 0001:000168a9       __ehhandler$?Get@Nan@@YA?AV?$MaybeLocal@VValue@v8@@@v8@@V?$Local@VObject@v8@@@3@V?$Local@VValue@v8@@@3@@Z 100178a9 f   _nodert_generated.obj
 0001:000168a9       __ehhandler$?NewInstance@Nan@@YA?AV?$MaybeLocal@VObject@v8@@@v8@@V?$Local@VObjectTemplate@v8@@@3@@Z 100178a9 f   _nodert_generated.obj
 0001:000168a9       __ehhandler$?GetFunction@Nan@@YA?AV?$MaybeLocal@VFunction@v8@@@v8@@V?$Local@VFunctionTemplate@v8@@@3@@Z 100178a9 f   _nodert_generated.obj
 0001:000168d0       __unwindfunclet$?convert@?$ToFactory@VObject@v8@@@imp@Nan@@SA?AV?$MaybeLocal@VObject@v8@@@v8@@V?$Local@VValue@v8@@@5@@Z$0 100178d0 f   _nodert_generated.obj
 0001:000168d0       __unwindfunclet$?convert@?$ToFactory@VInteger@v8@@@imp@Nan@@SA?AV?$MaybeLocal@VInteger@v8@@@v8@@V?$Local@VValue@v8@@@5@@Z$0 100178d0 f   _nodert_generated.obj
 0001:000168d0       __unwindfunclet$?convert@?$ToFactory@VString@v8@@@imp@Nan@@SA?AV?$MaybeLocal@VString@v8@@@v8@@V?$Local@VValue@v8@@@5@@Z$0 100178d0 f   _nodert_generated.obj
 0001:000168d9       __ehhandler$?convert@?$ToFactory@VString@v8@@@imp@Nan@@SA?AV?$MaybeLocal@VString@v8@@@v8@@V?$Local@VValue@v8@@@5@@Z 100178d9 f   _nodert_generated.obj
 0001:000168d9       __ehhandler$?convert@?$ToFactory@VObject@v8@@@imp@Nan@@SA?AV?$MaybeLocal@VObject@v8@@@v8@@V?$Local@VValue@v8@@@5@@Z 100178d9 f   _nodert_generated.obj
 0001:000168d9       __ehhandler$?convert@?$ToFactory@VInteger@v8@@@imp@Nan@@SA?AV?$MaybeLocal@VInteger@v8@@@v8@@V?$Local@VValue@v8@@@5@@Z 100178d9 f   _nodert_generated.obj
 0001:00016900       __unwindfunclet$?New@?$Factory@VFunctionTemplate@v8@@@imp@Nan@@SA?AV?$Local@VFunctionTemplate@v8@@@v8@@P6AXABV?$FunctionCallbackInfo@VValue@v8@@@3@@ZV?$Local@VValue@v8@@@5@V?$Local@VSignature@v8@@@5@@Z$0 10017900 f   _nodert_generated.obj
 0001:00016909       __ehhandler$?New@?$Factory@VFunctionTemplate@v8@@@imp@Nan@@SA?AV?$Local@VFunctionTemplate@v8@@@v8@@P6AXABV?$FunctionCallbackInfo@VValue@v8@@@3@@ZV?$Local@VValue@v8@@@5@V?$Local@VSignature@v8@@@5@@Z 10017909 f   _nodert_generated.obj
 0001:00016930       __unwindfunclet$?Init@?$VectorViewWrapper@P$AAVRadio@Radios@Devices@Windows@@@Collections@NodeRT@@SAXXZ$0 10017930 f   _nodert_generated.obj
 0001:00016930       __unwindfunclet$?Init@?$IteratorWrapper@P$AAVRadio@Radios@Devices@Windows@@@Collections@NodeRT@@SAXXZ$0 10017930 f   _nodert_generated.obj
 0001:00016930       __unwindfunclet$?SetPrototypeMethod@Nan@@YAXV?$Local@VFunctionTemplate@v8@@@v8@@PBDP6AXABV?$FunctionCallbackInfo@VValue@v8@@@1@@Z@Z$0 10017930 f   _nodert_generated.obj
 0001:00016938       __ehhandler$?SetPrototypeMethod@Nan@@YAXV?$Local@VFunctionTemplate@v8@@@v8@@PBDP6AXABV?$FunctionCallbackInfo@VValue@v8@@@1@@Z@Z 10017938 f   _nodert_generated.obj
 0001:00016938       __ehhandler$?Init@?$IteratorWrapper@P$AAVRadio@Radios@Devices@Windows@@@Collections@NodeRT@@SAXXZ 10017938 f   _nodert_generated.obj
 0001:00016938       __ehhandler$?Init@?$VectorViewWrapper@P$AAVRadio@Radios@Devices@Windows@@@Collections@NodeRT@@SAXXZ 10017938 f   _nodert_generated.obj
 0001:00016960       __unwindfunclet$?SetAccessor@Nan@@YAXV?$Local@VObjectTemplate@v8@@@v8@@V?$Local@VString@v8@@@3@P6AX1ABV?$PropertyCallbackInfo@VValue@v8@@@1@@ZP6AX1V?$Local@VValue@v8@@@3@ABV?$PropertyCallbackInfo@X@1@@Z4W4AccessControl@3@W4PropertyAttribute@3@V?$Local@VAccessorSignature@v8@@@3@@Z$0 10017960 f   _nodert_generated.obj
 0001:00016960       __unwindfunclet$?Init@Radio@Radios@Devices@Windows@NodeRT@@SAXV?$Local@VObject@v8@@@v8@@@Z$0 10017960 f   _nodert_generated.obj
 0001:00016960       __unwindfunclet$?WrapRadio@Radios@Devices@Windows@NodeRT@@YA?AV?$Local@VValue@v8@@@v8@@P$AAVRadio@123@@Z$0 10017960 f   _nodert_generated.obj
 0001:00016968       __ehhandler$?SetAccessor@Nan@@YAXV?$Local@VObjectTemplate@v8@@@v8@@V?$Local@VString@v8@@@3@P6AX1ABV?$PropertyCallbackInfo@VValue@v8@@@1@@ZP6AX1V?$Local@VValue@v8@@@3@ABV?$PropertyCallbackInfo@X@1@@Z4W4AccessControl@3@W4PropertyAttribute@3@V?$Local@VAccessorSignature@v8@@@3@@Z 10017968 f   _nodert_generated.obj
 0001:00016968       __ehhandler$?Init@Radio@Radios@Devices@Windows@NodeRT@@SAXV?$Local@VObject@v8@@@v8@@@Z 10017968 f   _nodert_generated.obj
 0001:00016968       __ehhandler$?WrapRadio@Radios@Devices@Windows@NodeRT@@YA?AV?$Local@VValue@v8@@@v8@@P$AAVRadio@123@@Z 10017968 f   _nodert_generated.obj
 0001:00016990       __unwindfunclet$?SetIndexedPropertyHandler@Nan@@YAXV?$Local@VObjectTemplate@v8@@@v8@@P6AXIABV?$PropertyCallbackInfo@VValue@v8@@@1@@ZP6AXIV?$Local@VValue@v8@@@3@1@ZP6AXIABV?$PropertyCallbackInfo@VInteger@v8@@@1@@ZP6AXIABV?$PropertyCallbackInfo@VBoolean@v8@@@1@@ZP6AXABV?$PropertyCallbackInfo@VArray@v8@@@1@@Z3@Z$0 10017990 f   _nodert_generated.obj
 0001:00016998       __ehhandler$?SetIndexedPropertyHandler@Nan@@YAXV?$Local@VObjectTemplate@v8@@@v8@@P6AXIABV?$PropertyCallbackInfo@VValue@v8@@@1@@ZP6AXIV?$Local@VValue@v8@@@3@1@ZP6AXIABV?$PropertyCallbackInfo@VInteger@v8@@@1@@ZP6AXIABV?$PropertyCallbackInfo@VBoolean@v8@@@1@@ZP6AXABV?$PropertyCallbackInfo@VArray@v8@@@1@@Z3@Z 10017998 f   _nodert_generated.obj
 0001:000169c0       __unwindfunclet$??_GOpaqueWrapper@NodeRT@@UAEPAXI@Z$0 100179c0 f   OpaqueWrapper.obj
 0001:000169c0       __unwindfunclet$??_GRadio@Radios@Devices@Windows@NodeRT@@UAEPAXI@Z$0 100179c0 f   _nodert_generated.obj
 0001:000169c0       __unwindfunclet$??1ObjectWrap@Nan@@UAE@XZ$1 100179c0 f   _nodert_generated.obj
 0001:000169c0       __unwindfunclet$??_G_ContinuationTaskHandleBase@details@Concurrency@@UAEPAXI@Z$2 100179c0 f   _nodert_generated.obj
 0001:000169c7       __ehhandler$??1ObjectWrap@Nan@@UAE@XZ 100179c7 f   _nodert_generated.obj
 0001:000169c7       __ehhandler$??_G_ContinuationTaskHandleBase@details@Concurrency@@UAEPAXI@Z 100179c7 f   _nodert_generated.obj
 0001:000169c7       __ehhandler$??_GOpaqueWrapper@NodeRT@@UAEPAXI@Z 100179c7 f   OpaqueWrapper.obj
 0001:000169c7       __ehhandler$??_GRadio@Radios@Devices@Windows@NodeRT@@UAEPAXI@Z 100179c7 f   _nodert_generated.obj
 0001:000169f0       __unwindfunclet$?_Callback@_PPLTaskChore@_DefaultPPLTaskScheduler@details@Concurrency@@CAXPAX@Z$0 100179f0 f   _nodert_generated.obj
 0001:000169f8       __unwindfunclet$?_Callback@_PPLTaskChore@_DefaultPPLTaskScheduler@details@Concurrency@@CAXPAX@Z$2 100179f8 f   _nodert_generated.obj
 0001:000169ff       __ehhandler$?_Callback@_PPLTaskChore@_DefaultPPLTaskScheduler@details@Concurrency@@CAXPAX@Z 100179ff f   _nodert_generated.obj
 0001:00016a20       __unwindfunclet$?schedule@_DefaultPPLTaskScheduler@details@Concurrency@@UAEXP6AXPAX@Z0@Z$3 10017a20 f   _nodert_generated.obj
 0001:00016a27       __unwindfunclet$?schedule@_DefaultPPLTaskScheduler@details@Concurrency@@UAEXP6AXPAX@Z0@Z$1 10017a27 f   _nodert_generated.obj
 0001:00016a2f       __ehhandler$?schedule@_DefaultPPLTaskScheduler@details@Concurrency@@UAEXP6AXPAX@Z0@Z 10017a2f f   _nodert_generated.obj
 0001:00016a50       __unwindfunclet$?_RegisterCallback@_CancellationTokenState@details@Concurrency@@QAEXPAV_CancellationTokenRegistration@23@@Z$0 10017a50 f   _nodert_generated.obj
 0001:00016a58       __ehhandler$?_RegisterCallback@_CancellationTokenState@details@Concurrency@@QAEXPAV_CancellationTokenRegistration@23@@Z 10017a58 f   _nodert_generated.obj
 0001:00016a80       __unwindfunclet$?_DeregisterCallback@_CancellationTokenState@details@Concurrency@@QAEXPAV_CancellationTokenRegistration@23@@Z$0 10017a80 f   _nodert_generated.obj
 0001:00016a88       __unwindfunclet$?_DeregisterCallback@_CancellationTokenState@details@Concurrency@@QAEXPAV_CancellationTokenRegistration@23@@Z$1 10017a88 f   _nodert_generated.obj
 0001:00016a90       __ehhandler$?_DeregisterCallback@_CancellationTokenState@details@Concurrency@@QAEXPAV_CancellationTokenRegistration@23@@Z 10017a90 f   _nodert_generated.obj
 0001:00016ab0       __unwindfunclet$?_ScheduleTask@_TaskCollectionBaseImpl@details@Concurrency@@QAEXPAU_TaskProcHandle@23@W4_TaskInliningMode@23@@Z$0 10017ab0 f   _nodert_generated.obj
 0001:00016ab0       __unwindfunclet$?_RunChoreBridge@_TaskProcHandle@details@Concurrency@@SAXPAX@Z$0 10017ab0 f   _nodert_generated.obj
 0001:00016ab8       __ehhandler$?_RunChoreBridge@_TaskProcHandle@details@Concurrency@@SAXPAX@Z 10017ab8 f   _nodert_generated.obj
 0001:00016ab8       __ehhandler$?_ScheduleTask@_TaskCollectionBaseImpl@details@Concurrency@@QAEXPAU_TaskProcHandle@23@W4_TaskInliningMode@23@@Z 10017ab8 f   _nodert_generated.obj
 0001:00016ae0       __unwindfunclet$?WaitUntilStateChangedTo@_TaskCollectionBaseImpl@details@Concurrency@@IAEXW4_TaskCollectionState@123@@Z$0 10017ae0 f   _nodert_generated.obj
 0001:00016ae8       __ehhandler$?WaitUntilStateChangedTo@_TaskCollectionBaseImpl@details@Concurrency@@IAEXW4_TaskCollectionState@123@@Z 10017ae8 f   _nodert_generated.obj
 0001:00016b10       __unwindfunclet$?_RunTask@_TaskCollectionBaseImpl@details@Concurrency@@SAXP6AXPAX@Z0W4_TaskInliningMode@23@@Z$0 10017b10 f   _nodert_generated.obj
 0001:00016b18       __ehhandler$?_RunTask@_TaskCollectionBaseImpl@details@Concurrency@@SAXP6AXPAX@Z0W4_TaskInliningMode@23@@Z 10017b18 f   _nodert_generated.obj
 0001:00016b40       __ehhandler$??0scheduler_ptr@Concurrency@@QAE@ABU01@@Z 10017b40 f   _nodert_generated.obj
 0001:00016b40       __ehhandler$??1_Task_impl_base@details@Concurrency@@UAE@XZ 10017b40 f   _nodert_generated.obj
 0001:00016b40       __ehhandler$??0<lambda_ec396201b7e4f2b701f72af9664eb55a>@@QAE@ABV0@@Z 10017b40 f   _nodert_generated.obj
 0001:00016b40       __ehhandler$??0<lambda_5e5ab22ea98f4361dbf159481d01f54d>@@QAE@ABV0@@Z 10017b40 f   _nodert_generated.obj
 0001:00016b60       __unwindfunclet$?_NoCallOnDefaultTask_ErrorImpl@_DefaultTaskHelper@details@Concurrency@@SAXXZ$0 10017b60 f   _nodert_generated.obj
 0001:00016b68       __ehhandler$?_NoCallOnDefaultTask_ErrorImpl@_DefaultTaskHelper@details@Concurrency@@SAXXZ 10017b68 f   _nodert_generated.obj
 0001:00016b90       __unwindfunclet$?_Bridge@_TaskProcThunk@details@Concurrency@@SAXPAX@Z$0 10017b90 f   _nodert_generated.obj
 0001:00016b98       __ehhandler$?_Bridge@_TaskProcThunk@details@Concurrency@@SAXPAX@Z 10017b98 f   _nodert_generated.obj
 0001:00016bc0       __ehhandler$??1_ExceptionHolder@details@Concurrency@@QAE@XZ 10017bc0 f   _nodert_generated.obj
 0001:00016bc0       __ehhandler$??1<lambda_0ca07c6226f46e76875b5e248892ce5b>@@QAE@XZ 10017bc0 f   _nodert_generated.obj
 0001:00016bc0       __ehhandler$??1_Holder@_TaskProcThunk@details@Concurrency@@QAE@XZ 10017bc0 f   _nodert_generated.obj
 0001:00016bc0       __ehhandler$??_G?$_CancellationTokenCallback@V<lambda_3b8ab8d2629adf61a42ee3fe177a046b>@@@details@Concurrency@@UAEPAXI@Z 10017bc0 f   _nodert_generated.obj
 0001:00016be0       __unwindfunclet$?_ScheduleFuncWithAutoInline@details@Concurrency@@YAXABV?$function@$$A6AXXZ@std@@W4_TaskInliningMode@12@@Z$0 10017be0 f   _nodert_generated.obj
 0001:00016bef       __unwindfunclet$?_ScheduleFuncWithAutoInline@details@Concurrency@@YAXABV?$function@$$A6AXXZ@std@@W4_TaskInliningMode@12@@Z$2 10017bef f   _nodert_generated.obj
 0001:00016bf7       __ehhandler$?_ScheduleFuncWithAutoInline@details@Concurrency@@YAXABV?$function@$$A6AXXZ@std@@W4_TaskInliningMode@12@@Z 10017bf7 f   _nodert_generated.obj
 0001:00016c20       __unwindfunclet$?_CaptureCurrent@_ContextCallback@details@Concurrency@@SA?AV123@XZ$0 10017c20 f   _nodert_generated.obj
 0001:00016c39       __ehhandler$?_CaptureCurrent@_ContextCallback@details@Concurrency@@SA?AV123@XZ 10017c39 f   _nodert_generated.obj
 0001:00016c60       __ehhandler$??1_ContextCallback@details@Concurrency@@QAE@XZ 10017c60 f   _nodert_generated.obj
 0001:00016c60       __ehhandler$??1_TaskWorkItemRAIILogger@details@Concurrency@@QAE@XZ 10017c60 f   _nodert_generated.obj
 0001:00016c60       __ehhandler$??1<lambda_3b8ab8d2629adf61a42ee3fe177a046b>@@QAE@XZ 10017c60 f   _nodert_generated.obj
 0001:00016c80       __unwindfunclet$?_CallInContext@_ContextCallback@details@Concurrency@@QBEXV?$function@$$A6AXXZ@std@@@Z$0 10017c80 f   _nodert_generated.obj
 0001:00016c88       __unwindfunclet$?_CallInContext@_ContextCallback@details@Concurrency@@QBEXV?$function@$$A6AXXZ@std@@@Z$2 10017c88 f   _nodert_generated.obj
 0001:00016c90       __ehhandler$?_CallInContext@_ContextCallback@details@Concurrency@@QBEXV?$function@$$A6AXXZ@std@@@Z 10017c90 f   _nodert_generated.obj
 0001:00016cb0       __unwindfunclet$?_RethrowUserException@_ExceptionHolder@details@Concurrency@@QAEXXZ$1 10017cb0 f   _nodert_generated.obj
 0001:00016cb8       __ehhandler$?_RethrowUserException@_ExceptionHolder@details@Concurrency@@QAEXXZ 10017cb8 f   _nodert_generated.obj
 0001:00016ce0       __unwindfunclet$??1task_continuation_context@Concurrency@@QAE@XZ$0 10017ce0 f   _nodert_generated.obj
 0001:00016ce7       __ehhandler$??1task_continuation_context@Concurrency@@QAE@XZ 10017ce7 f   _nodert_generated.obj
 0001:00016d10       __unwindfunclet$??0task_options@Concurrency@@QAE@XZ$1 10017d10 f   _nodert_generated.obj
 0001:00016d18       __unwindfunclet$??0task_options@Concurrency@@QAE@XZ$2 10017d18 f   _nodert_generated.obj
 0001:00016d23       __ehhandler$??0task_options@Concurrency@@QAE@XZ 10017d23 f   _nodert_generated.obj
 0001:00016d40       __unwindfunclet$??0_ThenImplOptions@details@Concurrency@@QAE@PAV_CancellationTokenState@12@PBVtask_continuation_context@2@Uscheduler_ptr@2@V_TaskCreationCallstack@12@W4_TaskInliningMode@12@@Z$0 10017d40 f   _nodert_generated.obj
 0001:00016d48       __unwindfunclet$??0_ThenImplOptions@details@Concurrency@@QAE@PAV_CancellationTokenState@12@PBVtask_continuation_context@2@Uscheduler_ptr@2@V_TaskCreationCallstack@12@W4_TaskInliningMode@12@@Z$1 10017d48 f   _nodert_generated.obj
 0001:00016d50       __unwindfunclet$??0_ThenImplOptions@details@Concurrency@@QAE@PAV_CancellationTokenState@12@PBVtask_continuation_context@2@Uscheduler_ptr@2@V_TaskCreationCallstack@12@W4_TaskInliningMode@12@@Z$2 10017d50 f   _nodert_generated.obj
 0001:00016d5b       __ehhandler$??0_ThenImplOptions@details@Concurrency@@QAE@PAV_CancellationTokenState@12@PBVtask_continuation_context@2@Uscheduler_ptr@2@V_TaskCreationCallstack@12@W4_TaskInliningMode@12@@Z 10017d5b f   _nodert_generated.obj
 0001:00016d80       __unwindfunclet$?_CreateOptions@_ThenImplOptions@details@Concurrency@@SA?AU123@ABVtask_options@3@ABVtask_continuation_context@3@ABUscheduler_ptr@3@@Z$12 10017d80 f   _nodert_generated.obj
 0001:00016d87       __unwindfunclet$?_CreateOptions@_ThenImplOptions@details@Concurrency@@SA?AU123@ABVtask_options@3@ABVtask_continuation_context@3@ABUscheduler_ptr@3@@Z$3 10017d87 f   _nodert_generated.obj
 0001:00016d8f       __unwindfunclet$?_CreateOptions@_ThenImplOptions@details@Concurrency@@SA?AU123@ABVtask_options@3@ABVtask_continuation_context@3@ABUscheduler_ptr@3@@Z$17 10017d8f f   _nodert_generated.obj
 0001:00016d96       __unwindfunclet$?_CreateOptions@_ThenImplOptions@details@Concurrency@@SA?AU123@ABVtask_options@3@ABVtask_continuation_context@3@ABUscheduler_ptr@3@@Z$5 10017d96 f   _nodert_generated.obj
 0001:00016da1       __unwindfunclet$?_CreateOptions@_ThenImplOptions@details@Concurrency@@SA?AU123@ABVtask_options@3@ABVtask_continuation_context@3@ABUscheduler_ptr@3@@Z$8 10017da1 f   _nodert_generated.obj
 0001:00016da9       __ehhandler$?_CreateOptions@_ThenImplOptions@details@Concurrency@@SA?AU123@ABVtask_options@3@ABVtask_continuation_context@3@ABUscheduler_ptr@3@@Z 10017da9 f   _nodert_generated.obj
 0001:00016dd0       __unwindfunclet$?_Wait@_Task_impl_base@details@Concurrency@@QAE?AW4task_group_status@3@XZ$0 10017dd0 f   _nodert_generated.obj
 0001:00016dd8       __ehhandler$?_Wait@_Task_impl_base@details@Concurrency@@QAE?AW4task_group_status@3@XZ 10017dd8 f   _nodert_generated.obj
 0001:00016e00       __unwindfunclet$?_CancelWithException@_Task_impl_base@details@Concurrency@@QAE_NABVexception_ptr@std@@@Z$0 10017e00 f   _nodert_generated.obj
 0001:00016e08       __unwindfunclet$?_CancelWithException@_Task_impl_base@details@Concurrency@@QAE_NABVexception_ptr@std@@@Z$1 10017e08 f   _nodert_generated.obj
 0001:00016e10       __ehhandler$?_CancelWithException@_Task_impl_base@details@Concurrency@@QAE_NABVexception_ptr@std@@@Z 10017e10 f   _nodert_generated.obj
 0001:00016e30       __unwindfunclet$?_RegisterCancellation@_Task_impl_base@details@Concurrency@@QAEXV?$weak_ptr@U_Task_impl_base@details@Concurrency@@@std@@@Z$0 10017e30 f   _nodert_generated.obj
 0001:00016e38       __unwindfunclet$?_RegisterCancellation@_Task_impl_base@details@Concurrency@@QAEXV?$weak_ptr@U_Task_impl_base@details@Concurrency@@@std@@@Z$1 10017e38 f   _nodert_generated.obj
 0001:00016e40       __ehhandler$?_RegisterCancellation@_Task_impl_base@details@Concurrency@@QAEXV?$weak_ptr@U_Task_impl_base@details@Concurrency@@@std@@@Z 10017e40 f   _nodert_generated.obj
 0001:00016e60       __unwindfunclet$?_ScheduleContinuationTask@_Task_impl_base@details@Concurrency@@QAEXPAU_ContinuationTaskHandleBase@23@@Z$0 10017e60 f   _nodert_generated.obj
 0001:00016e68       __ehhandler$?_ScheduleContinuationTask@_Task_impl_base@details@Concurrency@@QAEXPAU_ContinuationTaskHandleBase@23@@Z 10017e68 f   _nodert_generated.obj
 0001:00016e90       __unwindfunclet$??R<lambda_aab2ebd78256abe6d7eb9e9ef0ce6177>@@QBEXXZ$0 10017e90 f   _nodert_generated.obj
 0001:00016e98       __unwindfunclet$??R<lambda_aab2ebd78256abe6d7eb9e9ef0ce6177>@@QBEXXZ$5 10017e98 f   _nodert_generated.obj
 0001:00016e9f       __unwindfunclet$??R<lambda_aab2ebd78256abe6d7eb9e9ef0ce6177>@@QBEXXZ$7 10017e9f f   _nodert_generated.obj
 0001:00016ea7       __ehhandler$??R<lambda_aab2ebd78256abe6d7eb9e9ef0ce6177>@@QBEXXZ 10017ea7 f   _nodert_generated.obj
 0001:00016ed0       __unwindfunclet$?_ScheduleContinuation@_Task_impl_base@details@Concurrency@@QAEXPAU_ContinuationTaskHandleBase@23@@Z$3 10017ed0 f   _nodert_generated.obj
 0001:00016ed8       __unwindfunclet$?_ScheduleContinuation@_Task_impl_base@details@Concurrency@@QAEXPAU_ContinuationTaskHandleBase@23@@Z$2 10017ed8 f   _nodert_generated.obj
 0001:00016ee0       __unwindfunclet$?_ScheduleContinuation@_Task_impl_base@details@Concurrency@@QAEXPAU_ContinuationTaskHandleBase@23@@Z$1 10017ee0 f   _nodert_generated.obj
 0001:00016ee8       __ehhandler$?_ScheduleContinuation@_Task_impl_base@details@Concurrency@@QAEXPAU_ContinuationTaskHandleBase@23@@Z 10017ee8 f   _nodert_generated.obj
 0001:00016f10       __unwindfunclet$?_RunTaskContinuations@_Task_impl_base@details@Concurrency@@QAEXXZ$0 10017f10 f   _nodert_generated.obj
 0001:00016f18       __unwindfunclet$?_RunTaskContinuations@_Task_impl_base@details@Concurrency@@QAEXXZ$1 10017f18 f   _nodert_generated.obj
 0001:00016f20       __unwindfunclet$?_RunTaskContinuations@_Task_impl_base@details@Concurrency@@QAEXXZ$3 10017f20 f   _nodert_generated.obj
 0001:00016f2f       __unwindfunclet$?_RunTaskContinuations@_Task_impl_base@details@Concurrency@@QAEXXZ$5 10017f2f f   _nodert_generated.obj
 0001:00016f37       __unwindfunclet$?_RunTaskContinuations@_Task_impl_base@details@Concurrency@@QAEXXZ$7 10017f37 f   _nodert_generated.obj
 0001:00016f3f       __unwindfunclet$?_RunTaskContinuations@_Task_impl_base@details@Concurrency@@QAEXXZ$6 10017f3f f   _nodert_generated.obj
 0001:00016f47       __unwindfunclet$?_RunTaskContinuations@_Task_impl_base@details@Concurrency@@QAEXXZ$14 10017f47 f   _nodert_generated.obj
 0001:00016f4f       __ehhandler$?_RunTaskContinuations@_Task_impl_base@details@Concurrency@@QAEXXZ 10017f4f f   _nodert_generated.obj
 0001:00016f80       __unwindfunclet$?_CreateImpl@?$task@X@Concurrency@@QAEXPAV_CancellationTokenState@details@2@Uscheduler_ptr@2@@Z$0 10017f80 f   _nodert_generated.obj
 0001:00016f88       __ehhandler$?_CreateImpl@?$task@X@Concurrency@@QAEXPAV_CancellationTokenState@details@2@Uscheduler_ptr@2@@Z 10017f88 f   _nodert_generated.obj
 0001:00016fb0       __unwindfunclet$??1task_options@Concurrency@@QAE@XZ$3 10017fb0 f   _nodert_generated.obj
 0001:00016fb7       __unwindfunclet$??1task_options@Concurrency@@QAE@XZ$4 10017fb7 f   _nodert_generated.obj
 0001:00016fbe       __ehhandler$??1task_options@Concurrency@@QAE@XZ 10017fbe f   _nodert_generated.obj
 0001:00016fe0       __unwindfunclet$??__Fg_keyProp@Collections@NodeRT@@YAXXZ$1 10017fe0 f   _nodert_generated.obj
 0001:00016fe0       __unwindfunclet$??__F?s_constructorTemplate@OpaqueWrapper@NodeRT@@0V?$Persistent@VFunctionTemplate@v8@@V?$NonCopyablePersistentTraits@VFunctionTemplate@v8@@@2@@Nan@@A@@YAXXZ$1 10017fe0 f   OpaqueWrapper.obj
 0001:00016fe0       __unwindfunclet$??__Fg_valueProp@Collections@NodeRT@@YAXXZ$1 10017fe0 f   _nodert_generated.obj
 0001:00016fe0       __unwindfunclet$??__F?s_constructorTemplate@Radio@Radios@Devices@Windows@NodeRT@@0V?$Persistent@VFunctionTemplate@v8@@V?$NonCopyablePersistentTraits@VFunctionTemplate@v8@@@2@@Nan@@A@@YAXXZ$1 10017fe0 f   _nodert_generated.obj
 0001:00016fe7       __ehhandler$??__F?s_constructorTemplate@OpaqueWrapper@NodeRT@@0V?$Persistent@VFunctionTemplate@v8@@V?$NonCopyablePersistentTraits@VFunctionTemplate@v8@@@2@@Nan@@A@@YAXXZ 10017fe7 f   OpaqueWrapper.obj
 0001:00016fe7       __ehhandler$??__Fg_valueProp@Collections@NodeRT@@YAXXZ 10017fe7 f   _nodert_generated.obj
 0001:00016fe7       __ehhandler$??__F?s_constructorTemplate@Radio@Radios@Devices@Windows@NodeRT@@0V?$Persistent@VFunctionTemplate@v8@@V?$NonCopyablePersistentTraits@VFunctionTemplate@v8@@@2@@Nan@@A@@YAXXZ 10017fe7 f   _nodert_generated.obj
 0001:00016fe7       __ehhandler$??__Fg_keyProp@Collections@NodeRT@@YAXXZ 10017fe7 f   _nodert_generated.obj
 0001:00017010       __unwindfunclet$?RunOnMain@Async@NodeUtils@@SAXV?$function@$$A6AXXZ@std@@@Z$0 10018010 f   _nodert_generated.obj
 0001:00017018       __unwindfunclet$?RunOnMain@Async@NodeUtils@@SAXV?$function@$$A6AXXZ@std@@@Z$3 10018018 f   _nodert_generated.obj
 0001:00017020       __unwindfunclet$?RunOnMain@Async@NodeUtils@@SAXV?$function@$$A6AXXZ@std@@@Z$4 10018020 f   _nodert_generated.obj
 0001:00017028       __ehhandler$?RunOnMain@Async@NodeUtils@@SAXV?$function@$$A6AXXZ@std@@@Z 10018028 f   _nodert_generated.obj
 0001:00017050       __unwindfunclet$?RunCallbackOnMain@Async@NodeUtils@@SAXPAUuv_async_s@@V?$function@$$A6AXV?$function@$$A6AXHPAV?$Local@VValue@v8@@@v8@@@Z@std@@@Z@std@@@Z$0 10018050 f   _nodert_generated.obj
 0001:00017058       __unwindfunclet$?RunCallbackOnMain@Async@NodeUtils@@SAXPAUuv_async_s@@V?$function@$$A6AXV?$function@$$A6AXHPAV?$Local@VValue@v8@@@v8@@@Z@std@@@Z@std@@@Z$1 10018058 f   _nodert_generated.obj
 0001:00017060       __unwindfunclet$?RunCallbackOnMain@Async@NodeUtils@@SAXPAUuv_async_s@@V?$function@$$A6AXV?$function@$$A6AXHPAV?$Local@VValue@v8@@@v8@@@Z@std@@@Z@std@@@Z$8 10018060 f   _nodert_generated.obj
 0001:00017068       __unwindfunclet$?RunCallbackOnMain@Async@NodeUtils@@SAXPAUuv_async_s@@V?$function@$$A6AXV?$function@$$A6AXHPAV?$Local@VValue@v8@@@v8@@@Z@std@@@Z@std@@@Z$3 10018068 f   _nodert_generated.obj
 0001:00017070       __unwindfunclet$?RunCallbackOnMain@Async@NodeUtils@@SAXPAUuv_async_s@@V?$function@$$A6AXV?$function@$$A6AXHPAV?$Local@VValue@v8@@@v8@@@Z@std@@@Z@std@@@Z$10 10018070 f   _nodert_generated.obj
 0001:00017078       __unwindfunclet$?RunCallbackOnMain@Async@NodeUtils@@SAXPAUuv_async_s@@V?$function@$$A6AXV?$function@$$A6AXHPAV?$Local@VValue@v8@@@v8@@@Z@std@@@Z@std@@@Z$11 10018078 f   _nodert_generated.obj
 0001:00017083       __ehhandler$?RunCallbackOnMain@Async@NodeUtils@@SAXPAUuv_async_s@@V?$function@$$A6AXV?$function@$$A6AXHPAV?$Local@VValue@v8@@@v8@@@Z@std@@@Z@std@@@Z 10018083 f   _nodert_generated.obj
 0001:000170b0       __unwindfunclet$??R<lambda_847758569c482b5c3071d04a93fd5a03>@@QBEXXZ$0 100180b0 f   _nodert_generated.obj
 0001:000170b8       __unwindfunclet$??R<lambda_847758569c482b5c3071d04a93fd5a03>@@QBEXXZ$4 100180b8 f   _nodert_generated.obj
 0001:000170c0       __ehhandler$??R<lambda_847758569c482b5c3071d04a93fd5a03>@@QBEXXZ 100180c0 f   _nodert_generated.obj
 0001:000170e0       __unwindfunclet$?CreateCallbackData@Async@NodeUtils@@CA?AV?$Local@VObject@v8@@@v8@@V?$Local@VFunction@v8@@@4@V?$Local@VValue@v8@@@4@@Z$0 100180e0 f   _nodert_generated.obj
 0001:000170e8       __ehhandler$?CreateCallbackData@Async@NodeUtils@@CA?AV?$Local@VObject@v8@@@v8@@V?$Local@VFunction@v8@@@4@V?$Local@VValue@v8@@@4@@Z 100180e8 f   _nodert_generated.obj
 0001:00017110       __unwindfunclet$??_GTokenData@Async@NodeUtils@@UAEPAXI@Z$0 10018110 f   _nodert_generated.obj
 0001:00017117       __unwindfunclet$??_GTokenData@Async@NodeUtils@@UAEPAXI@Z$2 10018117 f   _nodert_generated.obj
 0001:0001711e       __ehhandler$??_GTokenData@Async@NodeUtils@@UAEPAXI@Z 1001811e f   _nodert_generated.obj
 0001:00017140       __unwindfunclet$?InitRadioAccessStatusEnum@Radios@Devices@Windows@NodeRT@@YAXV?$Local@VObject@v8@@@v8@@@Z$0 10018140 f   _nodert_generated.obj
 0001:00017140       __unwindfunclet$?InitRadioStateEnum@Radios@Devices@Windows@NodeRT@@YAXV?$Local@VObject@v8@@@v8@@@Z$0 10018140 f   _nodert_generated.obj
 0001:00017140       __unwindfunclet$?InitRadioKindEnum@Radios@Devices@Windows@NodeRT@@YAXV?$Local@VObject@v8@@@v8@@@Z$0 10018140 f   _nodert_generated.obj
 0001:00017140       __unwindfunclet$?RegisterNameSpace@Utils@NodeRT@@YAXPBDV?$Local@VValue@v8@@@v8@@@Z$0 10018140 f   NodeRtUtils.obj
 0001:00017148       __ehhandler$?InitRadioAccessStatusEnum@Radios@Devices@Windows@NodeRT@@YAXV?$Local@VObject@v8@@@v8@@@Z 10018148 f   _nodert_generated.obj
 0001:00017148       __ehhandler$?InitRadioStateEnum@Radios@Devices@Windows@NodeRT@@YAXV?$Local@VObject@v8@@@v8@@@Z 10018148 f   _nodert_generated.obj
 0001:00017148       __ehhandler$?RegisterNameSpace@Utils@NodeRT@@YAXPBDV?$Local@VValue@v8@@@v8@@@Z 10018148 f   NodeRtUtils.obj
 0001:00017148       __ehhandler$?InitRadioKindEnum@Radios@Devices@Windows@NodeRT@@YAXV?$Local@VObject@v8@@@v8@@@Z 10018148 f   _nodert_generated.obj
 0001:00017170       __unwindfunclet$??0Radio@Radios@Devices@Windows@NodeRT@@AAE@P$AAV0123@@Z$0 10018170 f   _nodert_generated.obj
 0001:00017178       __unwindfunclet$??0Radio@Radios@Devices@Windows@NodeRT@@AAE@P$AAV0123@@Z$1 10018178 f   _nodert_generated.obj
 0001:00017186       __ehhandler$??0Radio@Radios@Devices@Windows@NodeRT@@AAE@P$AAV0123@@Z 10018186 f   _nodert_generated.obj
 0001:000171b0       __unwindfunclet$?New@Radio@Radios@Devices@Windows@NodeRT@@CAXABV?$FunctionCallbackInfo@VValue@v8@@@Nan@@@Z$2 100181b0 f   _nodert_generated.obj
 0001:000171b8       __unwindfunclet$?New@Radio@Radios@Devices@Windows@NodeRT@@CAXABV?$FunctionCallbackInfo@VValue@v8@@@Nan@@@Z$4 100181b8 f   _nodert_generated.obj
 0001:000171c0       __unwindfunclet$?New@Radio@Radios@Devices@Windows@NodeRT@@CAXABV?$FunctionCallbackInfo@VValue@v8@@@Nan@@@Z$5 100181c0 f   _nodert_generated.obj
 0001:000171cb       __unwindfunclet$?New@Radio@Radios@Devices@Windows@NodeRT@@CAXABV?$FunctionCallbackInfo@VValue@v8@@@Nan@@@Z$6 100181cb f   _nodert_generated.obj
 0001:000171d6       __unwindfunclet$?New@Radio@Radios@Devices@Windows@NodeRT@@CAXABV?$FunctionCallbackInfo@VValue@v8@@@Nan@@@Z$7 100181d6 f   _nodert_generated.obj
 0001:000171e1       __unwindfunclet$?New@Radio@Radios@Devices@Windows@NodeRT@@CAXABV?$FunctionCallbackInfo@VValue@v8@@@Nan@@@Z$8 100181e1 f   _nodert_generated.obj
 0001:000171f0       __ehhandler$?New@Radio@Radios@Devices@Windows@NodeRT@@CAXABV?$FunctionCallbackInfo@VValue@v8@@@Nan@@@Z 100181f0 f   _nodert_generated.obj
 0001:00017210       __unwindfunclet$?CastFrom@Radio@Radios@Devices@Windows@NodeRT@@CAXABV?$FunctionCallbackInfo@VValue@v8@@@Nan@@@Z$2 10018210 f   _nodert_generated.obj
 0001:00017218       __unwindfunclet$?CastFrom@Radio@Radios@Devices@Windows@NodeRT@@CAXABV?$FunctionCallbackInfo@VValue@v8@@@Nan@@@Z$3 10018218 f   _nodert_generated.obj
 0001:00017223       __unwindfunclet$?CastFrom@Radio@Radios@Devices@Windows@NodeRT@@CAXABV?$FunctionCallbackInfo@VValue@v8@@@Nan@@@Z$4 10018223 f   _nodert_generated.obj
 0001:0001722e       __unwindfunclet$?CastFrom@Radio@Radios@Devices@Windows@NodeRT@@CAXABV?$FunctionCallbackInfo@VValue@v8@@@Nan@@@Z$5 1001822e f   _nodert_generated.obj
 0001:00017239       __ehhandler$?CastFrom@Radio@Radios@Devices@Windows@NodeRT@@CAXABV?$FunctionCallbackInfo@VValue@v8@@@Nan@@@Z 10018239 f   _nodert_generated.obj
 0001:00017260       __unwindfunclet$?SetStateAsync@Radio@Radios@Devices@Windows@NodeRT@@CAXABV?$FunctionCallbackInfo@VValue@v8@@@Nan@@@Z$2 10018260 f   _nodert_generated.obj
 0001:00017268       __unwindfunclet$?SetStateAsync@Radio@Radios@Devices@Windows@NodeRT@@CAXABV?$FunctionCallbackInfo@VValue@v8@@@Nan@@@Z$3 10018268 f   _nodert_generated.obj
 0001:00017273       __unwindfunclet$?SetStateAsync@Radio@Radios@Devices@Windows@NodeRT@@CAXABV?$FunctionCallbackInfo@VValue@v8@@@Nan@@@Z$4 10018273 f   _nodert_generated.obj
 0001:0001727e       __unwindfunclet$?SetStateAsync@Radio@Radios@Devices@Windows@NodeRT@@CAXABV?$FunctionCallbackInfo@VValue@v8@@@Nan@@@Z$6 1001827e f   _nodert_generated.obj
 0001:00017286       __ehhandler$?SetStateAsync@Radio@Radios@Devices@Windows@NodeRT@@CAXABV?$FunctionCallbackInfo@VValue@v8@@@Nan@@@Z 10018286 f   _nodert_generated.obj
 0001:000172b0       __unwindfunclet$??R<lambda_ae54f703fcaa92a2870449d47fe035a7>@@QBEXV?$task@W4RadioAccessStatus@Radios@Devices@Windows@@@Concurrency@@@Z$2 100182b0 f   _nodert_generated.obj
 0001:000172b8       __unwindfunclet$??R<lambda_ae54f703fcaa92a2870449d47fe035a7>@@QBEXV?$task@W4RadioAccessStatus@Radios@Devices@Windows@@@Concurrency@@@Z$6 100182b8 f   _nodert_generated.obj
 0001:000172c0       __ehhandler$??R<lambda_ae54f703fcaa92a2870449d47fe035a7>@@QBEXV?$task@W4RadioAccessStatus@Radios@Devices@Windows@@@Concurrency@@@Z 100182c0 f   _nodert_generated.obj
 0001:000172e0       __unwindfunclet$??R<lambda_fa83efc75490756721b16c8797d488d3>@@QBEXV?$function@$$A6AXHPAV?$Local@VValue@v8@@@v8@@@Z@std@@@Z$0 100182e0 f   _nodert_generated.obj
 0001:000172e0       __unwindfunclet$??R<lambda_0fb43142ddbb33ec4e8b38dc9cda485a>@@QBEXV?$function@$$A6AXHPAV?$Local@VValue@v8@@@v8@@@Z@std@@@Z$0 100182e0 f   _nodert_generated.obj
 0001:000172e0       __unwindfunclet$??R<lambda_caefe64cc4a3c37b2308a74735f93772>@@QBEXV?$function@$$A6AXHPAV?$Local@VValue@v8@@@v8@@@Z@std@@@Z$0 100182e0 f   _nodert_generated.obj
 0001:000172e8       __unwindfunclet$??R<lambda_0fb43142ddbb33ec4e8b38dc9cda485a>@@QBEXV?$function@$$A6AXHPAV?$Local@VValue@v8@@@v8@@@Z@std@@@Z$1 100182e8 f   _nodert_generated.obj
 0001:000172e8       __unwindfunclet$??R<lambda_fa83efc75490756721b16c8797d488d3>@@QBEXV?$function@$$A6AXHPAV?$Local@VValue@v8@@@v8@@@Z@std@@@Z$1 100182e8 f   _nodert_generated.obj
 0001:000172e8       __unwindfunclet$??R<lambda_caefe64cc4a3c37b2308a74735f93772>@@QBEXV?$function@$$A6AXHPAV?$Local@VValue@v8@@@v8@@@Z@std@@@Z$1 100182e8 f   _nodert_generated.obj
 0001:000172f0       __ehhandler$??R<lambda_0fb43142ddbb33ec4e8b38dc9cda485a>@@QBEXV?$function@$$A6AXHPAV?$Local@VValue@v8@@@v8@@@Z@std@@@Z 100182f0 f   _nodert_generated.obj
 0001:000172f0       __ehhandler$??R<lambda_caefe64cc4a3c37b2308a74735f93772>@@QBEXV?$function@$$A6AXHPAV?$Local@VValue@v8@@@v8@@@Z@std@@@Z 100182f0 f   _nodert_generated.obj
 0001:000172f0       __ehhandler$??R<lambda_fa83efc75490756721b16c8797d488d3>@@QBEXV?$function@$$A6AXHPAV?$Local@VValue@v8@@@v8@@@Z@std@@@Z 100182f0 f   _nodert_generated.obj
 0001:00017310       __unwindfunclet$??R<lambda_0ba1884422591f985dd5dd2788d28634>@@QBEXV?$function@$$A6AXHPAV?$Local@VValue@v8@@@v8@@@Z@std@@@Z$0 10018310 f   _nodert_generated.obj
 0001:00017310       __unwindfunclet$??R<lambda_a114a708d63a441febc5f755bac609dc>@@QBEXV?$function@$$A6AXHPAV?$Local@VValue@v8@@@v8@@@Z@std@@@Z$0 10018310 f   _nodert_generated.obj
 0001:00017310       __unwindfunclet$??R<lambda_c3befff5426f7ddaa4e03d53f00d3a42>@@QBEXV?$function@$$A6AXHPAV?$Local@VValue@v8@@@v8@@@Z@std@@@Z$0 10018310 f   _nodert_generated.obj
 0001:00017310       __unwindfunclet$??R<lambda_0532bc16f263f6a2ba7cd1d0d3d2a0cd>@@QBEXV?$function@$$A6AXHPAV?$Local@VValue@v8@@@v8@@@Z@std@@@Z$0 10018310 f   _nodert_generated.obj
 0001:00017318       __ehhandler$??R<lambda_c3befff5426f7ddaa4e03d53f00d3a42>@@QBEXV?$function@$$A6AXHPAV?$Local@VValue@v8@@@v8@@@Z@std@@@Z 10018318 f   _nodert_generated.obj
 0001:00017318       __ehhandler$??R<lambda_0ba1884422591f985dd5dd2788d28634>@@QBEXV?$function@$$A6AXHPAV?$Local@VValue@v8@@@v8@@@Z@std@@@Z 10018318 f   _nodert_generated.obj
 0001:00017318       __ehhandler$??R<lambda_0532bc16f263f6a2ba7cd1d0d3d2a0cd>@@QBEXV?$function@$$A6AXHPAV?$Local@VValue@v8@@@v8@@@Z@std@@@Z 10018318 f   _nodert_generated.obj
 0001:00017318       __ehhandler$??R<lambda_a114a708d63a441febc5f755bac609dc>@@QBEXV?$function@$$A6AXHPAV?$Local@VValue@v8@@@v8@@@Z@std@@@Z 10018318 f   _nodert_generated.obj
 0001:00017340       __unwindfunclet$?GetRadiosAsync@Radio@Radios@Devices@Windows@NodeRT@@CAXABV?$FunctionCallbackInfo@VValue@v8@@@Nan@@@Z$2 10018340 f   _nodert_generated.obj
 0001:00017348       __unwindfunclet$?GetRadiosAsync@Radio@Radios@Devices@Windows@NodeRT@@CAXABV?$FunctionCallbackInfo@VValue@v8@@@Nan@@@Z$3 10018348 f   _nodert_generated.obj
 0001:00017353       __unwindfunclet$?GetRadiosAsync@Radio@Radios@Devices@Windows@NodeRT@@CAXABV?$FunctionCallbackInfo@VValue@v8@@@Nan@@@Z$4 10018353 f   _nodert_generated.obj
 0001:0001735e       __unwindfunclet$?GetRadiosAsync@Radio@Radios@Devices@Windows@NodeRT@@CAXABV?$FunctionCallbackInfo@VValue@v8@@@Nan@@@Z$6 1001835e f   _nodert_generated.obj
 0001:00017366       __ehhandler$?GetRadiosAsync@Radio@Radios@Devices@Windows@NodeRT@@CAXABV?$FunctionCallbackInfo@VValue@v8@@@Nan@@@Z 10018366 f   _nodert_generated.obj
 0001:00017390       __unwindfunclet$??R<lambda_a1381f9626a8165312049276d1590ea7>@@QBEXV?$task@P$AAU?$IVectorView@P$AAVRadio@Radios@Devices@Windows@@@Collections@Foundation@Windows@@@Concurrency@@@Z$2 10018390 f   _nodert_generated.obj
 0001:00017398       __unwindfunclet$??R<lambda_a1381f9626a8165312049276d1590ea7>@@QBEXV?$task@P$AAU?$IVectorView@P$AAVRadio@Radios@Devices@Windows@@@Collections@Foundation@Windows@@@Concurrency@@@Z$3 10018398 f   _nodert_generated.obj
 0001:000173a3       __unwindfunclet$??R<lambda_a1381f9626a8165312049276d1590ea7>@@QBEXV?$task@P$AAU?$IVectorView@P$AAVRadio@Radios@Devices@Windows@@@Collections@Foundation@Windows@@@Concurrency@@@Z$4 100183a3 f   _nodert_generated.obj
 0001:000173ae       __unwindfunclet$??R<lambda_a1381f9626a8165312049276d1590ea7>@@QBEXV?$task@P$AAU?$IVectorView@P$AAVRadio@Radios@Devices@Windows@@@Collections@Foundation@Windows@@@Concurrency@@@Z$11 100183ae f   _nodert_generated.obj
 0001:000173b5       __unwindfunclet$??R<lambda_a1381f9626a8165312049276d1590ea7>@@QBEXV?$task@P$AAU?$IVectorView@P$AAVRadio@Radios@Devices@Windows@@@Collections@Foundation@Windows@@@Concurrency@@@Z$12 100183b5 f   _nodert_generated.obj
 0001:000173bc       __ehhandler$??R<lambda_a1381f9626a8165312049276d1590ea7>@@QBEXV?$task@P$AAU?$IVectorView@P$AAVRadio@Radios@Devices@Windows@@@Collections@Foundation@Windows@@@Concurrency@@@Z 100183bc f   _nodert_generated.obj
 0001:000173e0       __unwindfunclet$??R<lambda_55912aef2455062065036d52cc631bbd>@@QBEXV?$function@$$A6AXHPAV?$Local@VValue@v8@@@v8@@@Z@std@@@Z$0 100183e0 f   _nodert_generated.obj
 0001:000173eb       __unwindfunclet$??R<lambda_55912aef2455062065036d52cc631bbd>@@QBEXV?$function@$$A6AXHPAV?$Local@VValue@v8@@@v8@@@Z@std@@@Z$1 100183eb f   _nodert_generated.obj
 0001:000173f3       __unwindfunclet$??R<lambda_55912aef2455062065036d52cc631bbd>@@QBEXV?$function@$$A6AXHPAV?$Local@VValue@v8@@@v8@@@Z@std@@@Z$2 100183f3 f   _nodert_generated.obj
 0001:000173fb       __unwindfunclet$??R<lambda_55912aef2455062065036d52cc631bbd>@@QBEXV?$function@$$A6AXHPAV?$Local@VValue@v8@@@v8@@@Z@std@@@Z$3 100183fb f   _nodert_generated.obj
 0001:00017403       __unwindfunclet$??R<lambda_55912aef2455062065036d52cc631bbd>@@QBEXV?$function@$$A6AXHPAV?$Local@VValue@v8@@@v8@@@Z@std@@@Z$4 10018403 f   _nodert_generated.obj
 0001:0001740b       __ehhandler$??R<lambda_55912aef2455062065036d52cc631bbd>@@QBEXV?$function@$$A6AXHPAV?$Local@VValue@v8@@@v8@@@Z@std@@@Z 1001840b f   _nodert_generated.obj
 0001:00017440       __unwindfunclet$?FromIdAsync@Radio@Radios@Devices@Windows@NodeRT@@CAXABV?$FunctionCallbackInfo@VValue@v8@@@Nan@@@Z$2 10018440 f   _nodert_generated.obj
 0001:00017448       __unwindfunclet$?FromIdAsync@Radio@Radios@Devices@Windows@NodeRT@@CAXABV?$FunctionCallbackInfo@VValue@v8@@@Nan@@@Z$3 10018448 f   _nodert_generated.obj
 0001:00017453       __unwindfunclet$?FromIdAsync@Radio@Radios@Devices@Windows@NodeRT@@CAXABV?$FunctionCallbackInfo@VValue@v8@@@Nan@@@Z$4 10018453 f   _nodert_generated.obj
 0001:0001745c       __unwindfunclet$?FromIdAsync@Radio@Radios@Devices@Windows@NodeRT@@CAXABV?$FunctionCallbackInfo@VValue@v8@@@Nan@@@Z$5 1001845c f   _nodert_generated.obj
 0001:00017465       __unwindfunclet$?FromIdAsync@Radio@Radios@Devices@Windows@NodeRT@@CAXABV?$FunctionCallbackInfo@VValue@v8@@@Nan@@@Z$6 10018465 f   _nodert_generated.obj
 0001:0001746d       __unwindfunclet$?FromIdAsync@Radio@Radios@Devices@Windows@NodeRT@@CAXABV?$FunctionCallbackInfo@VValue@v8@@@Nan@@@Z$7 1001846d f   _nodert_generated.obj
 0001:00017475       __unwindfunclet$?FromIdAsync@Radio@Radios@Devices@Windows@NodeRT@@CAXABV?$FunctionCallbackInfo@VValue@v8@@@Nan@@@Z$8 10018475 f   _nodert_generated.obj
 0001:00017480       __unwindfunclet$?FromIdAsync@Radio@Radios@Devices@Windows@NodeRT@@CAXABV?$FunctionCallbackInfo@VValue@v8@@@Nan@@@Z$10 10018480 f   _nodert_generated.obj
 0001:00017488       __ehhandler$?FromIdAsync@Radio@Radios@Devices@Windows@NodeRT@@CAXABV?$FunctionCallbackInfo@VValue@v8@@@Nan@@@Z 10018488 f   _nodert_generated.obj
 0001:000174b0       __unwindfunclet$??R<lambda_2ba0bef8cbfba8f1d7cf652ae95a0f98>@@QBEXV?$task@P$AAVRadio@Radios@Devices@Windows@@@Concurrency@@@Z$2 100184b0 f   _nodert_generated.obj
 0001:000174b8       __unwindfunclet$??R<lambda_2ba0bef8cbfba8f1d7cf652ae95a0f98>@@QBEXV?$task@P$AAVRadio@Radios@Devices@Windows@@@Concurrency@@@Z$3 100184b8 f   _nodert_generated.obj
 0001:000174c3       __unwindfunclet$??R<lambda_2ba0bef8cbfba8f1d7cf652ae95a0f98>@@QBEXV?$task@P$AAVRadio@Radios@Devices@Windows@@@Concurrency@@@Z$4 100184c3 f   _nodert_generated.obj
 0001:000174ce       __unwindfunclet$??R<lambda_2ba0bef8cbfba8f1d7cf652ae95a0f98>@@QBEXV?$task@P$AAVRadio@Radios@Devices@Windows@@@Concurrency@@@Z$11 100184ce f   _nodert_generated.obj
 0001:000174d5       __unwindfunclet$??R<lambda_2ba0bef8cbfba8f1d7cf652ae95a0f98>@@QBEXV?$task@P$AAVRadio@Radios@Devices@Windows@@@Concurrency@@@Z$12 100184d5 f   _nodert_generated.obj
 0001:000174dc       __ehhandler$??R<lambda_2ba0bef8cbfba8f1d7cf652ae95a0f98>@@QBEXV?$task@P$AAVRadio@Radios@Devices@Windows@@@Concurrency@@@Z 100184dc f   _nodert_generated.obj
 0001:00017500       __unwindfunclet$?RequestAccessAsync@Radio@Radios@Devices@Windows@NodeRT@@CAXABV?$FunctionCallbackInfo@VValue@v8@@@Nan@@@Z$2 10018500 f   _nodert_generated.obj
 0001:00017508       __unwindfunclet$?RequestAccessAsync@Radio@Radios@Devices@Windows@NodeRT@@CAXABV?$FunctionCallbackInfo@VValue@v8@@@Nan@@@Z$3 10018508 f   _nodert_generated.obj
 0001:00017513       __unwindfunclet$?RequestAccessAsync@Radio@Radios@Devices@Windows@NodeRT@@CAXABV?$FunctionCallbackInfo@VValue@v8@@@Nan@@@Z$4 10018513 f   _nodert_generated.obj
 0001:0001751e       __unwindfunclet$?RequestAccessAsync@Radio@Radios@Devices@Windows@NodeRT@@CAXABV?$FunctionCallbackInfo@VValue@v8@@@Nan@@@Z$6 1001851e f   _nodert_generated.obj
 0001:00017526       __ehhandler$?RequestAccessAsync@Radio@Radios@Devices@Windows@NodeRT@@CAXABV?$FunctionCallbackInfo@VValue@v8@@@Nan@@@Z 10018526 f   _nodert_generated.obj
 0001:00017550       __unwindfunclet$??R<lambda_9eef212b7bb2525a1146c82a12593753>@@QBEXV?$task@W4RadioAccessStatus@Radios@Devices@Windows@@@Concurrency@@@Z$2 10018550 f   _nodert_generated.obj
 0001:00017558       __unwindfunclet$??R<lambda_9eef212b7bb2525a1146c82a12593753>@@QBEXV?$task@W4RadioAccessStatus@Radios@Devices@Windows@@@Concurrency@@@Z$6 10018558 f   _nodert_generated.obj
 0001:00017560       __ehhandler$??R<lambda_9eef212b7bb2525a1146c82a12593753>@@QBEXV?$task@W4RadioAccessStatus@Radios@Devices@Windows@@@Concurrency@@@Z 10018560 f   _nodert_generated.obj
 0001:00017580       __unwindfunclet$?GetDeviceSelector@Radio@Radios@Devices@Windows@NodeRT@@CAXABV?$FunctionCallbackInfo@VValue@v8@@@Nan@@@Z$2 10018580 f   _nodert_generated.obj
 0001:00017588       __unwindfunclet$?GetDeviceSelector@Radio@Radios@Devices@Windows@NodeRT@@CAXABV?$FunctionCallbackInfo@VValue@v8@@@Nan@@@Z$3 10018588 f   _nodert_generated.obj
 0001:00017590       __unwindfunclet$?GetDeviceSelector@Radio@Radios@Devices@Windows@NodeRT@@CAXABV?$FunctionCallbackInfo@VValue@v8@@@Nan@@@Z$4 10018590 f   _nodert_generated.obj
 0001:00017598       __ehhandler$?GetDeviceSelector@Radio@Radios@Devices@Windows@NodeRT@@CAXABV?$FunctionCallbackInfo@VValue@v8@@@Nan@@@Z 10018598 f   _nodert_generated.obj
 0001:000175c0       __unwindfunclet$?KindGetter@Radio@Radios@Devices@Windows@NodeRT@@CAXV?$Local@VString@v8@@@v8@@ABV?$PropertyCallbackInfo@VValue@v8@@@Nan@@@Z$2 100185c0 f   _nodert_generated.obj
 0001:000175c8       __ehhandler$?KindGetter@Radio@Radios@Devices@Windows@NodeRT@@CAXV?$Local@VString@v8@@@v8@@ABV?$PropertyCallbackInfo@VValue@v8@@@Nan@@@Z 100185c8 f   _nodert_generated.obj
 0001:000175f0       __unwindfunclet$?NameGetter@Radio@Radios@Devices@Windows@NodeRT@@CAXV?$Local@VString@v8@@@v8@@ABV?$PropertyCallbackInfo@VValue@v8@@@Nan@@@Z$2 100185f0 f   _nodert_generated.obj
 0001:000175f8       __unwindfunclet$?NameGetter@Radio@Radios@Devices@Windows@NodeRT@@CAXV?$Local@VString@v8@@@v8@@ABV?$PropertyCallbackInfo@VValue@v8@@@Nan@@@Z$3 100185f8 f   _nodert_generated.obj
 0001:00017600       __unwindfunclet$?NameGetter@Radio@Radios@Devices@Windows@NodeRT@@CAXV?$Local@VString@v8@@@v8@@ABV?$PropertyCallbackInfo@VValue@v8@@@Nan@@@Z$4 10018600 f   _nodert_generated.obj
 0001:00017608       __ehhandler$?NameGetter@Radio@Radios@Devices@Windows@NodeRT@@CAXV?$Local@VString@v8@@@v8@@ABV?$PropertyCallbackInfo@VValue@v8@@@Nan@@@Z 10018608 f   _nodert_generated.obj
 0001:00017630       __unwindfunclet$?StateGetter@Radio@Radios@Devices@Windows@NodeRT@@CAXV?$Local@VString@v8@@@v8@@ABV?$PropertyCallbackInfo@VValue@v8@@@Nan@@@Z$2 10018630 f   _nodert_generated.obj
 0001:00017638       __ehhandler$?StateGetter@Radio@Radios@Devices@Windows@NodeRT@@CAXV?$Local@VString@v8@@@v8@@ABV?$PropertyCallbackInfo@VValue@v8@@@Nan@@@Z 10018638 f   _nodert_generated.obj
 0001:00017660       __unwindfunclet$?AddListener@Radio@Radios@Devices@Windows@NodeRT@@CAXABV?$FunctionCallbackInfo@VValue@v8@@@Nan@@@Z$2 10018660 f   _nodert_generated.obj
 0001:00017668       __unwindfunclet$?AddListener@Radio@Radios@Devices@Windows@NodeRT@@CAXABV?$FunctionCallbackInfo@VValue@v8@@@Nan@@@Z$3 10018668 f   _nodert_generated.obj
 0001:00017671       __unwindfunclet$?AddListener@Radio@Radios@Devices@Windows@NodeRT@@CAXABV?$FunctionCallbackInfo@VValue@v8@@@Nan@@@Z$5 10018671 f   _nodert_generated.obj
 0001:00017679       __unwindfunclet$?AddListener@Radio@Radios@Devices@Windows@NodeRT@@CAXABV?$FunctionCallbackInfo@VValue@v8@@@Nan@@@Z$6 10018679 f   _nodert_generated.obj
 0001:0001767e       __unwindfunclet$?AddListener@Radio@Radios@Devices@Windows@NodeRT@@CAXABV?$FunctionCallbackInfo@VValue@v8@@@Nan@@@Z$8 1001867e f   _nodert_generated.obj
 0001:00017686       __unwindfunclet$?AddListener@Radio@Radios@Devices@Windows@NodeRT@@CAXABV?$FunctionCallbackInfo@VValue@v8@@@Nan@@@Z$9 10018686 f   _nodert_generated.obj
 0001:00017691       __ehhandler$?AddListener@Radio@Radios@Devices@Windows@NodeRT@@CAXABV?$FunctionCallbackInfo@VValue@v8@@@Nan@@@Z 10018691 f   _nodert_generated.obj
 0001:000176b0       __unwindfunclet$??R<lambda_8abf72d2c54f8bb80c09b205f4cfafdd>@@QBEXP$AAVRadio@Radios@Devices@Windows@@P$AAVObject@Platform@@@Z$0 100186b0 f   _nodert_generated.obj
 0001:000176bb       __unwindfunclet$??R<lambda_8abf72d2c54f8bb80c09b205f4cfafdd>@@QBEXP$AAVRadio@Radios@Devices@Windows@@P$AAVObject@Platform@@@Z$1 100186bb f   _nodert_generated.obj
 0001:000176c6       __ehhandler$??R<lambda_8abf72d2c54f8bb80c09b205f4cfafdd>@@QBEXP$AAVRadio@Radios@Devices@Windows@@P$AAVObject@Platform@@@Z 100186c6 f   _nodert_generated.obj
 0001:000176f0       __unwindfunclet$??R<lambda_ec396201b7e4f2b701f72af9664eb55a>@@QBEXXZ$0 100186f0 f   _nodert_generated.obj
 0001:000176f8       __unwindfunclet$??R<lambda_ec396201b7e4f2b701f72af9664eb55a>@@QBEXXZ$1 100186f8 f   _nodert_generated.obj
 0001:00017700       __ehhandler$??R<lambda_ec396201b7e4f2b701f72af9664eb55a>@@QBEXXZ 10018700 f   _nodert_generated.obj
 0001:00017720       __unwindfunclet$??0<lambda_ec396201b7e4f2b701f72af9664eb55a>@@QAE@ABV?$shared_ptr@V?$Persistent@VObject@v8@@V?$NonCopyablePersistentTraits@VObject@v8@@@2@@Nan@@@std@@ABQ$AAVRadio@Radios@Devices@Windows@@ABQ$AAVObject@Platform@@@Z$0 10018720 f   _nodert_generated.obj
 0001:00017728       __unwindfunclet$??0<lambda_ec396201b7e4f2b701f72af9664eb55a>@@QAE@ABV?$shared_ptr@V?$Persistent@VObject@v8@@V?$NonCopyablePersistentTraits@VObject@v8@@@2@@Nan@@@std@@ABQ$AAVRadio@Radios@Devices@Windows@@ABQ$AAVObject@Platform@@@Z$1 10018728 f   _nodert_generated.obj
 0001:00017736       __ehhandler$??0<lambda_ec396201b7e4f2b701f72af9664eb55a>@@QAE@ABV?$shared_ptr@V?$Persistent@VObject@v8@@V?$NonCopyablePersistentTraits@VObject@v8@@@2@@Nan@@@std@@ABQ$AAVRadio@Radios@Devices@Windows@@ABQ$AAVObject@Platform@@@Z 10018736 f   _nodert_generated.obj
 0001:00017760       __unwindfunclet$?RemoveListener@Radio@Radios@Devices@Windows@NodeRT@@CAXABV?$FunctionCallbackInfo@VValue@v8@@@Nan@@@Z$2 10018760 f   _nodert_generated.obj
 0001:00017768       __unwindfunclet$?RemoveListener@Radio@Radios@Devices@Windows@NodeRT@@CAXABV?$FunctionCallbackInfo@VValue@v8@@@Nan@@@Z$3 10018768 f   _nodert_generated.obj
 0001:00017771       __unwindfunclet$?RemoveListener@Radio@Radios@Devices@Windows@NodeRT@@CAXABV?$FunctionCallbackInfo@VValue@v8@@@Nan@@@Z$4 10018771 f   _nodert_generated.obj
 0001:0001777c       __ehhandler$?RemoveListener@Radio@Radios@Devices@Windows@NodeRT@@CAXABV?$FunctionCallbackInfo@VValue@v8@@@Nan@@@Z 1001877c f   _nodert_generated.obj
 0001:000177a0       __ehhandler$?__abi_Windows_Foundation_?$TypedEventHandler@P$AAVRadio@Radios@Devices@Windows@@P$AAVObject@Platform@@___abi_IDelegate____abi_Invoke@?Q__abi_IDelegate@?$TypedEventHandler@P$AAVRadio@Radios@Devices@Windows@@P$AAVObject@Platform@@@Foundation@Windows@@234@U$AAGJP$AAVRadio@Radios@Devices@4@P$AAVObject@Platform@@@Z 100187a0 f   _nodert_generated.obj
 0001:000177c0       __unwindfunclet$?_Move@?$_Func_impl@V<lambda_ec396201b7e4f2b701f72af9664eb55a>@@V?$allocator@H@std@@X$$V@std@@EAEPAV?$_Func_base@X$$V@2@PAX@Z$1 100187c0 f   _nodert_generated.obj
 0001:000177c0       __unwindfunclet$?__abi_Release@?$AsyncOperationCompletedHandler@P$AAU?$IVectorView@P$AAVRadio@Radios@Devices@Windows@@@Collections@Foundation@Windows@@@Foundation@Windows@@U$AAGKXZ$1 100187c0 f   _nodert_generated.obj
 0001:000177c0       __unwindfunclet$?__abi_Release@?$AsyncOperationCompletedHandler@W4RadioAccessStatus@Radios@Devices@Windows@@@Foundation@Windows@@U$AAGKXZ$1 100187c0 f   _nodert_generated.obj
 0001:000177c0       __unwindfunclet$?__abi_Release@?$AsyncOperationCompletedHandler@P$AAVRadio@Radios@Devices@Windows@@@Foundation@Windows@@U$AAGKXZ$1 100187c0 f   _nodert_generated.obj
 0001:000177c0       __unwindfunclet$?_Delete_this@?$_Func_impl@V<lambda_ec396201b7e4f2b701f72af9664eb55a>@@V?$allocator@H@std@@X$$V@std@@EAEX_N@Z$1 100187c0 f   _nodert_generated.obj
 0001:000177c0       __unwindfunclet$?__abi_Release@?$TypedEventHandler@P$AAVRadio@Radios@Devices@Windows@@P$AAVObject@Platform@@@Foundation@Windows@@U$AAGKXZ$1 100187c0 f   _nodert_generated.obj
 0001:000177c7       __ehhandler$?__abi_Release@?$AsyncOperationCompletedHandler@P$AAU?$IVectorView@P$AAVRadio@Radios@Devices@Windows@@@Collections@Foundation@Windows@@@Foundation@Windows@@U$AAGKXZ 100187c7 f   _nodert_generated.obj
 0001:000177c7       __ehhandler$?_Delete_this@?$_Func_impl@V<lambda_ec396201b7e4f2b701f72af9664eb55a>@@V?$allocator@H@std@@X$$V@std@@EAEX_N@Z 100187c7 f   _nodert_generated.obj
 0001:000177c7       __ehhandler$?__abi_Release@?$TypedEventHandler@P$AAVRadio@Radios@Devices@Windows@@P$AAVObject@Platform@@@Foundation@Windows@@U$AAGKXZ 100187c7 f   _nodert_generated.obj
 0001:000177c7       __ehhandler$?__abi_Release@?$AsyncOperationCompletedHandler@W4RadioAccessStatus@Radios@Devices@Windows@@@Foundation@Windows@@U$AAGKXZ 100187c7 f   _nodert_generated.obj
 0001:000177c7       __ehhandler$?_Move@?$_Func_impl@V<lambda_ec396201b7e4f2b701f72af9664eb55a>@@V?$allocator@H@std@@X$$V@std@@EAEPAV?$_Func_base@X$$V@2@PAX@Z 100187c7 f   _nodert_generated.obj
 0001:000177c7       __ehhandler$?__abi_Release@?$AsyncOperationCompletedHandler@P$AAVRadio@Radios@Devices@Windows@@@Foundation@Windows@@U$AAGKXZ 100187c7 f   _nodert_generated.obj
 0001:000177f0       __unwindfunclet$?FromIdAsync@Radio@Radios@Devices@Windows@@SAP$AAU?$IAsyncOperation@P$AAVRadio@Radios@Devices@Windows@@@Foundation@4@P$AAVString@Platform@@@Z$0 100187f0 f   _nodert_generated.obj
 0001:000177f0       __unwindfunclet$?RequestAccessAsync@Radio@Radios@Devices@Windows@@SAP$AAU?$IAsyncOperation@W4RadioAccessStatus@Radios@Devices@Windows@@@Foundation@4@XZ$0 100187f0 f   _nodert_generated.obj
 0001:000177f0       __unwindfunclet$?CreateInt64@PropertyValue@Foundation@Windows@@SAP$AAVObject@Platform@@_J@Z$0 100187f0 f   _nodert_generated.obj
 0001:000177f0       __unwindfunclet$?GetRadiosAsync@Radio@Radios@Devices@Windows@@SAP$AAU?$IAsyncOperation@P$AAU?$IVectorView@P$AAVRadio@Radios@Devices@Windows@@@Collections@Foundation@Windows@@@Foundation@4@XZ$0 100187f0 f   _nodert_generated.obj
 0001:000177fb       __unwindfunclet$?GetRadiosAsync@Radio@Radios@Devices@Windows@@SAP$AAU?$IAsyncOperation@P$AAU?$IVectorView@P$AAVRadio@Radios@Devices@Windows@@@Collections@Foundation@Windows@@@Foundation@4@XZ$1 100187fb f   _nodert_generated.obj
 0001:000177fb       __unwindfunclet$?FromIdAsync@Radio@Radios@Devices@Windows@@SAP$AAU?$IAsyncOperation@P$AAVRadio@Radios@Devices@Windows@@@Foundation@4@P$AAVString@Platform@@@Z$1 100187fb f   _nodert_generated.obj
 0001:000177fb       __unwindfunclet$?RequestAccessAsync@Radio@Radios@Devices@Windows@@SAP$AAU?$IAsyncOperation@W4RadioAccessStatus@Radios@Devices@Windows@@@Foundation@4@XZ$1 100187fb f   _nodert_generated.obj
 0001:000177fb       __unwindfunclet$?CreateInt64@PropertyValue@Foundation@Windows@@SAP$AAVObject@Platform@@_J@Z$1 100187fb f   _nodert_generated.obj
 0001:00017806       __unwindfunclet$?RequestAccessAsync@Radio@Radios@Devices@Windows@@SAP$AAU?$IAsyncOperation@W4RadioAccessStatus@Radios@Devices@Windows@@@Foundation@4@XZ$2 10018806 f   _nodert_generated.obj
 0001:00017806       __unwindfunclet$?GetRadiosAsync@Radio@Radios@Devices@Windows@@SAP$AAU?$IAsyncOperation@P$AAU?$IVectorView@P$AAVRadio@Radios@Devices@Windows@@@Collections@Foundation@Windows@@@Foundation@4@XZ$2 10018806 f   _nodert_generated.obj
 0001:00017806       __unwindfunclet$?FromIdAsync@Radio@Radios@Devices@Windows@@SAP$AAU?$IAsyncOperation@P$AAVRadio@Radios@Devices@Windows@@@Foundation@4@P$AAVString@Platform@@@Z$2 10018806 f   _nodert_generated.obj
 0001:00017806       __unwindfunclet$?CreateInt64@PropertyValue@Foundation@Windows@@SAP$AAVObject@Platform@@_J@Z$2 10018806 f   _nodert_generated.obj
 0001:00017811       __ehhandler$?GetRadiosAsync@Radio@Radios@Devices@Windows@@SAP$AAU?$IAsyncOperation@P$AAU?$IVectorView@P$AAVRadio@Radios@Devices@Windows@@@Collections@Foundation@Windows@@@Foundation@4@XZ 10018811 f   _nodert_generated.obj
 0001:00017811       __ehhandler$?RequestAccessAsync@Radio@Radios@Devices@Windows@@SAP$AAU?$IAsyncOperation@W4RadioAccessStatus@Radios@Devices@Windows@@@Foundation@4@XZ 10018811 f   _nodert_generated.obj
 0001:00017811       __ehhandler$?FromIdAsync@Radio@Radios@Devices@Windows@@SAP$AAU?$IAsyncOperation@P$AAVRadio@Radios@Devices@Windows@@@Foundation@4@P$AAVString@Platform@@@Z 10018811 f   _nodert_generated.obj
 0001:00017811       __ehhandler$?CreateInt64@PropertyValue@Foundation@Windows@@SAP$AAVObject@Platform@@_J@Z 10018811 f   _nodert_generated.obj
 0001:00017830       __unwindfunclet$?GetDeviceSelector@Radio@Radios@Devices@Windows@@SAP$AAVString@Platform@@XZ$0 10018830 f   _nodert_generated.obj
 0001:0001783b       __unwindfunclet$?GetDeviceSelector@Radio@Radios@Devices@Windows@@SAP$AAVString@Platform@@XZ$1 1001883b f   _nodert_generated.obj
 0001:00017843       __unwindfunclet$?GetDeviceSelector@Radio@Radios@Devices@Windows@@SAP$AAVString@Platform@@XZ$2 10018843 f   _nodert_generated.obj
 0001:0001784b       __ehhandler$?GetDeviceSelector@Radio@Radios@Devices@Windows@@SAP$AAVString@Platform@@XZ 1001884b f   _nodert_generated.obj
 0001:00017870       __unwindfunclet$?get@?$task@P$AAU?$IVectorView@P$AAVRadio@Radios@Devices@Windows@@@Collections@Foundation@Windows@@@Concurrency@@QBEP$AAU?$IVectorView@P$AAVRadio@Radios@Devices@Windows@@@Collections@Foundation@Windows@@XZ$0 10018870 f   _nodert_generated.obj
 0001:00017870       __unwindfunclet$?get@?$task@P$AAVRadio@Radios@Devices@Windows@@@Concurrency@@QBEP$AAVRadio@Radios@Devices@Windows@@XZ$0 10018870 f   _nodert_generated.obj
 0001:00017878       __unwindfunclet$?get@?$task@P$AAVRadio@Radios@Devices@Windows@@@Concurrency@@QBEP$AAVRadio@Radios@Devices@Windows@@XZ$4 10018878 f   _nodert_generated.obj
 0001:00017878       __unwindfunclet$?get@?$task@P$AAU?$IVectorView@P$AAVRadio@Radios@Devices@Windows@@@Collections@Foundation@Windows@@@Concurrency@@QBEP$AAU?$IVectorView@P$AAVRadio@Radios@Devices@Windows@@@Collections@Foundation@Windows@@XZ$4 10018878 f   _nodert_generated.obj
 0001:00017883       __unwindfunclet$?get@?$task@P$AAVRadio@Radios@Devices@Windows@@@Concurrency@@QBEP$AAVRadio@Radios@Devices@Windows@@XZ$3 10018883 f   _nodert_generated.obj
 0001:00017883       __unwindfunclet$?get@?$task@P$AAU?$IVectorView@P$AAVRadio@Radios@Devices@Windows@@@Collections@Foundation@Windows@@@Concurrency@@QBEP$AAU?$IVectorView@P$AAVRadio@Radios@Devices@Windows@@@Collections@Foundation@Windows@@XZ$3 10018883 f   _nodert_generated.obj
 0001:0001788e       __unwindfunclet$?get@?$task@P$AAVRadio@Radios@Devices@Windows@@@Concurrency@@QBEP$AAVRadio@Radios@Devices@Windows@@XZ$1 1001888e f   _nodert_generated.obj
 0001:0001788e       __unwindfunclet$?get@?$task@P$AAU?$IVectorView@P$AAVRadio@Radios@Devices@Windows@@@Collections@Foundation@Windows@@@Concurrency@@QBEP$AAU?$IVectorView@P$AAVRadio@Radios@Devices@Windows@@@Collections@Foundation@Windows@@XZ$1 1001888e f   _nodert_generated.obj
 0001:00017899       __ehhandler$?get@?$task@P$AAU?$IVectorView@P$AAVRadio@Radios@Devices@Windows@@@Collections@Foundation@Windows@@@Concurrency@@QBEP$AAU?$IVectorView@P$AAVRadio@Radios@Devices@Windows@@@Collections@Foundation@Windows@@XZ 10018899 f   _nodert_generated.obj
 0001:00017899       __ehhandler$?get@?$task@P$AAVRadio@Radios@Devices@Windows@@@Concurrency@@QBEP$AAVRadio@Radios@Devices@Windows@@XZ 10018899 f   _nodert_generated.obj
 0001:000178c0       __unwindfunclet$?CreateVectorViewWrapper@?$VectorViewWrapper@P$AAVRadio@Radios@Devices@Windows@@@Collections@NodeRT@@SA?AV?$Local@VValue@v8@@@v8@@P$AAU?$IVectorView@P$AAVRadio@Radios@Devices@Windows@@@2Foundation@Windows@@ABV?$function@$$A6A?AV?$Local@VValue@v8@@@v8@@P$AAVRadio@Radios@Devices@Windows@@@Z@std@@ABV?$function@$$A6A_NV?$Local@VValue@v8@@@v8@@@Z@std@@ABV?$function@$$A6AP$AAVRadio@Radios@Devices@Windows@@V?$Local@VValue@v8@@@v8@@@Z@std@@@Z$0 100188c0 f   _nodert_generated.obj
 0001:000178c8       __unwindfunclet$?CreateVectorViewWrapper@?$VectorViewWrapper@P$AAVRadio@Radios@Devices@Windows@@@Collections@NodeRT@@SA?AV?$Local@VValue@v8@@@v8@@P$AAU?$IVectorView@P$AAVRadio@Radios@Devices@Windows@@@2Foundation@Windows@@ABV?$function@$$A6A?AV?$Local@VValue@v8@@@v8@@P$AAVRadio@Radios@Devices@Windows@@@Z@std@@ABV?$function@$$A6A_NV?$Local@VValue@v8@@@v8@@@Z@std@@ABV?$function@$$A6AP$AAVRadio@Radios@Devices@Windows@@V?$Local@VValue@v8@@@v8@@@Z@std@@@Z$1 100188c8 f   _nodert_generated.obj
 0001:000178da       __unwindfunclet$?CreateVectorViewWrapper@?$VectorViewWrapper@P$AAVRadio@Radios@Devices@Windows@@@Collections@NodeRT@@SA?AV?$Local@VValue@v8@@@v8@@P$AAU?$IVectorView@P$AAVRadio@Radios@Devices@Windows@@@2Foundation@Windows@@ABV?$function@$$A6A?AV?$Local@VValue@v8@@@v8@@P$AAVRadio@Radios@Devices@Windows@@@Z@std@@ABV?$function@$$A6A_NV?$Local@VValue@v8@@@v8@@@Z@std@@ABV?$function@$$A6AP$AAVRadio@Radios@Devices@Windows@@V?$Local@VValue@v8@@@v8@@@Z@std@@@Z$2 100188da f   _nodert_generated.obj
 0001:000178f3       __unwindfunclet$?CreateVectorViewWrapper@?$VectorViewWrapper@P$AAVRadio@Radios@Devices@Windows@@@Collections@NodeRT@@SA?AV?$Local@VValue@v8@@@v8@@P$AAU?$IVectorView@P$AAVRadio@Radios@Devices@Windows@@@2Foundation@Windows@@ABV?$function@$$A6A?AV?$Local@VValue@v8@@@v8@@P$AAVRadio@Radios@Devices@Windows@@@Z@std@@ABV?$function@$$A6A_NV?$Local@VValue@v8@@@v8@@@Z@std@@ABV?$function@$$A6AP$AAVRadio@Radios@Devices@Windows@@V?$Local@VValue@v8@@@v8@@@Z@std@@@Z$3 100188f3 f   _nodert_generated.obj
 0001:0001790f       __ehhandler$?CreateVectorViewWrapper@?$VectorViewWrapper@P$AAVRadio@Radios@Devices@Windows@@@Collections@NodeRT@@SA?AV?$Local@VValue@v8@@@v8@@P$AAU?$IVectorView@P$AAVRadio@Radios@Devices@Windows@@@2Foundation@Windows@@ABV?$function@$$A6A?AV?$Local@VValue@v8@@@v8@@P$AAVRadio@Radios@Devices@Windows@@@Z@std@@ABV?$function@$$A6A_NV?$Local@VValue@v8@@@v8@@@Z@std@@ABV?$function@$$A6AP$AAVRadio@Radios@Devices@Windows@@V?$Local@VValue@v8@@@v8@@@Z@std@@@Z 1001890f f   _nodert_generated.obj
 0001:00017940       __unwindfunclet$?_CreateImpl@?$task@P$AAVRadio@Radios@Devices@Windows@@@Concurrency@@QAEXPAV_CancellationTokenState@details@2@Uscheduler_ptr@2@@Z$0 10018940 f   _nodert_generated.obj
 0001:00017940       __unwindfunclet$?_CreateImpl@?$task@W4RadioAccessStatus@Radios@Devices@Windows@@@Concurrency@@QAEXPAV_CancellationTokenState@details@2@Uscheduler_ptr@2@@Z$0 10018940 f   _nodert_generated.obj
 0001:00017940       __unwindfunclet$?_CreateImpl@?$task@E@Concurrency@@QAEXPAV_CancellationTokenState@details@2@Uscheduler_ptr@2@@Z$0 10018940 f   _nodert_generated.obj
 0001:00017940       __unwindfunclet$?_CreateImpl@?$task@P$AAU?$IVectorView@P$AAVRadio@Radios@Devices@Windows@@@Collections@Foundation@Windows@@@Concurrency@@QAEXPAV_CancellationTokenState@details@2@Uscheduler_ptr@2@@Z$0 10018940 f   _nodert_generated.obj
 0001:00017948       __ehhandler$?_CreateImpl@?$task@W4RadioAccessStatus@Radios@Devices@Windows@@@Concurrency@@QAEXPAV_CancellationTokenState@details@2@Uscheduler_ptr@2@@Z 10018948 f   _nodert_generated.obj
 0001:00017948       __ehhandler$?_CreateImpl@?$task@P$AAU?$IVectorView@P$AAVRadio@Radios@Devices@Windows@@@Collections@Foundation@Windows@@@Concurrency@@QAEXPAV_CancellationTokenState@details@2@Uscheduler_ptr@2@@Z 10018948 f   _nodert_generated.obj
 0001:00017948       __ehhandler$?_CreateImpl@?$task@E@Concurrency@@QAEXPAV_CancellationTokenState@details@2@Uscheduler_ptr@2@@Z 10018948 f   _nodert_generated.obj
 0001:00017948       __ehhandler$?_CreateImpl@?$task@P$AAVRadio@Radios@Devices@Windows@@@Concurrency@@QAEXPAV_CancellationTokenState@details@2@Uscheduler_ptr@2@@Z 10018948 f   _nodert_generated.obj
 0001:00017970       __unwindfunclet$?_CancelAndRunContinuations@?$_Task_impl@P$AAU?$IVectorView@P$AAVRadio@Radios@Devices@Windows@@@Collections@Foundation@Windows@@@details@Concurrency@@UAE_N_N00ABV?$shared_ptr@U_ExceptionHolder@details@Concurrency@@@std@@@Z$0 10018970 f   _nodert_generated.obj
 0001:00017970       __unwindfunclet$?_CancelAndRunContinuations@?$_Task_impl@W4RadioAccessStatus@Radios@Devices@Windows@@@details@Concurrency@@UAE_N_N00ABV?$shared_ptr@U_ExceptionHolder@details@Concurrency@@@std@@@Z$0 10018970 f   _nodert_generated.obj
 0001:00017970       __unwindfunclet$?_CancelAndRunContinuations@?$_Task_impl@P$AAVRadio@Radios@Devices@Windows@@@details@Concurrency@@UAE_N_N00ABV?$shared_ptr@U_ExceptionHolder@details@Concurrency@@@std@@@Z$0 10018970 f   _nodert_generated.obj
 0001:00017970       __unwindfunclet$?_CancelAndRunContinuations@?$_Task_impl@E@details@Concurrency@@UAE_N_N00ABV?$shared_ptr@U_ExceptionHolder@details@Concurrency@@@std@@@Z$0 10018970 f   _nodert_generated.obj
 0001:00017978       __unwindfunclet$?_CancelAndRunContinuations@?$_Task_impl@W4RadioAccessStatus@Radios@Devices@Windows@@@details@Concurrency@@UAE_N_N00ABV?$shared_ptr@U_ExceptionHolder@details@Concurrency@@@std@@@Z$1 10018978 f   _nodert_generated.obj
 0001:00017978       __unwindfunclet$?_CancelAndRunContinuations@?$_Task_impl@P$AAVRadio@Radios@Devices@Windows@@@details@Concurrency@@UAE_N_N00ABV?$shared_ptr@U_ExceptionHolder@details@Concurrency@@@std@@@Z$1 10018978 f   _nodert_generated.obj
 0001:00017978       __unwindfunclet$?_CancelAndRunContinuations@?$_Task_impl@E@details@Concurrency@@UAE_N_N00ABV?$shared_ptr@U_ExceptionHolder@details@Concurrency@@@std@@@Z$1 10018978 f   _nodert_generated.obj
 0001:00017978       __unwindfunclet$?_CancelAndRunContinuations@?$_Task_impl@P$AAU?$IVectorView@P$AAVRadio@Radios@Devices@Windows@@@Collections@Foundation@Windows@@@details@Concurrency@@UAE_N_N00ABV?$shared_ptr@U_ExceptionHolder@details@Concurrency@@@std@@@Z$1 10018978 f   _nodert_generated.obj
 0001:00017980       __ehhandler$?_CancelAndRunContinuations@?$_Task_impl@P$AAVRadio@Radios@Devices@Windows@@@details@Concurrency@@UAE_N_N00ABV?$shared_ptr@U_ExceptionHolder@details@Concurrency@@@std@@@Z 10018980 f   _nodert_generated.obj
 0001:00017980       __ehhandler$?_CancelAndRunContinuations@?$_Task_impl@P$AAU?$IVectorView@P$AAVRadio@Radios@Devices@Windows@@@Collections@Foundation@Windows@@@details@Concurrency@@UAE_N_N00ABV?$shared_ptr@U_ExceptionHolder@details@Concurrency@@@std@@@Z 10018980 f   _nodert_generated.obj
 0001:00017980       __ehhandler$?_CancelAndRunContinuations@?$_Task_impl@E@details@Concurrency@@UAE_N_N00ABV?$shared_ptr@U_ExceptionHolder@details@Concurrency@@@std@@@Z 10018980 f   _nodert_generated.obj
 0001:00017980       __ehhandler$?_CancelAndRunContinuations@?$_Task_impl@W4RadioAccessStatus@Radios@Devices@Windows@@@details@Concurrency@@UAE_N_N00ABV?$shared_ptr@U_ExceptionHolder@details@Concurrency@@@std@@@Z 10018980 f   _nodert_generated.obj
 0001:000179b0       __ehhandler$??1?$_Task_impl@W4RadioAccessStatus@Radios@Devices@Windows@@@details@Concurrency@@UAE@XZ 100189b0 f   _nodert_generated.obj
 0001:000179b0       __ehhandler$??1?$VectorViewWrapper@P$AAVRadio@Radios@Devices@Windows@@@Collections@NodeRT@@UAE@XZ 100189b0 f   _nodert_generated.obj
 0001:000179b0       __ehhandler$??1?$_Task_impl@P$AAVRadio@Radios@Devices@Windows@@@details@Concurrency@@UAE@XZ 100189b0 f   _nodert_generated.obj
 0001:000179b0       __ehhandler$??1?$_Task_impl@P$AAU?$IVectorView@P$AAVRadio@Radios@Devices@Windows@@@Collections@Foundation@Windows@@@details@Concurrency@@UAE@XZ 100189b0 f   _nodert_generated.obj
 0001:000179b0       __ehhandler$??_G?$__abi_FunctorCapture@V<lambda_8abf72d2c54f8bb80c09b205f4cfafdd>@@XP$AAVRadio@Radios@Devices@Windows@@P$AAVObject@Platform@@@Details@Platform@@UAEPAXI@Z 100189b0 f   _nodert_generated.obj
 0001:000179b0       __ehhandler$??_G?$__abi_FunctorCapture@V<lambda_85b3af6e5f21e2dfbb949cdd8ca000ff>@@XP$AAU?$IAsyncOperation@P$AAU?$IVectorView@P$AAVRadio@Radios@Devices@Windows@@@Collections@Foundation@Windows@@@Foundation@Windows@@W4AsyncStatus@34@@Details@Platform@@UAEPAXI@Z 100189b0 f   _nodert_generated.obj
 0001:000179b0       __ehhandler$??_G?$__abi_FunctorCapture@V<lambda_1d4db423df950a9db6d5162d107d760e>@@XP$AAU?$IAsyncOperation@P$AAVRadio@Radios@Devices@Windows@@@Foundation@Windows@@W4AsyncStatus@34@@Details@Platform@@UAEPAXI@Z 100189b0 f   _nodert_generated.obj
 0001:000179b0       __ehhandler$??_G?$__abi_FunctorCapture@V<lambda_da728ca663148a39a15f0482357f5ab9>@@XP$AAU?$IAsyncOperation@W4RadioAccessStatus@Radios@Devices@Windows@@@Foundation@Windows@@W4AsyncStatus@34@@Details@Platform@@UAEPAXI@Z 100189b0 f   _nodert_generated.obj
 0001:000179b0       __ehhandler$??1?$_Task_impl@E@details@Concurrency@@UAE@XZ 100189b0 f   _nodert_generated.obj
 0001:000179d0       __unwindfunclet$?_Exec@?$_CancellationTokenCallback@V<lambda_3b8ab8d2629adf61a42ee3fe177a046b>@@@details@Concurrency@@MAEXXZ$0 100189d0 f   _nodert_generated.obj
 0001:000179d8       __ehhandler$?_Exec@?$_CancellationTokenCallback@V<lambda_3b8ab8d2629adf61a42ee3fe177a046b>@@@details@Concurrency@@MAEXXZ 100189d8 f   _nodert_generated.obj
 0001:00017a00       __unwindfunclet$?_Delete_this@?$_Func_impl@V<lambda_c3befff5426f7ddaa4e03d53f00d3a42>@@V?$allocator@H@std@@XV?$function@$$A6AXHPAV?$Local@VValue@v8@@@v8@@@Z@3@@std@@EAEX_N@Z$1 10018a00 f   _nodert_generated.obj
 0001:00017a00       __unwindfunclet$?_Delete_this@?$_Func_impl@V<lambda_0532bc16f263f6a2ba7cd1d0d3d2a0cd>@@V?$allocator@H@std@@XV?$function@$$A6AXHPAV?$Local@VValue@v8@@@v8@@@Z@3@@std@@EAEX_N@Z$1 10018a00 f   _nodert_generated.obj
 0001:00017a00       __unwindfunclet$?_Delete_this@?$_Func_impl@V<lambda_55912aef2455062065036d52cc631bbd>@@V?$allocator@H@std@@XV?$function@$$A6AXHPAV?$Local@VValue@v8@@@v8@@@Z@3@@std@@EAEX_N@Z$1 10018a00 f   _nodert_generated.obj
 0001:00017a00       __unwindfunclet$?_Delete_this@?$_Func_impl@V<lambda_f08ec446ca8b33299a4e48e3172e9b8c>@@V?$allocator@H@std@@X$$V@std@@EAEX_N@Z$1 10018a00 f   _nodert_generated.obj
 0001:00017a00       __unwindfunclet$?_Delete_this@?$_Func_impl@V<lambda_0fb43142ddbb33ec4e8b38dc9cda485a>@@V?$allocator@H@std@@XV?$function@$$A6AXHPAV?$Local@VValue@v8@@@v8@@@Z@3@@std@@EAEX_N@Z$1 10018a00 f   _nodert_generated.obj
 0001:00017a00       __unwindfunclet$?_Delete_this@?$_Func_impl@V<lambda_d9306928c1bd470a6e42b27630d148ed>@@V?$allocator@H@std@@X$$V@std@@EAEX_N@Z$1 10018a00 f   _nodert_generated.obj
 0001:00017a00       __unwindfunclet$?_Delete_this@?$_Func_impl@V<lambda_a114a708d63a441febc5f755bac609dc>@@V?$allocator@H@std@@XV?$function@$$A6AXHPAV?$Local@VValue@v8@@@v8@@@Z@3@@std@@EAEX_N@Z$1 10018a00 f   _nodert_generated.obj
 0001:00017a00       __unwindfunclet$?_Delete_this@?$_Func_impl@V<lambda_0ba1884422591f985dd5dd2788d28634>@@V?$allocator@H@std@@XV?$function@$$A6AXHPAV?$Local@VValue@v8@@@v8@@@Z@3@@std@@EAEX_N@Z$1 10018a00 f   _nodert_generated.obj
 0001:00017a00       __unwindfunclet$??1?$unique_ptr@V_PPLTaskChore@_DefaultPPLTaskScheduler@details@Concurrency@@U?$default_delete@V_PPLTaskChore@_DefaultPPLTaskScheduler@details@Concurrency@@@std@@@std@@QAE@XZ$1 10018a00 f   _nodert_generated.obj
 0001:00017a00       __unwindfunclet$?_Delete_this@?$_Func_impl@V<lambda_35b15a041fdff25694358386f486c371>@@V?$allocator@H@std@@X$$V@std@@EAEX_N@Z$1 10018a00 f   _nodert_generated.obj
 0001:00017a07       __ehhandler$?_Delete_this@?$_Func_impl@V<lambda_55912aef2455062065036d52cc631bbd>@@V?$allocator@H@std@@XV?$function@$$A6AXHPAV?$Local@VValue@v8@@@v8@@@Z@3@@std@@EAEX_N@Z 10018a07 f   _nodert_generated.obj
 0001:00017a07       __ehhandler$??1?$unique_ptr@V_PPLTaskChore@_DefaultPPLTaskScheduler@details@Concurrency@@U?$default_delete@V_PPLTaskChore@_DefaultPPLTaskScheduler@details@Concurrency@@@std@@@std@@QAE@XZ 10018a07 f   _nodert_generated.obj
 0001:00017a07       __ehhandler$?_Delete_this@?$_Func_impl@V<lambda_0532bc16f263f6a2ba7cd1d0d3d2a0cd>@@V?$allocator@H@std@@XV?$function@$$A6AXHPAV?$Local@VValue@v8@@@v8@@@Z@3@@std@@EAEX_N@Z 10018a07 f   _nodert_generated.obj
 0001:00017a07       __ehhandler$?_Delete_this@?$_Func_impl@V<lambda_0fb43142ddbb33ec4e8b38dc9cda485a>@@V?$allocator@H@std@@XV?$function@$$A6AXHPAV?$Local@VValue@v8@@@v8@@@Z@3@@std@@EAEX_N@Z 10018a07 f   _nodert_generated.obj
 0001:00017a07       __ehhandler$?_Delete_this@?$_Func_impl@V<lambda_d9306928c1bd470a6e42b27630d148ed>@@V?$allocator@H@std@@X$$V@std@@EAEX_N@Z 10018a07 f   _nodert_generated.obj
 0001:00017a07       __ehhandler$?_Delete_this@?$_Func_impl@V<lambda_a114a708d63a441febc5f755bac609dc>@@V?$allocator@H@std@@XV?$function@$$A6AXHPAV?$Local@VValue@v8@@@v8@@@Z@3@@std@@EAEX_N@Z 10018a07 f   _nodert_generated.obj
 0001:00017a07       __ehhandler$?_Delete_this@?$_Func_impl@V<lambda_f08ec446ca8b33299a4e48e3172e9b8c>@@V?$allocator@H@std@@X$$V@std@@EAEX_N@Z 10018a07 f   _nodert_generated.obj
 0001:00017a07       __ehhandler$?_Delete_this@?$_Func_impl@V<lambda_0ba1884422591f985dd5dd2788d28634>@@V?$allocator@H@std@@XV?$function@$$A6AXHPAV?$Local@VValue@v8@@@v8@@@Z@3@@std@@EAEX_N@Z 10018a07 f   _nodert_generated.obj
 0001:00017a07       __ehhandler$?_Delete_this@?$_Func_impl@V<lambda_35b15a041fdff25694358386f486c371>@@V?$allocator@H@std@@X$$V@std@@EAEX_N@Z 10018a07 f   _nodert_generated.obj
 0001:00017a07       __ehhandler$?_Delete_this@?$_Func_impl@V<lambda_c3befff5426f7ddaa4e03d53f00d3a42>@@V?$allocator@H@std@@XV?$function@$$A6AXHPAV?$Local@VValue@v8@@@v8@@@Z@3@@std@@EAEX_N@Z 10018a07 f   _nodert_generated.obj
 0001:00017a30       __unwindfunclet$??0?$VectorViewWrapper@P$AAVRadio@Radios@Devices@Windows@@@Collections@NodeRT@@AAE@P$AAU?$IVectorView@P$AAVRadio@Radios@Devices@Windows@@@1Foundation@Windows@@ABV?$function@$$A6A?AV?$Local@VValue@v8@@@v8@@P$AAVRadio@Radios@Devices@Windows@@@Z@std@@ABV?$function@$$A6A_NV?$Local@VValue@v8@@@v8@@@Z@7@ABV?$function@$$A6AP$AAVRadio@Radios@Devices@Windows@@V?$Local@VValue@v8@@@v8@@@Z@7@@Z$0 10018a30 f   _nodert_generated.obj
 0001:00017a38       __unwindfunclet$??0?$VectorViewWrapper@P$AAVRadio@Radios@Devices@Windows@@@Collections@NodeRT@@AAE@P$AAU?$IVectorView@P$AAVRadio@Radios@Devices@Windows@@@1Foundation@Windows@@ABV?$function@$$A6A?AV?$Local@VValue@v8@@@v8@@P$AAVRadio@Radios@Devices@Windows@@@Z@std@@ABV?$function@$$A6A_NV?$Local@VValue@v8@@@v8@@@Z@7@ABV?$function@$$A6AP$AAVRadio@Radios@Devices@Windows@@V?$Local@VValue@v8@@@v8@@@Z@7@@Z$1 10018a38 f   _nodert_generated.obj
 0001:00017a46       __unwindfunclet$??0?$VectorViewWrapper@P$AAVRadio@Radios@Devices@Windows@@@Collections@NodeRT@@AAE@P$AAU?$IVectorView@P$AAVRadio@Radios@Devices@Windows@@@1Foundation@Windows@@ABV?$function@$$A6A?AV?$Local@VValue@v8@@@v8@@P$AAVRadio@Radios@Devices@Windows@@@Z@std@@ABV?$function@$$A6A_NV?$Local@VValue@v8@@@v8@@@Z@7@ABV?$function@$$A6AP$AAVRadio@Radios@Devices@Windows@@V?$Local@VValue@v8@@@v8@@@Z@7@@Z$5 10018a46 f   _nodert_generated.obj
 0001:00017a4e       __unwindfunclet$??0?$VectorViewWrapper@P$AAVRadio@Radios@Devices@Windows@@@Collections@NodeRT@@AAE@P$AAU?$IVectorView@P$AAVRadio@Radios@Devices@Windows@@@1Foundation@Windows@@ABV?$function@$$A6A?AV?$Local@VValue@v8@@@v8@@P$AAVRadio@Radios@Devices@Windows@@@Z@std@@ABV?$function@$$A6A_NV?$Local@VValue@v8@@@v8@@@Z@7@ABV?$function@$$A6AP$AAVRadio@Radios@Devices@Windows@@V?$Local@VValue@v8@@@v8@@@Z@7@@Z$2 10018a4e f   _nodert_generated.obj
 0001:00017a59       __unwindfunclet$??0?$VectorViewWrapper@P$AAVRadio@Radios@Devices@Windows@@@Collections@NodeRT@@AAE@P$AAU?$IVectorView@P$AAVRadio@Radios@Devices@Windows@@@1Foundation@Windows@@ABV?$function@$$A6A?AV?$Local@VValue@v8@@@v8@@P$AAVRadio@Radios@Devices@Windows@@@Z@std@@ABV?$function@$$A6A_NV?$Local@VValue@v8@@@v8@@@Z@7@ABV?$function@$$A6AP$AAVRadio@Radios@Devices@Windows@@V?$Local@VValue@v8@@@v8@@@Z@7@@Z$7 10018a59 f   _nodert_generated.obj
 0001:00017a61       __unwindfunclet$??0?$VectorViewWrapper@P$AAVRadio@Radios@Devices@Windows@@@Collections@NodeRT@@AAE@P$AAU?$IVectorView@P$AAVRadio@Radios@Devices@Windows@@@1Foundation@Windows@@ABV?$function@$$A6A?AV?$Local@VValue@v8@@@v8@@P$AAVRadio@Radios@Devices@Windows@@@Z@std@@ABV?$function@$$A6A_NV?$Local@VValue@v8@@@v8@@@Z@7@ABV?$function@$$A6AP$AAVRadio@Radios@Devices@Windows@@V?$Local@VValue@v8@@@v8@@@Z@7@@Z$3 10018a61 f   _nodert_generated.obj
 0001:00017a6c       __unwindfunclet$??0?$VectorViewWrapper@P$AAVRadio@Radios@Devices@Windows@@@Collections@NodeRT@@AAE@P$AAU?$IVectorView@P$AAVRadio@Radios@Devices@Windows@@@1Foundation@Windows@@ABV?$function@$$A6A?AV?$Local@VValue@v8@@@v8@@P$AAVRadio@Radios@Devices@Windows@@@Z@std@@ABV?$function@$$A6A_NV?$Local@VValue@v8@@@v8@@@Z@7@ABV?$function@$$A6AP$AAVRadio@Radios@Devices@Windows@@V?$Local@VValue@v8@@@v8@@@Z@7@@Z$8 10018a6c f   _nodert_generated.obj
 0001:00017a74       __ehhandler$??0?$VectorViewWrapper@P$AAVRadio@Radios@Devices@Windows@@@Collections@NodeRT@@AAE@P$AAU?$IVectorView@P$AAVRadio@Radios@Devices@Windows@@@1Foundation@Windows@@ABV?$function@$$A6A?AV?$Local@VValue@v8@@@v8@@P$AAVRadio@Radios@Devices@Windows@@@Z@std@@ABV?$function@$$A6A_NV?$Local@VValue@v8@@@v8@@@Z@7@ABV?$function@$$A6AP$AAVRadio@Radios@Devices@Windows@@V?$Local@VValue@v8@@@v8@@@Z@7@@Z 10018a74 f   _nodert_generated.obj
 0001:00017a90       __unwindfunclet$?_Make@?$_Task_ptr@E@details@Concurrency@@SA?AV?$shared_ptr@U?$_Task_impl@E@details@Concurrency@@@std@@PAV_CancellationTokenState@23@Uscheduler_ptr@3@@Z$0 10018a90 f   _nodert_generated.obj
 0001:00017a90       __unwindfunclet$??R<lambda_0ca07c6226f46e76875b5e248892ce5b>@@QBEEV?$task@W4RadioAccessStatus@Radios@Devices@Windows@@@Concurrency@@@Z$0 10018a90 f   _nodert_generated.obj
 0001:00017a90       __unwindfunclet$??R<lambda_b790627109c9d7e4b89a786d55a0c462>@@QBEEV?$task@P$AAU?$IVectorView@P$AAVRadio@Radios@Devices@Windows@@@Collections@Foundation@Windows@@@Concurrency@@@Z$0 10018a90 f   _nodert_generated.obj
 0001:00017a90       __unwindfunclet$?_Make@?$_Task_ptr@P$AAU?$IVectorView@P$AAVRadio@Radios@Devices@Windows@@@Collections@Foundation@Windows@@@details@Concurrency@@SA?AV?$shared_ptr@U?$_Task_impl@P$AAU?$IVectorView@P$AAVRadio@Radios@Devices@Windows@@@Collections@Foundation@Windows@@@details@Concurrency@@@std@@PAV_CancellationTokenState@23@Uscheduler_ptr@3@@Z$0 10018a90 f   _nodert_generated.obj
 0001:00017a90       __unwindfunclet$?_Make@?$_Task_ptr@W4RadioAccessStatus@Radios@Devices@Windows@@@details@Concurrency@@SA?AV?$shared_ptr@U?$_Task_impl@W4RadioAccessStatus@Radios@Devices@Windows@@@details@Concurrency@@@std@@PAV_CancellationTokenState@23@Uscheduler_ptr@3@@Z$0 10018a90 f   _nodert_generated.obj
 0001:00017a90       __unwindfunclet$?_Make@?$_Task_ptr@P$AAVRadio@Radios@Devices@Windows@@@details@Concurrency@@SA?AV?$shared_ptr@U?$_Task_impl@P$AAVRadio@Radios@Devices@Windows@@@details@Concurrency@@@std@@PAV_CancellationTokenState@23@Uscheduler_ptr@3@@Z$0 10018a90 f   _nodert_generated.obj
 0001:00017a90       __unwindfunclet$??R<lambda_c27880a56ba3ded47134e23bf355db13>@@QBEEV?$task@P$AAVRadio@Radios@Devices@Windows@@@Concurrency@@@Z$0 10018a90 f   _nodert_generated.obj
 0001:00017a98       __ehhandler$?_Make@?$_Task_ptr@P$AAVRadio@Radios@Devices@Windows@@@details@Concurrency@@SA?AV?$shared_ptr@U?$_Task_impl@P$AAVRadio@Radios@Devices@Windows@@@details@Concurrency@@@std@@PAV_CancellationTokenState@23@Uscheduler_ptr@3@@Z 10018a98 f   _nodert_generated.obj
 0001:00017a98       __ehhandler$?_Make@?$_Task_ptr@E@details@Concurrency@@SA?AV?$shared_ptr@U?$_Task_impl@E@details@Concurrency@@@std@@PAV_CancellationTokenState@23@Uscheduler_ptr@3@@Z 10018a98 f   _nodert_generated.obj
 0001:00017a98       __ehhandler$??R<lambda_b790627109c9d7e4b89a786d55a0c462>@@QBEEV?$task@P$AAU?$IVectorView@P$AAVRadio@Radios@Devices@Windows@@@Collections@Foundation@Windows@@@Concurrency@@@Z 10018a98 f   _nodert_generated.obj
 0001:00017a98       __ehhandler$?_Make@?$_Task_ptr@P$AAU?$IVectorView@P$AAVRadio@Radios@Devices@Windows@@@Collections@Foundation@Windows@@@details@Concurrency@@SA?AV?$shared_ptr@U?$_Task_impl@P$AAU?$IVectorView@P$AAVRadio@Radios@Devices@Windows@@@Collections@Foundation@Windows@@@details@Concurrency@@@std@@PAV_CancellationTokenState@23@Uscheduler_ptr@3@@Z 10018a98 f   _nodert_generated.obj
 0001:00017a98       __ehhandler$??R<lambda_0ca07c6226f46e76875b5e248892ce5b>@@QBEEV?$task@W4RadioAccessStatus@Radios@Devices@Windows@@@Concurrency@@@Z 10018a98 f   _nodert_generated.obj
 0001:00017a98       __ehhandler$??R<lambda_c27880a56ba3ded47134e23bf355db13>@@QBEEV?$task@P$AAVRadio@Radios@Devices@Windows@@@Concurrency@@@Z 10018a98 f   _nodert_generated.obj
 0001:00017a98       __ehhandler$?_Make@?$_Task_ptr@W4RadioAccessStatus@Radios@Devices@Windows@@@details@Concurrency@@SA?AV?$shared_ptr@U?$_Task_impl@W4RadioAccessStatus@Radios@Devices@Windows@@@details@Concurrency@@@std@@PAV_CancellationTokenState@23@Uscheduler_ptr@3@@Z 10018a98 f   _nodert_generated.obj
 0001:00017ac0       __unwindfunclet$?SizeGetter@?$VectorViewWrapper@P$AAVRadio@Radios@Devices@Windows@@@Collections@NodeRT@@CAXV?$Local@VString@v8@@@v8@@ABV?$PropertyCallbackInfo@VValue@v8@@@Nan@@@Z$2 10018ac0 f   _nodert_generated.obj
 0001:00017ac8       __ehhandler$?SizeGetter@?$VectorViewWrapper@P$AAVRadio@Radios@Devices@Windows@@@Collections@NodeRT@@CAXV?$Local@VString@v8@@@v8@@ABV?$PropertyCallbackInfo@VValue@v8@@@Nan@@@Z 10018ac8 f   _nodert_generated.obj
 0001:00017af0       __unwindfunclet$?IndexOf@?$VectorViewWrapper@P$AAVRadio@Radios@Devices@Windows@@@Collections@NodeRT@@CAXABV?$FunctionCallbackInfo@VValue@v8@@@Nan@@@Z$2 10018af0 f   _nodert_generated.obj
 0001:00017af8       __unwindfunclet$?IndexOf@?$VectorViewWrapper@P$AAVRadio@Radios@Devices@Windows@@@Collections@NodeRT@@CAXABV?$FunctionCallbackInfo@VValue@v8@@@Nan@@@Z$3 10018af8 f   _nodert_generated.obj
 0001:00017b03       __unwindfunclet$?IndexOf@?$VectorViewWrapper@P$AAVRadio@Radios@Devices@Windows@@@Collections@NodeRT@@CAXABV?$FunctionCallbackInfo@VValue@v8@@@Nan@@@Z$4 10018b03 f   _nodert_generated.obj
 0001:00017b0e       __ehhandler$?IndexOf@?$VectorViewWrapper@P$AAVRadio@Radios@Devices@Windows@@@Collections@NodeRT@@CAXABV?$FunctionCallbackInfo@VValue@v8@@@Nan@@@Z 10018b0e f   _nodert_generated.obj
 0001:00017b30       __unwindfunclet$?First@?$VectorViewWrapper@P$AAVRadio@Radios@Devices@Windows@@@Collections@NodeRT@@CAXABV?$FunctionCallbackInfo@VValue@v8@@@Nan@@@Z$2 10018b30 f   _nodert_generated.obj
 0001:00017b38       __unwindfunclet$?First@?$VectorViewWrapper@P$AAVRadio@Radios@Devices@Windows@@@Collections@NodeRT@@CAXABV?$FunctionCallbackInfo@VValue@v8@@@Nan@@@Z$3 10018b38 f   _nodert_generated.obj
 0001:00017b43       __unwindfunclet$?First@?$VectorViewWrapper@P$AAVRadio@Radios@Devices@Windows@@@Collections@NodeRT@@CAXABV?$FunctionCallbackInfo@VValue@v8@@@Nan@@@Z$4 10018b43 f   _nodert_generated.obj
 0001:00017b4e       __ehhandler$?First@?$VectorViewWrapper@P$AAVRadio@Radios@Devices@Windows@@@Collections@NodeRT@@CAXABV?$FunctionCallbackInfo@VValue@v8@@@Nan@@@Z 10018b4e f   _nodert_generated.obj
 0001:00017b70       __unwindfunclet$?GetMany@?$IteratorWrapper@P$AAVRadio@Radios@Devices@Windows@@@Collections@NodeRT@@CAXABV?$FunctionCallbackInfo@VValue@v8@@@Nan@@@Z$0 10018b70 f   _nodert_generated.obj
 0001:00017b70       __unwindfunclet$?GetMany@?$VectorViewWrapper@P$AAVRadio@Radios@Devices@Windows@@@Collections@NodeRT@@CAXABV?$FunctionCallbackInfo@VValue@v8@@@Nan@@@Z$0 10018b70 f   _nodert_generated.obj
 0001:00017b78       __ehhandler$?GetMany@?$VectorViewWrapper@P$AAVRadio@Radios@Devices@Windows@@@Collections@NodeRT@@CAXABV?$FunctionCallbackInfo@VValue@v8@@@Nan@@@Z 10018b78 f   _nodert_generated.obj
 0001:00017b78       __ehhandler$?GetMany@?$IteratorWrapper@P$AAVRadio@Radios@Devices@Windows@@@Collections@NodeRT@@CAXABV?$FunctionCallbackInfo@VValue@v8@@@Nan@@@Z 10018b78 f   _nodert_generated.obj
 0001:00017ba0       __unwindfunclet$?GetAt@?$VectorViewWrapper@P$AAVRadio@Radios@Devices@Windows@@@Collections@NodeRT@@CAXABV?$FunctionCallbackInfo@VValue@v8@@@Nan@@@Z$2 10018ba0 f   _nodert_generated.obj
 0001:00017ba8       __unwindfunclet$?GetAt@?$VectorViewWrapper@P$AAVRadio@Radios@Devices@Windows@@@Collections@NodeRT@@CAXABV?$FunctionCallbackInfo@VValue@v8@@@Nan@@@Z$3 10018ba8 f   _nodert_generated.obj
 0001:00017bb3       __unwindfunclet$?GetAt@?$VectorViewWrapper@P$AAVRadio@Radios@Devices@Windows@@@Collections@NodeRT@@CAXABV?$FunctionCallbackInfo@VValue@v8@@@Nan@@@Z$4 10018bb3 f   _nodert_generated.obj
 0001:00017bbe       __ehhandler$?GetAt@?$VectorViewWrapper@P$AAVRadio@Radios@Devices@Windows@@@Collections@NodeRT@@CAXABV?$FunctionCallbackInfo@VValue@v8@@@Nan@@@Z 10018bbe f   _nodert_generated.obj
 0001:00017be0       __unwindfunclet$?Get@?$VectorViewWrapper@P$AAVRadio@Radios@Devices@Windows@@@Collections@NodeRT@@CAXIABV?$PropertyCallbackInfo@VValue@v8@@@Nan@@@Z$0 10018be0 f   _nodert_generated.obj
 0001:00017be8       __unwindfunclet$?Get@?$VectorViewWrapper@P$AAVRadio@Radios@Devices@Windows@@@Collections@NodeRT@@CAXIABV?$PropertyCallbackInfo@VValue@v8@@@Nan@@@Z$1 10018be8 f   _nodert_generated.obj
 0001:00017bf3       __unwindfunclet$?Get@?$VectorViewWrapper@P$AAVRadio@Radios@Devices@Windows@@@Collections@NodeRT@@CAXIABV?$PropertyCallbackInfo@VValue@v8@@@Nan@@@Z$2 10018bf3 f   _nodert_generated.obj
 0001:00017bfe       __ehhandler$?Get@?$VectorViewWrapper@P$AAVRadio@Radios@Devices@Windows@@@Collections@NodeRT@@CAXIABV?$PropertyCallbackInfo@VValue@v8@@@Nan@@@Z 10018bfe f   _nodert_generated.obj
 0001:00017c20       __unwindfunclet$?CreateIteratorWrapper@?$IteratorWrapper@P$AAVRadio@Radios@Devices@Windows@@@Collections@NodeRT@@SA?AV?$Local@VValue@v8@@@v8@@P$AAU?$IIterator@P$AAVRadio@Radios@Devices@Windows@@@2Foundation@Windows@@ABV?$function@$$A6A?AV?$Local@VValue@v8@@@v8@@P$AAVRadio@Radios@Devices@Windows@@@Z@std@@@Z$0 10018c20 f   _nodert_generated.obj
 0001:00017c28       __unwindfunclet$?CreateIteratorWrapper@?$IteratorWrapper@P$AAVRadio@Radios@Devices@Windows@@@Collections@NodeRT@@SA?AV?$Local@VValue@v8@@@v8@@P$AAU?$IIterator@P$AAVRadio@Radios@Devices@Windows@@@2Foundation@Windows@@ABV?$function@$$A6A?AV?$Local@VValue@v8@@@v8@@P$AAVRadio@Radios@Devices@Windows@@@Z@std@@@Z$1 10018c28 f   _nodert_generated.obj
 0001:00017c37       __ehhandler$?CreateIteratorWrapper@?$IteratorWrapper@P$AAVRadio@Radios@Devices@Windows@@@Collections@NodeRT@@SA?AV?$Local@VValue@v8@@@v8@@P$AAU?$IIterator@P$AAVRadio@Radios@Devices@Windows@@@2Foundation@Windows@@ABV?$function@$$A6A?AV?$Local@VValue@v8@@@v8@@P$AAVRadio@Radios@Devices@Windows@@@Z@std@@@Z 10018c37 f   _nodert_generated.obj
 0001:00017c60       __unwindfunclet$?Get@?$Agile@P$AAU?$IVectorView@P$AAVRadio@Radios@Devices@Windows@@@Collections@Foundation@Windows@@$00@Platform@@QBEP$AAU?$IVectorView@P$AAVRadio@Radios@Devices@Windows@@@Collections@Foundation@Windows@@XZ$0 10018c60 f   _nodert_generated.obj
 0001:00017c6b       __unwindfunclet$?Get@?$Agile@P$AAU?$IVectorView@P$AAVRadio@Radios@Devices@Windows@@@Collections@Foundation@Windows@@$00@Platform@@QBEP$AAU?$IVectorView@P$AAVRadio@Radios@Devices@Windows@@@Collections@Foundation@Windows@@XZ$1 10018c6b f   _nodert_generated.obj
 0001:00017c73       __ehhandler$?Get@?$Agile@P$AAU?$IVectorView@P$AAVRadio@Radios@Devices@Windows@@@Collections@Foundation@Windows@@$00@Platform@@QBEP$AAU?$IVectorView@P$AAVRadio@Radios@Devices@Windows@@@Collections@Foundation@Windows@@XZ 10018c73 f   _nodert_generated.obj
 0001:00017c90       __unwindfunclet$?GetResults@?$IAsyncOperation@P$AAVRadio@Radios@Devices@Windows@@@Foundation@Windows@@U$AAAP$AAVRadio@Radios@Devices@3@XZ$0 10018c90 f   _nodert_generated.obj
 0001:00017c90       __unwindfunclet$?GetResults@?$IAsyncOperation@P$AAU?$IVectorView@P$AAVRadio@Radios@Devices@Windows@@@Collections@Foundation@Windows@@@Foundation@Windows@@U$AAAP$AAU?$IVectorView@P$AAVRadio@Radios@Devices@Windows@@@Collections@23@XZ$0 10018c90 f   _nodert_generated.obj
 0001:00017c90       __unwindfunclet$?RequestAccessAsync@IRadioStatics@Radios@Devices@Windows@@U$AAAP$AAU?$IAsyncOperation@W4RadioAccessStatus@Radios@Devices@Windows@@@Foundation@4@XZ$0 10018c90 f   _nodert_generated.obj
 0001:00017c90       __unwindfunclet$?FromIdAsync@IRadioStatics@Radios@Devices@Windows@@U$AAAP$AAU?$IAsyncOperation@P$AAVRadio@Radios@Devices@Windows@@@Foundation@4@P$AAVString@Platform@@@Z$0 10018c90 f   _nodert_generated.obj
 0001:00017c90       __unwindfunclet$?get@Current@?$IIterator@P$AAVRadio@Radios@Devices@Windows@@@Collections@Foundation@Windows@@U$AAAP$AAVRadio@Radios@Devices@5@XZ$0 10018c90 f   _nodert_generated.obj
 0001:00017c90       __unwindfunclet$?GetAt@?$IVectorView@P$AAVRadio@Radios@Devices@Windows@@@Collections@Foundation@Windows@@U$AAAP$AAVRadio@Radios@Devices@4@I@Z$0 10018c90 f   _nodert_generated.obj
 0001:00017c90       __unwindfunclet$??R?$_Func_class@P$AAVRadio@Radios@Devices@Windows@@V?$Local@VValue@v8@@@v8@@@std@@QBEP$AAVRadio@Radios@Devices@Windows@@V?$Local@VValue@v8@@@v8@@@Z$0 10018c90 f   _nodert_generated.obj
 0001:00017c90       __unwindfunclet$?GetRadiosAsync@IRadioStatics@Radios@Devices@Windows@@U$AAAP$AAU?$IAsyncOperation@P$AAU?$IVectorView@P$AAVRadio@Radios@Devices@Windows@@@Collections@Foundation@Windows@@@Foundation@4@XZ$0 10018c90 f   _nodert_generated.obj
 0001:00017c90       __unwindfunclet$?SetStateAsync@IRadio@Radios@Devices@Windows@@U$AAAP$AAU?$IAsyncOperation@W4RadioAccessStatus@Radios@Devices@Windows@@@Foundation@4@W4RadioState@234@@Z$0 10018c90 f   _nodert_generated.obj
 0001:00017c90       __unwindfunclet$?CreateInt64@IPropertyValueStatics@Foundation@Windows@@U$AAAP$AAVObject@Platform@@_J@Z$0 10018c90 f   _nodert_generated.obj
 0001:00017c90       __unwindfunclet$?First@?$IIterable@P$AAVRadio@Radios@Devices@Windows@@@Collections@Foundation@Windows@@U$AAAP$AAU?$IIterator@P$AAVRadio@Radios@Devices@Windows@@@234@XZ$0 10018c90 f   _nodert_generated.obj
 0001:00017c9b       __ehhandler$?GetRadiosAsync@IRadioStatics@Radios@Devices@Windows@@U$AAAP$AAU?$IAsyncOperation@P$AAU?$IVectorView@P$AAVRadio@Radios@Devices@Windows@@@Collections@Foundation@Windows@@@Foundation@4@XZ 10018c9b f   _nodert_generated.obj
 0001:00017c9b       __ehhandler$?SetStateAsync@IRadio@Radios@Devices@Windows@@U$AAAP$AAU?$IAsyncOperation@W4RadioAccessStatus@Radios@Devices@Windows@@@Foundation@4@W4RadioState@234@@Z 10018c9b f   _nodert_generated.obj
 0001:00017c9b       __ehhandler$?CreateInt64@IPropertyValueStatics@Foundation@Windows@@U$AAAP$AAVObject@Platform@@_J@Z 10018c9b f   _nodert_generated.obj
 0001:00017c9b       __ehhandler$?get@Current@?$IIterator@P$AAVRadio@Radios@Devices@Windows@@@Collections@Foundation@Windows@@U$AAAP$AAVRadio@Radios@Devices@5@XZ 10018c9b f   _nodert_generated.obj
 0001:00017c9b       __ehhandler$?FromIdAsync@IRadioStatics@Radios@Devices@Windows@@U$AAAP$AAU?$IAsyncOperation@P$AAVRadio@Radios@Devices@Windows@@@Foundation@4@P$AAVString@Platform@@@Z 10018c9b f   _nodert_generated.obj
 0001:00017c9b       __ehhandler$?GetResults@?$IAsyncOperation@P$AAU?$IVectorView@P$AAVRadio@Radios@Devices@Windows@@@Collections@Foundation@Windows@@@Foundation@Windows@@U$AAAP$AAU?$IVectorView@P$AAVRadio@Radios@Devices@Windows@@@Collections@23@XZ 10018c9b f   _nodert_generated.obj
 0001:00017c9b       __ehhandler$?RequestAccessAsync@IRadioStatics@Radios@Devices@Windows@@U$AAAP$AAU?$IAsyncOperation@W4RadioAccessStatus@Radios@Devices@Windows@@@Foundation@4@XZ 10018c9b f   _nodert_generated.obj
 0001:00017c9b       __ehhandler$??R?$_Func_class@P$AAVRadio@Radios@Devices@Windows@@V?$Local@VValue@v8@@@v8@@@std@@QBEP$AAVRadio@Radios@Devices@Windows@@V?$Local@VValue@v8@@@v8@@@Z 10018c9b f   _nodert_generated.obj
 0001:00017c9b       __ehhandler$?First@?$IIterable@P$AAVRadio@Radios@Devices@Windows@@@Collections@Foundation@Windows@@U$AAAP$AAU?$IIterator@P$AAVRadio@Radios@Devices@Windows@@@234@XZ 10018c9b f   _nodert_generated.obj
 0001:00017c9b       __ehhandler$?GetAt@?$IVectorView@P$AAVRadio@Radios@Devices@Windows@@@Collections@Foundation@Windows@@U$AAAP$AAVRadio@Radios@Devices@4@I@Z 10018c9b f   _nodert_generated.obj
 0001:00017c9b       __ehhandler$?GetResults@?$IAsyncOperation@P$AAVRadio@Radios@Devices@Windows@@@Foundation@Windows@@U$AAAP$AAVRadio@Radios@Devices@3@XZ 10018c9b f   _nodert_generated.obj
 0001:00017cc0       __unwindfunclet$??R?$_Func_class@V?$Local@VValue@v8@@@v8@@P$AAVRadio@Radios@Devices@Windows@@@std@@QBE?AV?$Local@VValue@v8@@@v8@@P$AAVRadio@Radios@Devices@Windows@@@Z$0 10018cc0 f   _nodert_generated.obj
 0001:00017ccb       __ehhandler$??R?$_Func_class@V?$Local@VValue@v8@@@v8@@P$AAVRadio@Radios@Devices@Windows@@@std@@QBE?AV?$Local@VValue@v8@@@v8@@P$AAVRadio@Radios@Devices@Windows@@@Z 10018ccb f   _nodert_generated.obj
 0001:00017cf0       __unwindfunclet$??0?$IteratorWrapper@P$AAVRadio@Radios@Devices@Windows@@@Collections@NodeRT@@AAE@P$AAU?$IIterator@P$AAVRadio@Radios@Devices@Windows@@@1Foundation@Windows@@ABV?$function@$$A6A?AV?$Local@VValue@v8@@@v8@@P$AAVRadio@Radios@Devices@Windows@@@Z@std@@@Z$0 10018cf0 f   _nodert_generated.obj
 0001:00017cf8       __unwindfunclet$??0?$IteratorWrapper@P$AAVRadio@Radios@Devices@Windows@@@Collections@NodeRT@@AAE@P$AAU?$IIterator@P$AAVRadio@Radios@Devices@Windows@@@1Foundation@Windows@@ABV?$function@$$A6A?AV?$Local@VValue@v8@@@v8@@P$AAVRadio@Radios@Devices@Windows@@@Z@std@@@Z$1 10018cf8 f   _nodert_generated.obj
 0001:00017d06       __unwindfunclet$??0?$IteratorWrapper@P$AAVRadio@Radios@Devices@Windows@@@Collections@NodeRT@@AAE@P$AAU?$IIterator@P$AAVRadio@Radios@Devices@Windows@@@1Foundation@Windows@@ABV?$function@$$A6A?AV?$Local@VValue@v8@@@v8@@P$AAVRadio@Radios@Devices@Windows@@@Z@std@@@Z$3 10018d06 f   _nodert_generated.obj
 0001:00017d0e       __ehhandler$??0?$IteratorWrapper@P$AAVRadio@Radios@Devices@Windows@@@Collections@NodeRT@@AAE@P$AAU?$IIterator@P$AAVRadio@Radios@Devices@Windows@@@1Foundation@Windows@@ABV?$function@$$A6A?AV?$Local@VValue@v8@@@v8@@P$AAVRadio@Radios@Devices@Windows@@@Z@std@@@Z 10018d0e f   _nodert_generated.obj
 0001:00017d30       __unwindfunclet$??_G?$IteratorWrapper@P$AAVRadio@Radios@Devices@Windows@@@Collections@NodeRT@@UAEPAXI@Z$0 10018d30 f   _nodert_generated.obj
 0001:00017d30       __unwindfunclet$??1?$_PPLTaskHandle@EU?$_ContinuationTaskHandle@P$AAVRadio@Radios@Devices@Windows@@XV?$function@$$A6AXV?$task@P$AAVRadio@Radios@Devices@Windows@@@Concurrency@@@Z@std@@U?$integral_constant@_N$00@6@U_TypeSelectorNoAsync@details@Concurrency@@@?$task@P$AAVRadio@Radios@Devices@Windows@@@Concurrency@@U_ContinuationTaskHandleBase@details@3@@details@Concurrency@@UAE@XZ$2 10018d30 f   _nodert_generated.obj
 0001:00017d30       __unwindfunclet$??1?$_PPLTaskHandle@EU?$_ContinuationTaskHandle@P$AAU?$IVectorView@P$AAVRadio@Radios@Devices@Windows@@@Collections@Foundation@Windows@@XV?$function@$$A6AXV?$task@P$AAU?$IVectorView@P$AAVRadio@Radios@Devices@Windows@@@Collections@Foundation@Windows@@@Concurrency@@@Z@std@@U?$integral_constant@_N$00@6@U_TypeSelectorNoAsync@details@Concurrency@@@?$task@P$AAU?$IVectorView@P$AAVRadio@Radios@Devices@Windows@@@Collections@Foundation@Windows@@@Concurrency@@U_ContinuationTaskHandleBase@details@3@@details@Concurrency@@UAE@XZ$2 10018d30 f   _nodert_generated.obj
 0001:00017d30       __unwindfunclet$??1?$_PPLTaskHandle@EU?$_ContinuationTaskHandle@W4RadioAccessStatus@Radios@Devices@Windows@@XV?$function@$$A6AXV?$task@W4RadioAccessStatus@Radios@Devices@Windows@@@Concurrency@@@Z@std@@U?$integral_constant@_N$00@6@U_TypeSelectorNoAsync@details@Concurrency@@@?$task@W4RadioAccessStatus@Radios@Devices@Windows@@@Concurrency@@U_ContinuationTaskHandleBase@details@3@@details@Concurrency@@UAE@XZ$2 10018d30 f   _nodert_generated.obj
 0001:00017d37       __ehhandler$??1?$_PPLTaskHandle@EU?$_ContinuationTaskHandle@W4RadioAccessStatus@Radios@Devices@Windows@@XV?$function@$$A6AXV?$task@W4RadioAccessStatus@Radios@Devices@Windows@@@Concurrency@@@Z@std@@U?$integral_constant@_N$00@6@U_TypeSelectorNoAsync@details@Concurrency@@@?$task@W4RadioAccessStatus@Radios@Devices@Windows@@@Concurrency@@U_ContinuationTaskHandleBase@details@3@@details@Concurrency@@UAE@XZ 10018d37 f   _nodert_generated.obj
 0001:00017d37       __ehhandler$??1?$_PPLTaskHandle@EU?$_ContinuationTaskHandle@P$AAVRadio@Radios@Devices@Windows@@XV?$function@$$A6AXV?$task@P$AAVRadio@Radios@Devices@Windows@@@Concurrency@@@Z@std@@U?$integral_constant@_N$00@6@U_TypeSelectorNoAsync@details@Concurrency@@@?$task@P$AAVRadio@Radios@Devices@Windows@@@Concurrency@@U_ContinuationTaskHandleBase@details@3@@details@Concurrency@@UAE@XZ 10018d37 f   _nodert_generated.obj
 0001:00017d37       __ehhandler$??_G?$IteratorWrapper@P$AAVRadio@Radios@Devices@Windows@@@Collections@NodeRT@@UAEPAXI@Z 10018d37 f   _nodert_generated.obj
 0001:00017d37       __ehhandler$??1?$_PPLTaskHandle@EU?$_ContinuationTaskHandle@P$AAU?$IVectorView@P$AAVRadio@Radios@Devices@Windows@@@Collections@Foundation@Windows@@XV?$function@$$A6AXV?$task@P$AAU?$IVectorView@P$AAVRadio@Radios@Devices@Windows@@@Collections@Foundation@Windows@@@Concurrency@@@Z@std@@U?$integral_constant@_N$00@6@U_TypeSelectorNoAsync@details@Concurrency@@@?$task@P$AAU?$IVectorView@P$AAVRadio@Radios@Devices@Windows@@@Collections@Foundation@Windows@@@Concurrency@@U_ContinuationTaskHandleBase@details@3@@details@Concurrency@@UAE@XZ 10018d37 f   _nodert_generated.obj
 0001:00017d60       __unwindfunclet$?HasCurrentGetter@?$IteratorWrapper@P$AAVRadio@Radios@Devices@Windows@@@Collections@NodeRT@@CAXV?$Local@VString@v8@@@v8@@ABV?$PropertyCallbackInfo@VValue@v8@@@Nan@@@Z$2 10018d60 f   _nodert_generated.obj
 0001:00017d68       __ehhandler$?HasCurrentGetter@?$IteratorWrapper@P$AAVRadio@Radios@Devices@Windows@@@Collections@NodeRT@@CAXV?$Local@VString@v8@@@v8@@ABV?$PropertyCallbackInfo@VValue@v8@@@Nan@@@Z 10018d68 f   _nodert_generated.obj
 0001:00017d90       __unwindfunclet$?CurrentGetter@?$IteratorWrapper@P$AAVRadio@Radios@Devices@Windows@@@Collections@NodeRT@@CAXV?$Local@VString@v8@@@v8@@ABV?$PropertyCallbackInfo@VValue@v8@@@Nan@@@Z$2 10018d90 f   _nodert_generated.obj
 0001:00017d98       __unwindfunclet$?CurrentGetter@?$IteratorWrapper@P$AAVRadio@Radios@Devices@Windows@@@Collections@NodeRT@@CAXV?$Local@VString@v8@@@v8@@ABV?$PropertyCallbackInfo@VValue@v8@@@Nan@@@Z$3 10018d98 f   _nodert_generated.obj
 0001:00017da3       __unwindfunclet$?CurrentGetter@?$IteratorWrapper@P$AAVRadio@Radios@Devices@Windows@@@Collections@NodeRT@@CAXV?$Local@VString@v8@@@v8@@ABV?$PropertyCallbackInfo@VValue@v8@@@Nan@@@Z$4 10018da3 f   _nodert_generated.obj
 0001:00017dae       __ehhandler$?CurrentGetter@?$IteratorWrapper@P$AAVRadio@Radios@Devices@Windows@@@Collections@NodeRT@@CAXV?$Local@VString@v8@@@v8@@ABV?$PropertyCallbackInfo@VValue@v8@@@Nan@@@Z 10018dae f   _nodert_generated.obj
 0001:00017dd0       __unwindfunclet$?MoveNext@?$IteratorWrapper@P$AAVRadio@Radios@Devices@Windows@@@Collections@NodeRT@@CAXABV?$FunctionCallbackInfo@VValue@v8@@@Nan@@@Z$2 10018dd0 f   _nodert_generated.obj
 0001:00017dd8       __ehhandler$?MoveNext@?$IteratorWrapper@P$AAVRadio@Radios@Devices@Windows@@@Collections@NodeRT@@CAXABV?$FunctionCallbackInfo@VValue@v8@@@Nan@@@Z 10018dd8 f   _nodert_generated.obj
 0001:00017e00       __unwindfunclet$?get@Name@IRadio@Radios@Devices@Windows@@U$AAAP$AAVString@Platform@@XZ$0 10018e00 f   _nodert_generated.obj
 0001:00017e00       __unwindfunclet$?GetDeviceSelector@IRadioStatics@Radios@Devices@Windows@@U$AAAP$AAVString@Platform@@XZ$0 10018e00 f   _nodert_generated.obj
 0001:00017e08       __ehhandler$?GetDeviceSelector@IRadioStatics@Radios@Devices@Windows@@U$AAAP$AAVString@Platform@@XZ 10018e08 f   _nodert_generated.obj
 0001:00017e08       __ehhandler$?get@Name@IRadio@Radios@Devices@Windows@@U$AAAP$AAVString@Platform@@XZ 10018e08 f   _nodert_generated.obj
 0001:00017e30       __unwindfunclet$??$make_shared@U_ExceptionHolder@details@Concurrency@@ABVexception_ptr@std@@V_TaskCreationCallstack@23@@std@@YA?AV?$shared_ptr@U_ExceptionHolder@details@Concurrency@@@0@ABVexception_ptr@0@$$QAV_TaskCreationCallstack@details@Concurrency@@@Z$0 10018e30 f   _nodert_generated.obj
 0001:00017e3f       __unwindfunclet$??$make_shared@U_ExceptionHolder@details@Concurrency@@ABVexception_ptr@std@@V_TaskCreationCallstack@23@@std@@YA?AV?$shared_ptr@U_ExceptionHolder@details@Concurrency@@@0@ABVexception_ptr@0@$$QAV_TaskCreationCallstack@details@Concurrency@@@Z$1 10018e3f f   _nodert_generated.obj
 0001:00017e58       __ehhandler$??$make_shared@U_ExceptionHolder@details@Concurrency@@ABVexception_ptr@std@@V_TaskCreationCallstack@23@@std@@YA?AV?$shared_ptr@U_ExceptionHolder@details@Concurrency@@@0@ABVexception_ptr@0@$$QAV_TaskCreationCallstack@details@Concurrency@@@Z 10018e58 f   _nodert_generated.obj
 0001:00017e80       __unwindfunclet$??$?4AAV?$function@$$A6AXXZ@std@@XX@?$function@$$A6AXXZ@std@@QAEAAV01@AAV01@@Z$1 10018e80 f   _nodert_generated.obj
 0001:00017e88       __ehhandler$??$?4AAV?$function@$$A6AXXZ@std@@XX@?$function@$$A6AXXZ@std@@QAEAAV01@AAV01@@Z 10018e88 f   _nodert_generated.obj
 0001:00017eb0       __unwindfunclet$??$?0V<lambda_847758569c482b5c3071d04a93fd5a03>@@XX@?$function@$$A6AXXZ@std@@QAE@V<lambda_847758569c482b5c3071d04a93fd5a03>@@@Z$0 10018eb0 f   _nodert_generated.obj
 0001:00017eb8       __unwindfunclet$??$?0V<lambda_847758569c482b5c3071d04a93fd5a03>@@XX@?$function@$$A6AXXZ@std@@QAE@V<lambda_847758569c482b5c3071d04a93fd5a03>@@@Z$1 10018eb8 f   _nodert_generated.obj
 0001:00017ec0       __unwindfunclet$??$?0V<lambda_847758569c482b5c3071d04a93fd5a03>@@XX@?$function@$$A6AXXZ@std@@QAE@V<lambda_847758569c482b5c3071d04a93fd5a03>@@@Z$2 10018ec0 f   _nodert_generated.obj
 0001:00017ec5       __unwindfunclet$??$?0V<lambda_847758569c482b5c3071d04a93fd5a03>@@XX@?$function@$$A6AXXZ@std@@QAE@V<lambda_847758569c482b5c3071d04a93fd5a03>@@@Z$3 10018ec5 f   _nodert_generated.obj
 0001:00017ecd       __ehhandler$??$?0V<lambda_847758569c482b5c3071d04a93fd5a03>@@XX@?$function@$$A6AXXZ@std@@QAE@V<lambda_847758569c482b5c3071d04a93fd5a03>@@@Z 10018ecd f   _nodert_generated.obj
 0001:00017ef0       __unwindfunclet$??$SetMethod@VObject@v8@@VLocal@2@@Nan@@YAXV?$Local@VObject@v8@@@v8@@PBDP6AXABV?$FunctionCallbackInfo@VValue@v8@@@0@@Z@Z$0 10018ef0 f   _nodert_generated.obj
 0001:00017ef8       __ehhandler$??$SetMethod@VObject@v8@@VLocal@2@@Nan@@YAXV?$Local@VObject@v8@@@v8@@PBDP6AXABV?$FunctionCallbackInfo@VValue@v8@@@0@@Z@Z 10018ef8 f   _nodert_generated.obj
 0001:00017f20       __unwindfunclet$??$IsWinRtWrapperOf@P$AAVRadio@Radios@Devices@Windows@@@Utils@NodeRT@@YA_NV?$Local@VValue@v8@@@v8@@@Z$3 10018f20 f   _nodert_generated.obj
 0001:00017f2b       __unwindfunclet$??$IsWinRtWrapperOf@P$AAVRadio@Radios@Devices@Windows@@@Utils@NodeRT@@YA_NV?$Local@VValue@v8@@@v8@@@Z$4 10018f2b f   _nodert_generated.obj
 0001:00017f36       __ehhandler$??$IsWinRtWrapperOf@P$AAVRadio@Radios@Devices@Windows@@@Utils@NodeRT@@YA_NV?$Local@VValue@v8@@@v8@@@Z 10018f36 f   _nodert_generated.obj
 0001:00017f60       __unwindfunclet$??$create_task@P$AAU?$IAsyncOperation@P$AAU?$IVectorView@P$AAVRadio@Radios@Devices@Windows@@@Collections@Foundation@Windows@@@Foundation@Windows@@@Concurrency@@YA?AV?$task@P$AAU?$IVectorView@P$AAVRadio@Radios@Devices@Windows@@@Collections@Foundation@Windows@@@0@P$AAU?$IAsyncOperation@P$AAU?$IVectorView@P$AAVRadio@Radios@Devices@Windows@@@Collections@Foundation@Windows@@@Foundation@Windows@@Vtask_options@0@@Z$0 10018f60 f   _nodert_generated.obj
 0001:00017f60       __unwindfunclet$??$create_task@P$AAU?$IAsyncOperation@P$AAVRadio@Radios@Devices@Windows@@@Foundation@Windows@@@Concurrency@@YA?AV?$task@P$AAVRadio@Radios@Devices@Windows@@@0@P$AAU?$IAsyncOperation@P$AAVRadio@Radios@Devices@Windows@@@Foundation@Windows@@Vtask_options@0@@Z$0 10018f60 f   _nodert_generated.obj
 0001:00017f60       __unwindfunclet$??$create_task@P$AAU?$IAsyncOperation@W4RadioAccessStatus@Radios@Devices@Windows@@@Foundation@Windows@@@Concurrency@@YA?AV?$task@W4RadioAccessStatus@Radios@Devices@Windows@@@0@P$AAU?$IAsyncOperation@W4RadioAccessStatus@Radios@Devices@Windows@@@Foundation@Windows@@Vtask_options@0@@Z$0 10018f60 f   _nodert_generated.obj
 0001:00017f68       __unwindfunclet$??$create_task@P$AAU?$IAsyncOperation@W4RadioAccessStatus@Radios@Devices@Windows@@@Foundation@Windows@@@Concurrency@@YA?AV?$task@W4RadioAccessStatus@Radios@Devices@Windows@@@0@P$AAU?$IAsyncOperation@W4RadioAccessStatus@Radios@Devices@Windows@@@Foundation@Windows@@Vtask_options@0@@Z$1 10018f68 f   _nodert_generated.obj
 0001:00017f68       __unwindfunclet$??$create_task@P$AAU?$IAsyncOperation@P$AAU?$IVectorView@P$AAVRadio@Radios@Devices@Windows@@@Collections@Foundation@Windows@@@Foundation@Windows@@@Concurrency@@YA?AV?$task@P$AAU?$IVectorView@P$AAVRadio@Radios@Devices@Windows@@@Collections@Foundation@Windows@@@0@P$AAU?$IAsyncOperation@P$AAU?$IVectorView@P$AAVRadio@Radios@Devices@Windows@@@Collections@Foundation@Windows@@@Foundation@Windows@@Vtask_options@0@@Z$1 10018f68 f   _nodert_generated.obj
 0001:00017f68       __unwindfunclet$??$create_task@P$AAU?$IAsyncOperation@P$AAVRadio@Radios@Devices@Windows@@@Foundation@Windows@@@Concurrency@@YA?AV?$task@P$AAVRadio@Radios@Devices@Windows@@@0@P$AAU?$IAsyncOperation@P$AAVRadio@Radios@Devices@Windows@@@Foundation@Windows@@Vtask_options@0@@Z$1 10018f68 f   _nodert_generated.obj
 0001:00017f70       __ehhandler$??$create_task@P$AAU?$IAsyncOperation@P$AAU?$IVectorView@P$AAVRadio@Radios@Devices@Windows@@@Collections@Foundation@Windows@@@Foundation@Windows@@@Concurrency@@YA?AV?$task@P$AAU?$IVectorView@P$AAVRadio@Radios@Devices@Windows@@@Collections@Foundation@Windows@@@0@P$AAU?$IAsyncOperation@P$AAU?$IVectorView@P$AAVRadio@Radios@Devices@Windows@@@Collections@Foundation@Windows@@@Foundation@Windows@@Vtask_options@0@@Z 10018f70 f   _nodert_generated.obj
 0001:00017f70       __ehhandler$??$create_task@P$AAU?$IAsyncOperation@P$AAVRadio@Radios@Devices@Windows@@@Foundation@Windows@@@Concurrency@@YA?AV?$task@P$AAVRadio@Radios@Devices@Windows@@@0@P$AAU?$IAsyncOperation@P$AAVRadio@Radios@Devices@Windows@@@Foundation@Windows@@Vtask_options@0@@Z 10018f70 f   _nodert_generated.obj
 0001:00017f70       __ehhandler$??$create_task@P$AAU?$IAsyncOperation@W4RadioAccessStatus@Radios@Devices@Windows@@@Foundation@Windows@@@Concurrency@@YA?AV?$task@W4RadioAccessStatus@Radios@Devices@Windows@@@0@P$AAU?$IAsyncOperation@W4RadioAccessStatus@Radios@Devices@Windows@@@Foundation@Windows@@Vtask_options@0@@Z 10018f70 f   _nodert_generated.obj
 0001:00017f90       __unwindfunclet$??$?0V<lambda_c3befff5426f7ddaa4e03d53f00d3a42>@@XX@?$function@$$A6AXV?$function@$$A6AXHPAV?$Local@VValue@v8@@@v8@@@Z@std@@@Z@std@@QAE@V<lambda_c3befff5426f7ddaa4e03d53f00d3a42>@@@Z$1 10018f90 f   _nodert_generated.obj
 0001:00017f90       __unwindfunclet$??$?0V<lambda_a114a708d63a441febc5f755bac609dc>@@XX@?$function@$$A6AXV?$function@$$A6AXHPAV?$Local@VValue@v8@@@v8@@@Z@std@@@Z@std@@QAE@V<lambda_a114a708d63a441febc5f755bac609dc>@@@Z$1 10018f90 f   _nodert_generated.obj
 0001:00017f90       __unwindfunclet$??$?0V<lambda_0532bc16f263f6a2ba7cd1d0d3d2a0cd>@@XX@?$function@$$A6AXV?$function@$$A6AXHPAV?$Local@VValue@v8@@@v8@@@Z@std@@@Z@std@@QAE@V<lambda_0532bc16f263f6a2ba7cd1d0d3d2a0cd>@@@Z$1 10018f90 f   _nodert_generated.obj
 0001:00017f90       __unwindfunclet$??$?0V<lambda_0ba1884422591f985dd5dd2788d28634>@@XX@?$function@$$A6AXV?$function@$$A6AXHPAV?$Local@VValue@v8@@@v8@@@Z@std@@@Z@std@@QAE@V<lambda_0ba1884422591f985dd5dd2788d28634>@@@Z$1 10018f90 f   _nodert_generated.obj
 0001:00017f97       __unwindfunclet$??$?0V<lambda_c3befff5426f7ddaa4e03d53f00d3a42>@@XX@?$function@$$A6AXV?$function@$$A6AXHPAV?$Local@VValue@v8@@@v8@@@Z@std@@@Z@std@@QAE@V<lambda_c3befff5426f7ddaa4e03d53f00d3a42>@@@Z$2 10018f97 f   _nodert_generated.obj
 0001:00017f97       __unwindfunclet$??$?0V<lambda_0ba1884422591f985dd5dd2788d28634>@@XX@?$function@$$A6AXV?$function@$$A6AXHPAV?$Local@VValue@v8@@@v8@@@Z@std@@@Z@std@@QAE@V<lambda_0ba1884422591f985dd5dd2788d28634>@@@Z$2 10018f97 f   _nodert_generated.obj
 0001:00017f97       __unwindfunclet$??$?0V<lambda_0532bc16f263f6a2ba7cd1d0d3d2a0cd>@@XX@?$function@$$A6AXV?$function@$$A6AXHPAV?$Local@VValue@v8@@@v8@@@Z@std@@@Z@std@@QAE@V<lambda_0532bc16f263f6a2ba7cd1d0d3d2a0cd>@@@Z$2 10018f97 f   _nodert_generated.obj
 0001:00017f97       __unwindfunclet$??$?0V<lambda_a114a708d63a441febc5f755bac609dc>@@XX@?$function@$$A6AXV?$function@$$A6AXHPAV?$Local@VValue@v8@@@v8@@@Z@std@@@Z@std@@QAE@V<lambda_a114a708d63a441febc5f755bac609dc>@@@Z$2 10018f97 f   _nodert_generated.obj
 0001:00017f9e       __ehhandler$??$?0V<lambda_0ba1884422591f985dd5dd2788d28634>@@XX@?$function@$$A6AXV?$function@$$A6AXHPAV?$Local@VValue@v8@@@v8@@@Z@std@@@Z@std@@QAE@V<lambda_0ba1884422591f985dd5dd2788d28634>@@@Z 10018f9e f   _nodert_generated.obj
 0001:00017f9e       __ehhandler$??$?0V<lambda_0532bc16f263f6a2ba7cd1d0d3d2a0cd>@@XX@?$function@$$A6AXV?$function@$$A6AXHPAV?$Local@VValue@v8@@@v8@@@Z@std@@@Z@std@@QAE@V<lambda_0532bc16f263f6a2ba7cd1d0d3d2a0cd>@@@Z 10018f9e f   _nodert_generated.obj
 0001:00017f9e       __ehhandler$??$?0V<lambda_a114a708d63a441febc5f755bac609dc>@@XX@?$function@$$A6AXV?$function@$$A6AXHPAV?$Local@VValue@v8@@@v8@@@Z@std@@@Z@std@@QAE@V<lambda_a114a708d63a441febc5f755bac609dc>@@@Z 10018f9e f   _nodert_generated.obj
 0001:00017f9e       __ehhandler$??$?0V<lambda_c3befff5426f7ddaa4e03d53f00d3a42>@@XX@?$function@$$A6AXV?$function@$$A6AXHPAV?$Local@VValue@v8@@@v8@@@Z@std@@@Z@std@@QAE@V<lambda_c3befff5426f7ddaa4e03d53f00d3a42>@@@Z 10018f9e f   _nodert_generated.obj
 0001:00017fc0       __unwindfunclet$??$then@V<lambda_9eef212b7bb2525a1146c82a12593753>@@@?$task@W4RadioAccessStatus@Radios@Devices@Windows@@@Concurrency@@QBE?AV?$task@X@1@ABV<lambda_9eef212b7bb2525a1146c82a12593753>@@@Z$0 10018fc0 f   _nodert_generated.obj
 0001:00017fc0       __unwindfunclet$??$then@V<lambda_ae54f703fcaa92a2870449d47fe035a7>@@@?$task@W4RadioAccessStatus@Radios@Devices@Windows@@@Concurrency@@QBE?AV?$task@X@1@ABV<lambda_ae54f703fcaa92a2870449d47fe035a7>@@@Z$0 10018fc0 f   _nodert_generated.obj
 0001:00017fc8       __unwindfunclet$??$then@V<lambda_ae54f703fcaa92a2870449d47fe035a7>@@@?$task@W4RadioAccessStatus@Radios@Devices@Windows@@@Concurrency@@QBE?AV?$task@X@1@ABV<lambda_ae54f703fcaa92a2870449d47fe035a7>@@@Z$1 10018fc8 f   _nodert_generated.obj
 0001:00017fc8       __unwindfunclet$??$then@V<lambda_9eef212b7bb2525a1146c82a12593753>@@@?$task@W4RadioAccessStatus@Radios@Devices@Windows@@@Concurrency@@QBE?AV?$task@X@1@ABV<lambda_9eef212b7bb2525a1146c82a12593753>@@@Z$1 10018fc8 f   _nodert_generated.obj
 0001:00017fd0       __unwindfunclet$??$then@V<lambda_9eef212b7bb2525a1146c82a12593753>@@@?$task@W4RadioAccessStatus@Radios@Devices@Windows@@@Concurrency@@QBE?AV?$task@X@1@ABV<lambda_9eef212b7bb2525a1146c82a12593753>@@@Z$2 10018fd0 f   _nodert_generated.obj
 0001:00017fd0       __unwindfunclet$??$then@V<lambda_ae54f703fcaa92a2870449d47fe035a7>@@@?$task@W4RadioAccessStatus@Radios@Devices@Windows@@@Concurrency@@QBE?AV?$task@X@1@ABV<lambda_ae54f703fcaa92a2870449d47fe035a7>@@@Z$2 10018fd0 f   _nodert_generated.obj
 0001:00017fd8       __unwindfunclet$??$then@V<lambda_ae54f703fcaa92a2870449d47fe035a7>@@@?$task@W4RadioAccessStatus@Radios@Devices@Windows@@@Concurrency@@QBE?AV?$task@X@1@ABV<lambda_ae54f703fcaa92a2870449d47fe035a7>@@@Z$3 10018fd8 f   _nodert_generated.obj
 0001:00017fd8       __unwindfunclet$??$then@V<lambda_9eef212b7bb2525a1146c82a12593753>@@@?$task@W4RadioAccessStatus@Radios@Devices@Windows@@@Concurrency@@QBE?AV?$task@X@1@ABV<lambda_9eef212b7bb2525a1146c82a12593753>@@@Z$3 10018fd8 f   _nodert_generated.obj
 0001:00017fe0       __unwindfunclet$??$then@V<lambda_9eef212b7bb2525a1146c82a12593753>@@@?$task@W4RadioAccessStatus@Radios@Devices@Windows@@@Concurrency@@QBE?AV?$task@X@1@ABV<lambda_9eef212b7bb2525a1146c82a12593753>@@@Z$4 10018fe0 f   _nodert_generated.obj
 0001:00017fe0       __unwindfunclet$??$then@V<lambda_ae54f703fcaa92a2870449d47fe035a7>@@@?$task@W4RadioAccessStatus@Radios@Devices@Windows@@@Concurrency@@QBE?AV?$task@X@1@ABV<lambda_ae54f703fcaa92a2870449d47fe035a7>@@@Z$4 10018fe0 f   _nodert_generated.obj
 0001:00017fe8       __unwindfunclet$??$then@V<lambda_9eef212b7bb2525a1146c82a12593753>@@@?$task@W4RadioAccessStatus@Radios@Devices@Windows@@@Concurrency@@QBE?AV?$task@X@1@ABV<lambda_9eef212b7bb2525a1146c82a12593753>@@@Z$5 10018fe8 f   _nodert_generated.obj
 0001:00017fe8       __unwindfunclet$??$then@V<lambda_ae54f703fcaa92a2870449d47fe035a7>@@@?$task@W4RadioAccessStatus@Radios@Devices@Windows@@@Concurrency@@QBE?AV?$task@X@1@ABV<lambda_ae54f703fcaa92a2870449d47fe035a7>@@@Z$5 10018fe8 f   _nodert_generated.obj
 0001:00017ff0       __unwindfunclet$??$then@V<lambda_9eef212b7bb2525a1146c82a12593753>@@@?$task@W4RadioAccessStatus@Radios@Devices@Windows@@@Concurrency@@QBE?AV?$task@X@1@ABV<lambda_9eef212b7bb2525a1146c82a12593753>@@@Z$14 10018ff0 f   _nodert_generated.obj
 0001:00017ff0       __unwindfunclet$??$then@V<lambda_ae54f703fcaa92a2870449d47fe035a7>@@@?$task@W4RadioAccessStatus@Radios@Devices@Windows@@@Concurrency@@QBE?AV?$task@X@1@ABV<lambda_ae54f703fcaa92a2870449d47fe035a7>@@@Z$14 10018ff0 f   _nodert_generated.obj
 0001:00017ff7       __ehhandler$??$then@V<lambda_9eef212b7bb2525a1146c82a12593753>@@@?$task@W4RadioAccessStatus@Radios@Devices@Windows@@@Concurrency@@QBE?AV?$task@X@1@ABV<lambda_9eef212b7bb2525a1146c82a12593753>@@@Z 10018ff7 f   _nodert_generated.obj
 0001:00017ff7       __ehhandler$??$then@V<lambda_ae54f703fcaa92a2870449d47fe035a7>@@@?$task@W4RadioAccessStatus@Radios@Devices@Windows@@@Concurrency@@QBE?AV?$task@X@1@ABV<lambda_ae54f703fcaa92a2870449d47fe035a7>@@@Z 10018ff7 f   _nodert_generated.obj
 0001:00018020       __unwindfunclet$??$then@V<lambda_a1381f9626a8165312049276d1590ea7>@@@?$task@P$AAU?$IVectorView@P$AAVRadio@Radios@Devices@Windows@@@Collections@Foundation@Windows@@@Concurrency@@QBE?AV?$task@X@1@ABV<lambda_a1381f9626a8165312049276d1590ea7>@@@Z$0 10019020 f   _nodert_generated.obj
 0001:00018028       __unwindfunclet$??$then@V<lambda_a1381f9626a8165312049276d1590ea7>@@@?$task@P$AAU?$IVectorView@P$AAVRadio@Radios@Devices@Windows@@@Collections@Foundation@Windows@@@Concurrency@@QBE?AV?$task@X@1@ABV<lambda_a1381f9626a8165312049276d1590ea7>@@@Z$1 10019028 f   _nodert_generated.obj
 0001:00018030       __unwindfunclet$??$then@V<lambda_a1381f9626a8165312049276d1590ea7>@@@?$task@P$AAU?$IVectorView@P$AAVRadio@Radios@Devices@Windows@@@Collections@Foundation@Windows@@@Concurrency@@QBE?AV?$task@X@1@ABV<lambda_a1381f9626a8165312049276d1590ea7>@@@Z$2 10019030 f   _nodert_generated.obj
 0001:00018038       __unwindfunclet$??$then@V<lambda_a1381f9626a8165312049276d1590ea7>@@@?$task@P$AAU?$IVectorView@P$AAVRadio@Radios@Devices@Windows@@@Collections@Foundation@Windows@@@Concurrency@@QBE?AV?$task@X@1@ABV<lambda_a1381f9626a8165312049276d1590ea7>@@@Z$3 10019038 f   _nodert_generated.obj
 0001:00018040       __unwindfunclet$??$then@V<lambda_a1381f9626a8165312049276d1590ea7>@@@?$task@P$AAU?$IVectorView@P$AAVRadio@Radios@Devices@Windows@@@Collections@Foundation@Windows@@@Concurrency@@QBE?AV?$task@X@1@ABV<lambda_a1381f9626a8165312049276d1590ea7>@@@Z$4 10019040 f   _nodert_generated.obj
 0001:00018048       __unwindfunclet$??$then@V<lambda_a1381f9626a8165312049276d1590ea7>@@@?$task@P$AAU?$IVectorView@P$AAVRadio@Radios@Devices@Windows@@@Collections@Foundation@Windows@@@Concurrency@@QBE?AV?$task@X@1@ABV<lambda_a1381f9626a8165312049276d1590ea7>@@@Z$5 10019048 f   _nodert_generated.obj
 0001:00018050       __unwindfunclet$??$then@V<lambda_a1381f9626a8165312049276d1590ea7>@@@?$task@P$AAU?$IVectorView@P$AAVRadio@Radios@Devices@Windows@@@Collections@Foundation@Windows@@@Concurrency@@QBE?AV?$task@X@1@ABV<lambda_a1381f9626a8165312049276d1590ea7>@@@Z$14 10019050 f   _nodert_generated.obj
 0001:00018057       __ehhandler$??$then@V<lambda_a1381f9626a8165312049276d1590ea7>@@@?$task@P$AAU?$IVectorView@P$AAVRadio@Radios@Devices@Windows@@@Collections@Foundation@Windows@@@Concurrency@@QBE?AV?$task@X@1@ABV<lambda_a1381f9626a8165312049276d1590ea7>@@@Z 10019057 f   _nodert_generated.obj
 0001:00018080       __unwindfunclet$??$then@V<lambda_2ba0bef8cbfba8f1d7cf652ae95a0f98>@@@?$task@P$AAVRadio@Radios@Devices@Windows@@@Concurrency@@QBE?AV?$task@X@1@ABV<lambda_2ba0bef8cbfba8f1d7cf652ae95a0f98>@@@Z$0 10019080 f   _nodert_generated.obj
 0001:00018088       __unwindfunclet$??$then@V<lambda_2ba0bef8cbfba8f1d7cf652ae95a0f98>@@@?$task@P$AAVRadio@Radios@Devices@Windows@@@Concurrency@@QBE?AV?$task@X@1@ABV<lambda_2ba0bef8cbfba8f1d7cf652ae95a0f98>@@@Z$1 10019088 f   _nodert_generated.obj
 0001:00018090       __unwindfunclet$??$then@V<lambda_2ba0bef8cbfba8f1d7cf652ae95a0f98>@@@?$task@P$AAVRadio@Radios@Devices@Windows@@@Concurrency@@QBE?AV?$task@X@1@ABV<lambda_2ba0bef8cbfba8f1d7cf652ae95a0f98>@@@Z$2 10019090 f   _nodert_generated.obj
 0001:00018098       __unwindfunclet$??$then@V<lambda_2ba0bef8cbfba8f1d7cf652ae95a0f98>@@@?$task@P$AAVRadio@Radios@Devices@Windows@@@Concurrency@@QBE?AV?$task@X@1@ABV<lambda_2ba0bef8cbfba8f1d7cf652ae95a0f98>@@@Z$3 10019098 f   _nodert_generated.obj
 0001:000180a0       __unwindfunclet$??$then@V<lambda_2ba0bef8cbfba8f1d7cf652ae95a0f98>@@@?$task@P$AAVRadio@Radios@Devices@Windows@@@Concurrency@@QBE?AV?$task@X@1@ABV<lambda_2ba0bef8cbfba8f1d7cf652ae95a0f98>@@@Z$4 100190a0 f   _nodert_generated.obj
 0001:000180a8       __unwindfunclet$??$then@V<lambda_2ba0bef8cbfba8f1d7cf652ae95a0f98>@@@?$task@P$AAVRadio@Radios@Devices@Windows@@@Concurrency@@QBE?AV?$task@X@1@ABV<lambda_2ba0bef8cbfba8f1d7cf652ae95a0f98>@@@Z$5 100190a8 f   _nodert_generated.obj
 0001:000180b0       __unwindfunclet$??$then@V<lambda_2ba0bef8cbfba8f1d7cf652ae95a0f98>@@@?$task@P$AAVRadio@Radios@Devices@Windows@@@Concurrency@@QBE?AV?$task@X@1@ABV<lambda_2ba0bef8cbfba8f1d7cf652ae95a0f98>@@@Z$14 100190b0 f   _nodert_generated.obj
 0001:000180b7       __ehhandler$??$then@V<lambda_2ba0bef8cbfba8f1d7cf652ae95a0f98>@@@?$task@P$AAVRadio@Radios@Devices@Windows@@@Concurrency@@QBE?AV?$task@X@1@ABV<lambda_2ba0bef8cbfba8f1d7cf652ae95a0f98>@@@Z 100190b7 f   _nodert_generated.obj
 0001:000180e0       __unwindfunclet$??$?0V<lambda_ec396201b7e4f2b701f72af9664eb55a>@@XX@?$function@$$A6AXXZ@std@@QAE@V<lambda_ec396201b7e4f2b701f72af9664eb55a>@@@Z$1 100190e0 f   _nodert_generated.obj
 0001:000180e7       __unwindfunclet$??$?0V<lambda_ec396201b7e4f2b701f72af9664eb55a>@@XX@?$function@$$A6AXXZ@std@@QAE@V<lambda_ec396201b7e4f2b701f72af9664eb55a>@@@Z$2 100190e7 f   _nodert_generated.obj
 0001:000180ee       __ehhandler$??$?0V<lambda_ec396201b7e4f2b701f72af9664eb55a>@@XX@?$function@$$A6AXXZ@std@@QAE@V<lambda_ec396201b7e4f2b701f72af9664eb55a>@@@Z 100190ee f   _nodert_generated.obj
 0001:00018110       __unwindfunclet$??$?0V<lambda_da728ca663148a39a15f0482357f5ab9>@@@?$AsyncOperationCompletedHandler@W4RadioAccessStatus@Radios@Devices@Windows@@@Foundation@Windows@@Q$AAA@V<lambda_da728ca663148a39a15f0482357f5ab9>@@W4CallbackContext@Platform@@_N@Z$0 10019110 f   _nodert_generated.obj
 0001:00018110       __unwindfunclet$??$?0V<lambda_85b3af6e5f21e2dfbb949cdd8ca000ff>@@@?$AsyncOperationCompletedHandler@P$AAU?$IVectorView@P$AAVRadio@Radios@Devices@Windows@@@Collections@Foundation@Windows@@@Foundation@Windows@@Q$AAA@V<lambda_85b3af6e5f21e2dfbb949cdd8ca000ff>@@W4CallbackContext@Platform@@_N@Z$0 10019110 f   _nodert_generated.obj
 0001:00018110       __unwindfunclet$??$?0V<lambda_8abf72d2c54f8bb80c09b205f4cfafdd>@@@?$TypedEventHandler@P$AAVRadio@Radios@Devices@Windows@@P$AAVObject@Platform@@@Foundation@Windows@@Q$AAA@V<lambda_8abf72d2c54f8bb80c09b205f4cfafdd>@@W4CallbackContext@Platform@@_N@Z$0 10019110 f   _nodert_generated.obj
 0001:00018110       __unwindfunclet$??$?0V<lambda_1d4db423df950a9db6d5162d107d760e>@@@?$AsyncOperationCompletedHandler@P$AAVRadio@Radios@Devices@Windows@@@Foundation@Windows@@Q$AAA@V<lambda_1d4db423df950a9db6d5162d107d760e>@@W4CallbackContext@Platform@@_N@Z$0 10019110 f   _nodert_generated.obj
 0001:00018118       __unwindfunclet$??$?0V<lambda_85b3af6e5f21e2dfbb949cdd8ca000ff>@@@?$AsyncOperationCompletedHandler@P$AAU?$IVectorView@P$AAVRadio@Radios@Devices@Windows@@@Collections@Foundation@Windows@@@Foundation@Windows@@Q$AAA@V<lambda_85b3af6e5f21e2dfbb949cdd8ca000ff>@@W4CallbackContext@Platform@@_N@Z$1 10019118 f   _nodert_generated.obj
 0001:00018118       __unwindfunclet$??$?0V<lambda_1d4db423df950a9db6d5162d107d760e>@@@?$AsyncOperationCompletedHandler@P$AAVRadio@Radios@Devices@Windows@@@Foundation@Windows@@Q$AAA@V<lambda_1d4db423df950a9db6d5162d107d760e>@@W4CallbackContext@Platform@@_N@Z$1 10019118 f   _nodert_generated.obj
 0001:00018118       __unwindfunclet$??$?0V<lambda_8abf72d2c54f8bb80c09b205f4cfafdd>@@@?$TypedEventHandler@P$AAVRadio@Radios@Devices@Windows@@P$AAVObject@Platform@@@Foundation@Windows@@Q$AAA@V<lambda_8abf72d2c54f8bb80c09b205f4cfafdd>@@W4CallbackContext@Platform@@_N@Z$1 10019118 f   _nodert_generated.obj
 0001:00018118       __unwindfunclet$??$?0V<lambda_da728ca663148a39a15f0482357f5ab9>@@@?$AsyncOperationCompletedHandler@W4RadioAccessStatus@Radios@Devices@Windows@@@Foundation@Windows@@Q$AAA@V<lambda_da728ca663148a39a15f0482357f5ab9>@@W4CallbackContext@Platform@@_N@Z$1 10019118 f   _nodert_generated.obj
 0001:00018123       __unwindfunclet$??$?0V<lambda_8abf72d2c54f8bb80c09b205f4cfafdd>@@@?$TypedEventHandler@P$AAVRadio@Radios@Devices@Windows@@P$AAVObject@Platform@@@Foundation@Windows@@Q$AAA@V<lambda_8abf72d2c54f8bb80c09b205f4cfafdd>@@W4CallbackContext@Platform@@_N@Z$2 10019123 f   _nodert_generated.obj
 0001:00018123       __unwindfunclet$??$?0V<lambda_85b3af6e5f21e2dfbb949cdd8ca000ff>@@@?$AsyncOperationCompletedHandler@P$AAU?$IVectorView@P$AAVRadio@Radios@Devices@Windows@@@Collections@Foundation@Windows@@@Foundation@Windows@@Q$AAA@V<lambda_85b3af6e5f21e2dfbb949cdd8ca000ff>@@W4CallbackContext@Platform@@_N@Z$2 10019123 f   _nodert_generated.obj
 0001:00018123       __unwindfunclet$??$?0V<lambda_1d4db423df950a9db6d5162d107d760e>@@@?$AsyncOperationCompletedHandler@P$AAVRadio@Radios@Devices@Windows@@@Foundation@Windows@@Q$AAA@V<lambda_1d4db423df950a9db6d5162d107d760e>@@W4CallbackContext@Platform@@_N@Z$2 10019123 f   _nodert_generated.obj
 0001:00018123       __unwindfunclet$??$?0V<lambda_da728ca663148a39a15f0482357f5ab9>@@@?$AsyncOperationCompletedHandler@W4RadioAccessStatus@Radios@Devices@Windows@@@Foundation@Windows@@Q$AAA@V<lambda_da728ca663148a39a15f0482357f5ab9>@@W4CallbackContext@Platform@@_N@Z$2 10019123 f   _nodert_generated.obj
 0001:0001812e       __ehhandler$??$?0V<lambda_1d4db423df950a9db6d5162d107d760e>@@@?$AsyncOperationCompletedHandler@P$AAVRadio@Radios@Devices@Windows@@@Foundation@Windows@@Q$AAA@V<lambda_1d4db423df950a9db6d5162d107d760e>@@W4CallbackContext@Platform@@_N@Z 1001912e f   _nodert_generated.obj
 0001:0001812e       __ehhandler$??$?0V<lambda_da728ca663148a39a15f0482357f5ab9>@@@?$AsyncOperationCompletedHandler@W4RadioAccessStatus@Radios@Devices@Windows@@@Foundation@Windows@@Q$AAA@V<lambda_da728ca663148a39a15f0482357f5ab9>@@W4CallbackContext@Platform@@_N@Z 1001912e f   _nodert_generated.obj
 0001:0001812e       __ehhandler$??$?0V<lambda_85b3af6e5f21e2dfbb949cdd8ca000ff>@@@?$AsyncOperationCompletedHandler@P$AAU?$IVectorView@P$AAVRadio@Radios@Devices@Windows@@@Collections@Foundation@Windows@@@Foundation@Windows@@Q$AAA@V<lambda_85b3af6e5f21e2dfbb949cdd8ca000ff>@@W4CallbackContext@Platform@@_N@Z 1001912e f   _nodert_generated.obj
 0001:0001812e       __ehhandler$??$?0V<lambda_8abf72d2c54f8bb80c09b205f4cfafdd>@@@?$TypedEventHandler@P$AAVRadio@Radios@Devices@Windows@@P$AAVObject@Platform@@@Foundation@Windows@@Q$AAA@V<lambda_8abf72d2c54f8bb80c09b205f4cfafdd>@@W4CallbackContext@Platform@@_N@Z 1001912e f   _nodert_generated.obj
 0001:00018150       __unwindfunclet$??$swap@P$AAU?$IVectorView@P$AAVRadio@Radios@Devices@Windows@@@Collections@Foundation@Windows@@X@std@@YAXAAP$AAU?$IVectorView@P$AAVRadio@Radios@Devices@Windows@@@Collections@Foundation@Windows@@0@Z$0 10019150 f   _nodert_generated.obj
 0001:00018150       __unwindfunclet$??$__abi_unbox@_J@@YA_JP$AAVObject@Platform@@@Z$0 10019150 f   _nodert_generated.obj
 0001:0001815b       __ehhandler$??$__abi_unbox@_J@@YA_JP$AAVObject@Platform@@@Z 1001915b f   _nodert_generated.obj
 0001:0001815b       __ehhandler$??$swap@P$AAU?$IVectorView@P$AAVRadio@Radios@Devices@Windows@@@Collections@Foundation@Windows@@X@std@@YAXAAP$AAU?$IVectorView@P$AAVRadio@Radios@Devices@Windows@@@Collections@Foundation@Windows@@0@Z 1001915b f   _nodert_generated.obj
 0001:00018180       __unwindfunclet$??$make_shared@U?$_Task_impl@W4RadioAccessStatus@Radios@Devices@Windows@@@details@Concurrency@@AAPAV_CancellationTokenState@23@AAUscheduler_ptr@3@@std@@YA?AV?$shared_ptr@U?$_Task_impl@W4RadioAccessStatus@Radios@Devices@Windows@@@details@Concurrency@@@0@AAPAV_CancellationTokenState@details@Concurrency@@AAUscheduler_ptr@4@@Z$1 10019180 f   _nodert_generated.obj
 0001:00018180       __unwindfunclet$??$make_shared@U?$_Task_impl@P$AAVRadio@Radios@Devices@Windows@@@details@Concurrency@@AAPAV_CancellationTokenState@23@AAUscheduler_ptr@3@@std@@YA?AV?$shared_ptr@U?$_Task_impl@P$AAVRadio@Radios@Devices@Windows@@@details@Concurrency@@@0@AAPAV_CancellationTokenState@details@Concurrency@@AAUscheduler_ptr@4@@Z$1 10019180 f   _nodert_generated.obj
 0001:00018180       __unwindfunclet$??$make_shared@U?$_Task_impl@P$AAU?$IVectorView@P$AAVRadio@Radios@Devices@Windows@@@Collections@Foundation@Windows@@@details@Concurrency@@AAPAV_CancellationTokenState@23@AAUscheduler_ptr@3@@std@@YA?AV?$shared_ptr@U?$_Task_impl@P$AAU?$IVectorView@P$AAVRadio@Radios@Devices@Windows@@@Collections@Foundation@Windows@@@details@Concurrency@@@0@AAPAV_CancellationTokenState@details@Concurrency@@AAUscheduler_ptr@4@@Z$1 10019180 f   _nodert_generated.obj
 0001:00018180       __unwindfunclet$??$make_shared@U?$_Task_impl@E@details@Concurrency@@AAPAV_CancellationTokenState@23@AAUscheduler_ptr@3@@std@@YA?AV?$shared_ptr@U?$_Task_impl@E@details@Concurrency@@@0@AAPAV_CancellationTokenState@details@Concurrency@@AAUscheduler_ptr@4@@Z$1 10019180 f   _nodert_generated.obj
 0001:00018199       __ehhandler$??$make_shared@U?$_Task_impl@W4RadioAccessStatus@Radios@Devices@Windows@@@details@Concurrency@@AAPAV_CancellationTokenState@23@AAUscheduler_ptr@3@@std@@YA?AV?$shared_ptr@U?$_Task_impl@W4RadioAccessStatus@Radios@Devices@Windows@@@details@Concurrency@@@0@AAPAV_CancellationTokenState@details@Concurrency@@AAUscheduler_ptr@4@@Z 10019199 f   _nodert_generated.obj
 0001:00018199       __ehhandler$??$make_shared@U?$_Task_impl@P$AAU?$IVectorView@P$AAVRadio@Radios@Devices@Windows@@@Collections@Foundation@Windows@@@details@Concurrency@@AAPAV_CancellationTokenState@23@AAUscheduler_ptr@3@@std@@YA?AV?$shared_ptr@U?$_Task_impl@P$AAU?$IVectorView@P$AAVRadio@Radios@Devices@Windows@@@Collections@Foundation@Windows@@@details@Concurrency@@@0@AAPAV_CancellationTokenState@details@Concurrency@@AAUscheduler_ptr@4@@Z 10019199 f   _nodert_generated.obj
 0001:00018199       __ehhandler$??$make_shared@U?$_Task_impl@E@details@Concurrency@@AAPAV_CancellationTokenState@23@AAUscheduler_ptr@3@@std@@YA?AV?$shared_ptr@U?$_Task_impl@E@details@Concurrency@@@0@AAPAV_CancellationTokenState@details@Concurrency@@AAUscheduler_ptr@4@@Z 10019199 f   _nodert_generated.obj
 0001:00018199       __ehhandler$??$make_shared@U?$_Task_impl@P$AAVRadio@Radios@Devices@Windows@@@details@Concurrency@@AAPAV_CancellationTokenState@23@AAUscheduler_ptr@3@@std@@YA?AV?$shared_ptr@U?$_Task_impl@P$AAVRadio@Radios@Devices@Windows@@@details@Concurrency@@@0@AAPAV_CancellationTokenState@details@Concurrency@@AAUscheduler_ptr@4@@Z 10019199 f   _nodert_generated.obj
 0001:000181c0       __unwindfunclet$??$IsWinRtWrapperOf@P$AAU?$IVectorView@P$AAVRadio@Radios@Devices@Windows@@@Collections@Foundation@Windows@@@Utils@NodeRT@@YA_NV?$Local@VValue@v8@@@v8@@@Z$3 100191c0 f   _nodert_generated.obj
 0001:000181cb       __unwindfunclet$??$IsWinRtWrapperOf@P$AAU?$IVectorView@P$AAVRadio@Radios@Devices@Windows@@@Collections@Foundation@Windows@@@Utils@NodeRT@@YA_NV?$Local@VValue@v8@@@v8@@@Z$4 100191cb f   _nodert_generated.obj
 0001:000181d6       __ehhandler$??$IsWinRtWrapperOf@P$AAU?$IVectorView@P$AAVRadio@Radios@Devices@Windows@@@Collections@Foundation@Windows@@@Utils@NodeRT@@YA_NV?$Local@VValue@v8@@@v8@@@Z 100191d6 f   _nodert_generated.obj
 0001:00018200       __unwindfunclet$??$IsWinRtWrapperOf@P$AAU?$IIterator@P$AAVRadio@Radios@Devices@Windows@@@Collections@Foundation@Windows@@@Utils@NodeRT@@YA_NV?$Local@VValue@v8@@@v8@@@Z$3 10019200 f   _nodert_generated.obj
 0001:0001820b       __unwindfunclet$??$IsWinRtWrapperOf@P$AAU?$IIterator@P$AAVRadio@Radios@Devices@Windows@@@Collections@Foundation@Windows@@@Utils@NodeRT@@YA_NV?$Local@VValue@v8@@@v8@@@Z$4 1001920b f   _nodert_generated.obj
 0001:00018216       __ehhandler$??$IsWinRtWrapperOf@P$AAU?$IIterator@P$AAVRadio@Radios@Devices@Windows@@@Collections@Foundation@Windows@@@Utils@NodeRT@@YA_NV?$Local@VValue@v8@@@v8@@@Z 10019216 f   _nodert_generated.obj
 0001:00018240       __unwindfunclet$??B?$Box@_J@Platform@@Q$AAA_JXZ$0 10019240 f   _nodert_generated.obj
 0001:00018245       __unwindfunclet$??B?$Box@_J@Platform@@Q$AAA_JXZ$1 10019245 f   _nodert_generated.obj
 0001:00018250       __unwindfunclet$??B?$Box@_J@Platform@@Q$AAA_JXZ$2 10019250 f   _nodert_generated.obj
 0001:0001825b       __ehhandler$??B?$Box@_J@Platform@@Q$AAA_JXZ 1001925b f   _nodert_generated.obj
 0001:00018280       __unwindfunclet$??$?0ABVexception_ptr@std@@V_TaskCreationCallstack@details@Concurrency@@@?$_Ref_count_obj@U_ExceptionHolder@details@Concurrency@@@std@@QAE@ABVexception_ptr@1@$$QAV_TaskCreationCallstack@details@Concurrency@@@Z$0 10019280 f   _nodert_generated.obj
 0001:00018288       __unwindfunclet$??$?0ABVexception_ptr@std@@V_TaskCreationCallstack@details@Concurrency@@@?$_Ref_count_obj@U_ExceptionHolder@details@Concurrency@@@std@@QAE@ABVexception_ptr@1@$$QAV_TaskCreationCallstack@details@Concurrency@@@Z$1 10019288 f   _nodert_generated.obj
 0001:0001828d       __unwindfunclet$??$?0ABVexception_ptr@std@@V_TaskCreationCallstack@details@Concurrency@@@?$_Ref_count_obj@U_ExceptionHolder@details@Concurrency@@@std@@QAE@ABVexception_ptr@1@$$QAV_TaskCreationCallstack@details@Concurrency@@@Z$2 1001928d f   _nodert_generated.obj
 0001:00018298       __ehhandler$??$?0ABVexception_ptr@std@@V_TaskCreationCallstack@details@Concurrency@@@?$_Ref_count_obj@U_ExceptionHolder@details@Concurrency@@@std@@QAE@ABVexception_ptr@1@$$QAV_TaskCreationCallstack@details@Concurrency@@@Z 10019298 f   _nodert_generated.obj
 0001:000182c0       __unwindfunclet$??$?0P$AAU?$IAsyncOperation@P$AAVRadio@Radios@Devices@Windows@@@Foundation@Windows@@@?$task@P$AAVRadio@Radios@Devices@Windows@@@Concurrency@@QAE@P$AAU?$IAsyncOperation@P$AAVRadio@Radios@Devices@Windows@@@Foundation@Windows@@ABVtask_options@1@@Z$0 100192c0 f   _nodert_generated.obj
 0001:000182c0       __unwindfunclet$??$?0P$AAU?$IAsyncOperation@W4RadioAccessStatus@Radios@Devices@Windows@@@Foundation@Windows@@@?$task@W4RadioAccessStatus@Radios@Devices@Windows@@@Concurrency@@QAE@P$AAU?$IAsyncOperation@W4RadioAccessStatus@Radios@Devices@Windows@@@Foundation@Windows@@ABVtask_options@1@@Z$0 100192c0 f   _nodert_generated.obj
 0001:000182c0       __unwindfunclet$??$?0P$AAU?$IAsyncOperation@P$AAU?$IVectorView@P$AAVRadio@Radios@Devices@Windows@@@Collections@Foundation@Windows@@@Foundation@Windows@@@?$task@P$AAU?$IVectorView@P$AAVRadio@Radios@Devices@Windows@@@Collections@Foundation@Windows@@@Concurrency@@QAE@P$AAU?$IAsyncOperation@P$AAU?$IVectorView@P$AAVRadio@Radios@Devices@Windows@@@Collections@Foundation@Windows@@@Foundation@Windows@@ABVtask_options@1@@Z$0 100192c0 f   _nodert_generated.obj
 0001:000182cb       __unwindfunclet$??$?0P$AAU?$IAsyncOperation@P$AAVRadio@Radios@Devices@Windows@@@Foundation@Windows@@@?$task@P$AAVRadio@Radios@Devices@Windows@@@Concurrency@@QAE@P$AAU?$IAsyncOperation@P$AAVRadio@Radios@Devices@Windows@@@Foundation@Windows@@ABVtask_options@1@@Z$1 100192cb f   _nodert_generated.obj
 0001:000182cb       __unwindfunclet$??$?0P$AAU?$IAsyncOperation@P$AAU?$IVectorView@P$AAVRadio@Radios@Devices@Windows@@@Collections@Foundation@Windows@@@Foundation@Windows@@@?$task@P$AAU?$IVectorView@P$AAVRadio@Radios@Devices@Windows@@@Collections@Foundation@Windows@@@Concurrency@@QAE@P$AAU?$IAsyncOperation@P$AAU?$IVectorView@P$AAVRadio@Radios@Devices@Windows@@@Collections@Foundation@Windows@@@Foundation@Windows@@ABVtask_options@1@@Z$1 100192cb f   _nodert_generated.obj
 0001:000182cb       __unwindfunclet$??$?0P$AAU?$IAsyncOperation@W4RadioAccessStatus@Radios@Devices@Windows@@@Foundation@Windows@@@?$task@W4RadioAccessStatus@Radios@Devices@Windows@@@Concurrency@@QAE@P$AAU?$IAsyncOperation@W4RadioAccessStatus@Radios@Devices@Windows@@@Foundation@Windows@@ABVtask_options@1@@Z$1 100192cb f   _nodert_generated.obj
 0001:000182d3       __unwindfunclet$??$?0P$AAU?$IAsyncOperation@W4RadioAccessStatus@Radios@Devices@Windows@@@Foundation@Windows@@@?$task@W4RadioAccessStatus@Radios@Devices@Windows@@@Concurrency@@QAE@P$AAU?$IAsyncOperation@W4RadioAccessStatus@Radios@Devices@Windows@@@Foundation@Windows@@ABVtask_options@1@@Z$3 100192d3 f   _nodert_generated.obj
 0001:000182d3       __unwindfunclet$??$?0P$AAU?$IAsyncOperation@P$AAVRadio@Radios@Devices@Windows@@@Foundation@Windows@@@?$task@P$AAVRadio@Radios@Devices@Windows@@@Concurrency@@QAE@P$AAU?$IAsyncOperation@P$AAVRadio@Radios@Devices@Windows@@@Foundation@Windows@@ABVtask_options@1@@Z$3 100192d3 f   _nodert_generated.obj
 0001:000182d3       __unwindfunclet$??$?0P$AAU?$IAsyncOperation@P$AAU?$IVectorView@P$AAVRadio@Radios@Devices@Windows@@@Collections@Foundation@Windows@@@Foundation@Windows@@@?$task@P$AAU?$IVectorView@P$AAVRadio@Radios@Devices@Windows@@@Collections@Foundation@Windows@@@Concurrency@@QAE@P$AAU?$IAsyncOperation@P$AAU?$IVectorView@P$AAVRadio@Radios@Devices@Windows@@@Collections@Foundation@Windows@@@Foundation@Windows@@ABVtask_options@1@@Z$3 100192d3 f   _nodert_generated.obj
 0001:000182db       __unwindfunclet$??$?0P$AAU?$IAsyncOperation@P$AAVRadio@Radios@Devices@Windows@@@Foundation@Windows@@@?$task@P$AAVRadio@Radios@Devices@Windows@@@Concurrency@@QAE@P$AAU?$IAsyncOperation@P$AAVRadio@Radios@Devices@Windows@@@Foundation@Windows@@ABVtask_options@1@@Z$6 100192db f   _nodert_generated.obj
 0001:000182db       __unwindfunclet$??$?0P$AAU?$IAsyncOperation@W4RadioAccessStatus@Radios@Devices@Windows@@@Foundation@Windows@@@?$task@W4RadioAccessStatus@Radios@Devices@Windows@@@Concurrency@@QAE@P$AAU?$IAsyncOperation@W4RadioAccessStatus@Radios@Devices@Windows@@@Foundation@Windows@@ABVtask_options@1@@Z$6 100192db f   _nodert_generated.obj
 0001:000182db       __unwindfunclet$??$?0P$AAU?$IAsyncOperation@P$AAU?$IVectorView@P$AAVRadio@Radios@Devices@Windows@@@Collections@Foundation@Windows@@@Foundation@Windows@@@?$task@P$AAU?$IVectorView@P$AAVRadio@Radios@Devices@Windows@@@Collections@Foundation@Windows@@@Concurrency@@QAE@P$AAU?$IAsyncOperation@P$AAU?$IVectorView@P$AAVRadio@Radios@Devices@Windows@@@Collections@Foundation@Windows@@@Foundation@Windows@@ABVtask_options@1@@Z$6 100192db f   _nodert_generated.obj
 0001:000182e2       __unwindfunclet$??$?0P$AAU?$IAsyncOperation@P$AAVRadio@Radios@Devices@Windows@@@Foundation@Windows@@@?$task@P$AAVRadio@Radios@Devices@Windows@@@Concurrency@@QAE@P$AAU?$IAsyncOperation@P$AAVRadio@Radios@Devices@Windows@@@Foundation@Windows@@ABVtask_options@1@@Z$4 100192e2 f   _nodert_generated.obj
 0001:000182e2       __unwindfunclet$??$?0P$AAU?$IAsyncOperation@W4RadioAccessStatus@Radios@Devices@Windows@@@Foundation@Windows@@@?$task@W4RadioAccessStatus@Radios@Devices@Windows@@@Concurrency@@QAE@P$AAU?$IAsyncOperation@W4RadioAccessStatus@Radios@Devices@Windows@@@Foundation@Windows@@ABVtask_options@1@@Z$4 100192e2 f   _nodert_generated.obj
 0001:000182e2       __unwindfunclet$??$?0P$AAU?$IAsyncOperation@P$AAU?$IVectorView@P$AAVRadio@Radios@Devices@Windows@@@Collections@Foundation@Windows@@@Foundation@Windows@@@?$task@P$AAU?$IVectorView@P$AAVRadio@Radios@Devices@Windows@@@Collections@Foundation@Windows@@@Concurrency@@QAE@P$AAU?$IAsyncOperation@P$AAU?$IVectorView@P$AAVRadio@Radios@Devices@Windows@@@Collections@Foundation@Windows@@@Foundation@Windows@@ABVtask_options@1@@Z$4 100192e2 f   _nodert_generated.obj
 0001:000182fb       __unwindfunclet$??$?0P$AAU?$IAsyncOperation@W4RadioAccessStatus@Radios@Devices@Windows@@@Foundation@Windows@@@?$task@W4RadioAccessStatus@Radios@Devices@Windows@@@Concurrency@@QAE@P$AAU?$IAsyncOperation@W4RadioAccessStatus@Radios@Devices@Windows@@@Foundation@Windows@@ABVtask_options@1@@Z$5 100192fb f   _nodert_generated.obj
 0001:000182fb       __unwindfunclet$??$?0P$AAU?$IAsyncOperation@P$AAU?$IVectorView@P$AAVRadio@Radios@Devices@Windows@@@Collections@Foundation@Windows@@@Foundation@Windows@@@?$task@P$AAU?$IVectorView@P$AAVRadio@Radios@Devices@Windows@@@Collections@Foundation@Windows@@@Concurrency@@QAE@P$AAU?$IAsyncOperation@P$AAU?$IVectorView@P$AAVRadio@Radios@Devices@Windows@@@Collections@Foundation@Windows@@@Foundation@Windows@@ABVtask_options@1@@Z$5 100192fb f   _nodert_generated.obj
 0001:000182fb       __unwindfunclet$??$?0P$AAU?$IAsyncOperation@P$AAVRadio@Radios@Devices@Windows@@@Foundation@Windows@@@?$task@P$AAVRadio@Radios@Devices@Windows@@@Concurrency@@QAE@P$AAU?$IAsyncOperation@P$AAVRadio@Radios@Devices@Windows@@@Foundation@Windows@@ABVtask_options@1@@Z$5 100192fb f   _nodert_generated.obj
 0001:00018314       __ehhandler$??$?0P$AAU?$IAsyncOperation@P$AAVRadio@Radios@Devices@Windows@@@Foundation@Windows@@@?$task@P$AAVRadio@Radios@Devices@Windows@@@Concurrency@@QAE@P$AAU?$IAsyncOperation@P$AAVRadio@Radios@Devices@Windows@@@Foundation@Windows@@ABVtask_options@1@@Z 10019314 f   _nodert_generated.obj
 0001:00018314       __ehhandler$??$?0P$AAU?$IAsyncOperation@W4RadioAccessStatus@Radios@Devices@Windows@@@Foundation@Windows@@@?$task@W4RadioAccessStatus@Radios@Devices@Windows@@@Concurrency@@QAE@P$AAU?$IAsyncOperation@W4RadioAccessStatus@Radios@Devices@Windows@@@Foundation@Windows@@ABVtask_options@1@@Z 10019314 f   _nodert_generated.obj
 0001:00018314       __ehhandler$??$?0P$AAU?$IAsyncOperation@P$AAU?$IVectorView@P$AAVRadio@Radios@Devices@Windows@@@Collections@Foundation@Windows@@@Foundation@Windows@@@?$task@P$AAU?$IVectorView@P$AAVRadio@Radios@Devices@Windows@@@Collections@Foundation@Windows@@@Concurrency@@QAE@P$AAU?$IAsyncOperation@P$AAU?$IVectorView@P$AAVRadio@Radios@Devices@Windows@@@Collections@Foundation@Windows@@@Foundation@Windows@@ABVtask_options@1@@Z 10019314 f   _nodert_generated.obj
 0001:00018330       __unwindfunclet$??$_ThenImpl@P$AAVRadio@Radios@Devices@Windows@@V?$function@$$A6AXV?$task@P$AAVRadio@Radios@Devices@Windows@@@Concurrency@@@Z@std@@@?$task@P$AAVRadio@Radios@Devices@Windows@@@Concurrency@@ABE?AV?$task@X@1@ABV?$function@$$A6AXV?$task@P$AAVRadio@Radios@Devices@Windows@@@Concurrency@@@Z@std@@AAU_ThenImplOptions@details@1@@Z$0 10019330 f   _nodert_generated.obj
 0001:00018330       __unwindfunclet$??$_ThenImpl@W4RadioAccessStatus@Radios@Devices@Windows@@V?$function@$$A6AXV?$task@W4RadioAccessStatus@Radios@Devices@Windows@@@Concurrency@@@Z@std@@@?$task@W4RadioAccessStatus@Radios@Devices@Windows@@@Concurrency@@ABE?AV?$task@X@1@ABV?$function@$$A6AXV?$task@W4RadioAccessStatus@Radios@Devices@Windows@@@Concurrency@@@Z@std@@AAU_ThenImplOptions@details@1@@Z$0 10019330 f   _nodert_generated.obj
 0001:00018330       __unwindfunclet$??$_ThenImpl@P$AAU?$IVectorView@P$AAVRadio@Radios@Devices@Windows@@@Collections@Foundation@Windows@@V?$function@$$A6AXV?$task@P$AAU?$IVectorView@P$AAVRadio@Radios@Devices@Windows@@@Collections@Foundation@Windows@@@Concurrency@@@Z@std@@@?$task@P$AAU?$IVectorView@P$AAVRadio@Radios@Devices@Windows@@@Collections@Foundation@Windows@@@Concurrency@@ABE?AV?$task@X@1@ABV?$function@$$A6AXV?$task@P$AAU?$IVectorView@P$AAVRadio@Radios@Devices@Windows@@@Collections@Foundation@Windows@@@Concurrency@@@Z@std@@AAU_ThenImplOptions@details@1@@Z$0 10019330 f   _nodert_generated.obj
 0001:00018349       __unwindfunclet$??$_ThenImpl@W4RadioAccessStatus@Radios@Devices@Windows@@V?$function@$$A6AXV?$task@W4RadioAccessStatus@Radios@Devices@Windows@@@Concurrency@@@Z@std@@@?$task@W4RadioAccessStatus@Radios@Devices@Windows@@@Concurrency@@ABE?AV?$task@X@1@ABV?$function@$$A6AXV?$task@W4RadioAccessStatus@Radios@Devices@Windows@@@Concurrency@@@Z@std@@AAU_ThenImplOptions@details@1@@Z$2 10019349 f   _nodert_generated.obj
 0001:00018349       __unwindfunclet$??$_ThenImpl@P$AAVRadio@Radios@Devices@Windows@@V?$function@$$A6AXV?$task@P$AAVRadio@Radios@Devices@Windows@@@Concurrency@@@Z@std@@@?$task@P$AAVRadio@Radios@Devices@Windows@@@Concurrency@@ABE?AV?$task@X@1@ABV?$function@$$A6AXV?$task@P$AAVRadio@Radios@Devices@Windows@@@Concurrency@@@Z@std@@AAU_ThenImplOptions@details@1@@Z$2 10019349 f   _nodert_generated.obj
 0001:00018349       __unwindfunclet$??$_ThenImpl@P$AAU?$IVectorView@P$AAVRadio@Radios@Devices@Windows@@@Collections@Foundation@Windows@@V?$function@$$A6AXV?$task@P$AAU?$IVectorView@P$AAVRadio@Radios@Devices@Windows@@@Collections@Foundation@Windows@@@Concurrency@@@Z@std@@@?$task@P$AAU?$IVectorView@P$AAVRadio@Radios@Devices@Windows@@@Collections@Foundation@Windows@@@Concurrency@@ABE?AV?$task@X@1@ABV?$function@$$A6AXV?$task@P$AAU?$IVectorView@P$AAVRadio@Radios@Devices@Windows@@@Collections@Foundation@Windows@@@Concurrency@@@Z@std@@AAU_ThenImplOptions@details@1@@Z$2 10019349 f   _nodert_generated.obj
 0001:00018358       __ehhandler$??$_ThenImpl@P$AAU?$IVectorView@P$AAVRadio@Radios@Devices@Windows@@@Collections@Foundation@Windows@@V?$function@$$A6AXV?$task@P$AAU?$IVectorView@P$AAVRadio@Radios@Devices@Windows@@@Collections@Foundation@Windows@@@Concurrency@@@Z@std@@@?$task@P$AAU?$IVectorView@P$AAVRadio@Radios@Devices@Windows@@@Collections@Foundation@Windows@@@Concurrency@@ABE?AV?$task@X@1@ABV?$function@$$A6AXV?$task@P$AAU?$IVectorView@P$AAVRadio@Radios@Devices@Windows@@@Collections@Foundation@Windows@@@Concurrency@@@Z@std@@AAU_ThenImplOptions@details@1@@Z 10019358 f   _nodert_generated.obj
 0001:00018358       __ehhandler$??$_ThenImpl@W4RadioAccessStatus@Radios@Devices@Windows@@V?$function@$$A6AXV?$task@W4RadioAccessStatus@Radios@Devices@Windows@@@Concurrency@@@Z@std@@@?$task@W4RadioAccessStatus@Radios@Devices@Windows@@@Concurrency@@ABE?AV?$task@X@1@ABV?$function@$$A6AXV?$task@W4RadioAccessStatus@Radios@Devices@Windows@@@Concurrency@@@Z@std@@AAU_ThenImplOptions@details@1@@Z 10019358 f   _nodert_generated.obj
 0001:00018358       __ehhandler$??$_ThenImpl@P$AAVRadio@Radios@Devices@Windows@@V?$function@$$A6AXV?$task@P$AAVRadio@Radios@Devices@Windows@@@Concurrency@@@Z@std@@@?$task@P$AAVRadio@Radios@Devices@Windows@@@Concurrency@@ABE?AV?$task@X@1@ABV?$function@$$A6AXV?$task@P$AAVRadio@Radios@Devices@Windows@@@Concurrency@@@Z@std@@AAU_ThenImplOptions@details@1@@Z 10019358 f   _nodert_generated.obj
 0001:00018380       __unwindfunclet$??1?$_ContinuationTaskHandle@P$AAU?$IVectorView@P$AAVRadio@Radios@Devices@Windows@@@Collections@Foundation@Windows@@XV?$function@$$A6AXV?$task@P$AAU?$IVectorView@P$AAVRadio@Radios@Devices@Windows@@@Collections@Foundation@Windows@@@Concurrency@@@Z@std@@U?$integral_constant@_N$00@6@U_TypeSelectorNoAsync@details@Concurrency@@@?$task@P$AAU?$IVectorView@P$AAVRadio@Radios@Devices@Windows@@@Collections@Foundation@Windows@@@Concurrency@@UAE@XZ$0 10019380 f   _nodert_generated.obj
 0001:00018380       __unwindfunclet$??1?$_ContinuationTaskHandle@P$AAVRadio@Radios@Devices@Windows@@XV?$function@$$A6AXV?$task@P$AAVRadio@Radios@Devices@Windows@@@Concurrency@@@Z@std@@U?$integral_constant@_N$00@6@U_TypeSelectorNoAsync@details@Concurrency@@@?$task@P$AAVRadio@Radios@Devices@Windows@@@Concurrency@@UAE@XZ$0 10019380 f   _nodert_generated.obj
 0001:00018387       __unwindfunclet$??1?$_ContinuationTaskHandle@P$AAU?$IVectorView@P$AAVRadio@Radios@Devices@Windows@@@Collections@Foundation@Windows@@XV?$function@$$A6AXV?$task@P$AAU?$IVectorView@P$AAVRadio@Radios@Devices@Windows@@@Collections@Foundation@Windows@@@Concurrency@@@Z@std@@U?$integral_constant@_N$00@6@U_TypeSelectorNoAsync@details@Concurrency@@@?$task@P$AAU?$IVectorView@P$AAVRadio@Radios@Devices@Windows@@@Collections@Foundation@Windows@@@Concurrency@@UAE@XZ$3 10019387 f   _nodert_generated.obj
 0001:00018387       __unwindfunclet$??1?$_ContinuationTaskHandle@P$AAVRadio@Radios@Devices@Windows@@XV?$function@$$A6AXV?$task@P$AAVRadio@Radios@Devices@Windows@@@Concurrency@@@Z@std@@U?$integral_constant@_N$00@6@U_TypeSelectorNoAsync@details@Concurrency@@@?$task@P$AAVRadio@Radios@Devices@Windows@@@Concurrency@@UAE@XZ$3 10019387 f   _nodert_generated.obj
 0001:0001838e       __ehhandler$??1?$_ContinuationTaskHandle@P$AAU?$IVectorView@P$AAVRadio@Radios@Devices@Windows@@@Collections@Foundation@Windows@@XV?$function@$$A6AXV?$task@P$AAU?$IVectorView@P$AAVRadio@Radios@Devices@Windows@@@Collections@Foundation@Windows@@@Concurrency@@@Z@std@@U?$integral_constant@_N$00@6@U_TypeSelectorNoAsync@details@Concurrency@@@?$task@P$AAU?$IVectorView@P$AAVRadio@Radios@Devices@Windows@@@Collections@Foundation@Windows@@@Concurrency@@UAE@XZ 1001938e f   _nodert_generated.obj
 0001:0001838e       __ehhandler$??1?$_ContinuationTaskHandle@P$AAVRadio@Radios@Devices@Windows@@XV?$function@$$A6AXV?$task@P$AAVRadio@Radios@Devices@Windows@@@Concurrency@@@Z@std@@U?$integral_constant@_N$00@6@U_TypeSelectorNoAsync@details@Concurrency@@@?$task@P$AAVRadio@Radios@Devices@Windows@@@Concurrency@@UAE@XZ 1001938e f   _nodert_generated.obj
 0001:000183b0       __unwindfunclet$??0?$_ContinuationTaskHandle@P$AAVRadio@Radios@Devices@Windows@@XV?$function@$$A6AXV?$task@P$AAVRadio@Radios@Devices@Windows@@@Concurrency@@@Z@std@@U?$integral_constant@_N$00@6@U_TypeSelectorNoAsync@details@Concurrency@@@?$task@P$AAVRadio@Radios@Devices@Windows@@@Concurrency@@QAE@ABV?$shared_ptr@U?$_Task_impl@P$AAVRadio@Radios@Devices@Windows@@@details@Concurrency@@@std@@ABV?$shared_ptr@U?$_Task_impl@E@details@Concurrency@@@4@ABV?$function@$$A6AXV?$task@P$AAVRadio@Radios@Devices@Windows@@@Concurrency@@@Z@4@ABVtask_continuation_context@2@W4_TaskInliningMode@details@2@@Z$0 100193b0 f   _nodert_generated.obj
 0001:000183b8       __unwindfunclet$??0?$_ContinuationTaskHandle@P$AAVRadio@Radios@Devices@Windows@@XV?$function@$$A6AXV?$task@P$AAVRadio@Radios@Devices@Windows@@@Concurrency@@@Z@std@@U?$integral_constant@_N$00@6@U_TypeSelectorNoAsync@details@Concurrency@@@?$task@P$AAVRadio@Radios@Devices@Windows@@@Concurrency@@QAE@ABV?$shared_ptr@U?$_Task_impl@P$AAVRadio@Radios@Devices@Windows@@@details@Concurrency@@@std@@ABV?$shared_ptr@U?$_Task_impl@E@details@Concurrency@@@4@ABV?$function@$$A6AXV?$task@P$AAVRadio@Radios@Devices@Windows@@@Concurrency@@@Z@4@ABVtask_continuation_context@2@W4_TaskInliningMode@details@2@@Z$1 100193b8 f   _nodert_generated.obj
 0001:000183c3       __unwindfunclet$??0?$_ContinuationTaskHandle@P$AAVRadio@Radios@Devices@Windows@@XV?$function@$$A6AXV?$task@P$AAVRadio@Radios@Devices@Windows@@@Concurrency@@@Z@std@@U?$integral_constant@_N$00@6@U_TypeSelectorNoAsync@details@Concurrency@@@?$task@P$AAVRadio@Radios@Devices@Windows@@@Concurrency@@QAE@ABV?$shared_ptr@U?$_Task_impl@P$AAVRadio@Radios@Devices@Windows@@@details@Concurrency@@@std@@ABV?$shared_ptr@U?$_Task_impl@E@details@Concurrency@@@4@ABV?$function@$$A6AXV?$task@P$AAVRadio@Radios@Devices@Windows@@@Concurrency@@@Z@4@ABVtask_continuation_context@2@W4_TaskInliningMode@details@2@@Z$3 100193c3 f   _nodert_generated.obj
 0001:000183cb       __unwindfunclet$??0?$_ContinuationTaskHandle@P$AAVRadio@Radios@Devices@Windows@@XV?$function@$$A6AXV?$task@P$AAVRadio@Radios@Devices@Windows@@@Concurrency@@@Z@std@@U?$integral_constant@_N$00@6@U_TypeSelectorNoAsync@details@Concurrency@@@?$task@P$AAVRadio@Radios@Devices@Windows@@@Concurrency@@QAE@ABV?$shared_ptr@U?$_Task_impl@P$AAVRadio@Radios@Devices@Windows@@@details@Concurrency@@@std@@ABV?$shared_ptr@U?$_Task_impl@E@details@Concurrency@@@4@ABV?$function@$$A6AXV?$task@P$AAVRadio@Radios@Devices@Windows@@@Concurrency@@@Z@4@ABVtask_continuation_context@2@W4_TaskInliningMode@details@2@@Z$2 100193cb f   _nodert_generated.obj
 0001:000183d6       __ehhandler$??0?$_ContinuationTaskHandle@P$AAVRadio@Radios@Devices@Windows@@XV?$function@$$A6AXV?$task@P$AAVRadio@Radios@Devices@Windows@@@Concurrency@@@Z@std@@U?$integral_constant@_N$00@6@U_TypeSelectorNoAsync@details@Concurrency@@@?$task@P$AAVRadio@Radios@Devices@Windows@@@Concurrency@@QAE@ABV?$shared_ptr@U?$_Task_impl@P$AAVRadio@Radios@Devices@Windows@@@details@Concurrency@@@std@@ABV?$shared_ptr@U?$_Task_impl@E@details@Concurrency@@@4@ABV?$function@$$A6AXV?$task@P$AAVRadio@Radios@Devices@Windows@@@Concurrency@@@Z@4@ABVtask_continuation_context@2@W4_TaskInliningMode@details@2@@Z 100193d6 f   _nodert_generated.obj
 0001:00018400       __unwindfunclet$??0?$_ContinuationTaskHandle@P$AAU?$IVectorView@P$AAVRadio@Radios@Devices@Windows@@@Collections@Foundation@Windows@@XV?$function@$$A6AXV?$task@P$AAU?$IVectorView@P$AAVRadio@Radios@Devices@Windows@@@Collections@Foundation@Windows@@@Concurrency@@@Z@std@@U?$integral_constant@_N$00@6@U_TypeSelectorNoAsync@details@Concurrency@@@?$task@P$AAU?$IVectorView@P$AAVRadio@Radios@Devices@Windows@@@Collections@Foundation@Windows@@@Concurrency@@QAE@ABV?$shared_ptr@U?$_Task_impl@P$AAU?$IVectorView@P$AAVRadio@Radios@Devices@Windows@@@Collections@Foundation@Windows@@@details@Concurrency@@@std@@ABV?$shared_ptr@U?$_Task_impl@E@details@Concurrency@@@4@ABV?$function@$$A6AXV?$task@P$AAU?$IVectorView@P$AAVRadio@Radios@Devices@Windows@@@Collections@Foundation@Windows@@@Concurrency@@@Z@4@ABVtask_continuation_context@2@W4_TaskInliningMode@details@2@@Z$0 10019400 f   _nodert_generated.obj
 0001:00018408       __unwindfunclet$??0?$_ContinuationTaskHandle@P$AAU?$IVectorView@P$AAVRadio@Radios@Devices@Windows@@@Collections@Foundation@Windows@@XV?$function@$$A6AXV?$task@P$AAU?$IVectorView@P$AAVRadio@Radios@Devices@Windows@@@Collections@Foundation@Windows@@@Concurrency@@@Z@std@@U?$integral_constant@_N$00@6@U_TypeSelectorNoAsync@details@Concurrency@@@?$task@P$AAU?$IVectorView@P$AAVRadio@Radios@Devices@Windows@@@Collections@Foundation@Windows@@@Concurrency@@QAE@ABV?$shared_ptr@U?$_Task_impl@P$AAU?$IVectorView@P$AAVRadio@Radios@Devices@Windows@@@Collections@Foundation@Windows@@@details@Concurrency@@@std@@ABV?$shared_ptr@U?$_Task_impl@E@details@Concurrency@@@4@ABV?$function@$$A6AXV?$task@P$AAU?$IVectorView@P$AAVRadio@Radios@Devices@Windows@@@Collections@Foundation@Windows@@@Concurrency@@@Z@4@ABVtask_continuation_context@2@W4_TaskInliningMode@details@2@@Z$1 10019408 f   _nodert_generated.obj
 0001:00018413       __unwindfunclet$??0?$_ContinuationTaskHandle@P$AAU?$IVectorView@P$AAVRadio@Radios@Devices@Windows@@@Collections@Foundation@Windows@@XV?$function@$$A6AXV?$task@P$AAU?$IVectorView@P$AAVRadio@Radios@Devices@Windows@@@Collections@Foundation@Windows@@@Concurrency@@@Z@std@@U?$integral_constant@_N$00@6@U_TypeSelectorNoAsync@details@Concurrency@@@?$task@P$AAU?$IVectorView@P$AAVRadio@Radios@Devices@Windows@@@Collections@Foundation@Windows@@@Concurrency@@QAE@ABV?$shared_ptr@U?$_Task_impl@P$AAU?$IVectorView@P$AAVRadio@Radios@Devices@Windows@@@Collections@Foundation@Windows@@@details@Concurrency@@@std@@ABV?$shared_ptr@U?$_Task_impl@E@details@Concurrency@@@4@ABV?$function@$$A6AXV?$task@P$AAU?$IVectorView@P$AAVRadio@Radios@Devices@Windows@@@Collections@Foundation@Windows@@@Concurrency@@@Z@4@ABVtask_continuation_context@2@W4_TaskInliningMode@details@2@@Z$3 10019413 f   _nodert_generated.obj
 0001:0001841b       __unwindfunclet$??0?$_ContinuationTaskHandle@P$AAU?$IVectorView@P$AAVRadio@Radios@Devices@Windows@@@Collections@Foundation@Windows@@XV?$function@$$A6AXV?$task@P$AAU?$IVectorView@P$AAVRadio@Radios@Devices@Windows@@@Collections@Foundation@Windows@@@Concurrency@@@Z@std@@U?$integral_constant@_N$00@6@U_TypeSelectorNoAsync@details@Concurrency@@@?$task@P$AAU?$IVectorView@P$AAVRadio@Radios@Devices@Windows@@@Collections@Foundation@Windows@@@Concurrency@@QAE@ABV?$shared_ptr@U?$_Task_impl@P$AAU?$IVectorView@P$AAVRadio@Radios@Devices@Windows@@@Collections@Foundation@Windows@@@details@Concurrency@@@std@@ABV?$shared_ptr@U?$_Task_impl@E@details@Concurrency@@@4@ABV?$function@$$A6AXV?$task@P$AAU?$IVectorView@P$AAVRadio@Radios@Devices@Windows@@@Collections@Foundation@Windows@@@Concurrency@@@Z@4@ABVtask_continuation_context@2@W4_TaskInliningMode@details@2@@Z$2 1001941b f   _nodert_generated.obj
 0001:00018426       __ehhandler$??0?$_ContinuationTaskHandle@P$AAU?$IVectorView@P$AAVRadio@Radios@Devices@Windows@@@Collections@Foundation@Windows@@XV?$function@$$A6AXV?$task@P$AAU?$IVectorView@P$AAVRadio@Radios@Devices@Windows@@@Collections@Foundation@Windows@@@Concurrency@@@Z@std@@U?$integral_constant@_N$00@6@U_TypeSelectorNoAsync@details@Concurrency@@@?$task@P$AAU?$IVectorView@P$AAVRadio@Radios@Devices@Windows@@@Collections@Foundation@Windows@@@Concurrency@@QAE@ABV?$shared_ptr@U?$_Task_impl@P$AAU?$IVectorView@P$AAVRadio@Radios@Devices@Windows@@@Collections@Foundation@Windows@@@details@Concurrency@@@std@@ABV?$shared_ptr@U?$_Task_impl@E@details@Concurrency@@@4@ABV?$function@$$A6AXV?$task@P$AAU?$IVectorView@P$AAVRadio@Radios@Devices@Windows@@@Collections@Foundation@Windows@@@Concurrency@@@Z@4@ABVtask_continuation_context@2@W4_TaskInliningMode@details@2@@Z 10019426 f   _nodert_generated.obj
 0001:00018450       __unwindfunclet$??_G?$_PPLTaskHandle@EU?$_ContinuationTaskHandle@W4RadioAccessStatus@Radios@Devices@Windows@@XV?$function@$$A6AXV?$task@W4RadioAccessStatus@Radios@Devices@Windows@@@Concurrency@@@Z@std@@U?$integral_constant@_N$00@6@U_TypeSelectorNoAsync@details@Concurrency@@@?$task@W4RadioAccessStatus@Radios@Devices@Windows@@@Concurrency@@U_ContinuationTaskHandleBase@details@3@@details@Concurrency@@UAEPAXI@Z$0 10019450 f   _nodert_generated.obj
 0001:00018450       __unwindfunclet$??_G?$_PPLTaskHandle@EU?$_ContinuationTaskHandle@P$AAU?$IVectorView@P$AAVRadio@Radios@Devices@Windows@@@Collections@Foundation@Windows@@XV?$function@$$A6AXV?$task@P$AAU?$IVectorView@P$AAVRadio@Radios@Devices@Windows@@@Collections@Foundation@Windows@@@Concurrency@@@Z@std@@U?$integral_constant@_N$00@6@U_TypeSelectorNoAsync@details@Concurrency@@@?$task@P$AAU?$IVectorView@P$AAVRadio@Radios@Devices@Windows@@@Collections@Foundation@Windows@@@Concurrency@@U_ContinuationTaskHandleBase@details@3@@details@Concurrency@@UAEPAXI@Z$0 10019450 f   _nodert_generated.obj
 0001:00018450       __unwindfunclet$??1?$_ContinuationTaskHandle@W4RadioAccessStatus@Radios@Devices@Windows@@XV?$function@$$A6AXV?$task@W4RadioAccessStatus@Radios@Devices@Windows@@@Concurrency@@@Z@std@@U?$integral_constant@_N$00@6@U_TypeSelectorNoAsync@details@Concurrency@@@?$task@W4RadioAccessStatus@Radios@Devices@Windows@@@Concurrency@@UAE@XZ$0 10019450 f   _nodert_generated.obj
 0001:00018450       __unwindfunclet$??_G?$_PPLTaskHandle@EU?$_ContinuationTaskHandle@P$AAVRadio@Radios@Devices@Windows@@XV?$function@$$A6AXV?$task@P$AAVRadio@Radios@Devices@Windows@@@Concurrency@@@Z@std@@U?$integral_constant@_N$00@6@U_TypeSelectorNoAsync@details@Concurrency@@@?$task@P$AAVRadio@Radios@Devices@Windows@@@Concurrency@@U_ContinuationTaskHandleBase@details@3@@details@Concurrency@@UAEPAXI@Z$0 10019450 f   _nodert_generated.obj
 0001:00018457       __unwindfunclet$??_G?$_PPLTaskHandle@EU?$_ContinuationTaskHandle@W4RadioAccessStatus@Radios@Devices@Windows@@XV?$function@$$A6AXV?$task@W4RadioAccessStatus@Radios@Devices@Windows@@@Concurrency@@@Z@std@@U?$integral_constant@_N$00@6@U_TypeSelectorNoAsync@details@Concurrency@@@?$task@W4RadioAccessStatus@Radios@Devices@Windows@@@Concurrency@@U_ContinuationTaskHandleBase@details@3@@details@Concurrency@@UAEPAXI@Z$3 10019457 f   _nodert_generated.obj
 0001:00018457       __unwindfunclet$??_G?$_PPLTaskHandle@EU?$_ContinuationTaskHandle@P$AAU?$IVectorView@P$AAVRadio@Radios@Devices@Windows@@@Collections@Foundation@Windows@@XV?$function@$$A6AXV?$task@P$AAU?$IVectorView@P$AAVRadio@Radios@Devices@Windows@@@Collections@Foundation@Windows@@@Concurrency@@@Z@std@@U?$integral_constant@_N$00@6@U_TypeSelectorNoAsync@details@Concurrency@@@?$task@P$AAU?$IVectorView@P$AAVRadio@Radios@Devices@Windows@@@Collections@Foundation@Windows@@@Concurrency@@U_ContinuationTaskHandleBase@details@3@@details@Concurrency@@UAEPAXI@Z$3 10019457 f   _nodert_generated.obj
 0001:00018457       __unwindfunclet$??1?$_ContinuationTaskHandle@W4RadioAccessStatus@Radios@Devices@Windows@@XV?$function@$$A6AXV?$task@W4RadioAccessStatus@Radios@Devices@Windows@@@Concurrency@@@Z@std@@U?$integral_constant@_N$00@6@U_TypeSelectorNoAsync@details@Concurrency@@@?$task@W4RadioAccessStatus@Radios@Devices@Windows@@@Concurrency@@UAE@XZ$3 10019457 f   _nodert_generated.obj
 0001:00018457       __unwindfunclet$??_G?$_PPLTaskHandle@EU?$_ContinuationTaskHandle@P$AAVRadio@Radios@Devices@Windows@@XV?$function@$$A6AXV?$task@P$AAVRadio@Radios@Devices@Windows@@@Concurrency@@@Z@std@@U?$integral_constant@_N$00@6@U_TypeSelectorNoAsync@details@Concurrency@@@?$task@P$AAVRadio@Radios@Devices@Windows@@@Concurrency@@U_ContinuationTaskHandleBase@details@3@@details@Concurrency@@UAEPAXI@Z$3 10019457 f   _nodert_generated.obj
 0001:0001845e       __ehhandler$??1?$_ContinuationTaskHandle@W4RadioAccessStatus@Radios@Devices@Windows@@XV?$function@$$A6AXV?$task@W4RadioAccessStatus@Radios@Devices@Windows@@@Concurrency@@@Z@std@@U?$integral_constant@_N$00@6@U_TypeSelectorNoAsync@details@Concurrency@@@?$task@W4RadioAccessStatus@Radios@Devices@Windows@@@Concurrency@@UAE@XZ 1001945e f   _nodert_generated.obj
 0001:0001845e       __ehhandler$??_G?$_PPLTaskHandle@EU?$_ContinuationTaskHandle@W4RadioAccessStatus@Radios@Devices@Windows@@XV?$function@$$A6AXV?$task@W4RadioAccessStatus@Radios@Devices@Windows@@@Concurrency@@@Z@std@@U?$integral_constant@_N$00@6@U_TypeSelectorNoAsync@details@Concurrency@@@?$task@W4RadioAccessStatus@Radios@Devices@Windows@@@Concurrency@@U_ContinuationTaskHandleBase@details@3@@details@Concurrency@@UAEPAXI@Z 1001945e f   _nodert_generated.obj
 0001:0001845e       __ehhandler$??_G?$_PPLTaskHandle@EU?$_ContinuationTaskHandle@P$AAVRadio@Radios@Devices@Windows@@XV?$function@$$A6AXV?$task@P$AAVRadio@Radios@Devices@Windows@@@Concurrency@@@Z@std@@U?$integral_constant@_N$00@6@U_TypeSelectorNoAsync@details@Concurrency@@@?$task@P$AAVRadio@Radios@Devices@Windows@@@Concurrency@@U_ContinuationTaskHandleBase@details@3@@details@Concurrency@@UAEPAXI@Z 1001945e f   _nodert_generated.obj
 0001:0001845e       __ehhandler$??_G?$_PPLTaskHandle@EU?$_ContinuationTaskHandle@P$AAU?$IVectorView@P$AAVRadio@Radios@Devices@Windows@@@Collections@Foundation@Windows@@XV?$function@$$A6AXV?$task@P$AAU?$IVectorView@P$AAVRadio@Radios@Devices@Windows@@@Collections@Foundation@Windows@@@Concurrency@@@Z@std@@U?$integral_constant@_N$00@6@U_TypeSelectorNoAsync@details@Concurrency@@@?$task@P$AAU?$IVectorView@P$AAVRadio@Radios@Devices@Windows@@@Collections@Foundation@Windows@@@Concurrency@@U_ContinuationTaskHandleBase@details@3@@details@Concurrency@@UAEPAXI@Z 1001945e f   _nodert_generated.obj
 0001:00018480       __unwindfunclet$??0?$_ContinuationTaskHandle@W4RadioAccessStatus@Radios@Devices@Windows@@XV?$function@$$A6AXV?$task@W4RadioAccessStatus@Radios@Devices@Windows@@@Concurrency@@@Z@std@@U?$integral_constant@_N$00@6@U_TypeSelectorNoAsync@details@Concurrency@@@?$task@W4RadioAccessStatus@Radios@Devices@Windows@@@Concurrency@@QAE@ABV?$shared_ptr@U?$_Task_impl@W4RadioAccessStatus@Radios@Devices@Windows@@@details@Concurrency@@@std@@ABV?$shared_ptr@U?$_Task_impl@E@details@Concurrency@@@4@ABV?$function@$$A6AXV?$task@W4RadioAccessStatus@Radios@Devices@Windows@@@Concurrency@@@Z@4@ABVtask_continuation_context@2@W4_TaskInliningMode@details@2@@Z$0 10019480 f   _nodert_generated.obj
 0001:00018488       __unwindfunclet$??0?$_ContinuationTaskHandle@W4RadioAccessStatus@Radios@Devices@Windows@@XV?$function@$$A6AXV?$task@W4RadioAccessStatus@Radios@Devices@Windows@@@Concurrency@@@Z@std@@U?$integral_constant@_N$00@6@U_TypeSelectorNoAsync@details@Concurrency@@@?$task@W4RadioAccessStatus@Radios@Devices@Windows@@@Concurrency@@QAE@ABV?$shared_ptr@U?$_Task_impl@W4RadioAccessStatus@Radios@Devices@Windows@@@details@Concurrency@@@std@@ABV?$shared_ptr@U?$_Task_impl@E@details@Concurrency@@@4@ABV?$function@$$A6AXV?$task@W4RadioAccessStatus@Radios@Devices@Windows@@@Concurrency@@@Z@4@ABVtask_continuation_context@2@W4_TaskInliningMode@details@2@@Z$1 10019488 f   _nodert_generated.obj
 0001:00018493       __unwindfunclet$??0?$_ContinuationTaskHandle@W4RadioAccessStatus@Radios@Devices@Windows@@XV?$function@$$A6AXV?$task@W4RadioAccessStatus@Radios@Devices@Windows@@@Concurrency@@@Z@std@@U?$integral_constant@_N$00@6@U_TypeSelectorNoAsync@details@Concurrency@@@?$task@W4RadioAccessStatus@Radios@Devices@Windows@@@Concurrency@@QAE@ABV?$shared_ptr@U?$_Task_impl@W4RadioAccessStatus@Radios@Devices@Windows@@@details@Concurrency@@@std@@ABV?$shared_ptr@U?$_Task_impl@E@details@Concurrency@@@4@ABV?$function@$$A6AXV?$task@W4RadioAccessStatus@Radios@Devices@Windows@@@Concurrency@@@Z@4@ABVtask_continuation_context@2@W4_TaskInliningMode@details@2@@Z$3 10019493 f   _nodert_generated.obj
 0001:0001849b       __unwindfunclet$??0?$_ContinuationTaskHandle@W4RadioAccessStatus@Radios@Devices@Windows@@XV?$function@$$A6AXV?$task@W4RadioAccessStatus@Radios@Devices@Windows@@@Concurrency@@@Z@std@@U?$integral_constant@_N$00@6@U_TypeSelectorNoAsync@details@Concurrency@@@?$task@W4RadioAccessStatus@Radios@Devices@Windows@@@Concurrency@@QAE@ABV?$shared_ptr@U?$_Task_impl@W4RadioAccessStatus@Radios@Devices@Windows@@@details@Concurrency@@@std@@ABV?$shared_ptr@U?$_Task_impl@E@details@Concurrency@@@4@ABV?$function@$$A6AXV?$task@W4RadioAccessStatus@Radios@Devices@Windows@@@Concurrency@@@Z@4@ABVtask_continuation_context@2@W4_TaskInliningMode@details@2@@Z$2 1001949b f   _nodert_generated.obj
 0001:000184a6       __ehhandler$??0?$_ContinuationTaskHandle@W4RadioAccessStatus@Radios@Devices@Windows@@XV?$function@$$A6AXV?$task@W4RadioAccessStatus@Radios@Devices@Windows@@@Concurrency@@@Z@std@@U?$integral_constant@_N$00@6@U_TypeSelectorNoAsync@details@Concurrency@@@?$task@W4RadioAccessStatus@Radios@Devices@Windows@@@Concurrency@@QAE@ABV?$shared_ptr@U?$_Task_impl@W4RadioAccessStatus@Radios@Devices@Windows@@@details@Concurrency@@@std@@ABV?$shared_ptr@U?$_Task_impl@E@details@Concurrency@@@4@ABV?$function@$$A6AXV?$task@W4RadioAccessStatus@Radios@Devices@Windows@@@Concurrency@@@Z@4@ABVtask_continuation_context@2@W4_TaskInliningMode@details@2@@Z 100194a6 f   _nodert_generated.obj
 0001:000184d0       __ehhandler$?_Reset@?$_Ptr_base@U_Task_impl_base@details@Concurrency@@@std@@QAEXPAU_Task_impl_base@details@Concurrency@@PAV_Ref_count_base@2@_N@Z 100194d0 f   _nodert_generated.obj
 0001:000184f0       __unwindfunclet$??0?$_PPLTaskHandle@EU?$_ContinuationTaskHandle@P$AAVRadio@Radios@Devices@Windows@@XV?$function@$$A6AXV?$task@P$AAVRadio@Radios@Devices@Windows@@@Concurrency@@@Z@std@@U?$integral_constant@_N$00@6@U_TypeSelectorNoAsync@details@Concurrency@@@?$task@P$AAVRadio@Radios@Devices@Windows@@@Concurrency@@U_ContinuationTaskHandleBase@details@3@@details@Concurrency@@QAE@ABV?$shared_ptr@U?$_Task_impl@E@details@Concurrency@@@std@@@Z$2 100194f0 f   _nodert_generated.obj
 0001:000184f0       __unwindfunclet$??0?$_PPLTaskHandle@EU?$_ContinuationTaskHandle@W4RadioAccessStatus@Radios@Devices@Windows@@XV?$function@$$A6AXV?$task@W4RadioAccessStatus@Radios@Devices@Windows@@@Concurrency@@@Z@std@@U?$integral_constant@_N$00@6@U_TypeSelectorNoAsync@details@Concurrency@@@?$task@W4RadioAccessStatus@Radios@Devices@Windows@@@Concurrency@@U_ContinuationTaskHandleBase@details@3@@details@Concurrency@@QAE@ABV?$shared_ptr@U?$_Task_impl@E@details@Concurrency@@@std@@@Z$2 100194f0 f   _nodert_generated.obj
 0001:000184f0       __unwindfunclet$??0?$_PPLTaskHandle@EU?$_ContinuationTaskHandle@P$AAU?$IVectorView@P$AAVRadio@Radios@Devices@Windows@@@Collections@Foundation@Windows@@XV?$function@$$A6AXV?$task@P$AAU?$IVectorView@P$AAVRadio@Radios@Devices@Windows@@@Collections@Foundation@Windows@@@Concurrency@@@Z@std@@U?$integral_constant@_N$00@6@U_TypeSelectorNoAsync@details@Concurrency@@@?$task@P$AAU?$IVectorView@P$AAVRadio@Radios@Devices@Windows@@@Collections@Foundation@Windows@@@Concurrency@@U_ContinuationTaskHandleBase@details@3@@details@Concurrency@@QAE@ABV?$shared_ptr@U?$_Task_impl@E@details@Concurrency@@@std@@@Z$2 100194f0 f   _nodert_generated.obj
 0001:000184f8       __ehhandler$??0?$_PPLTaskHandle@EU?$_ContinuationTaskHandle@P$AAVRadio@Radios@Devices@Windows@@XV?$function@$$A6AXV?$task@P$AAVRadio@Radios@Devices@Windows@@@Concurrency@@@Z@std@@U?$integral_constant@_N$00@6@U_TypeSelectorNoAsync@details@Concurrency@@@?$task@P$AAVRadio@Radios@Devices@Windows@@@Concurrency@@U_ContinuationTaskHandleBase@details@3@@details@Concurrency@@QAE@ABV?$shared_ptr@U?$_Task_impl@E@details@Concurrency@@@std@@@Z 100194f8 f   _nodert_generated.obj
 0001:000184f8       __ehhandler$??0?$_PPLTaskHandle@EU?$_ContinuationTaskHandle@P$AAU?$IVectorView@P$AAVRadio@Radios@Devices@Windows@@@Collections@Foundation@Windows@@XV?$function@$$A6AXV?$task@P$AAU?$IVectorView@P$AAVRadio@Radios@Devices@Windows@@@Collections@Foundation@Windows@@@Concurrency@@@Z@std@@U?$integral_constant@_N$00@6@U_TypeSelectorNoAsync@details@Concurrency@@@?$task@P$AAU?$IVectorView@P$AAVRadio@Radios@Devices@Windows@@@Collections@Foundation@Windows@@@Concurrency@@U_ContinuationTaskHandleBase@details@3@@details@Concurrency@@QAE@ABV?$shared_ptr@U?$_Task_impl@E@details@Concurrency@@@std@@@Z 100194f8 f   _nodert_generated.obj
 0001:000184f8       __ehhandler$??0?$_PPLTaskHandle@EU?$_ContinuationTaskHandle@W4RadioAccessStatus@Radios@Devices@Windows@@XV?$function@$$A6AXV?$task@W4RadioAccessStatus@Radios@Devices@Windows@@@Concurrency@@@Z@std@@U?$integral_constant@_N$00@6@U_TypeSelectorNoAsync@details@Concurrency@@@?$task@W4RadioAccessStatus@Radios@Devices@Windows@@@Concurrency@@U_ContinuationTaskHandleBase@details@3@@details@Concurrency@@QAE@ABV?$shared_ptr@U?$_Task_impl@E@details@Concurrency@@@std@@@Z 100194f8 f   _nodert_generated.obj
 0001:00018520       __unwindfunclet$?_Continue@?$_ContinuationTaskHandle@P$AAVRadio@Radios@Devices@Windows@@XV?$function@$$A6AXV?$task@P$AAVRadio@Radios@Devices@Windows@@@Concurrency@@@Z@std@@U?$integral_constant@_N$00@6@U_TypeSelectorNoAsync@details@Concurrency@@@?$task@P$AAVRadio@Radios@Devices@Windows@@@Concurrency@@QBEXU?$integral_constant@_N$00@std@@U_TypeSelectorNoAsync@details@3@@Z$0 10019520 f   _nodert_generated.obj
 0001:00018528       __unwindfunclet$?_Continue@?$_ContinuationTaskHandle@P$AAVRadio@Radios@Devices@Windows@@XV?$function@$$A6AXV?$task@P$AAVRadio@Radios@Devices@Windows@@@Concurrency@@@Z@std@@U?$integral_constant@_N$00@6@U_TypeSelectorNoAsync@details@Concurrency@@@?$task@P$AAVRadio@Radios@Devices@Windows@@@Concurrency@@QBEXU?$integral_constant@_N$00@std@@U_TypeSelectorNoAsync@details@3@@Z$3 10019528 f   _nodert_generated.obj
 0001:00018530       __unwindfunclet$?_Continue@?$_ContinuationTaskHandle@P$AAVRadio@Radios@Devices@Windows@@XV?$function@$$A6AXV?$task@P$AAVRadio@Radios@Devices@Windows@@@Concurrency@@@Z@std@@U?$integral_constant@_N$00@6@U_TypeSelectorNoAsync@details@Concurrency@@@?$task@P$AAVRadio@Radios@Devices@Windows@@@Concurrency@@QBEXU?$integral_constant@_N$00@std@@U_TypeSelectorNoAsync@details@3@@Z$2 10019530 f   _nodert_generated.obj
 0001:00018538       __unwindfunclet$?_Continue@?$_ContinuationTaskHandle@P$AAVRadio@Radios@Devices@Windows@@XV?$function@$$A6AXV?$task@P$AAVRadio@Radios@Devices@Windows@@@Concurrency@@@Z@std@@U?$integral_constant@_N$00@6@U_TypeSelectorNoAsync@details@Concurrency@@@?$task@P$AAVRadio@Radios@Devices@Windows@@@Concurrency@@QBEXU?$integral_constant@_N$00@std@@U_TypeSelectorNoAsync@details@3@@Z$5 10019538 f   _nodert_generated.obj
 0001:00018540       __unwindfunclet$?_Continue@?$_ContinuationTaskHandle@P$AAVRadio@Radios@Devices@Windows@@XV?$function@$$A6AXV?$task@P$AAVRadio@Radios@Devices@Windows@@@Concurrency@@@Z@std@@U?$integral_constant@_N$00@6@U_TypeSelectorNoAsync@details@Concurrency@@@?$task@P$AAVRadio@Radios@Devices@Windows@@@Concurrency@@QBEXU?$integral_constant@_N$00@std@@U_TypeSelectorNoAsync@details@3@@Z$7 10019540 f   _nodert_generated.obj
 0001:00018547       __ehhandler$?_Continue@?$_ContinuationTaskHandle@P$AAVRadio@Radios@Devices@Windows@@XV?$function@$$A6AXV?$task@P$AAVRadio@Radios@Devices@Windows@@@Concurrency@@@Z@std@@U?$integral_constant@_N$00@6@U_TypeSelectorNoAsync@details@Concurrency@@@?$task@P$AAVRadio@Radios@Devices@Windows@@@Concurrency@@QBEXU?$integral_constant@_N$00@std@@U_TypeSelectorNoAsync@details@3@@Z 10019547 f   _nodert_generated.obj
 0001:00018570       __unwindfunclet$?_Continue@?$_ContinuationTaskHandle@P$AAU?$IVectorView@P$AAVRadio@Radios@Devices@Windows@@@Collections@Foundation@Windows@@XV?$function@$$A6AXV?$task@P$AAU?$IVectorView@P$AAVRadio@Radios@Devices@Windows@@@Collections@Foundation@Windows@@@Concurrency@@@Z@std@@U?$integral_constant@_N$00@6@U_TypeSelectorNoAsync@details@Concurrency@@@?$task@P$AAU?$IVectorView@P$AAVRadio@Radios@Devices@Windows@@@Collections@Foundation@Windows@@@Concurrency@@QBEXU?$integral_constant@_N$00@std@@U_TypeSelectorNoAsync@details@3@@Z$0 10019570 f   _nodert_generated.obj
 0001:00018578       __unwindfunclet$?_Continue@?$_ContinuationTaskHandle@P$AAU?$IVectorView@P$AAVRadio@Radios@Devices@Windows@@@Collections@Foundation@Windows@@XV?$function@$$A6AXV?$task@P$AAU?$IVectorView@P$AAVRadio@Radios@Devices@Windows@@@Collections@Foundation@Windows@@@Concurrency@@@Z@std@@U?$integral_constant@_N$00@6@U_TypeSelectorNoAsync@details@Concurrency@@@?$task@P$AAU?$IVectorView@P$AAVRadio@Radios@Devices@Windows@@@Collections@Foundation@Windows@@@Concurrency@@QBEXU?$integral_constant@_N$00@std@@U_TypeSelectorNoAsync@details@3@@Z$3 10019578 f   _nodert_generated.obj
 0001:00018580       __unwindfunclet$?_Continue@?$_ContinuationTaskHandle@P$AAU?$IVectorView@P$AAVRadio@Radios@Devices@Windows@@@Collections@Foundation@Windows@@XV?$function@$$A6AXV?$task@P$AAU?$IVectorView@P$AAVRadio@Radios@Devices@Windows@@@Collections@Foundation@Windows@@@Concurrency@@@Z@std@@U?$integral_constant@_N$00@6@U_TypeSelectorNoAsync@details@Concurrency@@@?$task@P$AAU?$IVectorView@P$AAVRadio@Radios@Devices@Windows@@@Collections@Foundation@Windows@@@Concurrency@@QBEXU?$integral_constant@_N$00@std@@U_TypeSelectorNoAsync@details@3@@Z$2 10019580 f   _nodert_generated.obj
 0001:00018588       __unwindfunclet$?_Continue@?$_ContinuationTaskHandle@P$AAU?$IVectorView@P$AAVRadio@Radios@Devices@Windows@@@Collections@Foundation@Windows@@XV?$function@$$A6AXV?$task@P$AAU?$IVectorView@P$AAVRadio@Radios@Devices@Windows@@@Collections@Foundation@Windows@@@Concurrency@@@Z@std@@U?$integral_constant@_N$00@6@U_TypeSelectorNoAsync@details@Concurrency@@@?$task@P$AAU?$IVectorView@P$AAVRadio@Radios@Devices@Windows@@@Collections@Foundation@Windows@@@Concurrency@@QBEXU?$integral_constant@_N$00@std@@U_TypeSelectorNoAsync@details@3@@Z$5 10019588 f   _nodert_generated.obj
 0001:00018590       __unwindfunclet$?_Continue@?$_ContinuationTaskHandle@P$AAU?$IVectorView@P$AAVRadio@Radios@Devices@Windows@@@Collections@Foundation@Windows@@XV?$function@$$A6AXV?$task@P$AAU?$IVectorView@P$AAVRadio@Radios@Devices@Windows@@@Collections@Foundation@Windows@@@Concurrency@@@Z@std@@U?$integral_constant@_N$00@6@U_TypeSelectorNoAsync@details@Concurrency@@@?$task@P$AAU?$IVectorView@P$AAVRadio@Radios@Devices@Windows@@@Collections@Foundation@Windows@@@Concurrency@@QBEXU?$integral_constant@_N$00@std@@U_TypeSelectorNoAsync@details@3@@Z$7 10019590 f   _nodert_generated.obj
 0001:00018597       __ehhandler$?_Continue@?$_ContinuationTaskHandle@P$AAU?$IVectorView@P$AAVRadio@Radios@Devices@Windows@@@Collections@Foundation@Windows@@XV?$function@$$A6AXV?$task@P$AAU?$IVectorView@P$AAVRadio@Radios@Devices@Windows@@@Collections@Foundation@Windows@@@Concurrency@@@Z@std@@U?$integral_constant@_N$00@6@U_TypeSelectorNoAsync@details@Concurrency@@@?$task@P$AAU?$IVectorView@P$AAVRadio@Radios@Devices@Windows@@@Collections@Foundation@Windows@@@Concurrency@@QBEXU?$integral_constant@_N$00@std@@U_TypeSelectorNoAsync@details@3@@Z 10019597 f   _nodert_generated.obj
 0001:000185c0       __unwindfunclet$?_Continue@?$_ContinuationTaskHandle@W4RadioAccessStatus@Radios@Devices@Windows@@XV?$function@$$A6AXV?$task@W4RadioAccessStatus@Radios@Devices@Windows@@@Concurrency@@@Z@std@@U?$integral_constant@_N$00@6@U_TypeSelectorNoAsync@details@Concurrency@@@?$task@W4RadioAccessStatus@Radios@Devices@Windows@@@Concurrency@@QBEXU?$integral_constant@_N$00@std@@U_TypeSelectorNoAsync@details@3@@Z$0 100195c0 f   _nodert_generated.obj
 0001:000185c8       __unwindfunclet$?_Continue@?$_ContinuationTaskHandle@W4RadioAccessStatus@Radios@Devices@Windows@@XV?$function@$$A6AXV?$task@W4RadioAccessStatus@Radios@Devices@Windows@@@Concurrency@@@Z@std@@U?$integral_constant@_N$00@6@U_TypeSelectorNoAsync@details@Concurrency@@@?$task@W4RadioAccessStatus@Radios@Devices@Windows@@@Concurrency@@QBEXU?$integral_constant@_N$00@std@@U_TypeSelectorNoAsync@details@3@@Z$3 100195c8 f   _nodert_generated.obj
 0001:000185d0       __unwindfunclet$?_Continue@?$_ContinuationTaskHandle@W4RadioAccessStatus@Radios@Devices@Windows@@XV?$function@$$A6AXV?$task@W4RadioAccessStatus@Radios@Devices@Windows@@@Concurrency@@@Z@std@@U?$integral_constant@_N$00@6@U_TypeSelectorNoAsync@details@Concurrency@@@?$task@W4RadioAccessStatus@Radios@Devices@Windows@@@Concurrency@@QBEXU?$integral_constant@_N$00@std@@U_TypeSelectorNoAsync@details@3@@Z$2 100195d0 f   _nodert_generated.obj
 0001:000185d8       __unwindfunclet$?_Continue@?$_ContinuationTaskHandle@W4RadioAccessStatus@Radios@Devices@Windows@@XV?$function@$$A6AXV?$task@W4RadioAccessStatus@Radios@Devices@Windows@@@Concurrency@@@Z@std@@U?$integral_constant@_N$00@6@U_TypeSelectorNoAsync@details@Concurrency@@@?$task@W4RadioAccessStatus@Radios@Devices@Windows@@@Concurrency@@QBEXU?$integral_constant@_N$00@std@@U_TypeSelectorNoAsync@details@3@@Z$4 100195d8 f   _nodert_generated.obj
 0001:000185e0       __unwindfunclet$?_Continue@?$_ContinuationTaskHandle@W4RadioAccessStatus@Radios@Devices@Windows@@XV?$function@$$A6AXV?$task@W4RadioAccessStatus@Radios@Devices@Windows@@@Concurrency@@@Z@std@@U?$integral_constant@_N$00@6@U_TypeSelectorNoAsync@details@Concurrency@@@?$task@W4RadioAccessStatus@Radios@Devices@Windows@@@Concurrency@@QBEXU?$integral_constant@_N$00@std@@U_TypeSelectorNoAsync@details@3@@Z$6 100195e0 f   _nodert_generated.obj
 0001:000185e7       __ehhandler$?_Continue@?$_ContinuationTaskHandle@W4RadioAccessStatus@Radios@Devices@Windows@@XV?$function@$$A6AXV?$task@W4RadioAccessStatus@Radios@Devices@Windows@@@Concurrency@@@Z@std@@U?$integral_constant@_N$00@6@U_TypeSelectorNoAsync@details@Concurrency@@@?$task@W4RadioAccessStatus@Radios@Devices@Windows@@@Concurrency@@QBEXU?$integral_constant@_N$00@std@@U_TypeSelectorNoAsync@details@3@@Z 100195e7 f   _nodert_generated.obj
 0001:00018610       __unwindfunclet$?_Perform@?$_Continuation_func_transformer@V?$task@W4RadioAccessStatus@Radios@Devices@Windows@@@Concurrency@@X@Concurrency@@SA?AV?$function@$$A6AEV?$task@W4RadioAccessStatus@Radios@Devices@Windows@@@Concurrency@@@Z@std@@V?$function@$$A6AXV?$task@W4RadioAccessStatus@Radios@Devices@Windows@@@Concurrency@@@Z@4@@Z$0 10019610 f   _nodert_generated.obj
 0001:00018618       __ehhandler$?_Perform@?$_Continuation_func_transformer@V?$task@W4RadioAccessStatus@Radios@Devices@Windows@@@Concurrency@@X@Concurrency@@SA?AV?$function@$$A6AEV?$task@W4RadioAccessStatus@Radios@Devices@Windows@@@Concurrency@@@Z@std@@V?$function@$$A6AXV?$task@W4RadioAccessStatus@Radios@Devices@Windows@@@Concurrency@@@Z@4@@Z 10019618 f   _nodert_generated.obj
 0001:00018640       __unwindfunclet$?_Perform@?$_Continuation_func_transformer@V?$task@P$AAU?$IVectorView@P$AAVRadio@Radios@Devices@Windows@@@Collections@Foundation@Windows@@@Concurrency@@X@Concurrency@@SA?AV?$function@$$A6AEV?$task@P$AAU?$IVectorView@P$AAVRadio@Radios@Devices@Windows@@@Collections@Foundation@Windows@@@Concurrency@@@Z@std@@V?$function@$$A6AXV?$task@P$AAU?$IVectorView@P$AAVRadio@Radios@Devices@Windows@@@Collections@Foundation@Windows@@@Concurrency@@@Z@4@@Z$0 10019640 f   _nodert_generated.obj
 0001:00018648       __ehhandler$?_Perform@?$_Continuation_func_transformer@V?$task@P$AAU?$IVectorView@P$AAVRadio@Radios@Devices@Windows@@@Collections@Foundation@Windows@@@Concurrency@@X@Concurrency@@SA?AV?$function@$$A6AEV?$task@P$AAU?$IVectorView@P$AAVRadio@Radios@Devices@Windows@@@Collections@Foundation@Windows@@@Concurrency@@@Z@std@@V?$function@$$A6AXV?$task@P$AAU?$IVectorView@P$AAVRadio@Radios@Devices@Windows@@@Collections@Foundation@Windows@@@Concurrency@@@Z@4@@Z 10019648 f   _nodert_generated.obj
 0001:00018670       __unwindfunclet$?_Perform@?$_Continuation_func_transformer@V?$task@P$AAVRadio@Radios@Devices@Windows@@@Concurrency@@X@Concurrency@@SA?AV?$function@$$A6AEV?$task@P$AAVRadio@Radios@Devices@Windows@@@Concurrency@@@Z@std@@V?$function@$$A6AXV?$task@P$AAVRadio@Radios@Devices@Windows@@@Concurrency@@@Z@4@@Z$0 10019670 f   _nodert_generated.obj
 0001:00018678       __ehhandler$?_Perform@?$_Continuation_func_transformer@V?$task@P$AAVRadio@Radios@Devices@Windows@@@Concurrency@@X@Concurrency@@SA?AV?$function@$$A6AEV?$task@P$AAVRadio@Radios@Devices@Windows@@@Concurrency@@@Z@std@@V?$function@$$A6AXV?$task@P$AAVRadio@Radios@Devices@Windows@@@Concurrency@@@Z@4@@Z 10019678 f   _nodert_generated.obj
 0001:000186a0       __unwindfunclet$??$_MakeTToUnitFunc@V?$task@P$AAVRadio@Radios@Devices@Windows@@@Concurrency@@@details@Concurrency@@YA?AV?$function@$$A6AEV?$task@P$AAVRadio@Radios@Devices@Windows@@@Concurrency@@@Z@std@@ABV?$function@$$A6AXV?$task@P$AAVRadio@Radios@Devices@Windows@@@Concurrency@@@Z@3@@Z$3 100196a0 f   _nodert_generated.obj
 0001:000186a8       __ehhandler$??$_MakeTToUnitFunc@V?$task@P$AAVRadio@Radios@Devices@Windows@@@Concurrency@@@details@Concurrency@@YA?AV?$function@$$A6AEV?$task@P$AAVRadio@Radios@Devices@Windows@@@Concurrency@@@Z@std@@ABV?$function@$$A6AXV?$task@P$AAVRadio@Radios@Devices@Windows@@@Concurrency@@@Z@3@@Z 100196a8 f   _nodert_generated.obj
 0001:000186d0       __unwindfunclet$??$_MakeTToUnitFunc@V?$task@P$AAU?$IVectorView@P$AAVRadio@Radios@Devices@Windows@@@Collections@Foundation@Windows@@@Concurrency@@@details@Concurrency@@YA?AV?$function@$$A6AEV?$task@P$AAU?$IVectorView@P$AAVRadio@Radios@Devices@Windows@@@Collections@Foundation@Windows@@@Concurrency@@@Z@std@@ABV?$function@$$A6AXV?$task@P$AAU?$IVectorView@P$AAVRadio@Radios@Devices@Windows@@@Collections@Foundation@Windows@@@Concurrency@@@Z@3@@Z$3 100196d0 f   _nodert_generated.obj
 0001:000186d8       __ehhandler$??$_MakeTToUnitFunc@V?$task@P$AAU?$IVectorView@P$AAVRadio@Radios@Devices@Windows@@@Collections@Foundation@Windows@@@Concurrency@@@details@Concurrency@@YA?AV?$function@$$A6AEV?$task@P$AAU?$IVectorView@P$AAVRadio@Radios@Devices@Windows@@@Collections@Foundation@Windows@@@Concurrency@@@Z@std@@ABV?$function@$$A6AXV?$task@P$AAU?$IVectorView@P$AAVRadio@Radios@Devices@Windows@@@Collections@Foundation@Windows@@@Concurrency@@@Z@3@@Z 100196d8 f   _nodert_generated.obj
 0001:00018700       __unwindfunclet$??$_MakeTToUnitFunc@V?$task@W4RadioAccessStatus@Radios@Devices@Windows@@@Concurrency@@@details@Concurrency@@YA?AV?$function@$$A6AEV?$task@W4RadioAccessStatus@Radios@Devices@Windows@@@Concurrency@@@Z@std@@ABV?$function@$$A6AXV?$task@W4RadioAccessStatus@Radios@Devices@Windows@@@Concurrency@@@Z@3@@Z$3 10019700 f   _nodert_generated.obj
 0001:00018708       __ehhandler$??$_MakeTToUnitFunc@V?$task@W4RadioAccessStatus@Radios@Devices@Windows@@@Concurrency@@@details@Concurrency@@YA?AV?$function@$$A6AEV?$task@W4RadioAccessStatus@Radios@Devices@Windows@@@Concurrency@@@Z@std@@ABV?$function@$$A6AXV?$task@W4RadioAccessStatus@Radios@Devices@Windows@@@Concurrency@@@Z@3@@Z 10019708 f   _nodert_generated.obj
 0001:00018730       __unwindfunclet$?_Copy@?$_Func_impl@V<lambda_35b15a041fdff25694358386f486c371>@@V?$allocator@H@std@@X$$V@std@@EBEPAV?$_Func_base@X$$V@2@PAX@Z$1 10019730 f   _nodert_generated.obj
 0001:00018730       __unwindfunclet$?_Move@?$_Func_impl@V<lambda_a114a708d63a441febc5f755bac609dc>@@V?$allocator@H@std@@XV?$function@$$A6AXHPAV?$Local@VValue@v8@@@v8@@@Z@3@@std@@EAEPAV?$_Func_base@XV?$function@$$A6AXHPAV?$Local@VValue@v8@@@v8@@@Z@std@@@2@PAX@Z$1 10019730 f   _nodert_generated.obj
 0001:00018730       __unwindfunclet$?_Copy@?$_Func_impl@V<lambda_55912aef2455062065036d52cc631bbd>@@V?$allocator@H@std@@XV?$function@$$A6AXHPAV?$Local@VValue@v8@@@v8@@@Z@3@@std@@EBEPAV?$_Func_base@XV?$function@$$A6AXHPAV?$Local@VValue@v8@@@v8@@@Z@std@@@2@PAX@Z$1 10019730 f   _nodert_generated.obj
 0001:00018730       __unwindfunclet$?_Move@?$_Func_impl@V<lambda_d9306928c1bd470a6e42b27630d148ed>@@V?$allocator@H@std@@X$$V@std@@EAEPAV?$_Func_base@X$$V@2@PAX@Z$1 10019730 f   _nodert_generated.obj
 0001:00018730       __unwindfunclet$?_Do_call@?$_Func_impl@V<lambda_ec696d6df7687b7d7482072b028188ef>@@V?$allocator@H@std@@X$$V@std@@EAEXXZ$2 10019730 f   _nodert_generated.obj
 0001:00018730       __unwindfunclet$?_Copy@?$_Func_impl@V<lambda_d9306928c1bd470a6e42b27630d148ed>@@V?$allocator@H@std@@X$$V@std@@EBEPAV?$_Func_base@X$$V@2@PAX@Z$1 10019730 f   _nodert_generated.obj
 0001:00018730       __unwindfunclet$?_Copy@?$_Func_impl@V<lambda_c3befff5426f7ddaa4e03d53f00d3a42>@@V?$allocator@H@std@@XV?$function@$$A6AXHPAV?$Local@VValue@v8@@@v8@@@Z@3@@std@@EBEPAV?$_Func_base@XV?$function@$$A6AXHPAV?$Local@VValue@v8@@@v8@@@Z@std@@@2@PAX@Z$1 10019730 f   _nodert_generated.obj
 0001:00018730       __unwindfunclet$?_Copy@?$_Func_impl@V<lambda_a114a708d63a441febc5f755bac609dc>@@V?$allocator@H@std@@XV?$function@$$A6AXHPAV?$Local@VValue@v8@@@v8@@@Z@3@@std@@EBEPAV?$_Func_base@XV?$function@$$A6AXHPAV?$Local@VValue@v8@@@v8@@@Z@std@@@2@PAX@Z$1 10019730 f   _nodert_generated.obj
 0001:00018730       __unwindfunclet$?_Move@?$_Func_impl@V<lambda_55912aef2455062065036d52cc631bbd>@@V?$allocator@H@std@@XV?$function@$$A6AXHPAV?$Local@VValue@v8@@@v8@@@Z@3@@std@@EAEPAV?$_Func_base@XV?$function@$$A6AXHPAV?$Local@VValue@v8@@@v8@@@Z@std@@@2@PAX@Z$1 10019730 f   _nodert_generated.obj
 0001:00018730       __unwindfunclet$?_Move@?$_Func_impl@V<lambda_35b15a041fdff25694358386f486c371>@@V?$allocator@H@std@@X$$V@std@@EAEPAV?$_Func_base@X$$V@2@PAX@Z$1 10019730 f   _nodert_generated.obj
 0001:00018730       __unwindfunclet$?_Move@?$_Func_impl@V<lambda_0fb43142ddbb33ec4e8b38dc9cda485a>@@V?$allocator@H@std@@XV?$function@$$A6AXHPAV?$Local@VValue@v8@@@v8@@@Z@3@@std@@EAEPAV?$_Func_base@XV?$function@$$A6AXHPAV?$Local@VValue@v8@@@v8@@@Z@std@@@2@PAX@Z$1 10019730 f   _nodert_generated.obj
 0001:00018730       __unwindfunclet$?_Copy@?$_Func_impl@V<lambda_0ba1884422591f985dd5dd2788d28634>@@V?$allocator@H@std@@XV?$function@$$A6AXHPAV?$Local@VValue@v8@@@v8@@@Z@3@@std@@EBEPAV?$_Func_base@XV?$function@$$A6AXHPAV?$Local@VValue@v8@@@v8@@@Z@std@@@2@PAX@Z$1 10019730 f   _nodert_generated.obj
 0001:00018730       __unwindfunclet$?_Move@?$_Func_impl@V<lambda_f08ec446ca8b33299a4e48e3172e9b8c>@@V?$allocator@H@std@@X$$V@std@@EAEPAV?$_Func_base@X$$V@2@PAX@Z$1 10019730 f   _nodert_generated.obj
 0001:00018730       __unwindfunclet$?_Copy@?$_Func_impl@V<lambda_f08ec446ca8b33299a4e48e3172e9b8c>@@V?$allocator@H@std@@X$$V@std@@EBEPAV?$_Func_base@X$$V@2@PAX@Z$1 10019730 f   _nodert_generated.obj
 0001:00018730       __unwindfunclet$?_Copy@?$_Func_impl@V<lambda_0fb43142ddbb33ec4e8b38dc9cda485a>@@V?$allocator@H@std@@XV?$function@$$A6AXHPAV?$Local@VValue@v8@@@v8@@@Z@3@@std@@EBEPAV?$_Func_base@XV?$function@$$A6AXHPAV?$Local@VValue@v8@@@v8@@@Z@std@@@2@PAX@Z$1 10019730 f   _nodert_generated.obj
 0001:00018730       __unwindfunclet$?_Move@?$_Func_impl@V<lambda_0532bc16f263f6a2ba7cd1d0d3d2a0cd>@@V?$allocator@H@std@@XV?$function@$$A6AXHPAV?$Local@VValue@v8@@@v8@@@Z@3@@std@@EAEPAV?$_Func_base@XV?$function@$$A6AXHPAV?$Local@VValue@v8@@@v8@@@Z@std@@@2@PAX@Z$1 10019730 f   _nodert_generated.obj
 0001:00018730       __unwindfunclet$?_Copy@?$_Func_impl@V<lambda_0532bc16f263f6a2ba7cd1d0d3d2a0cd>@@V?$allocator@H@std@@XV?$function@$$A6AXHPAV?$Local@VValue@v8@@@v8@@@Z@3@@std@@EBEPAV?$_Func_base@XV?$function@$$A6AXHPAV?$Local@VValue@v8@@@v8@@@Z@std@@@2@PAX@Z$1 10019730 f   _nodert_generated.obj
 0001:00018730       __unwindfunclet$?_Move@?$_Func_impl@V<lambda_0ba1884422591f985dd5dd2788d28634>@@V?$allocator@H@std@@XV?$function@$$A6AXHPAV?$Local@VValue@v8@@@v8@@@Z@3@@std@@EAEPAV?$_Func_base@XV?$function@$$A6AXHPAV?$Local@VValue@v8@@@v8@@@Z@std@@@2@PAX@Z$1 10019730 f   _nodert_generated.obj
 0001:00018730       __unwindfunclet$?_Move@?$_Func_impl@V<lambda_c3befff5426f7ddaa4e03d53f00d3a42>@@V?$allocator@H@std@@XV?$function@$$A6AXHPAV?$Local@VValue@v8@@@v8@@@Z@3@@std@@EAEPAV?$_Func_base@XV?$function@$$A6AXHPAV?$Local@VValue@v8@@@v8@@@Z@std@@@2@PAX@Z$1 10019730 f   _nodert_generated.obj
 0001:00018737       __ehhandler$?_Copy@?$_Func_impl@V<lambda_c3befff5426f7ddaa4e03d53f00d3a42>@@V?$allocator@H@std@@XV?$function@$$A6AXHPAV?$Local@VValue@v8@@@v8@@@Z@3@@std@@EBEPAV?$_Func_base@XV?$function@$$A6AXHPAV?$Local@VValue@v8@@@v8@@@Z@std@@@2@PAX@Z 10019737 f   _nodert_generated.obj
 0001:00018737       __ehhandler$?_Copy@?$_Func_impl@V<lambda_55912aef2455062065036d52cc631bbd>@@V?$allocator@H@std@@XV?$function@$$A6AXHPAV?$Local@VValue@v8@@@v8@@@Z@3@@std@@EBEPAV?$_Func_base@XV?$function@$$A6AXHPAV?$Local@VValue@v8@@@v8@@@Z@std@@@2@PAX@Z 10019737 f   _nodert_generated.obj
 0001:00018737       __ehhandler$?_Do_call@?$_Func_impl@V<lambda_ec696d6df7687b7d7482072b028188ef>@@V?$allocator@H@std@@X$$V@std@@EAEXXZ 10019737 f   _nodert_generated.obj
 0001:00018737       __ehhandler$?_Move@?$_Func_impl@V<lambda_a114a708d63a441febc5f755bac609dc>@@V?$allocator@H@std@@XV?$function@$$A6AXHPAV?$Local@VValue@v8@@@v8@@@Z@3@@std@@EAEPAV?$_Func_base@XV?$function@$$A6AXHPAV?$Local@VValue@v8@@@v8@@@Z@std@@@2@PAX@Z 10019737 f   _nodert_generated.obj
 0001:00018737       __ehhandler$?_Copy@?$_Func_impl@V<lambda_a114a708d63a441febc5f755bac609dc>@@V?$allocator@H@std@@XV?$function@$$A6AXHPAV?$Local@VValue@v8@@@v8@@@Z@3@@std@@EBEPAV?$_Func_base@XV?$function@$$A6AXHPAV?$Local@VValue@v8@@@v8@@@Z@std@@@2@PAX@Z 10019737 f   _nodert_generated.obj
 0001:00018737       __ehhandler$?_Move@?$_Func_impl@V<lambda_55912aef2455062065036d52cc631bbd>@@V?$allocator@H@std@@XV?$function@$$A6AXHPAV?$Local@VValue@v8@@@v8@@@Z@3@@std@@EAEPAV?$_Func_base@XV?$function@$$A6AXHPAV?$Local@VValue@v8@@@v8@@@Z@std@@@2@PAX@Z 10019737 f   _nodert_generated.obj
 0001:00018737       __ehhandler$?_Move@?$_Func_impl@V<lambda_c3befff5426f7ddaa4e03d53f00d3a42>@@V?$allocator@H@std@@XV?$function@$$A6AXHPAV?$Local@VValue@v8@@@v8@@@Z@3@@std@@EAEPAV?$_Func_base@XV?$function@$$A6AXHPAV?$Local@VValue@v8@@@v8@@@Z@std@@@2@PAX@Z 10019737 f   _nodert_generated.obj
 0001:00018737       __ehhandler$?_Move@?$_Func_impl@V<lambda_35b15a041fdff25694358386f486c371>@@V?$allocator@H@std@@X$$V@std@@EAEPAV?$_Func_base@X$$V@2@PAX@Z 10019737 f   _nodert_generated.obj
 0001:00018737       __ehhandler$?_Move@?$_Func_impl@V<lambda_0ba1884422591f985dd5dd2788d28634>@@V?$allocator@H@std@@XV?$function@$$A6AXHPAV?$Local@VValue@v8@@@v8@@@Z@3@@std@@EAEPAV?$_Func_base@XV?$function@$$A6AXHPAV?$Local@VValue@v8@@@v8@@@Z@std@@@2@PAX@Z 10019737 f   _nodert_generated.obj
 0001:00018737       __ehhandler$?_Move@?$_Func_impl@V<lambda_0532bc16f263f6a2ba7cd1d0d3d2a0cd>@@V?$allocator@H@std@@XV?$function@$$A6AXHPAV?$Local@VValue@v8@@@v8@@@Z@3@@std@@EAEPAV?$_Func_base@XV?$function@$$A6AXHPAV?$Local@VValue@v8@@@v8@@@Z@std@@@2@PAX@Z 10019737 f   _nodert_generated.obj
 0001:00018737       __ehhandler$?_Copy@?$_Func_impl@V<lambda_0ba1884422591f985dd5dd2788d28634>@@V?$allocator@H@std@@XV?$function@$$A6AXHPAV?$Local@VValue@v8@@@v8@@@Z@3@@std@@EBEPAV?$_Func_base@XV?$function@$$A6AXHPAV?$Local@VValue@v8@@@v8@@@Z@std@@@2@PAX@Z 10019737 f   _nodert_generated.obj
 0001:00018737       __ehhandler$?_Copy@?$_Func_impl@V<lambda_35b15a041fdff25694358386f486c371>@@V?$allocator@H@std@@X$$V@std@@EBEPAV?$_Func_base@X$$V@2@PAX@Z 10019737 f   _nodert_generated.obj
 0001:00018737       __ehhandler$?_Copy@?$_Func_impl@V<lambda_0fb43142ddbb33ec4e8b38dc9cda485a>@@V?$allocator@H@std@@XV?$function@$$A6AXHPAV?$Local@VValue@v8@@@v8@@@Z@3@@std@@EBEPAV?$_Func_base@XV?$function@$$A6AXHPAV?$Local@VValue@v8@@@v8@@@Z@std@@@2@PAX@Z 10019737 f   _nodert_generated.obj
 0001:00018737       __ehhandler$?_Copy@?$_Func_impl@V<lambda_0532bc16f263f6a2ba7cd1d0d3d2a0cd>@@V?$allocator@H@std@@XV?$function@$$A6AXHPAV?$Local@VValue@v8@@@v8@@@Z@3@@std@@EBEPAV?$_Func_base@XV?$function@$$A6AXHPAV?$Local@VValue@v8@@@v8@@@Z@std@@@2@PAX@Z 10019737 f   _nodert_generated.obj
 0001:00018737       __ehhandler$?_Copy@?$_Func_impl@V<lambda_f08ec446ca8b33299a4e48e3172e9b8c>@@V?$allocator@H@std@@X$$V@std@@EBEPAV?$_Func_base@X$$V@2@PAX@Z 10019737 f   _nodert_generated.obj
 0001:00018737       __ehhandler$?_Move@?$_Func_impl@V<lambda_f08ec446ca8b33299a4e48e3172e9b8c>@@V?$allocator@H@std@@X$$V@std@@EAEPAV?$_Func_base@X$$V@2@PAX@Z 10019737 f   _nodert_generated.obj
 0001:00018737       __ehhandler$?_Move@?$_Func_impl@V<lambda_d9306928c1bd470a6e42b27630d148ed>@@V?$allocator@H@std@@X$$V@std@@EAEPAV?$_Func_base@X$$V@2@PAX@Z 10019737 f   _nodert_generated.obj
 0001:00018737       __ehhandler$?_Copy@?$_Func_impl@V<lambda_d9306928c1bd470a6e42b27630d148ed>@@V?$allocator@H@std@@X$$V@std@@EBEPAV?$_Func_base@X$$V@2@PAX@Z 10019737 f   _nodert_generated.obj
 0001:00018737       __ehhandler$?_Move@?$_Func_impl@V<lambda_0fb43142ddbb33ec4e8b38dc9cda485a>@@V?$allocator@H@std@@XV?$function@$$A6AXHPAV?$Local@VValue@v8@@@v8@@@Z@3@@std@@EAEPAV?$_Func_base@XV?$function@$$A6AXHPAV?$Local@VValue@v8@@@v8@@@Z@std@@@2@PAX@Z 10019737 f   _nodert_generated.obj
 0001:00018760       __unwindfunclet$?_Do_call@?$_Func_impl@V<lambda_ce7ee830788d0d86ae4c2908836cc097>@@V?$allocator@H@std@@P$AAVRadio@Radios@Devices@Windows@@V?$Local@VValue@v8@@@v8@@@std@@EAEP$AAVRadio@Radios@Devices@Windows@@$$QAV?$Local@VValue@v8@@@v8@@@Z$4 10019760 f   _nodert_generated.obj
 0001:0001876b       __unwindfunclet$?_Do_call@?$_Func_impl@V<lambda_ce7ee830788d0d86ae4c2908836cc097>@@V?$allocator@H@std@@P$AAVRadio@Radios@Devices@Windows@@V?$Local@VValue@v8@@@v8@@@std@@EAEP$AAVRadio@Radios@Devices@Windows@@$$QAV?$Local@VValue@v8@@@v8@@@Z$3 1001976b f   _nodert_generated.obj
 0001:00018776       __unwindfunclet$?_Do_call@?$_Func_impl@V<lambda_ce7ee830788d0d86ae4c2908836cc097>@@V?$allocator@H@std@@P$AAVRadio@Radios@Devices@Windows@@V?$Local@VValue@v8@@@v8@@@std@@EAEP$AAVRadio@Radios@Devices@Windows@@$$QAV?$Local@VValue@v8@@@v8@@@Z$2 10019776 f   _nodert_generated.obj
 0001:00018781       __unwindfunclet$?_Do_call@?$_Func_impl@V<lambda_ce7ee830788d0d86ae4c2908836cc097>@@V?$allocator@H@std@@P$AAVRadio@Radios@Devices@Windows@@V?$Local@VValue@v8@@@v8@@@std@@EAEP$AAVRadio@Radios@Devices@Windows@@$$QAV?$Local@VValue@v8@@@v8@@@Z$1 10019781 f   _nodert_generated.obj
 0001:0001878c       __unwindfunclet$?_Do_call@?$_Func_impl@V<lambda_ce7ee830788d0d86ae4c2908836cc097>@@V?$allocator@H@std@@P$AAVRadio@Radios@Devices@Windows@@V?$Local@VValue@v8@@@v8@@@std@@EAEP$AAVRadio@Radios@Devices@Windows@@$$QAV?$Local@VValue@v8@@@v8@@@Z$0 1001978c f   _nodert_generated.obj
 0001:00018797       __ehhandler$?_Do_call@?$_Func_impl@V<lambda_ce7ee830788d0d86ae4c2908836cc097>@@V?$allocator@H@std@@P$AAVRadio@Radios@Devices@Windows@@V?$Local@VValue@v8@@@v8@@@std@@EAEP$AAVRadio@Radios@Devices@Windows@@$$QAV?$Local@VValue@v8@@@v8@@@Z 10019797 f   _nodert_generated.obj
 0001:000187c0       __unwindfunclet$?_Move@?$_Func_impl@V<lambda_847758569c482b5c3071d04a93fd5a03>@@V?$allocator@H@std@@X$$V@std@@EAEPAV?$_Func_base@X$$V@2@PAX@Z$0 100197c0 f   _nodert_generated.obj
 0001:000187c5       __unwindfunclet$?_Move@?$_Func_impl@V<lambda_847758569c482b5c3071d04a93fd5a03>@@V?$allocator@H@std@@X$$V@std@@EAEPAV?$_Func_base@X$$V@2@PAX@Z$1 100197c5 f   _nodert_generated.obj
 0001:000187cd       __ehhandler$?_Move@?$_Func_impl@V<lambda_847758569c482b5c3071d04a93fd5a03>@@V?$allocator@H@std@@X$$V@std@@EAEPAV?$_Func_base@X$$V@2@PAX@Z 100197cd f   _nodert_generated.obj
 0001:000187f0       __unwindfunclet$?_Copy@?$_Func_impl@V<lambda_847758569c482b5c3071d04a93fd5a03>@@V?$allocator@H@std@@X$$V@std@@EBEPAV?$_Func_base@X$$V@2@PAX@Z$0 100197f0 f   _nodert_generated.obj
 0001:000187f5       __ehhandler$?_Copy@?$_Func_impl@V<lambda_847758569c482b5c3071d04a93fd5a03>@@V?$allocator@H@std@@X$$V@std@@EBEPAV?$_Func_base@X$$V@2@PAX@Z 100197f5 f   _nodert_generated.obj
 0001:00018810       __unwindfunclet$?_Do_call@?$_Func_impl@V<lambda_5e5ab22ea98f4361dbf159481d01f54d>@@V?$allocator@H@std@@X$$V@std@@EAEXXZ$1 10019810 f   _nodert_generated.obj
 0001:00018818       __ehhandler$?_Do_call@?$_Func_impl@V<lambda_5e5ab22ea98f4361dbf159481d01f54d>@@V?$allocator@H@std@@X$$V@std@@EAEXXZ 10019818 f   _nodert_generated.obj
 0001:00018840       __unwindfunclet$??R?$_Func_class@EV?$task@W4RadioAccessStatus@Radios@Devices@Windows@@@Concurrency@@@std@@QBEEV?$task@W4RadioAccessStatus@Radios@Devices@Windows@@@Concurrency@@@Z$0 10019840 f   _nodert_generated.obj
 0001:00018840       __unwindfunclet$??R?$_Func_class@EV?$task@P$AAU?$IVectorView@P$AAVRadio@Radios@Devices@Windows@@@Collections@Foundation@Windows@@@Concurrency@@@std@@QBEEV?$task@P$AAU?$IVectorView@P$AAVRadio@Radios@Devices@Windows@@@Collections@Foundation@Windows@@@Concurrency@@@Z$0 10019840 f   _nodert_generated.obj
 0001:00018840       __unwindfunclet$??R?$_Func_class@EV?$task@P$AAVRadio@Radios@Devices@Windows@@@Concurrency@@@std@@QBEEV?$task@P$AAVRadio@Radios@Devices@Windows@@@Concurrency@@@Z$0 10019840 f   _nodert_generated.obj
 0001:00018848       __ehhandler$??R?$_Func_class@EV?$task@W4RadioAccessStatus@Radios@Devices@Windows@@@Concurrency@@@std@@QBEEV?$task@W4RadioAccessStatus@Radios@Devices@Windows@@@Concurrency@@@Z 10019848 f   _nodert_generated.obj
 0001:00018848       __ehhandler$??R?$_Func_class@EV?$task@P$AAVRadio@Radios@Devices@Windows@@@Concurrency@@@std@@QBEEV?$task@P$AAVRadio@Radios@Devices@Windows@@@Concurrency@@@Z 10019848 f   _nodert_generated.obj
 0001:00018848       __ehhandler$??R?$_Func_class@EV?$task@P$AAU?$IVectorView@P$AAVRadio@Radios@Devices@Windows@@@Collections@Foundation@Windows@@@Concurrency@@@std@@QBEEV?$task@P$AAU?$IVectorView@P$AAVRadio@Radios@Devices@Windows@@@Collections@Foundation@Windows@@@Concurrency@@@Z 10019848 f   _nodert_generated.obj
 0001:00018870       __unwindfunclet$??R?$_Func_class@XV?$task@W4RadioAccessStatus@Radios@Devices@Windows@@@Concurrency@@@std@@QBEXV?$task@W4RadioAccessStatus@Radios@Devices@Windows@@@Concurrency@@@Z$0 10019870 f   _nodert_generated.obj
 0001:00018870       __unwindfunclet$??R?$_Func_class@XV?$task@P$AAU?$IVectorView@P$AAVRadio@Radios@Devices@Windows@@@Collections@Foundation@Windows@@@Concurrency@@@std@@QBEXV?$task@P$AAU?$IVectorView@P$AAVRadio@Radios@Devices@Windows@@@Collections@Foundation@Windows@@@Concurrency@@@Z$0 10019870 f   _nodert_generated.obj
 0001:00018870       __unwindfunclet$??R?$_Func_class@XV?$task@P$AAVRadio@Radios@Devices@Windows@@@Concurrency@@@std@@QBEXV?$task@P$AAVRadio@Radios@Devices@Windows@@@Concurrency@@@Z$0 10019870 f   _nodert_generated.obj
 0001:00018878       __ehhandler$??R?$_Func_class@XV?$task@P$AAVRadio@Radios@Devices@Windows@@@Concurrency@@@std@@QBEXV?$task@P$AAVRadio@Radios@Devices@Windows@@@Concurrency@@@Z 10019878 f   _nodert_generated.obj
 0001:00018878       __ehhandler$??R?$_Func_class@XV?$task@P$AAU?$IVectorView@P$AAVRadio@Radios@Devices@Windows@@@Collections@Foundation@Windows@@@Concurrency@@@std@@QBEXV?$task@P$AAU?$IVectorView@P$AAVRadio@Radios@Devices@Windows@@@Collections@Foundation@Windows@@@Concurrency@@@Z 10019878 f   _nodert_generated.obj
 0001:00018878       __ehhandler$??R?$_Func_class@XV?$task@W4RadioAccessStatus@Radios@Devices@Windows@@@Concurrency@@@std@@QBEXV?$task@W4RadioAccessStatus@Radios@Devices@Windows@@@Concurrency@@@Z 10019878 f   _nodert_generated.obj
 0001:000188a0       __unwindfunclet$??$?0V<lambda_c27880a56ba3ded47134e23bf355db13>@@EX@?$function@$$A6AEV?$task@P$AAVRadio@Radios@Devices@Windows@@@Concurrency@@@Z@std@@QAE@V<lambda_c27880a56ba3ded47134e23bf355db13>@@@Z$0 100198a0 f   _nodert_generated.obj
 0001:000188a8       __unwindfunclet$??$?0V<lambda_c27880a56ba3ded47134e23bf355db13>@@EX@?$function@$$A6AEV?$task@P$AAVRadio@Radios@Devices@Windows@@@Concurrency@@@Z@std@@QAE@V<lambda_c27880a56ba3ded47134e23bf355db13>@@@Z$1 100198a8 f   _nodert_generated.obj
 0001:000188b0       __unwindfunclet$??$?0V<lambda_c27880a56ba3ded47134e23bf355db13>@@EX@?$function@$$A6AEV?$task@P$AAVRadio@Radios@Devices@Windows@@@Concurrency@@@Z@std@@QAE@V<lambda_c27880a56ba3ded47134e23bf355db13>@@@Z$2 100198b0 f   _nodert_generated.obj
 0001:000188b5       __unwindfunclet$??$?0V<lambda_c27880a56ba3ded47134e23bf355db13>@@EX@?$function@$$A6AEV?$task@P$AAVRadio@Radios@Devices@Windows@@@Concurrency@@@Z@std@@QAE@V<lambda_c27880a56ba3ded47134e23bf355db13>@@@Z$3 100198b5 f   _nodert_generated.obj
 0001:000188bd       __unwindfunclet$??$?0V<lambda_c27880a56ba3ded47134e23bf355db13>@@EX@?$function@$$A6AEV?$task@P$AAVRadio@Radios@Devices@Windows@@@Concurrency@@@Z@std@@QAE@V<lambda_c27880a56ba3ded47134e23bf355db13>@@@Z$8 100198bd f   _nodert_generated.obj
 0001:000188c5       __ehhandler$??$?0V<lambda_c27880a56ba3ded47134e23bf355db13>@@EX@?$function@$$A6AEV?$task@P$AAVRadio@Radios@Devices@Windows@@@Concurrency@@@Z@std@@QAE@V<lambda_c27880a56ba3ded47134e23bf355db13>@@@Z 100198c5 f   _nodert_generated.obj
 0001:000188e0       __unwindfunclet$??$?0V<lambda_b790627109c9d7e4b89a786d55a0c462>@@EX@?$function@$$A6AEV?$task@P$AAU?$IVectorView@P$AAVRadio@Radios@Devices@Windows@@@Collections@Foundation@Windows@@@Concurrency@@@Z@std@@QAE@V<lambda_b790627109c9d7e4b89a786d55a0c462>@@@Z$0 100198e0 f   _nodert_generated.obj
 0001:000188e8       __unwindfunclet$??$?0V<lambda_b790627109c9d7e4b89a786d55a0c462>@@EX@?$function@$$A6AEV?$task@P$AAU?$IVectorView@P$AAVRadio@Radios@Devices@Windows@@@Collections@Foundation@Windows@@@Concurrency@@@Z@std@@QAE@V<lambda_b790627109c9d7e4b89a786d55a0c462>@@@Z$1 100198e8 f   _nodert_generated.obj
 0001:000188f0       __unwindfunclet$??$?0V<lambda_b790627109c9d7e4b89a786d55a0c462>@@EX@?$function@$$A6AEV?$task@P$AAU?$IVectorView@P$AAVRadio@Radios@Devices@Windows@@@Collections@Foundation@Windows@@@Concurrency@@@Z@std@@QAE@V<lambda_b790627109c9d7e4b89a786d55a0c462>@@@Z$2 100198f0 f   _nodert_generated.obj
 0001:000188f5       __unwindfunclet$??$?0V<lambda_b790627109c9d7e4b89a786d55a0c462>@@EX@?$function@$$A6AEV?$task@P$AAU?$IVectorView@P$AAVRadio@Radios@Devices@Windows@@@Collections@Foundation@Windows@@@Concurrency@@@Z@std@@QAE@V<lambda_b790627109c9d7e4b89a786d55a0c462>@@@Z$3 100198f5 f   _nodert_generated.obj
 0001:000188fd       __unwindfunclet$??$?0V<lambda_b790627109c9d7e4b89a786d55a0c462>@@EX@?$function@$$A6AEV?$task@P$AAU?$IVectorView@P$AAVRadio@Radios@Devices@Windows@@@Collections@Foundation@Windows@@@Concurrency@@@Z@std@@QAE@V<lambda_b790627109c9d7e4b89a786d55a0c462>@@@Z$8 100198fd f   _nodert_generated.obj
 0001:00018905       __ehhandler$??$?0V<lambda_b790627109c9d7e4b89a786d55a0c462>@@EX@?$function@$$A6AEV?$task@P$AAU?$IVectorView@P$AAVRadio@Radios@Devices@Windows@@@Collections@Foundation@Windows@@@Concurrency@@@Z@std@@QAE@V<lambda_b790627109c9d7e4b89a786d55a0c462>@@@Z 10019905 f   _nodert_generated.obj
 0001:00018920       __unwindfunclet$??$?0V<lambda_0ca07c6226f46e76875b5e248892ce5b>@@EX@?$function@$$A6AEV?$task@W4RadioAccessStatus@Radios@Devices@Windows@@@Concurrency@@@Z@std@@QAE@V<lambda_0ca07c6226f46e76875b5e248892ce5b>@@@Z$0 10019920 f   _nodert_generated.obj
 0001:00018928       __unwindfunclet$??$?0V<lambda_0ca07c6226f46e76875b5e248892ce5b>@@EX@?$function@$$A6AEV?$task@W4RadioAccessStatus@Radios@Devices@Windows@@@Concurrency@@@Z@std@@QAE@V<lambda_0ca07c6226f46e76875b5e248892ce5b>@@@Z$1 10019928 f   _nodert_generated.obj
 0001:00018930       __unwindfunclet$??$?0V<lambda_0ca07c6226f46e76875b5e248892ce5b>@@EX@?$function@$$A6AEV?$task@W4RadioAccessStatus@Radios@Devices@Windows@@@Concurrency@@@Z@std@@QAE@V<lambda_0ca07c6226f46e76875b5e248892ce5b>@@@Z$2 10019930 f   _nodert_generated.obj
 0001:00018935       __unwindfunclet$??$?0V<lambda_0ca07c6226f46e76875b5e248892ce5b>@@EX@?$function@$$A6AEV?$task@W4RadioAccessStatus@Radios@Devices@Windows@@@Concurrency@@@Z@std@@QAE@V<lambda_0ca07c6226f46e76875b5e248892ce5b>@@@Z$3 10019935 f   _nodert_generated.obj
 0001:0001893d       __unwindfunclet$??$?0V<lambda_0ca07c6226f46e76875b5e248892ce5b>@@EX@?$function@$$A6AEV?$task@W4RadioAccessStatus@Radios@Devices@Windows@@@Concurrency@@@Z@std@@QAE@V<lambda_0ca07c6226f46e76875b5e248892ce5b>@@@Z$8 1001993d f   _nodert_generated.obj
 0001:00018945       __ehhandler$??$?0V<lambda_0ca07c6226f46e76875b5e248892ce5b>@@EX@?$function@$$A6AEV?$task@W4RadioAccessStatus@Radios@Devices@Windows@@@Concurrency@@@Z@std@@QAE@V<lambda_0ca07c6226f46e76875b5e248892ce5b>@@@Z 10019945 f   _nodert_generated.obj
 0001:00018960       __unwindfunclet$??$_AsyncInit@W4RadioAccessStatus@Radios@Devices@Windows@@W41234@@_Task_impl_base@details@Concurrency@@SAXABV?$shared_ptr@U?$_Task_impl@W4RadioAccessStatus@Radios@Devices@Windows@@@details@Concurrency@@@std@@P$AAU?$IAsyncOperation@W4RadioAccessStatus@Radios@Devices@Windows@@@Foundation@Windows@@@Z$0 10019960 f   _nodert_generated.obj
 0001:00018960       __unwindfunclet$??$_AsyncInit@P$AAVRadio@Radios@Devices@Windows@@P$AAV1234@@_Task_impl_base@details@Concurrency@@SAXABV?$shared_ptr@U?$_Task_impl@P$AAVRadio@Radios@Devices@Windows@@@details@Concurrency@@@std@@P$AAU?$IAsyncOperation@P$AAVRadio@Radios@Devices@Windows@@@Foundation@Windows@@@Z$0 10019960 f   _nodert_generated.obj
 0001:00018960       __unwindfunclet$??$_AsyncInit@P$AAU?$IVectorView@P$AAVRadio@Radios@Devices@Windows@@@Collections@Foundation@Windows@@P$AAU1234@@_Task_impl_base@details@Concurrency@@SAXABV?$shared_ptr@U?$_Task_impl@P$AAU?$IVectorView@P$AAVRadio@Radios@Devices@Windows@@@Collections@Foundation@Windows@@@details@Concurrency@@@std@@P$AAU?$IAsyncOperation@P$AAU?$IVectorView@P$AAVRadio@Radios@Devices@Windows@@@Collections@Foundation@Windows@@@Foundation@Windows@@@Z$0 10019960 f   _nodert_generated.obj
 0001:00018965       __unwindfunclet$??$_AsyncInit@P$AAVRadio@Radios@Devices@Windows@@P$AAV1234@@_Task_impl_base@details@Concurrency@@SAXABV?$shared_ptr@U?$_Task_impl@P$AAVRadio@Radios@Devices@Windows@@@details@Concurrency@@@std@@P$AAU?$IAsyncOperation@P$AAVRadio@Radios@Devices@Windows@@@Foundation@Windows@@@Z$2 10019965 f   _nodert_generated.obj
 0001:00018965       __unwindfunclet$??$_AsyncInit@W4RadioAccessStatus@Radios@Devices@Windows@@W41234@@_Task_impl_base@details@Concurrency@@SAXABV?$shared_ptr@U?$_Task_impl@W4RadioAccessStatus@Radios@Devices@Windows@@@details@Concurrency@@@std@@P$AAU?$IAsyncOperation@W4RadioAccessStatus@Radios@Devices@Windows@@@Foundation@Windows@@@Z$2 10019965 f   _nodert_generated.obj
 0001:00018965       __unwindfunclet$??$_AsyncInit@P$AAU?$IVectorView@P$AAVRadio@Radios@Devices@Windows@@@Collections@Foundation@Windows@@P$AAU1234@@_Task_impl_base@details@Concurrency@@SAXABV?$shared_ptr@U?$_Task_impl@P$AAU?$IVectorView@P$AAVRadio@Radios@Devices@Windows@@@Collections@Foundation@Windows@@@details@Concurrency@@@std@@P$AAU?$IAsyncOperation@P$AAU?$IVectorView@P$AAVRadio@Radios@Devices@Windows@@@Collections@Foundation@Windows@@@Foundation@Windows@@@Z$2 10019965 f   _nodert_generated.obj
 0001:0001896d       __ehhandler$??$_AsyncInit@P$AAVRadio@Radios@Devices@Windows@@P$AAV1234@@_Task_impl_base@details@Concurrency@@SAXABV?$shared_ptr@U?$_Task_impl@P$AAVRadio@Radios@Devices@Windows@@@details@Concurrency@@@std@@P$AAU?$IAsyncOperation@P$AAVRadio@Radios@Devices@Windows@@@Foundation@Windows@@@Z 1001996d f   _nodert_generated.obj
 0001:0001896d       __ehhandler$??$_AsyncInit@P$AAU?$IVectorView@P$AAVRadio@Radios@Devices@Windows@@@Collections@Foundation@Windows@@P$AAU1234@@_Task_impl_base@details@Concurrency@@SAXABV?$shared_ptr@U?$_Task_impl@P$AAU?$IVectorView@P$AAVRadio@Radios@Devices@Windows@@@Collections@Foundation@Windows@@@details@Concurrency@@@std@@P$AAU?$IAsyncOperation@P$AAU?$IVectorView@P$AAVRadio@Radios@Devices@Windows@@@Collections@Foundation@Windows@@@Foundation@Windows@@@Z 1001996d f   _nodert_generated.obj
 0001:0001896d       __ehhandler$??$_AsyncInit@W4RadioAccessStatus@Radios@Devices@Windows@@W41234@@_Task_impl_base@details@Concurrency@@SAXABV?$shared_ptr@U?$_Task_impl@W4RadioAccessStatus@Radios@Devices@Windows@@@details@Concurrency@@@std@@P$AAU?$IAsyncOperation@W4RadioAccessStatus@Radios@Devices@Windows@@@Foundation@Windows@@@Z 1001996d f   _nodert_generated.obj
 0001:00018990       __unwindfunclet$??R<lambda_1d4db423df950a9db6d5162d107d760e>@@QAEXP$AAU?$IAsyncOperation@P$AAVRadio@Radios@Devices@Windows@@@Foundation@Windows@@W4AsyncStatus@23@@Z$2 10019990 f   _nodert_generated.obj
 0001:0001899b       __unwindfunclet$??R<lambda_1d4db423df950a9db6d5162d107d760e>@@QAEXP$AAU?$IAsyncOperation@P$AAVRadio@Radios@Devices@Windows@@@Foundation@Windows@@W4AsyncStatus@23@@Z$3 1001999b f   _nodert_generated.obj
 0001:000189a6       __unwindfunclet$??R<lambda_1d4db423df950a9db6d5162d107d760e>@@QAEXP$AAU?$IAsyncOperation@P$AAVRadio@Radios@Devices@Windows@@@Foundation@Windows@@W4AsyncStatus@23@@Z$4 100199a6 f   _nodert_generated.obj
